; Listing generated by Microsoft (R) Optimizing Compiler Version 19.39.33522.0 

include listing.inc

INCLUDELIB OLDNAMES

PUBLIC	??_C@_1BK@EJBALEBG@?$AAK?$AAe?$AAr?$AAn?$AAe?$AAl?$AA3?$AA2?$AA?4?$AAd?$AAl?$AAl@ ; `string'
PUBLIC	??_C@_0N@HAOHNMDE@Kernel32?4dll@		; `string'
PUBLIC	??_C@_0L@OKGHKNFP@User32?4dll@			; `string'
PUBLIC	?g_IsRstrtMgrLoaded@@3HA			; g_IsRstrtMgrLoaded
PUBLIC	?g_hKernel32@@3PEAUHINSTANCE__@@EA		; g_hKernel32
PUBLIC	?g_ApiCache@@3PEAPEAXEA				; g_ApiCache
PUBLIC	?pLoadLibraryA@@3P6APEAUHINSTANCE__@@PEBD@ZEA	; pLoadLibraryA
EXTRN	malloc:PROC
EXTRN	__report_rangecheckfailure:PROC
?g_IsRstrtMgrLoaded@@3HA DD 01H DUP (?)			; g_IsRstrtMgrLoaded
	ALIGN	8

?g_hKernel32@@3PEAUHINSTANCE__@@EA DQ 01H DUP (?)	; g_hKernel32
?g_ApiCache@@3PEAPEAXEA DQ 01H DUP (?)			; g_ApiCache
?pLoadLibraryA@@3P6APEAUHINSTANCE__@@PEBD@ZEA DQ 01H DUP (?) ; pLoadLibraryA
_BSS	ENDS
;	COMDAT ??_C@_0L@OKGHKNFP@User32?4dll@
CONST	SEGMENT
??_C@_0L@OKGHKNFP@User32?4dll@ DB 'User32.dll', 00H	; `string'
CONST	ENDS
;	COMDAT ??_C@_0N@HAOHNMDE@Kernel32?4dll@
CONST	SEGMENT
??_C@_0N@HAOHNMDE@Kernel32?4dll@ DB 'Kernel32.dll', 00H	; `string'
CONST	ENDS
;	COMDAT ??_C@_1BK@EJBALEBG@?$AAK?$AAe?$AAr?$AAn?$AAe?$AAl?$AA3?$AA2?$AA?4?$AAd?$AAl?$AAl@
CONST	SEGMENT
??_C@_1BK@EJBALEBG@?$AAK?$AAe?$AAr?$AAn?$AAe?$AAl?$AA3?$AA2?$AA?4?$AAd?$AAl?$AAl@ DB 'K'
	DB	00H, 'e', 00H, 'r', 00H, 'n', 00H, 'e', 00H, 'l', 00H, '3', 00H
	DB	'2', 00H, '.', 00H, 'd', 00H, 'l', 00H, 'l', 00H, 00H, 00H ; `string'
?_Fake_alloc@std@@3U_Fake_allocator@1@B	ORG $+1		; std::_Fake_alloc
PUBLIC	?isDecrypted@?$MetaBuffer@$0DL@$0EH@U?$integer_sequence@_K$0A@$00$01$02$03$04$05$06$07$08$09$0L@$0M@$0N@$0O@$0P@$0BA@$0BB@$0BC@$0BD@$0BE@$0BF@$0BG@$0BH@$0BI@$0BJ@@std@@@@QEBA_NXZ ; MetaBuffer<59,71,std::integer_sequence<unsigned __int64,0,1,2,3,4,5,6,7,8,9,10,11,12,13,14,15,16,17,18,19,20,21,22,23,24,25> >::isDecrypted
PUBLIC	?encrypt@?$MetaBuffer@$0DL@$0EH@U?$integer_sequence@_K$0A@$00$01$02$03$04$05$06$07$08$09$0L@$0M@$0N@$0O@$0P@$0BA@$0BB@$0BC@$0BD@$0BE@$0BF@$0BG@$0BH@$0BI@$0BJ@@std@@@@AEBAEE@Z ; MetaBuffer<59,71,std::integer_sequence<unsigned __int64,0,1,2,3,4,5,6,7,8,9,10,11,12,13,14,15,16,17,18,19,20,21,22,23,24,25> >::encrypt
PUBLIC	?decrypt@?$MetaBuffer@$0DL@$0EH@U?$integer_sequence@_K$0A@$00$01$02$03$04$05$06$07$08$09$0L@$0M@$0N@$0O@$0P@$0BA@$0BB@$0BC@$0BD@$0BE@$0BF@$0BG@$0BH@$0BI@$0BJ@@std@@@@AEBAEE@Z ; MetaBuffer<59,71,std::integer_sequence<unsigned __int64,0,1,2,3,4,5,6,7,8,9,10,11,12,13,14,15,16,17,18,19,20,21,22,23,24,25> >::decrypt
PUBLIC	?isDecrypted@?$MetaBuffer@$0CL@$0FO@U?$integer_sequence@_K$0A@$00$01$02$03$04$05$06$07$08$09$0L@$0M@@std@@@@QEBA_NXZ ; MetaBuffer<43,94,std::integer_sequence<unsigned __int64,0,1,2,3,4,5,6,7,8,9,10,11,12> >::isDecrypted
PUBLIC	?encrypt@?$MetaBuffer@$0CL@$0FO@U?$integer_sequence@_K$0A@$00$01$02$03$04$05$06$07$08$09$0L@$0M@@std@@@@AEBAEE@Z ; MetaBuffer<43,94,std::integer_sequence<unsigned __int64,0,1,2,3,4,5,6,7,8,9,10,11,12> >::encrypt
PUBLIC	?decrypt@?$MetaBuffer@$0CL@$0FO@U?$integer_sequence@_K$0A@$00$01$02$03$04$05$06$07$08$09$0L@$0M@@std@@@@AEBAEE@Z ; MetaBuffer<43,94,std::integer_sequence<unsigned __int64,0,1,2,3,4,5,6,7,8,9,10,11,12> >::decrypt
PUBLIC	?isDecrypted@?$MetaBuffer@$04$0GH@U?$integer_sequence@_K$0A@$00$01$02$03$04$05$06$07$08$09$0L@$0M@@std@@@@QEBA_NXZ ; MetaBuffer<5,103,std::integer_sequence<unsigned __int64,0,1,2,3,4,5,6,7,8,9,10,11,12> >::isDecrypted
PUBLIC	?encrypt@?$MetaBuffer@$04$0GH@U?$integer_sequence@_K$0A@$00$01$02$03$04$05$06$07$08$09$0L@$0M@@std@@@@AEBAEE@Z ; MetaBuffer<5,103,std::integer_sequence<unsigned __int64,0,1,2,3,4,5,6,7,8,9,10,11,12> >::encrypt
PUBLIC	?decrypt@?$MetaBuffer@$04$0GH@U?$integer_sequence@_K$0A@$00$01$02$03$04$05$06$07$08$09$0L@$0M@@std@@@@AEBAEE@Z ; MetaBuffer<5,103,std::integer_sequence<unsigned __int64,0,1,2,3,4,5,6,7,8,9,10,11,12> >::decrypt
PUBLIC	?isDecrypted@?$MetaBuffer@$0EH@$0O@U?$integer_sequence@_K$0A@$00$01$02$03$04$05$06$07$08$09$0L@$0M@@std@@@@QEBA_NXZ ; MetaBuffer<71,14,std::integer_sequence<unsigned __int64,0,1,2,3,4,5,6,7,8,9,10,11,12> >::isDecrypted
PUBLIC	?encrypt@?$MetaBuffer@$0EH@$0O@U?$integer_sequence@_K$0A@$00$01$02$03$04$05$06$07$08$09$0L@$0M@@std@@@@AEBAEE@Z ; MetaBuffer<71,14,std::integer_sequence<unsigned __int64,0,1,2,3,4,5,6,7,8,9,10,11,12> >::encrypt
PUBLIC	?decrypt@?$MetaBuffer@$0EH@$0O@U?$integer_sequence@_K$0A@$00$01$02$03$04$05$06$07$08$09$0L@$0M@@std@@@@AEBAEE@Z ; MetaBuffer<71,14,std::integer_sequence<unsigned __int64,0,1,2,3,4,5,6,7,8,9,10,11,12> >::decrypt
PUBLIC	?isDecrypted@?$MetaBuffer@$0GN@$0HJ@U?$integer_sequence@_K$0A@$00$01$02$03$04$05$06$07$08$09$0L@$0M@@std@@@@QEBA_NXZ ; MetaBuffer<109,121,std::integer_sequence<unsigned __int64,0,1,2,3,4,5,6,7,8,9,10,11,12> >::isDecrypted
PUBLIC	?encrypt@?$MetaBuffer@$0GN@$0HJ@U?$integer_sequence@_K$0A@$00$01$02$03$04$05$06$07$08$09$0L@$0M@@std@@@@AEBAEE@Z ; MetaBuffer<109,121,std::integer_sequence<unsigned __int64,0,1,2,3,4,5,6,7,8,9,10,11,12> >::encrypt
PUBLIC	?decrypt@?$MetaBuffer@$0GN@$0HJ@U?$integer_sequence@_K$0A@$00$01$02$03$04$05$06$07$08$09$0L@$0M@@std@@@@AEBAEE@Z ; MetaBuffer<109,121,std::integer_sequence<unsigned __int64,0,1,2,3,4,5,6,7,8,9,10,11,12> >::decrypt
PUBLIC	?isDecrypted@?$MetaBuffer@$0N@$0FI@U?$integer_sequence@_K$0A@$00$01$02$03$04$05$06$07$08$09$0L@$0M@@std@@@@QEBA_NXZ ; MetaBuffer<13,88,std::integer_sequence<unsigned __int64,0,1,2,3,4,5,6,7,8,9,10,11,12> >::isDecrypted
PUBLIC	?encrypt@?$MetaBuffer@$0N@$0FI@U?$integer_sequence@_K$0A@$00$01$02$03$04$05$06$07$08$09$0L@$0M@@std@@@@AEBAEE@Z ; MetaBuffer<13,88,std::integer_sequence<unsigned __int64,0,1,2,3,4,5,6,7,8,9,10,11,12> >::encrypt
PUBLIC	?decrypt@?$MetaBuffer@$0N@$0FI@U?$integer_sequence@_K$0A@$00$01$02$03$04$05$06$07$08$09$0L@$0M@@std@@@@AEBAEE@Z ; MetaBuffer<13,88,std::integer_sequence<unsigned __int64,0,1,2,3,4,5,6,7,8,9,10,11,12> >::decrypt
PUBLIC	?isDecrypted@?$MetaBuffer@$0L@$0FD@U?$integer_sequence@_K$0A@$00$01$02$03$04$05$06$07$08$09@std@@@@QEBA_NXZ ; MetaBuffer<11,83,std::integer_sequence<unsigned __int64,0,1,2,3,4,5,6,7,8,9,10> >::isDecrypted
PUBLIC	?encrypt@?$MetaBuffer@$0L@$0FD@U?$integer_sequence@_K$0A@$00$01$02$03$04$05$06$07$08$09@std@@@@AEBAEE@Z ; MetaBuffer<11,83,std::integer_sequence<unsigned __int64,0,1,2,3,4,5,6,7,8,9,10> >::encrypt
PUBLIC	?decrypt@?$MetaBuffer@$0L@$0FD@U?$integer_sequence@_K$0A@$00$01$02$03$04$05$06$07$08$09@std@@@@AEBAEE@Z ; MetaBuffer<11,83,std::integer_sequence<unsigned __int64,0,1,2,3,4,5,6,7,8,9,10> >::decrypt
PUBLIC	?isDecrypted@?$MetaBuffer@$02$0BG@U?$integer_sequence@_K$0A@$00$01$02$03$04$05$06$07$08$09@std@@@@QEBA_NXZ ; MetaBuffer<3,22,std::integer_sequence<unsigned __int64,0,1,2,3,4,5,6,7,8,9,10> >::isDecrypted
PUBLIC	?encrypt@?$MetaBuffer@$02$0BG@U?$integer_sequence@_K$0A@$00$01$02$03$04$05$06$07$08$09@std@@@@AEBAEE@Z ; MetaBuffer<3,22,std::integer_sequence<unsigned __int64,0,1,2,3,4,5,6,7,8,9,10> >::encrypt
PUBLIC	?decrypt@?$MetaBuffer@$02$0BG@U?$integer_sequence@_K$0A@$00$01$02$03$04$05$06$07$08$09@std@@@@AEBAEE@Z ; MetaBuffer<3,22,std::integer_sequence<unsigned __int64,0,1,2,3,4,5,6,7,8,9,10> >::decrypt
PUBLIC	?isDecrypted@?$MetaBuffer@$0EJ@$0EJ@U?$integer_sequence@_K$0A@$00$01$02$03$04$05$06$07$08$09$0L@@std@@@@QEBA_NXZ ; MetaBuffer<73,73,std::integer_sequence<unsigned __int64,0,1,2,3,4,5,6,7,8,9,10,11> >::isDecrypted
PUBLIC	?encrypt@?$MetaBuffer@$0EJ@$0EJ@U?$integer_sequence@_K$0A@$00$01$02$03$04$05$06$07$08$09$0L@@std@@@@AEBAEE@Z ; MetaBuffer<73,73,std::integer_sequence<unsigned __int64,0,1,2,3,4,5,6,7,8,9,10,11> >::encrypt
PUBLIC	?decrypt@?$MetaBuffer@$0EJ@$0EJ@U?$integer_sequence@_K$0A@$00$01$02$03$04$05$06$07$08$09$0L@@std@@@@AEBAEE@Z ; MetaBuffer<73,73,std::integer_sequence<unsigned __int64,0,1,2,3,4,5,6,7,8,9,10,11> >::decrypt
PUBLIC	?isDecrypted@?$MetaBuffer@$0BD@$0BK@U?$integer_sequence@_K$0A@$00$01$02$03$04$05$06$07$08$09$0L@@std@@@@QEBA_NXZ ; MetaBuffer<19,26,std::integer_sequence<unsigned __int64,0,1,2,3,4,5,6,7,8,9,10,11> >::isDecrypted
PUBLIC	?encrypt@?$MetaBuffer@$0BD@$0BK@U?$integer_sequence@_K$0A@$00$01$02$03$04$05$06$07$08$09$0L@@std@@@@AEBAEE@Z ; MetaBuffer<19,26,std::integer_sequence<unsigned __int64,0,1,2,3,4,5,6,7,8,9,10,11> >::encrypt
PUBLIC	?decrypt@?$MetaBuffer@$0BD@$0BK@U?$integer_sequence@_K$0A@$00$01$02$03$04$05$06$07$08$09$0L@@std@@@@AEBAEE@Z ; MetaBuffer<19,26,std::integer_sequence<unsigned __int64,0,1,2,3,4,5,6,7,8,9,10,11> >::decrypt
PUBLIC	?isDecrypted@?$MetaBuffer@$0DL@$0DB@U?$integer_sequence@_K$0A@$00$01$02$03$04$05$06$07$08@std@@@@QEBA_NXZ ; MetaBuffer<59,49,std::integer_sequence<unsigned __int64,0,1,2,3,4,5,6,7,8,9> >::isDecrypted
PUBLIC	?encrypt@?$MetaBuffer@$0DL@$0DB@U?$integer_sequence@_K$0A@$00$01$02$03$04$05$06$07$08@std@@@@AEBAEE@Z ; MetaBuffer<59,49,std::integer_sequence<unsigned __int64,0,1,2,3,4,5,6,7,8,9> >::encrypt
PUBLIC	?decrypt@?$MetaBuffer@$0DL@$0DB@U?$integer_sequence@_K$0A@$00$01$02$03$04$05$06$07$08@std@@@@AEBAEE@Z ; MetaBuffer<59,49,std::integer_sequence<unsigned __int64,0,1,2,3,4,5,6,7,8,9> >::decrypt
PUBLIC	?isDecrypted@?$MetaBuffer@$0FJ@$0DK@U?$integer_sequence@_K$0A@$00$01$02$03$04$05$06$07$08$09$0L@$0M@@std@@@@QEBA_NXZ ; MetaBuffer<89,58,std::integer_sequence<unsigned __int64,0,1,2,3,4,5,6,7,8,9,10,11,12> >::isDecrypted
PUBLIC	?encrypt@?$MetaBuffer@$0FJ@$0DK@U?$integer_sequence@_K$0A@$00$01$02$03$04$05$06$07$08$09$0L@$0M@@std@@@@AEBAEE@Z ; MetaBuffer<89,58,std::integer_sequence<unsigned __int64,0,1,2,3,4,5,6,7,8,9,10,11,12> >::encrypt
PUBLIC	?decrypt@?$MetaBuffer@$0FJ@$0DK@U?$integer_sequence@_K$0A@$00$01$02$03$04$05$06$07$08$09$0L@$0M@@std@@@@AEBAEE@Z ; MetaBuffer<89,58,std::integer_sequence<unsigned __int64,0,1,2,3,4,5,6,7,8,9,10,11,12> >::decrypt
PUBLIC	?isDecrypted@?$MetaBuffer@$0FD@$0FP@U?$integer_sequence@_K$0A@$00$01$02$03$04$05$06$07$08@std@@@@QEBA_NXZ ; MetaBuffer<83,95,std::integer_sequence<unsigned __int64,0,1,2,3,4,5,6,7,8,9> >::isDecrypted
PUBLIC	?encrypt@?$MetaBuffer@$0FD@$0FP@U?$integer_sequence@_K$0A@$00$01$02$03$04$05$06$07$08@std@@@@AEBAEE@Z ; MetaBuffer<83,95,std::integer_sequence<unsigned __int64,0,1,2,3,4,5,6,7,8,9> >::encrypt
PUBLIC	?decrypt@?$MetaBuffer@$0FD@$0FP@U?$integer_sequence@_K$0A@$00$01$02$03$04$05$06$07$08@std@@@@AEBAEE@Z ; MetaBuffer<83,95,std::integer_sequence<unsigned __int64,0,1,2,3,4,5,6,7,8,9> >::decrypt
PUBLIC	??0?$MetaBuffer@$0DL@$0EH@U?$integer_sequence@_K$0A@$00$01$02$03$04$05$06$07$08$09$0L@$0M@$0N@$0O@$0P@$0BA@$0BB@$0BC@$0BD@$0BE@$0BF@$0BG@$0BH@$0BI@$0BJ@@std@@@@QEAA@PEBE@Z ; MetaBuffer<59,71,std::integer_sequence<unsigned __int64,0,1,2,3,4,5,6,7,8,9,10,11,12,13,14,15,16,17,18,19,20,21,22,23,24,25> >::MetaBuffer<59,71,std::integer_sequence<unsigned __int64,0,1,2,3,4,5,6,7,8,9,10,11,12,13,14,15,16,17,18,19,20,21,22,23,24,25> >
PUBLIC	?decrypt@?$MetaBuffer@$0DL@$0EH@U?$integer_sequence@_K$0A@$00$01$02$03$04$05$06$07$08$09$0L@$0M@$0N@$0O@$0P@$0BA@$0BB@$0BC@$0BD@$0BE@$0BF@$0BG@$0BH@$0BI@$0BJ@@std@@@@QEAAPEBDXZ ; MetaBuffer<59,71,std::integer_sequence<unsigned __int64,0,1,2,3,4,5,6,7,8,9,10,11,12,13,14,15,16,17,18,19,20,21,22,23,24,25> >::decrypt
PUBLIC	??0?$MetaBuffer@$0CL@$0FO@U?$integer_sequence@_K$0A@$00$01$02$03$04$05$06$07$08$09$0L@$0M@@std@@@@QEAA@PEBE@Z ; MetaBuffer<43,94,std::integer_sequence<unsigned __int64,0,1,2,3,4,5,6,7,8,9,10,11,12> >::MetaBuffer<43,94,std::integer_sequence<unsigned __int64,0,1,2,3,4,5,6,7,8,9,10,11,12> >
PUBLIC	?decrypt@?$MetaBuffer@$0CL@$0FO@U?$integer_sequence@_K$0A@$00$01$02$03$04$05$06$07$08$09$0L@$0M@@std@@@@QEAAPEBDXZ ; MetaBuffer<43,94,std::integer_sequence<unsigned __int64,0,1,2,3,4,5,6,7,8,9,10,11,12> >::decrypt
PUBLIC	??0?$MetaBuffer@$04$0GH@U?$integer_sequence@_K$0A@$00$01$02$03$04$05$06$07$08$09$0L@$0M@@std@@@@QEAA@PEBE@Z ; MetaBuffer<5,103,std::integer_sequence<unsigned __int64,0,1,2,3,4,5,6,7,8,9,10,11,12> >::MetaBuffer<5,103,std::integer_sequence<unsigned __int64,0,1,2,3,4,5,6,7,8,9,10,11,12> >
PUBLIC	?decrypt@?$MetaBuffer@$04$0GH@U?$integer_sequence@_K$0A@$00$01$02$03$04$05$06$07$08$09$0L@$0M@@std@@@@QEAAPEBDXZ ; MetaBuffer<5,103,std::integer_sequence<unsigned __int64,0,1,2,3,4,5,6,7,8,9,10,11,12> >::decrypt
PUBLIC	??0?$MetaBuffer@$0EH@$0O@U?$integer_sequence@_K$0A@$00$01$02$03$04$05$06$07$08$09$0L@$0M@@std@@@@QEAA@PEBE@Z ; MetaBuffer<71,14,std::integer_sequence<unsigned __int64,0,1,2,3,4,5,6,7,8,9,10,11,12> >::MetaBuffer<71,14,std::integer_sequence<unsigned __int64,0,1,2,3,4,5,6,7,8,9,10,11,12> >
PUBLIC	?decrypt@?$MetaBuffer@$0EH@$0O@U?$integer_sequence@_K$0A@$00$01$02$03$04$05$06$07$08$09$0L@$0M@@std@@@@QEAAPEBDXZ ; MetaBuffer<71,14,std::integer_sequence<unsigned __int64,0,1,2,3,4,5,6,7,8,9,10,11,12> >::decrypt
PUBLIC	??0?$MetaBuffer@$0GN@$0HJ@U?$integer_sequence@_K$0A@$00$01$02$03$04$05$06$07$08$09$0L@$0M@@std@@@@QEAA@PEBE@Z ; MetaBuffer<109,121,std::integer_sequence<unsigned __int64,0,1,2,3,4,5,6,7,8,9,10,11,12> >::MetaBuffer<109,121,std::integer_sequence<unsigned __int64,0,1,2,3,4,5,6,7,8,9,10,11,12> >
PUBLIC	?decrypt@?$MetaBuffer@$0GN@$0HJ@U?$integer_sequence@_K$0A@$00$01$02$03$04$05$06$07$08$09$0L@$0M@@std@@@@QEAAPEBDXZ ; MetaBuffer<109,121,std::integer_sequence<unsigned __int64,0,1,2,3,4,5,6,7,8,9,10,11,12> >::decrypt
PUBLIC	??0?$MetaBuffer@$0N@$0FI@U?$integer_sequence@_K$0A@$00$01$02$03$04$05$06$07$08$09$0L@$0M@@std@@@@QEAA@PEBE@Z ; MetaBuffer<13,88,std::integer_sequence<unsigned __int64,0,1,2,3,4,5,6,7,8,9,10,11,12> >::MetaBuffer<13,88,std::integer_sequence<unsigned __int64,0,1,2,3,4,5,6,7,8,9,10,11,12> >
PUBLIC	?decrypt@?$MetaBuffer@$0N@$0FI@U?$integer_sequence@_K$0A@$00$01$02$03$04$05$06$07$08$09$0L@$0M@@std@@@@QEAAPEBDXZ ; MetaBuffer<13,88,std::integer_sequence<unsigned __int64,0,1,2,3,4,5,6,7,8,9,10,11,12> >::decrypt
PUBLIC	??0?$MetaBuffer@$0L@$0FD@U?$integer_sequence@_K$0A@$00$01$02$03$04$05$06$07$08$09@std@@@@QEAA@PEBE@Z ; MetaBuffer<11,83,std::integer_sequence<unsigned __int64,0,1,2,3,4,5,6,7,8,9,10> >::MetaBuffer<11,83,std::integer_sequence<unsigned __int64,0,1,2,3,4,5,6,7,8,9,10> >
PUBLIC	?decrypt@?$MetaBuffer@$0L@$0FD@U?$integer_sequence@_K$0A@$00$01$02$03$04$05$06$07$08$09@std@@@@QEAAPEBDXZ ; MetaBuffer<11,83,std::integer_sequence<unsigned __int64,0,1,2,3,4,5,6,7,8,9,10> >::decrypt
PUBLIC	??0?$MetaBuffer@$02$0BG@U?$integer_sequence@_K$0A@$00$01$02$03$04$05$06$07$08$09@std@@@@QEAA@PEBE@Z ; MetaBuffer<3,22,std::integer_sequence<unsigned __int64,0,1,2,3,4,5,6,7,8,9,10> >::MetaBuffer<3,22,std::integer_sequence<unsigned __int64,0,1,2,3,4,5,6,7,8,9,10> >
PUBLIC	?decrypt@?$MetaBuffer@$02$0BG@U?$integer_sequence@_K$0A@$00$01$02$03$04$05$06$07$08$09@std@@@@QEAAPEBDXZ ; MetaBuffer<3,22,std::integer_sequence<unsigned __int64,0,1,2,3,4,5,6,7,8,9,10> >::decrypt
PUBLIC	??0?$MetaBuffer@$0EJ@$0EJ@U?$integer_sequence@_K$0A@$00$01$02$03$04$05$06$07$08$09$0L@@std@@@@QEAA@PEBE@Z ; MetaBuffer<73,73,std::integer_sequence<unsigned __int64,0,1,2,3,4,5,6,7,8,9,10,11> >::MetaBuffer<73,73,std::integer_sequence<unsigned __int64,0,1,2,3,4,5,6,7,8,9,10,11> >
PUBLIC	?decrypt@?$MetaBuffer@$0EJ@$0EJ@U?$integer_sequence@_K$0A@$00$01$02$03$04$05$06$07$08$09$0L@@std@@@@QEAAPEBDXZ ; MetaBuffer<73,73,std::integer_sequence<unsigned __int64,0,1,2,3,4,5,6,7,8,9,10,11> >::decrypt
PUBLIC	??0?$MetaBuffer@$0BD@$0BK@U?$integer_sequence@_K$0A@$00$01$02$03$04$05$06$07$08$09$0L@@std@@@@QEAA@PEBE@Z ; MetaBuffer<19,26,std::integer_sequence<unsigned __int64,0,1,2,3,4,5,6,7,8,9,10,11> >::MetaBuffer<19,26,std::integer_sequence<unsigned __int64,0,1,2,3,4,5,6,7,8,9,10,11> >
PUBLIC	?decrypt@?$MetaBuffer@$0BD@$0BK@U?$integer_sequence@_K$0A@$00$01$02$03$04$05$06$07$08$09$0L@@std@@@@QEAAPEBDXZ ; MetaBuffer<19,26,std::integer_sequence<unsigned __int64,0,1,2,3,4,5,6,7,8,9,10,11> >::decrypt
PUBLIC	??0?$MetaBuffer@$0DL@$0DB@U?$integer_sequence@_K$0A@$00$01$02$03$04$05$06$07$08@std@@@@QEAA@PEBE@Z ; MetaBuffer<59,49,std::integer_sequence<unsigned __int64,0,1,2,3,4,5,6,7,8,9> >::MetaBuffer<59,49,std::integer_sequence<unsigned __int64,0,1,2,3,4,5,6,7,8,9> >
PUBLIC	?decrypt@?$MetaBuffer@$0DL@$0DB@U?$integer_sequence@_K$0A@$00$01$02$03$04$05$06$07$08@std@@@@QEAAPEBDXZ ; MetaBuffer<59,49,std::integer_sequence<unsigned __int64,0,1,2,3,4,5,6,7,8,9> >::decrypt
PUBLIC	??0?$MetaBuffer@$0FJ@$0DK@U?$integer_sequence@_K$0A@$00$01$02$03$04$05$06$07$08$09$0L@$0M@@std@@@@QEAA@PEBE@Z ; MetaBuffer<89,58,std::integer_sequence<unsigned __int64,0,1,2,3,4,5,6,7,8,9,10,11,12> >::MetaBuffer<89,58,std::integer_sequence<unsigned __int64,0,1,2,3,4,5,6,7,8,9,10,11,12> >
PUBLIC	?decrypt@?$MetaBuffer@$0FJ@$0DK@U?$integer_sequence@_K$0A@$00$01$02$03$04$05$06$07$08$09$0L@$0M@@std@@@@QEAAPEBDXZ ; MetaBuffer<89,58,std::integer_sequence<unsigned __int64,0,1,2,3,4,5,6,7,8,9,10,11,12> >::decrypt
PUBLIC	??0?$MetaBuffer@$0FD@$0FP@U?$integer_sequence@_K$0A@$00$01$02$03$04$05$06$07$08@std@@@@QEAA@PEBE@Z ; MetaBuffer<83,95,std::integer_sequence<unsigned __int64,0,1,2,3,4,5,6,7,8,9> >::MetaBuffer<83,95,std::integer_sequence<unsigned __int64,0,1,2,3,4,5,6,7,8,9> >
PUBLIC	?decrypt@?$MetaBuffer@$0FD@$0FP@U?$integer_sequence@_K$0A@$00$01$02$03$04$05$06$07$08@std@@@@QEAAPEBDXZ ; MetaBuffer<83,95,std::integer_sequence<unsigned __int64,0,1,2,3,4,5,6,7,8,9> >::decrypt
PUBLIC	?GetProcAddressEx@getapi@@YAPEAXPEBDKK@Z	; getapi::GetProcAddressEx
PUBLIC	?InitializeGetapiModule@getapi@@YAHXZ		; getapi::InitializeGetapiModule
PUBLIC	?GetKernel32@@YAPEAUHINSTANCE__@@XZ		; GetKernel32
PUBLIC	?GetHashBase@@YAKPEAULDR_MODULE@@@Z		; GetHashBase
PUBLIC	?GetApiAddr@@YA_KPEAUHINSTANCE__@@KPEA_K@Z	; GetApiAddr
PUBLIC	?GetFunctionAddresss@@YA_KPEAUHINSTANCE__@@PEAU_IMAGE_EXPORT_DIRECTORY@@J@Z ; GetFunctionAddresss
PUBLIC	?CheckForForvardedProc@@YAH_KPEAU_IMAGE_EXPORT_DIRECTORY@@K@Z ; CheckForForvardedProc
PUBLIC	?GetForvardedProc@@YAPEAXPEAD@Z			; GetForvardedProc
PUBLIC	?my_stoi@@YAHPEAD@Z				; my_stoi
PUBLIC	?FindChar@@YAPEADPEADD@Z			; FindChar
PUBLIC	?m_memcpy@@YAXPEAXQEAX_K@Z			; m_memcpy
PUBLIC	?StrLen@@YAHPEBD@Z				; StrLen
PUBLIC	?IsRestartManagerLoaded@getapi@@YAHXZ		; getapi::IsRestartManagerLoaded
PUBLIC	?morphcode@@YAXPEAX@Z				; morphcode
PUBLIC	?morphcode@@YAXH@Z				; morphcode
PUBLIC	RtlSecureZeroMemory
PUBLIC	?GetProcAddressEx2@getapi@@YAPEAXPEADKKH@Z	; getapi::GetProcAddressEx2
PUBLIC	?SetRestartManagerLoaded@getapi@@YAXH@Z		; getapi::SetRestartManagerLoaded
;	COMDAT pdata
pdata	SEGMENT
$pdata$?GetProcAddressEx@getapi@@YAPEAXPEBDKK@Z DD imagerel $LN805
	DD	imagerel $LN805+3196
	DD	imagerel $unwind$?GetProcAddressEx@getapi@@YAPEAXPEBDKK@Z
pdata	ENDS
;	COMDAT pdata
pdata	SEGMENT
$pdata$?InitializeGetapiModule@getapi@@YAHXZ DD imagerel $LN376
	DD	imagerel $LN376+699
	DD	imagerel $unwind$?InitializeGetapiModule@getapi@@YAHXZ
pdata	ENDS
;	COMDAT pdata
pdata	SEGMENT
$pdata$?GetKernel32@@YAPEAUHINSTANCE__@@XZ DD imagerel $LN398
	DD	imagerel $LN398+1448
	DD	imagerel $unwind$?GetKernel32@@YAPEAUHINSTANCE__@@XZ
pdata	ENDS
;	COMDAT pdata
pdata	SEGMENT
$pdata$?GetHashBase@@YAKPEAULDR_MODULE@@@Z DD imagerel $LN99
	DD	imagerel $LN99+564
	DD	imagerel $unwind$?GetHashBase@@YAKPEAULDR_MODULE@@@Z
pdata	ENDS
;	COMDAT pdata
pdata	SEGMENT
$pdata$?GetApiAddr@@YA_KPEAUHINSTANCE__@@KPEA_K@Z DD imagerel $LN690
	DD	imagerel $LN690+239
	DD	imagerel $unwind$?GetApiAddr@@YA_KPEAUHINSTANCE__@@KPEA_K@Z
pdata	ENDS
;	COMDAT pdata
pdata	SEGMENT
$pdata$?GetFunctionAddresss@@YA_KPEAUHINSTANCE__@@PEAU_IMAGE_EXPORT_DIRECTORY@@J@Z DD imagerel $LN159
	DD	imagerel $LN159+620
	DD	imagerel $unwind$?GetFunctionAddresss@@YA_KPEAUHINSTANCE__@@PEAU_IMAGE_EXPORT_DIRECTORY@@J@Z
pdata	ENDS
;	COMDAT pdata
pdata	SEGMENT
$pdata$?CheckForForvardedProc@@YAH_KPEAU_IMAGE_EXPORT_DIRECTORY@@K@Z DD imagerel $LN112
	DD	imagerel $LN112+470
	DD	imagerel $unwind$?CheckForForvardedProc@@YAH_KPEAU_IMAGE_EXPORT_DIRECTORY@@K@Z
pdata	ENDS
;	COMDAT pdata
pdata	SEGMENT
$pdata$?GetForvardedProc@@YAPEAXPEAD@Z DD imagerel $LN1430
	DD	imagerel $LN1430+1073
	DD	imagerel $unwind$?GetForvardedProc@@YAPEAXPEAD@Z
pdata	ENDS
;	COMDAT pdata
pdata	SEGMENT
$pdata$0$?GetForvardedProc@@YAPEAXPEAD@Z DD imagerel $LN1430+1073
	DD	imagerel $LN1430+1615
	DD	imagerel $chain$0$?GetForvardedProc@@YAPEAXPEAD@Z
pdata	ENDS
;	COMDAT pdata
pdata	SEGMENT
$pdata$1$?GetForvardedProc@@YAPEAXPEAD@Z DD imagerel $LN1430+1615
	DD	imagerel $LN1430+2068
	DD	imagerel $chain$1$?GetForvardedProc@@YAPEAXPEAD@Z
pdata	ENDS
;	COMDAT pdata
pdata	SEGMENT
$pdata$?my_stoi@@YAHPEAD@Z DD imagerel $LN44
	DD	imagerel $LN44+162
	DD	imagerel $unwind$?my_stoi@@YAHPEAD@Z
pdata	ENDS
;	COMDAT pdata
pdata	SEGMENT
$pdata$RtlSecureZeroMemory DD imagerel $LN4
	DD	imagerel $LN4+27
	DD	imagerel $unwind$RtlSecureZeroMemory
pdata	ENDS
;	COMDAT pdata
pdata	SEGMENT
$pdata$?GetProcAddressEx2@getapi@@YAPEAXPEADKKH@Z DD imagerel $LN629
	DD	imagerel $LN629+460
	DD	imagerel $unwind$?GetProcAddressEx2@getapi@@YAPEAXPEADKKH@Z
;	COMDAT xdata
xdata	SEGMENT
$unwind$?GetProcAddressEx2@getapi@@YAPEAXPEADKKH@Z DD 040a01H
	DD	06340aH
	DD	07006320aH
xdata	ENDS
;	COMDAT xdata
xdata	SEGMENT
$unwind$RtlSecureZeroMemory DD 020501H
	DD	017405H
xdata	ENDS
;	COMDAT xdata
xdata	SEGMENT
$unwind$?my_stoi@@YAHPEAD@Z DD 020501H
	DD	013405H
xdata	ENDS
;	COMDAT xdata
xdata	SEGMENT
$chain$1$?GetForvardedProc@@YAPEAXPEAD@Z DD 021H
	DD	imagerel $LN1430
	DD	imagerel $LN1430+1073
	DD	imagerel $unwind$?GetForvardedProc@@YAPEAXPEAD@Z
xdata	ENDS
;	COMDAT xdata
xdata	SEGMENT
$chain$0$?GetForvardedProc@@YAPEAXPEAD@Z DD 020821H
	DD	02b3408H
	DD	imagerel $LN1430
	DD	imagerel $LN1430+1073
	DD	imagerel $unwind$?GetForvardedProc@@YAPEAXPEAD@Z
xdata	ENDS
;	COMDAT xdata
xdata	SEGMENT
$unwind$?GetForvardedProc@@YAPEAXPEAD@Z DD 072519H
	DD	02d7417H
	DD	02c6417H
	DD	0280117H
	DD	0500bH
	DD	imagerel __GSHandlerCheck
	DD	0130H
xdata	ENDS
;	COMDAT xdata
xdata	SEGMENT
$unwind$?CheckForForvardedProc@@YAH_KPEAU_IMAGE_EXPORT_DIRECTORY@@K@Z DD 020501H
	DD	023405H
xdata	ENDS
;	COMDAT xdata
xdata	SEGMENT
$unwind$?GetFunctionAddresss@@YA_KPEAUHINSTANCE__@@PEAU_IMAGE_EXPORT_DIRECTORY@@J@Z DD 020501H
	DD	013405H
xdata	ENDS
;	COMDAT xdata
xdata	SEGMENT
$unwind$?GetApiAddr@@YA_KPEAUHINSTANCE__@@KPEA_K@Z DD 0c1c01H
	DD	0c641cH
	DD	0b541cH
	DD	0a341cH
	DD	0f018321cH
	DD	0d014e016H
	DD	07010c012H
xdata	ENDS
;	COMDAT xdata
xdata	SEGMENT
$unwind$?GetHashBase@@YAKPEAULDR_MODULE@@@Z DD 021619H
	DD	0110107H
	DD	imagerel __GSHandlerCheck
	DD	070H
xdata	ENDS
;	COMDAT xdata
xdata	SEGMENT
$unwind$?GetKernel32@@YAPEAUHINSTANCE__@@XZ DD 081701H
	DD	0d7417H
	DD	0c6417H
	DD	0b3417H
	DD	050107217H
xdata	ENDS
;	COMDAT xdata
xdata	SEGMENT
$unwind$?InitializeGetapiModule@getapi@@YAHXZ DD 020601H
	DD	070023206H
xdata	ENDS
;	COMDAT xdata
xdata	SEGMENT
$unwind$?GetProcAddressEx@getapi@@YAPEAXPEBDKK@Z DD 072519H
	DD	0257417H
	DD	0233417H
	DD	0200117H
	DD	0500bH
	DD	imagerel __GSHandlerCheck
	DD	0f0H
; Function compile flags: /Ogtpy
; File C:\Users\admin-z10\Desktop\conti_v3\cryptor\api\getapi.cpp
;	COMDAT ?SetRestartManagerLoaded@getapi@@YAXH@Z
_TEXT	SEGMENT
value$dead$ = 8
?SetRestartManagerLoaded@getapi@@YAXH@Z PROC		; getapi::SetRestartManagerLoaded, COMDAT

; 54   : 	g_IsRstrtMgrLoaded = value;

  00000	c7 05 00 00 00
	00 01 00 00 00	 mov	 DWORD PTR ?g_IsRstrtMgrLoaded@@3HA, 1 ; g_IsRstrtMgrLoaded

; 55   : }

  0000a	c3		 ret	 0
?SetRestartManagerLoaded@getapi@@YAXH@Z ENDP		; getapi::SetRestartManagerLoaded
_TEXT	ENDS
; Function compile flags: /Ogtpy
; File C:\Users\admin-z10\Desktop\conti_v3\cryptor\api\getapi.cpp
; File C:\Users\admin-z10\Desktop\conti_v3\cryptor\mrph.h
; File C:\Users\admin-z10\Desktop\conti_v3\cryptor\api\getapi.cpp
; File C:\Users\admin-z10\Desktop\conti_v3\cryptor\mrph.h
; File C:\Users\admin-z10\Desktop\conti_v3\cryptor\api\getapi.cpp
; File C:\Users\admin-z10\Desktop\conti_v3\cryptor\mrph.h
; File C:\Users\admin-z10\Desktop\conti_v3\cryptor\api\getapi.cpp
;	COMDAT ?GetProcAddressEx2@getapi@@YAPEAXPEADKKH@Z
_TEXT	SEGMENT
Dll$dead$ = 48
ModuleId$ = 56
Hash$ = 64
_morph_var$1 = 72
_morph_var$2 = 72
CacheIndex$ = 72
?GetProcAddressEx2@getapi@@YAPEAXPEADKKH@Z PROC		; getapi::GetProcAddressEx2, COMDAT

; 681  : {

$LN629:
  00000	48 89 5c 24 08	 mov	 QWORD PTR [rsp+8], rbx
  00005	57		 push	 rdi
  00006	48 83 ec 20	 sub	 rsp, 32			; 00000020H

; 685  : 	Addr = g_ApiCache[CacheIndex];

  0000a	49 63 c1	 movsxd	 rax, r9d
  0000d	44 8b d2	 mov	 r10d, edx
; File C:\Users\admin-z10\Desktop\conti_v3\cryptor\mrph.h

; 48   : 	if (_morph_var % 3) {

  00010	bb 02 00 00 00	 mov	 ebx, 2
; File C:\Users\admin-z10\Desktop\conti_v3\cryptor\api\getapi.cpp

; 685  : 	Addr = g_ApiCache[CacheIndex];

  00015	48 8d 3c c5 00
	00 00 00	 lea	 rdi, QWORD PTR [rax*8]
  0001d	48 8b 05 00 00
	00 00		 mov	 rax, QWORD PTR ?g_ApiCache@@3PEAPEAXEA ; g_ApiCache
  00024	4c 8b 0c 07	 mov	 r9, QWORD PTR [rdi+rax]
; File C:\Users\admin-z10\Desktop\conti_v3\cryptor\mrph.h

; 48   : 	if (_morph_var % 3) {

  00028	b8 56 55 55 55	 mov	 eax, 1431655766		; 55555556H
  0002d	c7 44 24 48 c1
	9b 17 00	 mov	 DWORD PTR _morph_var$2[rsp], 1547201 ; 00179bc1H
  00035	8b 4c 24 48	 mov	 ecx, DWORD PTR _morph_var$2[rsp]
  00039	f7 e9		 imul	 ecx
  0003b	8b c2		 mov	 eax, edx
  0003d	c1 e8 1f	 shr	 eax, 31
  00040	03 d0		 add	 edx, eax
  00042	8d 04 52	 lea	 eax, DWORD PTR [rdx+rdx*2]
  00045	3b c8		 cmp	 ecx, eax
  00047	74 49		 je	 SHORT $LN15@GetProcAdd

; 49   : 		_morph_var += (int)a + 2;

  00049	8b 4c 24 48	 mov	 ecx, DWORD PTR _morph_var$2[rsp]
  0004d	03 cb		 add	 ecx, ebx
  0004f	41 03 c9	 add	 ecx, r9d
  00052	89 4c 24 48	 mov	 DWORD PTR _morph_var$2[rsp], ecx

; 50   : 		while (!(_morph_var % 4)) ++_morph_var;

  00056	8b 44 24 48	 mov	 eax, DWORD PTR _morph_var$2[rsp]
  0005a	25 03 00 00 80	 and	 eax, -2147483645	; ffffffff80000003H
  0005f	7d 07		 jge	 SHORT $LN599@GetProcAdd
  00061	ff c8		 dec	 eax
  00063	83 c8 fc	 or	 eax, -4
  00066	ff c0		 inc	 eax
$LN599@GetProcAdd:
  00068	85 c0		 test	 eax, eax
  0006a	75 77		 jne	 SHORT $LN14@GetProcAdd
  0006c	0f 1f 40 00	 npad	 4
$LL7@GetProcAdd:
  00070	8b 44 24 48	 mov	 eax, DWORD PTR _morph_var$2[rsp]
  00074	ff c0		 inc	 eax
  00076	89 44 24 48	 mov	 DWORD PTR _morph_var$2[rsp], eax
  0007a	8b 44 24 48	 mov	 eax, DWORD PTR _morph_var$2[rsp]
  0007e	25 03 00 00 80	 and	 eax, -2147483645	; ffffffff80000003H
  00083	7d 07		 jge	 SHORT $LN598@GetProcAdd
  00085	ff c8		 dec	 eax
  00087	83 c8 fc	 or	 eax, -4
  0008a	ff c0		 inc	 eax
$LN598@GetProcAdd:
  0008c	85 c0		 test	 eax, eax
  0008e	74 e0		 je	 SHORT $LL7@GetProcAdd

; 51   : 	}

  00090	eb 51		 jmp	 SHORT $LN14@GetProcAdd
$LN15@GetProcAdd:

; 52   : 	else if (_morph_var % 2) {

  00092	8b 44 24 48	 mov	 eax, DWORD PTR _morph_var$2[rsp]

; 53   : 		_morph_var -= (int)a - 2;

  00096	8b cb		 mov	 ecx, ebx
  00098	8b 44 24 48	 mov	 eax, DWORD PTR _morph_var$2[rsp]
  0009c	41 2b c9	 sub	 ecx, r9d
  0009f	03 c8		 add	 ecx, eax

; 54   : 		while (!(_morph_var % 3)) ++_morph_var;

  000a1	b8 56 55 55 55	 mov	 eax, 1431655766		; 55555556H
  000a6	89 4c 24 48	 mov	 DWORD PTR _morph_var$2[rsp], ecx
  000aa	8b 4c 24 48	 mov	 ecx, DWORD PTR _morph_var$2[rsp]
  000ae	f7 e9		 imul	 ecx
  000b0	8b c2		 mov	 eax, edx
  000b2	c1 e8 1f	 shr	 eax, 31
  000b5	03 d0		 add	 edx, eax
  000b7	8d 04 52	 lea	 eax, DWORD PTR [rdx+rdx*2]
  000ba	3b c8		 cmp	 ecx, eax
  000bc	75 25		 jne	 SHORT $LN14@GetProcAdd
  000be	66 90		 npad	 2
$LL9@GetProcAdd:
  000c0	8b 44 24 48	 mov	 eax, DWORD PTR _morph_var$2[rsp]
  000c4	ff c0		 inc	 eax
  000c6	89 44 24 48	 mov	 DWORD PTR _morph_var$2[rsp], eax
  000ca	b8 56 55 55 55	 mov	 eax, 1431655766		; 55555556H
  000cf	8b 4c 24 48	 mov	 ecx, DWORD PTR _morph_var$2[rsp]
  000d3	f7 e9		 imul	 ecx
  000d5	8b c2		 mov	 eax, edx
  000d7	c1 e8 1f	 shr	 eax, 31
  000da	03 d0		 add	 edx, eax
  000dc	8d 04 52	 lea	 eax, DWORD PTR [rdx+rdx*2]
  000df	3b c8		 cmp	 ecx, eax
  000e1	74 dd		 je	 SHORT $LL9@GetProcAdd
$LN14@GetProcAdd:
; File C:\Users\admin-z10\Desktop\conti_v3\cryptor\api\getapi.cpp

; 688  : 	if (!Addr) {

  000e3	4d 85 c9	 test	 r9, r9
  000e6	0f 85 d2 00 00
	00		 jne	 $LN600@GetProcAdd

; 689  : 
; 690  : 		// Функции нет в кэше. Получаем её адрес и добавляем в кэш
; 691  : 		Addr = GetProcAddressEx(Dll, ModuleId, Hash);

  000ec	41 8b d2	 mov	 edx, r10d
  000ef	33 c9		 xor	 ecx, ecx
  000f1	e8 00 00 00 00	 call	 ?GetProcAddressEx@getapi@@YAPEAXPEBDKK@Z ; getapi::GetProcAddressEx
  000f6	4c 8b c8	 mov	 r9, rax
; File C:\Users\admin-z10\Desktop\conti_v3\cryptor\mrph.h

; 40   : 	volatile int _morph_var = static_cast<int>(1 + MetaRandom2<0, 0x7FFFFF - 1>::value);

  000f9	c7 44 24 48 c1
	9b 17 00	 mov	 DWORD PTR _morph_var$1[rsp], 1547201 ; 00179bc1H

; 48   : 	if (_morph_var % 3) {

  00101	44 8b 44 24 48	 mov	 r8d, DWORD PTR _morph_var$1[rsp]
  00106	b8 56 55 55 55	 mov	 eax, 1431655766		; 55555556H
  0010b	41 f7 e8	 imul	 r8d
  0010e	8b ca		 mov	 ecx, edx
  00110	c1 e9 1f	 shr	 ecx, 31
  00113	03 d1		 add	 edx, ecx
  00115	8d 04 52	 lea	 eax, DWORD PTR [rdx+rdx*2]
  00118	44 3b c0	 cmp	 r8d, eax
  0011b	74 45		 je	 SHORT $LN554@GetProcAdd

; 49   : 		_morph_var += (int)a + 2;

  0011d	8b 4c 24 48	 mov	 ecx, DWORD PTR _morph_var$1[rsp]
  00121	03 cb		 add	 ecx, ebx
  00123	41 03 c9	 add	 ecx, r9d
  00126	89 4c 24 48	 mov	 DWORD PTR _morph_var$1[rsp], ecx

; 50   : 		while (!(_morph_var % 4)) ++_morph_var;

  0012a	8b 44 24 48	 mov	 eax, DWORD PTR _morph_var$1[rsp]
  0012e	25 03 00 00 80	 and	 eax, -2147483645	; ffffffff80000003H
  00133	7d 07		 jge	 SHORT $LN596@GetProcAdd
  00135	ff c8		 dec	 eax
  00137	83 c8 fc	 or	 eax, -4
  0013a	ff c0		 inc	 eax
$LN596@GetProcAdd:
  0013c	85 c0		 test	 eax, eax
  0013e	75 73		 jne	 SHORT $LN553@GetProcAdd
$LL546@GetProcAdd:
  00140	8b 44 24 48	 mov	 eax, DWORD PTR _morph_var$1[rsp]
  00144	ff c0		 inc	 eax
  00146	89 44 24 48	 mov	 DWORD PTR _morph_var$1[rsp], eax
  0014a	8b 44 24 48	 mov	 eax, DWORD PTR _morph_var$1[rsp]
  0014e	25 03 00 00 80	 and	 eax, -2147483645	; ffffffff80000003H
  00153	7d 07		 jge	 SHORT $LN595@GetProcAdd
  00155	ff c8		 dec	 eax
  00157	83 c8 fc	 or	 eax, -4
  0015a	ff c0		 inc	 eax
$LN595@GetProcAdd:
  0015c	85 c0		 test	 eax, eax
  0015e	74 e0		 je	 SHORT $LL546@GetProcAdd

; 51   : 	}

  00160	eb 51		 jmp	 SHORT $LN553@GetProcAdd
$LN554@GetProcAdd:

; 52   : 	else if (_morph_var % 2) {

  00162	8b 44 24 48	 mov	 eax, DWORD PTR _morph_var$1[rsp]

; 53   : 		_morph_var -= (int)a - 2;

  00166	41 2b d9	 sub	 ebx, r9d
  00169	8b 44 24 48	 mov	 eax, DWORD PTR _morph_var$1[rsp]
  0016d	03 d8		 add	 ebx, eax
  0016f	89 5c 24 48	 mov	 DWORD PTR _morph_var$1[rsp], ebx

; 54   : 		while (!(_morph_var % 3)) ++_morph_var;

  00173	b8 56 55 55 55	 mov	 eax, 1431655766		; 55555556H
  00178	8b 4c 24 48	 mov	 ecx, DWORD PTR _morph_var$1[rsp]
  0017c	f7 e9		 imul	 ecx
  0017e	8b c2		 mov	 eax, edx
  00180	c1 e8 1f	 shr	 eax, 31
  00183	03 d0		 add	 edx, eax
  00185	8d 04 52	 lea	 eax, DWORD PTR [rdx+rdx*2]
  00188	3b c8		 cmp	 ecx, eax
  0018a	75 27		 jne	 SHORT $LN553@GetProcAdd
  0018c	0f 1f 40 00	 npad	 4
$LL548@GetProcAdd:
  00190	8b 44 24 48	 mov	 eax, DWORD PTR _morph_var$1[rsp]
  00194	ff c0		 inc	 eax
  00196	89 44 24 48	 mov	 DWORD PTR _morph_var$1[rsp], eax
  0019a	b8 56 55 55 55	 mov	 eax, 1431655766		; 55555556H
  0019f	8b 4c 24 48	 mov	 ecx, DWORD PTR _morph_var$1[rsp]
  001a3	f7 e9		 imul	 ecx
  001a5	8b c2		 mov	 eax, edx
  001a7	c1 e8 1f	 shr	 eax, 31
  001aa	03 d0		 add	 edx, eax
  001ac	8d 04 52	 lea	 eax, DWORD PTR [rdx+rdx*2]
  001af	3b c8		 cmp	 ecx, eax
  001b1	74 dd		 je	 SHORT $LL548@GetProcAdd
$LN553@GetProcAdd:
; File C:\Users\admin-z10\Desktop\conti_v3\cryptor\api\getapi.cpp

; 695  : 		g_ApiCache[CacheIndex] = Addr;

  001b3	48 8b 05 00 00
	00 00		 mov	 rax, QWORD PTR ?g_ApiCache@@3PEAPEAXEA ; g_ApiCache
  001ba	4c 89 0c 07	 mov	 QWORD PTR [rdi+rax], r9
$LN600@GetProcAdd:

; 696  : 
; 697  : 	}
; 698  : 	return Addr;
; 699  : }

  001be	48 8b 5c 24 30	 mov	 rbx, QWORD PTR [rsp+48]
  001c3	49 8b c1	 mov	 rax, r9
  001c6	48 83 c4 20	 add	 rsp, 32			; 00000020H
  001ca	5f		 pop	 rdi
  001cb	c3		 ret	 0
?GetProcAddressEx2@getapi@@YAPEAXPEADKKH@Z ENDP		; getapi::GetProcAddressEx2
_TEXT	ENDS
; Function compile flags: /Ogtpy
; File C:\Program Files (x86)\Windows Kits\10\Include\10.0.22621.0\um\winnt.h
;	COMDAT RtlSecureZeroMemory
_TEXT	SEGMENT
ptr$ = 8
cnt$ = 16
RtlSecureZeroMemory PROC				; COMDAT

; 21766: {

$LN4:
  00000	48 89 7c 24 08	 mov	 QWORD PTR [rsp+8], rdi
  00005	4c 8b c1	 mov	 r8, rcx

; 21767:     volatile char *vptr = (volatile char *)ptr;
; 21768: 
; 21769: #if defined(_M_AMD64) && !defined(_M_ARM64EC)
; 21770: 
; 21771:     __stosb((PBYTE )((DWORD64)vptr), 0, cnt);

  00008	48 8b f9	 mov	 rdi, rcx
  0000b	33 c0		 xor	 eax, eax
  0000d	48 8b ca	 mov	 rcx, rdx
  00010	f3 aa		 rep stosb

; 21772: 
; 21773: #else
; 21774: 
; 21775:     while (cnt) {
; 21776: 
; 21777: #if !defined(_M_CEE) && (defined(_M_ARM) || defined(_M_ARM64) || defined(_M_ARM64EC))
; 21778: 
; 21779:         __iso_volatile_store8(vptr, 0);
; 21780: 
; 21781: #else
; 21782: 
; 21783:         *vptr = 0;
; 21784: 
; 21785: #endif
; 21786: 
; 21787:         vptr++;
; 21788:         cnt--;
; 21789:     }
; 21790: 
; 21791: #endif // _M_AMD64 && !defined(_M_ARM64EC)
; 21792: 
; 21793:     return ptr;
; 21794: }

  00012	48 8b 7c 24 08	 mov	 rdi, QWORD PTR [rsp+8]
  00017	49 8b c0	 mov	 rax, r8
  0001a	c3		 ret	 0
RtlSecureZeroMemory ENDP
_TEXT	ENDS
; Function compile flags: /Ogtpy
; File C:\Users\admin-z10\Desktop\conti_v3\cryptor\mrph.h
;	COMDAT ?morphcode@@YAXH@Z
_TEXT	SEGMENT
a$ = 8
_morph_var$ = 16
?morphcode@@YAXH@Z PROC					; morphcode, COMDAT

; 36   : #else
; 37   : __forceinline void morphcode(char* a) {
; 38   : #endif
; 39   : #ifdef __cplusplus
; 40   : 	volatile int _morph_var = static_cast<int>(1 + MetaRandom2<0, 0x7FFFFF - 1>::value);

  00000	c7 44 24 10 c1
	9b 17 00	 mov	 DWORD PTR _morph_var$[rsp], 1547201 ; 00179bc1H

; 41   : #else
; 42   : 	volatile int _morph_var = a;
; 43   : #endif
; 44   : 
; 45   : 	// делаем арифметическую операцию со случайным (времени компиляции) числом, и операндом.
; 46   : 	// за счет того, что число известно во время компиляции, оптимизатор оставит лишь один вариант действия,
; 47   : 	// выкинув остальные. Таким образом, одна и та же вставка будет давать всякий раз разный результат.
; 48   : 	if (_morph_var % 3) {

  00008	b8 56 55 55 55	 mov	 eax, 1431655766		; 55555556H
  0000d	44 8b 44 24 10	 mov	 r8d, DWORD PTR _morph_var$[rsp]
  00012	44 8b c9	 mov	 r9d, ecx
  00015	41 f7 e8	 imul	 r8d
  00018	8b c2		 mov	 eax, edx
  0001a	c1 e8 1f	 shr	 eax, 31
  0001d	03 d0		 add	 edx, eax
  0001f	8d 04 52	 lea	 eax, DWORD PTR [rdx+rdx*2]
  00022	44 3b c0	 cmp	 r8d, eax
  00025	74 4a		 je	 SHORT $LN10@morphcode

; 49   : 		_morph_var += (int)a + 2;

  00027	8b 4c 24 10	 mov	 ecx, DWORD PTR _morph_var$[rsp]
  0002b	83 c1 02	 add	 ecx, 2
  0002e	41 03 c9	 add	 ecx, r9d
  00031	89 4c 24 10	 mov	 DWORD PTR _morph_var$[rsp], ecx

; 50   : 		while (!(_morph_var % 4)) ++_morph_var;

  00035	8b 44 24 10	 mov	 eax, DWORD PTR _morph_var$[rsp]
  00039	25 03 00 00 80	 and	 eax, -2147483645	; ffffffff80000003H
  0003e	7d 07		 jge	 SHORT $LN38@morphcode
  00040	ff c8		 dec	 eax
  00042	83 c8 fc	 or	 eax, -4
  00045	ff c0		 inc	 eax
$LN38@morphcode:
  00047	85 c0		 test	 eax, eax
  00049	75 78		 jne	 SHORT $LN9@morphcode
  0004b	0f 1f 44 00 00	 npad	 5
$LL2@morphcode:
  00050	8b 44 24 10	 mov	 eax, DWORD PTR _morph_var$[rsp]
  00054	ff c0		 inc	 eax
  00056	89 44 24 10	 mov	 DWORD PTR _morph_var$[rsp], eax
  0005a	8b 44 24 10	 mov	 eax, DWORD PTR _morph_var$[rsp]
  0005e	25 03 00 00 80	 and	 eax, -2147483645	; ffffffff80000003H
  00063	7d 07		 jge	 SHORT $LN37@morphcode
  00065	ff c8		 dec	 eax
  00067	83 c8 fc	 or	 eax, -4
  0006a	ff c0		 inc	 eax
$LN37@morphcode:
  0006c	85 c0		 test	 eax, eax
  0006e	74 e0		 je	 SHORT $LL2@morphcode

; 55   : 	}
; 56   : 	else if (_morph_var % 4) {
; 57   : 		_morph_var = (_morph_var + 2) * ((int)a + 3);
; 58   : 		while (!(_morph_var % 2))
; 59   : 			if (_morph_var % 5)
; 60   : 				--_morph_var;
; 61   : 			else ++_morph_var;
; 62   : 	}
; 63   : 	else if (_morph_var % 5) {
; 64   : 		_morph_var = (_morph_var + 11) / ((int)a + 23);
; 65   : 		while (!(_morph_var % 3))
; 66   : 			if (_morph_var % 5)
; 67   : 				++_morph_var;
; 68   : 			else --_morph_var;
; 69   : 	}
; 70   : }

  00070	c3		 ret	 0
$LN10@morphcode:

; 51   : 	}
; 52   : 	else if (_morph_var % 2) {

  00071	8b 44 24 10	 mov	 eax, DWORD PTR _morph_var$[rsp]

; 53   : 		_morph_var -= (int)a - 2;

  00075	b9 02 00 00 00	 mov	 ecx, 2
  0007a	8b 44 24 10	 mov	 eax, DWORD PTR _morph_var$[rsp]
  0007e	41 2b c9	 sub	 ecx, r9d
  00081	03 c8		 add	 ecx, eax

; 54   : 		while (!(_morph_var % 3)) ++_morph_var;

  00083	b8 56 55 55 55	 mov	 eax, 1431655766		; 55555556H
  00088	89 4c 24 10	 mov	 DWORD PTR _morph_var$[rsp], ecx
  0008c	8b 4c 24 10	 mov	 ecx, DWORD PTR _morph_var$[rsp]
  00090	f7 e9		 imul	 ecx
  00092	8b c2		 mov	 eax, edx
  00094	c1 e8 1f	 shr	 eax, 31
  00097	03 d0		 add	 edx, eax
  00099	8d 04 52	 lea	 eax, DWORD PTR [rdx+rdx*2]
  0009c	3b c8		 cmp	 ecx, eax
  0009e	75 23		 jne	 SHORT $LN9@morphcode
$LL4@morphcode:
  000a0	8b 44 24 10	 mov	 eax, DWORD PTR _morph_var$[rsp]
  000a4	ff c0		 inc	 eax
  000a6	89 44 24 10	 mov	 DWORD PTR _morph_var$[rsp], eax
  000aa	b8 56 55 55 55	 mov	 eax, 1431655766		; 55555556H
  000af	8b 4c 24 10	 mov	 ecx, DWORD PTR _morph_var$[rsp]
  000b3	f7 e9		 imul	 ecx
  000b5	8b c2		 mov	 eax, edx
  000b7	c1 e8 1f	 shr	 eax, 31
  000ba	03 d0		 add	 edx, eax
  000bc	8d 04 52	 lea	 eax, DWORD PTR [rdx+rdx*2]
  000bf	3b c8		 cmp	 ecx, eax
  000c1	74 dd		 je	 SHORT $LL4@morphcode
$LN9@morphcode:

; 55   : 	}
; 56   : 	else if (_morph_var % 4) {
; 57   : 		_morph_var = (_morph_var + 2) * ((int)a + 3);
; 58   : 		while (!(_morph_var % 2))
; 59   : 			if (_morph_var % 5)
; 60   : 				--_morph_var;
; 61   : 			else ++_morph_var;
; 62   : 	}
; 63   : 	else if (_morph_var % 5) {
; 64   : 		_morph_var = (_morph_var + 11) / ((int)a + 23);
; 65   : 		while (!(_morph_var % 3))
; 66   : 			if (_morph_var % 5)
; 67   : 				++_morph_var;
; 68   : 			else --_morph_var;
; 69   : 	}
; 70   : }

  000c3	c3		 ret	 0
?morphcode@@YAXH@Z ENDP					; morphcode
_TEXT	ENDS
; Function compile flags: /Ogtpy
; File C:\Users\admin-z10\Desktop\conti_v3\cryptor\mrph.h
;	COMDAT ?morphcode@@YAXPEAX@Z
_TEXT	SEGMENT
a$ = 8
_morph_var$1 = 16
?morphcode@@YAXPEAX@Z PROC				; morphcode, COMDAT

; 40   : 	volatile int _morph_var = static_cast<int>(1 + MetaRandom2<0, 0x7FFFFF - 1>::value);

  00000	c7 44 24 10 c1
	9b 17 00	 mov	 DWORD PTR _morph_var$1[rsp], 1547201 ; 00179bc1H

; 41   : #else
; 42   : 	volatile int _morph_var = a;
; 43   : #endif
; 44   : 
; 45   : 	// делаем арифметическую операцию со случайным (времени компиляции) числом, и операндом.
; 46   : 	// за счет того, что число известно во время компиляции, оптимизатор оставит лишь один вариант действия,
; 47   : 	// выкинув остальные. Таким образом, одна и та же вставка будет давать всякий раз разный результат.
; 48   : 	if (_morph_var % 3) {

  00008	b8 56 55 55 55	 mov	 eax, 1431655766		; 55555556H
  0000d	44 8b 44 24 10	 mov	 r8d, DWORD PTR _morph_var$1[rsp]

; 74   : __forceinline void morphcode(void* a) {

  00012	4c 8b c9	 mov	 r9, rcx

; 48   : 	if (_morph_var % 3) {

  00015	41 f7 e8	 imul	 r8d
  00018	8b c2		 mov	 eax, edx
  0001a	c1 e8 1f	 shr	 eax, 31
  0001d	03 d0		 add	 edx, eax
  0001f	8d 04 52	 lea	 eax, DWORD PTR [rdx+rdx*2]
  00022	44 3b c0	 cmp	 r8d, eax
  00025	74 4a		 je	 SHORT $LN12@morphcode

; 49   : 		_morph_var += (int)a + 2;

  00027	8b 4c 24 10	 mov	 ecx, DWORD PTR _morph_var$1[rsp]
  0002b	83 c1 02	 add	 ecx, 2
  0002e	41 03 c9	 add	 ecx, r9d
  00031	89 4c 24 10	 mov	 DWORD PTR _morph_var$1[rsp], ecx

; 50   : 		while (!(_morph_var % 4)) ++_morph_var;

  00035	8b 44 24 10	 mov	 eax, DWORD PTR _morph_var$1[rsp]
  00039	25 03 00 00 80	 and	 eax, -2147483645	; ffffffff80000003H
  0003e	7d 07		 jge	 SHORT $LN40@morphcode
  00040	ff c8		 dec	 eax
  00042	83 c8 fc	 or	 eax, -4
  00045	ff c0		 inc	 eax
$LN40@morphcode:
  00047	85 c0		 test	 eax, eax
  00049	75 78		 jne	 SHORT $LN11@morphcode
  0004b	0f 1f 44 00 00	 npad	 5
$LL4@morphcode:
  00050	8b 44 24 10	 mov	 eax, DWORD PTR _morph_var$1[rsp]
  00054	ff c0		 inc	 eax
  00056	89 44 24 10	 mov	 DWORD PTR _morph_var$1[rsp], eax
  0005a	8b 44 24 10	 mov	 eax, DWORD PTR _morph_var$1[rsp]
  0005e	25 03 00 00 80	 and	 eax, -2147483645	; ffffffff80000003H
  00063	7d 07		 jge	 SHORT $LN39@morphcode
  00065	ff c8		 dec	 eax
  00067	83 c8 fc	 or	 eax, -4
  0006a	ff c0		 inc	 eax
$LN39@morphcode:
  0006c	85 c0		 test	 eax, eax
  0006e	74 e0		 je	 SHORT $LL4@morphcode

; 75   : 	morphcode((int)a);
; 76   : }

  00070	c3		 ret	 0
$LN12@morphcode:

; 52   : 	else if (_morph_var % 2) {

  00071	8b 44 24 10	 mov	 eax, DWORD PTR _morph_var$1[rsp]

; 53   : 		_morph_var -= (int)a - 2;

  00075	b9 02 00 00 00	 mov	 ecx, 2
  0007a	8b 44 24 10	 mov	 eax, DWORD PTR _morph_var$1[rsp]
  0007e	41 2b c9	 sub	 ecx, r9d
  00081	03 c8		 add	 ecx, eax

; 54   : 		while (!(_morph_var % 3)) ++_morph_var;

  00083	b8 56 55 55 55	 mov	 eax, 1431655766		; 55555556H
  00088	89 4c 24 10	 mov	 DWORD PTR _morph_var$1[rsp], ecx
  0008c	8b 4c 24 10	 mov	 ecx, DWORD PTR _morph_var$1[rsp]
  00090	f7 e9		 imul	 ecx
  00092	8b c2		 mov	 eax, edx
  00094	c1 e8 1f	 shr	 eax, 31
  00097	03 d0		 add	 edx, eax
  00099	8d 04 52	 lea	 eax, DWORD PTR [rdx+rdx*2]
  0009c	3b c8		 cmp	 ecx, eax
  0009e	75 23		 jne	 SHORT $LN11@morphcode
$LL6@morphcode:
  000a0	8b 44 24 10	 mov	 eax, DWORD PTR _morph_var$1[rsp]
  000a4	ff c0		 inc	 eax
  000a6	89 44 24 10	 mov	 DWORD PTR _morph_var$1[rsp], eax
  000aa	b8 56 55 55 55	 mov	 eax, 1431655766		; 55555556H
  000af	8b 4c 24 10	 mov	 ecx, DWORD PTR _morph_var$1[rsp]
  000b3	f7 e9		 imul	 ecx
  000b5	8b c2		 mov	 eax, edx
  000b7	c1 e8 1f	 shr	 eax, 31
  000ba	03 d0		 add	 edx, eax
  000bc	8d 04 52	 lea	 eax, DWORD PTR [rdx+rdx*2]
  000bf	3b c8		 cmp	 ecx, eax
  000c1	74 dd		 je	 SHORT $LL6@morphcode
$LN11@morphcode:

; 75   : 	morphcode((int)a);
; 76   : }

  000c3	c3		 ret	 0
?morphcode@@YAXPEAX@Z ENDP				; morphcode
_TEXT	ENDS
; Function compile flags: /Ogtpy
; File C:\Users\admin-z10\Desktop\conti_v3\cryptor\api\getapi.cpp
;	COMDAT ?IsRestartManagerLoaded@getapi@@YAHXZ
_TEXT	SEGMENT
?IsRestartManagerLoaded@getapi@@YAHXZ PROC		; getapi::IsRestartManagerLoaded, COMDAT

; 48   : 	return g_IsRstrtMgrLoaded;

  00000	8b 05 00 00 00
	00		 mov	 eax, DWORD PTR ?g_IsRstrtMgrLoaded@@3HA ; g_IsRstrtMgrLoaded

; 49   : }

  00006	c3		 ret	 0
?IsRestartManagerLoaded@getapi@@YAHXZ ENDP		; getapi::IsRestartManagerLoaded
_TEXT	ENDS
; Function compile flags: /Ogtpy
; File C:\Users\admin-z10\Desktop\conti_v3\cryptor\api\getapi.cpp
;	COMDAT ?StrLen@@YAHPEBD@Z
_TEXT	SEGMENT
Str$ = 8
?StrLen@@YAHPEBD@Z PROC					; StrLen, COMDAT

; 61   : 	INT Length = 0;

  00000	33 c0		 xor	 eax, eax

; 62   : 	while (*Str)

  00002	38 01		 cmp	 BYTE PTR [rcx], al
  00004	74 15		 je	 SHORT $LN9@StrLen
  00006	66 66 0f 1f 84
	00 00 00 00 00	 npad	 10
$LL2@StrLen:

; 63   : 	{
; 64   : 
; 65   : 		Length++;

  00010	ff c0		 inc	 eax

; 66   : 		Str++;

  00012	48 8d 49 01	 lea	 rcx, QWORD PTR [rcx+1]
  00016	80 39 00	 cmp	 BYTE PTR [rcx], 0
  00019	75 f5		 jne	 SHORT $LL2@StrLen
$LN9@StrLen:

; 67   : 
; 68   : 	}
; 69   : 
; 70   : 	return Length;
; 71   : }

  0001b	c3		 ret	 0
?StrLen@@YAHPEBD@Z ENDP					; StrLen
_TEXT	ENDS
; Function compile flags: /Ogtpy
; File C:\Users\admin-z10\Desktop\conti_v3\cryptor\api\getapi.cpp
;	COMDAT ?m_memcpy@@YAXPEAXQEAX_K@Z
_TEXT	SEGMENT
pDst$ = 8
pSrc$ = 16
size$ = 24
?m_memcpy@@YAXPEAXQEAX_K@Z PROC				; m_memcpy, COMDAT

; 97   : 	void* tmp = pDst;
; 98   : 	size_t wordsize = sizeof(size_t);
; 99   : 	unsigned char* _src = (unsigned char*)pSrc;
; 100  : 	unsigned char* _dst = (unsigned char*)pDst;
; 101  : 	size_t   len;
; 102  : 	for (len = size / wordsize; len--; _src += wordsize, _dst += wordsize)

  00000	4d 8b c8	 mov	 r9, r8
  00003	49 c1 e9 03	 shr	 r9, 3
  00007	4d 85 c9	 test	 r9, r9
  0000a	74 18		 je	 SHORT $LN10@m_memcpy
  0000c	0f 1f 40 00	 npad	 4
$LL4@m_memcpy:

; 103  : 		*(size_t*)_dst = *(size_t*)_src;

  00010	48 8b 02	 mov	 rax, QWORD PTR [rdx]
  00013	48 83 c2 08	 add	 rdx, 8
  00017	48 89 01	 mov	 QWORD PTR [rcx], rax
  0001a	48 83 c1 08	 add	 rcx, 8
  0001e	49 83 e9 01	 sub	 r9, 1
  00022	75 ec		 jne	 SHORT $LL4@m_memcpy
$LN10@m_memcpy:

; 104  : 
; 105  : 	len = size % wordsize;

  00024	41 83 e0 07	 and	 r8d, 7

; 106  : 	while (len--)

  00028	74 16		 je	 SHORT $LN12@m_memcpy
  0002a	48 2b ca	 sub	 rcx, rdx
  0002d	0f 1f 00	 npad	 3
$LL5@m_memcpy:

; 107  : 		*_dst++ = *_src++;

  00030	0f b6 02	 movzx	 eax, BYTE PTR [rdx]
  00033	88 04 11	 mov	 BYTE PTR [rcx+rdx], al
  00036	48 8d 52 01	 lea	 rdx, QWORD PTR [rdx+1]
  0003a	49 83 e8 01	 sub	 r8, 1
  0003e	75 f0		 jne	 SHORT $LL5@m_memcpy
$LN12@m_memcpy:

; 108  : }

  00040	c3		 ret	 0
?m_memcpy@@YAXPEAXQEAX_K@Z ENDP				; m_memcpy
_TEXT	ENDS
; Function compile flags: /Ogtpy
; File C:\Users\admin-z10\Desktop\conti_v3\cryptor\api\getapi.cpp
;	COMDAT ?FindChar@@YAPEADPEADD@Z
_TEXT	SEGMENT
Str$ = 8
Ch$dead$ = 16
?FindChar@@YAPEADPEADD@Z PROC				; FindChar, COMDAT

; 117  : 	while (*Str)

  00000	0f b6 01	 movzx	 eax, BYTE PTR [rcx]
  00003	84 c0		 test	 al, al
  00005	74 0f		 je	 SHORT $LN3@FindChar
$LL2@FindChar:

; 118  : 	{
; 119  : 
; 120  : 		if (*Str == Ch) {

  00007	3c 2e		 cmp	 al, 46			; 0000002eH
  00009	74 0e		 je	 SHORT $LN7@FindChar

; 122  : 		}
; 123  : 
; 124  : 		Str++;

  0000b	0f b6 41 01	 movzx	 eax, BYTE PTR [rcx+1]
  0000f	48 ff c1	 inc	 rcx
  00012	84 c0		 test	 al, al
  00014	75 f1		 jne	 SHORT $LL2@FindChar
$LN3@FindChar:

; 125  : 
; 126  : 	}
; 127  : 
; 128  : 	return NULL;

  00016	33 c0		 xor	 eax, eax

; 129  : }

  00018	c3		 ret	 0
$LN7@FindChar:

; 121  : 			return Str;

  00019	48 8b c1	 mov	 rax, rcx

; 129  : }

  0001c	c3		 ret	 0
?FindChar@@YAPEADPEADD@Z ENDP				; FindChar
_TEXT	ENDS
; Function compile flags: /Ogtpy
; File C:\Users\admin-z10\Desktop\conti_v3\cryptor\api\getapi.cpp
;	COMDAT ?my_stoi@@YAHPEAD@Z
_TEXT	SEGMENT
str$ = 8
?my_stoi@@YAHPEAD@Z PROC				; my_stoi, COMDAT

; 134  : {

$LN44:
  00000	48 89 5c 24 08	 mov	 QWORD PTR [rsp+8], rbx

; 135  : 	unsigned int strLen = 0;

  00005	45 33 c9	 xor	 r9d, r9d

; 136  : 	unsigned int i = 0;

  00008	33 d2		 xor	 edx, edx
  0000a	4c 8b d1	 mov	 r10, rcx

; 137  : 	while (str[i] != '\0') {

  0000d	38 11		 cmp	 BYTE PTR [rcx], dl
  0000f	74 0c		 je	 SHORT $LN3@my_stoi
$LL2@my_stoi:

; 138  : 		strLen += 1;

  00011	41 ff c1	 inc	 r9d

; 139  : 		i++;

  00014	8d 52 01	 lea	 edx, DWORD PTR [rdx+1]
  00017	80 3c 0a 00	 cmp	 BYTE PTR [rdx+rcx], 0
  0001b	75 f4		 jne	 SHORT $LL2@my_stoi
$LN3@my_stoi:

; 140  : 	}
; 141  : 
; 142  : 	int num = 0;

  0001d	45 33 db	 xor	 r11d, r11d

; 143  : 	int ten;
; 144  : 	BOOL signFlag = TRUE; //true: +, false: -
; 145  : 	for (i = 0; i < strLen; i++) {

  00020	33 d2		 xor	 edx, edx
  00022	41 8d 5b 01	 lea	 ebx, QWORD PTR [r11+1]
  00026	45 85 c9	 test	 r9d, r9d
  00029	74 66		 je	 SHORT $LN31@my_stoi
  0002b	0f 1f 44 00 00	 npad	 5
$LL6@my_stoi:

; 146  : 		if (str[i] < '0' || str[i] > '9') {

  00030	45 0f be 02	 movsx	 r8d, BYTE PTR [r10]
  00034	41 8d 40 d0	 lea	 eax, DWORD PTR [r8-48]
  00038	3c 09		 cmp	 al, 9
  0003a	77 2b		 ja	 SHORT $LN11@my_stoi

; 153  : 				continue;
; 154  : 			}
; 155  : 
; 156  : 			return 0;
; 157  : 		}
; 158  : 
; 159  : 		ten = 1;
; 160  : 		for (unsigned int j = 0; j < strLen - 1 - i; j++) {

  0003c	41 8b c9	 mov	 ecx, r9d
  0003f	b8 01 00 00 00	 mov	 eax, 1
  00044	2b ca		 sub	 ecx, edx
  00046	2b c8		 sub	 ecx, eax
  00048	74 11		 je	 SHORT $LN8@my_stoi
  0004a	66 0f 1f 44 00
	00		 npad	 6
$LL23@my_stoi:

; 161  : 			ten *= 10;

  00050	8d 04 80	 lea	 eax, DWORD PTR [rax+rax*4]
  00053	03 c0		 add	 eax, eax
  00055	48 83 e9 01	 sub	 rcx, 1
  00059	75 f5		 jne	 SHORT $LL23@my_stoi
$LN8@my_stoi:

; 162  : 		}
; 163  : 
; 164  : 		num += ten * (str[i] - '0');

  0005b	41 8d 48 d0	 lea	 ecx, DWORD PTR [r8-48]
  0005f	0f af c8	 imul	 ecx, eax
  00062	44 03 d9	 add	 r11d, ecx

; 165  : 	}

  00065	eb 19		 jmp	 SHORT $LN4@my_stoi
$LN11@my_stoi:

; 147  : 			if (i == 0 && str[i] == '-') {

  00067	85 d2		 test	 edx, edx
  00069	75 2f		 jne	 SHORT $LN13@my_stoi
  0006b	41 80 f8 2d	 cmp	 r8b, 45			; 0000002dH
  0006f	75 04		 jne	 SHORT $LN32@my_stoi

; 148  : 				signFlag = FALSE;

  00071	33 db		 xor	 ebx, ebx

; 149  : 				continue;

  00073	eb 0b		 jmp	 SHORT $LN4@my_stoi
$LN32@my_stoi:

; 150  : 			}
; 151  : 			if (i == 0 && str[i] == '+') {

  00075	41 80 f8 2b	 cmp	 r8b, 43			; 0000002bH
  00079	75 1f		 jne	 SHORT $LN13@my_stoi

; 152  : 				signFlag = TRUE;

  0007b	bb 01 00 00 00	 mov	 ebx, 1
$LN4@my_stoi:

; 143  : 	int ten;
; 144  : 	BOOL signFlag = TRUE; //true: +, false: -
; 145  : 	for (i = 0; i < strLen; i++) {

  00080	ff c2		 inc	 edx
  00082	49 ff c2	 inc	 r10
  00085	41 3b d1	 cmp	 edx, r9d
  00088	72 a6		 jb	 SHORT $LL6@my_stoi

; 166  : 
; 167  : 	if (signFlag) {

  0008a	85 db		 test	 ebx, ebx
  0008c	75 03		 jne	 SHORT $LN31@my_stoi

; 168  : 		return num;
; 169  : 	}
; 170  : 	else {
; 171  : 		return -num;

  0008e	41 f7 db	 neg	 r11d
$LN31@my_stoi:

; 172  : 	}
; 173  : }

  00091	41 8b c3	 mov	 eax, r11d
  00094	48 8b 5c 24 08	 mov	 rbx, QWORD PTR [rsp+8]
  00099	c3		 ret	 0
$LN13@my_stoi:
  0009a	48 8b 5c 24 08	 mov	 rbx, QWORD PTR [rsp+8]
  0009f	33 c0		 xor	 eax, eax
  000a1	c3		 ret	 0
?my_stoi@@YAHPEAD@Z ENDP				; my_stoi
_TEXT	ENDS
; Function compile flags: /Ogtpy
; File C:\Users\admin-z10\Desktop\conti_v3\cryptor\api\getapi.cpp
; File C:\Users\admin-z10\Desktop\conti_v3\cryptor\mrph.h
; File C:\Users\admin-z10\Desktop\conti_v3\cryptor\api\getapi.cpp
; File C:\Users\admin-z10\Desktop\conti_v3\cryptor\mrph.h
; File C:\Users\admin-z10\Desktop\conti_v3\cryptor\api\getapi.cpp
; File C:\Users\admin-z10\Desktop\conti_v3\cryptor\mrph.h
; File C:\Program Files (x86)\Windows Kits\10\Include\10.0.22621.0\um\winnt.h
; File C:\Users\admin-z10\Desktop\conti_v3\cryptor\mrph.h
; File C:\Users\admin-z10\Desktop\conti_v3\cryptor\api\getapi.cpp
; File C:\Users\admin-z10\Desktop\conti_v3\cryptor\mrph.h
; File C:\Users\admin-z10\Desktop\conti_v3\cryptor\api\getapi.cpp
; File C:\Users\admin-z10\Desktop\conti_v3\cryptor\mrph.h
; File C:\Users\admin-z10\Desktop\conti_v3\cryptor\api\getapi.cpp
; File C:\Users\admin-z10\Desktop\conti_v3\cryptor\mrph.h
; File C:\Users\admin-z10\Desktop\conti_v3\cryptor\api\getapi.cpp
; File C:\Users\admin-z10\Desktop\conti_v3\cryptor\mrph.h
; File C:\Users\admin-z10\Desktop\conti_v3\cryptor\api\getapi.cpp
; File C:\Users\admin-z10\Desktop\conti_v3\cryptor\mrph.h
; File C:\Users\admin-z10\Desktop\conti_v3\cryptor\api\getapi.cpp
; File C:\Users\admin-z10\Desktop\conti_v3\cryptor\mrph.h
; File C:\Users\admin-z10\Desktop\conti_v3\cryptor\api\getapi.cpp
; File C:\Users\admin-z10\Desktop\conti_v3\cryptor\mrph.h
; File C:\Users\admin-z10\Desktop\conti_v3\cryptor\api\getapi.cpp
; File C:\Users\admin-z10\Desktop\conti_v3\cryptor\mrph.h
; File C:\Users\admin-z10\Desktop\conti_v3\cryptor\api\getapi.cpp
;	COMDAT ?GetForvardedProc@@YAPEAXPEAD@Z
_TEXT	SEGMENT
_morph_var$2 = 32
_morph_var$3 = 32
_morph_var$4 = 32
_morph_var$5 = 32
_morph_var$6 = 32
_morph_var$7 = 32
_morph_var$8 = 32
_morph_var$9 = 32
szDll$ = 36
DLLName$ = 48
__$ArrayPad$ = 304
Name$ = 336
?GetForvardedProc@@YAPEAXPEAD@Z PROC			; GetForvardedProc, COMDAT

; 178  : {

$LN1430:
  00000	48 89 74 24 18	 mov	 QWORD PTR [rsp+24], rsi
  00005	48 89 7c 24 20	 mov	 QWORD PTR [rsp+32], rdi
  0000a	55		 push	 rbp
  0000b	48 8d 6c 24 c0	 lea	 rbp, QWORD PTR [rsp-64]
  00010	48 81 ec 40 01
	00 00		 sub	 rsp, 320		; 00000140H
  00017	48 8b 05 00 00
	00 00		 mov	 rax, QWORD PTR __security_cookie
  0001e	48 33 c4	 xor	 rax, rsp
  00021	48 89 45 30	 mov	 QWORD PTR __$ArrayPad$[rbp-256], rax

; 179  : 	char szDll[] = { '.','c','k','m',0 };

  00025	66 c7 44 24 24
	2e 64		 mov	 WORD PTR szDll$[rsp], 25646 ; 0000642eH
; File C:\Users\admin-z10\Desktop\conti_v3\cryptor\mrph.h

; 48   : 	if (_morph_var % 3) {

  0002c	b8 56 55 55 55	 mov	 eax, 1431655766		; 55555556H
; File C:\Users\admin-z10\Desktop\conti_v3\cryptor\api\getapi.cpp

; 182  : 	--szDll[3];

  00031	66 c7 44 24 27
	6c 00		 mov	 WORD PTR szDll$[rsp+3], 108 ; 0000006cH
  00038	4c 8b c1	 mov	 r8, rcx

; 183  : 	szDll[1]++;
; 184  : 	++szDll[2];

  0003b	c6 44 24 26 6c	 mov	 BYTE PTR szDll$[rsp+2], 108 ; 0000006cH
; File C:\Users\admin-z10\Desktop\conti_v3\cryptor\mrph.h

; 48   : 	if (_morph_var % 3) {

  00040	be 02 00 00 00	 mov	 esi, 2
  00045	c7 44 24 20 c1
	9b 17 00	 mov	 DWORD PTR _morph_var$9[rsp], 1547201 ; 00179bc1H
  0004d	8b 7c 24 20	 mov	 edi, DWORD PTR _morph_var$9[rsp]
  00051	f7 ef		 imul	 edi
  00053	8b c2		 mov	 eax, edx
  00055	c1 e8 1f	 shr	 eax, 31
  00058	03 d0		 add	 edx, eax
  0005a	8d 04 52	 lea	 eax, DWORD PTR [rdx+rdx*2]
  0005d	3b f8		 cmp	 edi, eax
  0005f	8b 44 24 20	 mov	 eax, DWORD PTR _morph_var$9[rsp]
  00063	74 4d		 je	 SHORT $LN17@GetForvard

; 49   : 		_morph_var += (int)a + 2;

  00065	8d 4c 24 26	 lea	 ecx, QWORD PTR szDll$[rsp+2]
  00069	03 c8		 add	 ecx, eax
  0006b	89 4c 24 20	 mov	 DWORD PTR _morph_var$9[rsp], ecx

; 50   : 		while (!(_morph_var % 4)) ++_morph_var;

  0006f	8b 44 24 20	 mov	 eax, DWORD PTR _morph_var$9[rsp]
  00073	25 03 00 00 80	 and	 eax, -2147483645	; ffffffff80000003H
  00078	7d 07		 jge	 SHORT $LN1302@GetForvard
  0007a	ff c8		 dec	 eax
  0007c	83 c8 fc	 or	 eax, -4
  0007f	ff c0		 inc	 eax
$LN1302@GetForvard:
  00081	85 c0		 test	 eax, eax
  00083	75 7e		 jne	 SHORT $LN16@GetForvard
  00085	66 66 66 0f 1f
	84 00 00 00 00
	00		 npad	 11
$LL9@GetForvard:
  00090	8b 44 24 20	 mov	 eax, DWORD PTR _morph_var$9[rsp]
  00094	ff c0		 inc	 eax
  00096	89 44 24 20	 mov	 DWORD PTR _morph_var$9[rsp], eax
  0009a	8b 44 24 20	 mov	 eax, DWORD PTR _morph_var$9[rsp]
  0009e	25 03 00 00 80	 and	 eax, -2147483645	; ffffffff80000003H
  000a3	7d 07		 jge	 SHORT $LN1301@GetForvard
  000a5	ff c8		 dec	 eax
  000a7	83 c8 fc	 or	 eax, -4
  000aa	ff c0		 inc	 eax
$LN1301@GetForvard:
  000ac	85 c0		 test	 eax, eax
  000ae	74 e0		 je	 SHORT $LL9@GetForvard

; 51   : 	}

  000b0	eb 51		 jmp	 SHORT $LN16@GetForvard
$LN17@GetForvard:

; 53   : 		_morph_var -= (int)a - 2;

  000b2	48 8d 44 24 24	 lea	 rax, QWORD PTR szDll$[rsp]
  000b7	8b ce		 mov	 ecx, esi
  000b9	2b c8		 sub	 ecx, eax
  000bb	8b 44 24 20	 mov	 eax, DWORD PTR _morph_var$9[rsp]
  000bf	03 c8		 add	 ecx, eax

; 54   : 		while (!(_morph_var % 3)) ++_morph_var;

  000c1	b8 56 55 55 55	 mov	 eax, 1431655766		; 55555556H
  000c6	89 4c 24 20	 mov	 DWORD PTR _morph_var$9[rsp], ecx
  000ca	8b 4c 24 20	 mov	 ecx, DWORD PTR _morph_var$9[rsp]
  000ce	f7 e9		 imul	 ecx
  000d0	8b c2		 mov	 eax, edx
  000d2	c1 e8 1f	 shr	 eax, 31
  000d5	03 d0		 add	 edx, eax
  000d7	8d 04 52	 lea	 eax, DWORD PTR [rdx+rdx*2]
  000da	3b c8		 cmp	 ecx, eax
  000dc	75 25		 jne	 SHORT $LN16@GetForvard
  000de	66 90		 npad	 2
$LL11@GetForvard:
  000e0	8b 44 24 20	 mov	 eax, DWORD PTR _morph_var$9[rsp]
  000e4	ff c0		 inc	 eax
  000e6	89 44 24 20	 mov	 DWORD PTR _morph_var$9[rsp], eax
  000ea	b8 56 55 55 55	 mov	 eax, 1431655766		; 55555556H
  000ef	8b 4c 24 20	 mov	 ecx, DWORD PTR _morph_var$9[rsp]
  000f3	f7 e9		 imul	 ecx
  000f5	8b c2		 mov	 eax, edx
  000f7	c1 e8 1f	 shr	 eax, 31
  000fa	03 d0		 add	 edx, eax
  000fc	8d 04 52	 lea	 eax, DWORD PTR [rdx+rdx*2]
  000ff	3b c8		 cmp	 ecx, eax
  00101	74 dd		 je	 SHORT $LL11@GetForvard
$LN16@GetForvard:
; File C:\Users\admin-z10\Desktop\conti_v3\cryptor\api\getapi.cpp

; 188  : 	if (Name == NULL) return NULL;

  00103	4d 85 c0	 test	 r8, r8
  00106	0f 84 a4 01 00
	00		 je	 $LN1273@GetForvard
; File C:\Users\admin-z10\Desktop\conti_v3\cryptor\mrph.h

; 40   : 	volatile int _morph_var = static_cast<int>(1 + MetaRandom2<0, 0x7FFFFF - 1>::value);

  0010c	89 7c 24 20	 mov	 DWORD PTR _morph_var$8[rsp], edi

; 48   : 	if (_morph_var % 3) {

  00110	b8 56 55 55 55	 mov	 eax, 1431655766		; 55555556H
  00115	8b 4c 24 20	 mov	 ecx, DWORD PTR _morph_var$8[rsp]
  00119	f7 e9		 imul	 ecx
  0011b	8b c2		 mov	 eax, edx
  0011d	c1 e8 1f	 shr	 eax, 31
  00120	03 d0		 add	 edx, eax
  00122	8d 04 52	 lea	 eax, DWORD PTR [rdx+rdx*2]
  00125	3b c8		 cmp	 ecx, eax
  00127	74 49		 je	 SHORT $LN40@GetForvard

; 49   : 		_morph_var += (int)a + 2;

  00129	8b 4c 24 20	 mov	 ecx, DWORD PTR _morph_var$8[rsp]
  0012d	03 ce		 add	 ecx, esi
  0012f	41 03 c8	 add	 ecx, r8d
  00132	89 4c 24 20	 mov	 DWORD PTR _morph_var$8[rsp], ecx

; 50   : 		while (!(_morph_var % 4)) ++_morph_var;

  00136	8b 44 24 20	 mov	 eax, DWORD PTR _morph_var$8[rsp]
  0013a	25 03 00 00 80	 and	 eax, -2147483645	; ffffffff80000003H
  0013f	7d 07		 jge	 SHORT $LN1299@GetForvard
  00141	ff c8		 dec	 eax
  00143	83 c8 fc	 or	 eax, -4
  00146	ff c0		 inc	 eax
$LN1299@GetForvard:
  00148	85 c0		 test	 eax, eax
  0014a	75 77		 jne	 SHORT $LN39@GetForvard
  0014c	0f 1f 40 00	 npad	 4
$LL32@GetForvard:
  00150	8b 44 24 20	 mov	 eax, DWORD PTR _morph_var$8[rsp]
  00154	ff c0		 inc	 eax
  00156	89 44 24 20	 mov	 DWORD PTR _morph_var$8[rsp], eax
  0015a	8b 44 24 20	 mov	 eax, DWORD PTR _morph_var$8[rsp]
  0015e	25 03 00 00 80	 and	 eax, -2147483645	; ffffffff80000003H
  00163	7d 07		 jge	 SHORT $LN1298@GetForvard
  00165	ff c8		 dec	 eax
  00167	83 c8 fc	 or	 eax, -4
  0016a	ff c0		 inc	 eax
$LN1298@GetForvard:
  0016c	85 c0		 test	 eax, eax
  0016e	74 e0		 je	 SHORT $LL32@GetForvard

; 51   : 	}

  00170	eb 51		 jmp	 SHORT $LN39@GetForvard
$LN40@GetForvard:

; 52   : 	else if (_morph_var % 2) {

  00172	8b 44 24 20	 mov	 eax, DWORD PTR _morph_var$8[rsp]

; 53   : 		_morph_var -= (int)a - 2;

  00176	8b ce		 mov	 ecx, esi
  00178	8b 44 24 20	 mov	 eax, DWORD PTR _morph_var$8[rsp]
  0017c	41 2b c8	 sub	 ecx, r8d
  0017f	03 c8		 add	 ecx, eax

; 54   : 		while (!(_morph_var % 3)) ++_morph_var;

  00181	b8 56 55 55 55	 mov	 eax, 1431655766		; 55555556H
  00186	89 4c 24 20	 mov	 DWORD PTR _morph_var$8[rsp], ecx
  0018a	8b 4c 24 20	 mov	 ecx, DWORD PTR _morph_var$8[rsp]
  0018e	f7 e9		 imul	 ecx
  00190	8b c2		 mov	 eax, edx
  00192	c1 e8 1f	 shr	 eax, 31
  00195	03 d0		 add	 edx, eax
  00197	8d 04 52	 lea	 eax, DWORD PTR [rdx+rdx*2]
  0019a	3b c8		 cmp	 ecx, eax
  0019c	75 25		 jne	 SHORT $LN39@GetForvard
  0019e	66 90		 npad	 2
$LL34@GetForvard:
  001a0	8b 44 24 20	 mov	 eax, DWORD PTR _morph_var$8[rsp]
  001a4	ff c0		 inc	 eax
  001a6	89 44 24 20	 mov	 DWORD PTR _morph_var$8[rsp], eax
  001aa	b8 56 55 55 55	 mov	 eax, 1431655766		; 55555556H
  001af	8b 4c 24 20	 mov	 ecx, DWORD PTR _morph_var$8[rsp]
  001b3	f7 e9		 imul	 ecx
  001b5	8b c2		 mov	 eax, edx
  001b7	c1 e8 1f	 shr	 eax, 31
  001ba	03 d0		 add	 edx, eax
  001bc	8d 04 52	 lea	 eax, DWORD PTR [rdx+rdx*2]
  001bf	3b c8		 cmp	 ecx, eax
  001c1	74 dd		 je	 SHORT $LL34@GetForvard
$LN39@GetForvard:
; File C:\Program Files (x86)\Windows Kits\10\Include\10.0.22621.0\um\winnt.h

; 21771:     __stosb((PBYTE )((DWORD64)vptr), 0, cnt);

  001c3	33 c0		 xor	 eax, eax
  001c5	48 8d 7c 24 30	 lea	 rdi, QWORD PTR DLLName$[rsp]
  001ca	b9 00 01 00 00	 mov	 ecx, 256		; 00000100H
  001cf	f3 aa		 rep stosb
; File C:\Users\admin-z10\Desktop\conti_v3\cryptor\mrph.h

; 40   : 	volatile int _morph_var = static_cast<int>(1 + MetaRandom2<0, 0x7FFFFF - 1>::value);

  001d1	c7 44 24 20 c1
	9b 17 00	 mov	 DWORD PTR _morph_var$7[rsp], 1547201 ; 00179bc1H

; 48   : 	if (_morph_var % 3) {

  001d9	b8 56 55 55 55	 mov	 eax, 1431655766		; 55555556H
  001de	8b 4c 24 20	 mov	 ecx, DWORD PTR _morph_var$7[rsp]
  001e2	f7 e9		 imul	 ecx
  001e4	8b c2		 mov	 eax, edx
  001e6	c1 e8 1f	 shr	 eax, 31
  001e9	03 d0		 add	 edx, eax
  001eb	8d 04 52	 lea	 eax, DWORD PTR [rdx+rdx*2]
  001ee	3b c8		 cmp	 ecx, eax
  001f0	8b 44 24 20	 mov	 eax, DWORD PTR _morph_var$7[rsp]
  001f4	74 4c		 je	 SHORT $LN65@GetForvard

; 49   : 		_morph_var += (int)a + 2;

  001f6	8d 4c 24 32	 lea	 ecx, QWORD PTR DLLName$[rsp+2]
  001fa	03 c8		 add	 ecx, eax
  001fc	89 4c 24 20	 mov	 DWORD PTR _morph_var$7[rsp], ecx

; 50   : 		while (!(_morph_var % 4)) ++_morph_var;

  00200	8b 44 24 20	 mov	 eax, DWORD PTR _morph_var$7[rsp]
  00204	25 03 00 00 80	 and	 eax, -2147483645	; ffffffff80000003H
  00209	7d 07		 jge	 SHORT $LN1296@GetForvard
  0020b	ff c8		 dec	 eax
  0020d	83 c8 fc	 or	 eax, -4
  00210	ff c0		 inc	 eax
$LN1296@GetForvard:
  00212	85 c0		 test	 eax, eax
  00214	75 7d		 jne	 SHORT $LN64@GetForvard
  00216	66 66 0f 1f 84
	00 00 00 00 00	 npad	 10
$LL57@GetForvard:
  00220	8b 44 24 20	 mov	 eax, DWORD PTR _morph_var$7[rsp]
  00224	ff c0		 inc	 eax
  00226	89 44 24 20	 mov	 DWORD PTR _morph_var$7[rsp], eax
  0022a	8b 44 24 20	 mov	 eax, DWORD PTR _morph_var$7[rsp]
  0022e	25 03 00 00 80	 and	 eax, -2147483645	; ffffffff80000003H
  00233	7d 07		 jge	 SHORT $LN1295@GetForvard
  00235	ff c8		 dec	 eax
  00237	83 c8 fc	 or	 eax, -4
  0023a	ff c0		 inc	 eax
$LN1295@GetForvard:
  0023c	85 c0		 test	 eax, eax
  0023e	74 e0		 je	 SHORT $LL57@GetForvard

; 51   : 	}

  00240	eb 51		 jmp	 SHORT $LN64@GetForvard
$LN65@GetForvard:

; 53   : 		_morph_var -= (int)a - 2;

  00242	48 8d 44 24 30	 lea	 rax, QWORD PTR DLLName$[rsp]
  00247	8b ce		 mov	 ecx, esi
  00249	2b c8		 sub	 ecx, eax
  0024b	8b 44 24 20	 mov	 eax, DWORD PTR _morph_var$7[rsp]
  0024f	03 c8		 add	 ecx, eax

; 54   : 		while (!(_morph_var % 3)) ++_morph_var;

  00251	b8 56 55 55 55	 mov	 eax, 1431655766		; 55555556H
  00256	89 4c 24 20	 mov	 DWORD PTR _morph_var$7[rsp], ecx
  0025a	8b 4c 24 20	 mov	 ecx, DWORD PTR _morph_var$7[rsp]
  0025e	f7 e9		 imul	 ecx
  00260	8b c2		 mov	 eax, edx
  00262	c1 e8 1f	 shr	 eax, 31
  00265	03 d0		 add	 edx, eax
  00267	8d 04 52	 lea	 eax, DWORD PTR [rdx+rdx*2]
  0026a	3b c8		 cmp	 ecx, eax
  0026c	75 25		 jne	 SHORT $LN64@GetForvard
  0026e	66 90		 npad	 2
$LL59@GetForvard:
  00270	8b 44 24 20	 mov	 eax, DWORD PTR _morph_var$7[rsp]
  00274	ff c0		 inc	 eax
  00276	89 44 24 20	 mov	 DWORD PTR _morph_var$7[rsp], eax
  0027a	b8 56 55 55 55	 mov	 eax, 1431655766		; 55555556H
  0027f	8b 4c 24 20	 mov	 ecx, DWORD PTR _morph_var$7[rsp]
  00283	f7 e9		 imul	 ecx
  00285	8b c2		 mov	 eax, edx
  00287	c1 e8 1f	 shr	 eax, 31
  0028a	03 d0		 add	 edx, eax
  0028c	8d 04 52	 lea	 eax, DWORD PTR [rdx+rdx*2]
  0028f	3b c8		 cmp	 ecx, eax
  00291	74 dd		 je	 SHORT $LL59@GetForvard
$LN64@GetForvard:
; File C:\Users\admin-z10\Desktop\conti_v3\cryptor\api\getapi.cpp

; 117  : 	while (*Str)

  00293	41 0f b6 00	 movzx	 eax, BYTE PTR [r8]

; 189  : 
; 190  : 	morphcode(Name);
; 191  : 
; 192  : 	char DLLName[256];
; 193  : 	//m_memset(DLLName, 0, sizeof(DLLName));
; 194  : 	RtlSecureZeroMemory(DLLName, 256);
; 195  : 
; 196  : 	morphcode(DLLName);
; 197  : 
; 198  : 	PCHAR NameStr = FindChar(Name, '.');

  00297	4d 8b c8	 mov	 r9, r8

; 117  : 	while (*Str)

  0029a	84 c0		 test	 al, al
  0029c	74 12		 je	 SHORT $LN1273@GetForvard
  0029e	66 90		 npad	 2
$LL78@GetForvard:

; 118  : 	{
; 119  : 
; 120  : 		if (*Str == Ch) {

  002a0	3c 2e		 cmp	 al, 46			; 0000002eH
  002a2	74 2f		 je	 SHORT $LN3@GetForvard

; 121  : 			return Str;
; 122  : 		}
; 123  : 
; 124  : 		Str++;

  002a4	41 0f b6 41 01	 movzx	 eax, BYTE PTR [r9+1]
  002a9	49 ff c1	 inc	 r9
  002ac	84 c0		 test	 al, al
  002ae	75 f0		 jne	 SHORT $LL78@GetForvard
$LN1273@GetForvard:

; 199  : 	if (!NameStr) return NULL;

  002b0	33 c0		 xor	 eax, eax
$LN1@GetForvard:

; 233  : }

  002b2	48 8b 4d 30	 mov	 rcx, QWORD PTR __$ArrayPad$[rbp-256]
  002b6	48 33 cc	 xor	 rcx, rsp
  002b9	e8 00 00 00 00	 call	 __security_check_cookie
  002be	4c 8d 9c 24 40
	01 00 00	 lea	 r11, QWORD PTR [rsp+320]
  002c6	49 8b 73 20	 mov	 rsi, QWORD PTR [r11+32]
  002ca	49 8b 7b 28	 mov	 rdi, QWORD PTR [r11+40]
  002ce	49 8b e3	 mov	 rsp, r11
  002d1	5d		 pop	 rbp
  002d2	c3		 ret	 0
$LN3@GetForvard:
; File C:\Users\admin-z10\Desktop\conti_v3\cryptor\mrph.h

; 40   : 	volatile int _morph_var = static_cast<int>(1 + MetaRandom2<0, 0x7FFFFF - 1>::value);

  002d3	c7 44 24 20 c1
	9b 17 00	 mov	 DWORD PTR _morph_var$6[rsp], 1547201 ; 00179bc1H

; 48   : 	if (_morph_var % 3) {

  002db	b8 56 55 55 55	 mov	 eax, 1431655766		; 55555556H
  002e0	8b 4c 24 20	 mov	 ecx, DWORD PTR _morph_var$6[rsp]
  002e4	f7 e9		 imul	 ecx
  002e6	8b c2		 mov	 eax, edx
  002e8	c1 e8 1f	 shr	 eax, 31
  002eb	03 d0		 add	 edx, eax
  002ed	8d 04 52	 lea	 eax, DWORD PTR [rdx+rdx*2]
  002f0	3b c8		 cmp	 ecx, eax
  002f2	74 4e		 je	 SHORT $LN93@GetForvard

; 49   : 		_morph_var += (int)a + 2;

  002f4	8b 4c 24 20	 mov	 ecx, DWORD PTR _morph_var$6[rsp]
  002f8	03 ce		 add	 ecx, esi
  002fa	41 03 c9	 add	 ecx, r9d
  002fd	89 4c 24 20	 mov	 DWORD PTR _morph_var$6[rsp], ecx

; 50   : 		while (!(_morph_var % 4)) ++_morph_var;

  00301	8b 44 24 20	 mov	 eax, DWORD PTR _morph_var$6[rsp]
  00305	25 03 00 00 80	 and	 eax, -2147483645	; ffffffff80000003H
  0030a	7d 07		 jge	 SHORT $LN1293@GetForvard
  0030c	ff c8		 dec	 eax
  0030e	83 c8 fc	 or	 eax, -4
  00311	ff c0		 inc	 eax
$LN1293@GetForvard:
  00313	85 c0		 test	 eax, eax
  00315	75 7c		 jne	 SHORT $LN92@GetForvard
  00317	66 0f 1f 84 00
	00 00 00 00	 npad	 9
$LL85@GetForvard:
  00320	8b 44 24 20	 mov	 eax, DWORD PTR _morph_var$6[rsp]
  00324	ff c0		 inc	 eax
  00326	89 44 24 20	 mov	 DWORD PTR _morph_var$6[rsp], eax
  0032a	8b 44 24 20	 mov	 eax, DWORD PTR _morph_var$6[rsp]
  0032e	25 03 00 00 80	 and	 eax, -2147483645	; ffffffff80000003H
  00333	7d 07		 jge	 SHORT $LN1292@GetForvard
  00335	ff c8		 dec	 eax
  00337	83 c8 fc	 or	 eax, -4
  0033a	ff c0		 inc	 eax
$LN1292@GetForvard:
  0033c	85 c0		 test	 eax, eax
  0033e	74 e0		 je	 SHORT $LL85@GetForvard

; 51   : 	}

  00340	eb 51		 jmp	 SHORT $LN92@GetForvard
$LN93@GetForvard:

; 52   : 	else if (_morph_var % 2) {

  00342	8b 44 24 20	 mov	 eax, DWORD PTR _morph_var$6[rsp]

; 53   : 		_morph_var -= (int)a - 2;

  00346	8b ce		 mov	 ecx, esi
  00348	8b 44 24 20	 mov	 eax, DWORD PTR _morph_var$6[rsp]
  0034c	41 2b c9	 sub	 ecx, r9d
  0034f	03 c8		 add	 ecx, eax

; 54   : 		while (!(_morph_var % 3)) ++_morph_var;

  00351	b8 56 55 55 55	 mov	 eax, 1431655766		; 55555556H
  00356	89 4c 24 20	 mov	 DWORD PTR _morph_var$6[rsp], ecx
  0035a	8b 4c 24 20	 mov	 ecx, DWORD PTR _morph_var$6[rsp]
  0035e	f7 e9		 imul	 ecx
  00360	8b c2		 mov	 eax, edx
  00362	c1 e8 1f	 shr	 eax, 31
  00365	03 d0		 add	 edx, eax
  00367	8d 04 52	 lea	 eax, DWORD PTR [rdx+rdx*2]
  0036a	3b c8		 cmp	 ecx, eax
  0036c	75 25		 jne	 SHORT $LN92@GetForvard
  0036e	66 90		 npad	 2
$LL87@GetForvard:
  00370	8b 44 24 20	 mov	 eax, DWORD PTR _morph_var$6[rsp]
  00374	ff c0		 inc	 eax
  00376	89 44 24 20	 mov	 DWORD PTR _morph_var$6[rsp], eax
  0037a	b8 56 55 55 55	 mov	 eax, 1431655766		; 55555556H
  0037f	8b 4c 24 20	 mov	 ecx, DWORD PTR _morph_var$6[rsp]
  00383	f7 e9		 imul	 ecx
  00385	8b c2		 mov	 eax, edx
  00387	c1 e8 1f	 shr	 eax, 31
  0038a	03 d0		 add	 edx, eax
  0038c	8d 04 52	 lea	 eax, DWORD PTR [rdx+rdx*2]
  0038f	3b c8		 cmp	 ecx, eax
  00391	74 dd		 je	 SHORT $LL87@GetForvard
$LN92@GetForvard:
; File C:\Users\admin-z10\Desktop\conti_v3\cryptor\api\getapi.cpp

; 205  : 	m_memcpy(DLLName, Name, NameStr - Name);

  00393	49 8b d1	 mov	 rdx, r9

; 100  : 	unsigned char* _dst = (unsigned char*)pDst;

  00396	48 8d 4c 24 30	 lea	 rcx, QWORD PTR DLLName$[rsp]

; 205  : 	m_memcpy(DLLName, Name, NameStr - Name);

  0039b	49 2b d0	 sub	 rdx, r8

; 102  : 	for (len = size / wordsize; len--; _src += wordsize, _dst += wordsize)

  0039e	48 8b fa	 mov	 rdi, rdx
  003a1	48 c1 ef 03	 shr	 rdi, 3
  003a5	48 85 ff	 test	 rdi, rdi
  003a8	74 1a		 je	 SHORT $LN1177@GetForvard
  003aa	66 0f 1f 44 00
	00		 npad	 6
$LL108@GetForvard:

; 103  : 		*(size_t*)_dst = *(size_t*)_src;

  003b0	49 8b 00	 mov	 rax, QWORD PTR [r8]
  003b3	49 83 c0 08	 add	 r8, 8
  003b7	48 89 01	 mov	 QWORD PTR [rcx], rax
  003ba	48 83 c1 08	 add	 rcx, 8
  003be	48 83 ef 01	 sub	 rdi, 1
  003c2	75 ec		 jne	 SHORT $LL108@GetForvard
$LN1177@GetForvard:

; 104  : 
; 105  : 	len = size % wordsize;

  003c4	83 e2 07	 and	 edx, 7

; 106  : 	while (len--)

  003c7	74 19		 je	 SHORT $LN1179@GetForvard
  003c9	49 2b c8	 sub	 rcx, r8
  003cc	0f 1f 40 00	 npad	 4
$LL109@GetForvard:

; 107  : 		*_dst++ = *_src++;

  003d0	41 0f b6 00	 movzx	 eax, BYTE PTR [r8]
  003d4	42 88 04 01	 mov	 BYTE PTR [rcx+r8], al
  003d8	4d 8d 40 01	 lea	 r8, QWORD PTR [r8+1]
  003dc	48 83 ea 01	 sub	 rdx, 1
  003e0	75 ee		 jne	 SHORT $LL109@GetForvard
$LN1179@GetForvard:

; 206  : 
; 207  : 	strcat(DLLName, szDll);

  003e2	48 8d 4c 24 30	 lea	 rcx, QWORD PTR DLLName$[rsp]
  003e7	48 ff c9	 dec	 rcx
  003ea	66 0f 1f 44 00
	00		 npad	 6
$LL1289@GetForvard:
  003f0	80 79 01 00	 cmp	 BYTE PTR [rcx+1], 0
  003f4	48 8d 49 01	 lea	 rcx, QWORD PTR [rcx+1]
  003f8	75 f6		 jne	 SHORT $LL1289@GetForvard
  003fa	48 8d 7c 24 24	 lea	 rdi, QWORD PTR szDll$[rsp]
  003ff	33 d2		 xor	 edx, edx
$LL1290@GetForvard:
  00401	0f b6 04 17	 movzx	 eax, BYTE PTR [rdi+rdx]
  00405	88 04 11	 mov	 BYTE PTR [rcx+rdx], al
  00408	48 8d 52 01	 lea	 rdx, QWORD PTR [rdx+1]
  0040c	84 c0		 test	 al, al
  0040e	75 f1		 jne	 SHORT $LL1290@GetForvard

; 211  : 	if (*NameStr == '#')

  00410	41 0f b6 49 01	 movzx	 ecx, BYTE PTR [r9+1]
  00415	80 f9 23	 cmp	 cl, 35			; 00000023H
  00418	0f 85 f9 02 00
	00		 jne	 $LN4@GetForvard
; File C:\Users\admin-z10\Desktop\conti_v3\cryptor\mrph.h

; 40   : 	volatile int _morph_var = static_cast<int>(1 + MetaRandom2<0, 0x7FFFFF - 1>::value);

  0041e	c7 44 24 20 c1
	9b 17 00	 mov	 DWORD PTR _morph_var$5[rsp], 1547201 ; 00179bc1H

; 48   : 	if (_morph_var % 3) {

  00426	b8 56 55 55 55	 mov	 eax, 1431655766		; 55555556H
  0042b	8b 4c 24 20	 mov	 ecx, DWORD PTR _morph_var$5[rsp]
  0042f	f7 e9		 imul	 ecx
; File C:\Users\admin-z10\Desktop\conti_v3\cryptor\api\getapi.cpp

; 211  : 	if (*NameStr == '#')

  00431	48 89 9c 24 58
	01 00 00	 mov	 QWORD PTR [rsp+344], rbx
; File C:\Users\admin-z10\Desktop\conti_v3\cryptor\mrph.h

; 48   : 	if (_morph_var % 3) {

  00439	8b c2		 mov	 eax, edx
  0043b	c1 e8 1f	 shr	 eax, 31
  0043e	03 d0		 add	 edx, eax
  00440	8d 04 52	 lea	 eax, DWORD PTR [rdx+rdx*2]
  00443	3b c8		 cmp	 ecx, eax
  00445	8b 44 24 20	 mov	 eax, DWORD PTR _morph_var$5[rsp]
  00449	74 37		 je	 SHORT $LN121@GetForvard

; 49   : 		_morph_var += (int)a + 2;

  0044b	83 c0 25	 add	 eax, 37			; 00000025H
  0044e	89 44 24 20	 mov	 DWORD PTR _morph_var$5[rsp], eax

; 50   : 		while (!(_morph_var % 4)) ++_morph_var;

  00452	8b 44 24 20	 mov	 eax, DWORD PTR _morph_var$5[rsp]
  00456	f7 44 24 20 03
	00 00 80	 test	 DWORD PTR _morph_var$5[rsp], -2147483645 ; ffffffff80000003H
  0045e	75 73		 jne	 SHORT $LN120@GetForvard
$LL113@GetForvard:
  00460	8b 44 24 20	 mov	 eax, DWORD PTR _morph_var$5[rsp]
  00464	ff c0		 inc	 eax
  00466	89 44 24 20	 mov	 DWORD PTR _morph_var$5[rsp], eax
  0046a	8b 44 24 20	 mov	 eax, DWORD PTR _morph_var$5[rsp]
  0046e	25 03 00 00 80	 and	 eax, -2147483645	; ffffffff80000003H
  00473	7d 07		 jge	 SHORT $LN1287@GetForvard
  00475	ff c8		 dec	 eax
  00477	83 c8 fc	 or	 eax, -4
  0047a	ff c0		 inc	 eax
$LN1287@GetForvard:
  0047c	85 c0		 test	 eax, eax
  0047e	74 e0		 je	 SHORT $LL113@GetForvard

; 51   : 	}

  00480	eb 51		 jmp	 SHORT $LN120@GetForvard
$LN121@GetForvard:

; 53   : 		_morph_var -= (int)a - 2;

  00482	8b 44 24 20	 mov	 eax, DWORD PTR _morph_var$5[rsp]
  00486	83 e8 21	 sub	 eax, 33			; 00000021H
  00489	89 44 24 20	 mov	 DWORD PTR _morph_var$5[rsp], eax

; 54   : 		while (!(_morph_var % 3)) ++_morph_var;

  0048d	b8 56 55 55 55	 mov	 eax, 1431655766		; 55555556H
  00492	8b 4c 24 20	 mov	 ecx, DWORD PTR _morph_var$5[rsp]
  00496	f7 e9		 imul	 ecx
  00498	8b c2		 mov	 eax, edx
  0049a	c1 e8 1f	 shr	 eax, 31
  0049d	03 d0		 add	 edx, eax
  0049f	8d 04 52	 lea	 eax, DWORD PTR [rdx+rdx*2]
  004a2	3b c8		 cmp	 ecx, eax
  004a4	75 2d		 jne	 SHORT $LN120@GetForvard
  004a6	66 66 0f 1f 84
	00 00 00 00 00	 npad	 10
$LL115@GetForvard:
  004b0	8b 44 24 20	 mov	 eax, DWORD PTR _morph_var$5[rsp]
  004b4	ff c0		 inc	 eax
  004b6	89 44 24 20	 mov	 DWORD PTR _morph_var$5[rsp], eax
  004ba	b8 56 55 55 55	 mov	 eax, 1431655766		; 55555556H
  004bf	8b 4c 24 20	 mov	 ecx, DWORD PTR _morph_var$5[rsp]
  004c3	f7 e9		 imul	 ecx
  004c5	8b c2		 mov	 eax, edx
  004c7	c1 e8 1f	 shr	 eax, 31
  004ca	03 d0		 add	 edx, eax
  004cc	8d 04 52	 lea	 eax, DWORD PTR [rdx+rdx*2]
  004cf	3b c8		 cmp	 ecx, eax
  004d1	74 dd		 je	 SHORT $LL115@GetForvard
$LN120@GetForvard:
; File C:\Users\admin-z10\Desktop\conti_v3\cryptor\api\getapi.cpp

; 218  : 		morphcode(*NameStr);

  004d3	41 0f be 79 02	 movsx	 edi, BYTE PTR [r9+2]
  004d8	4d 8d 59 02	 lea	 r11, QWORD PTR [r9+2]
; File C:\Users\admin-z10\Desktop\conti_v3\cryptor\mrph.h

; 40   : 	volatile int _morph_var = static_cast<int>(1 + MetaRandom2<0, 0x7FFFFF - 1>::value);

  004dc	c7 44 24 20 c1
	9b 17 00	 mov	 DWORD PTR _morph_var$4[rsp], 1547201 ; 00179bc1H

; 48   : 	if (_morph_var % 3) {

  004e4	b8 56 55 55 55	 mov	 eax, 1431655766		; 55555556H
  004e9	8b 4c 24 20	 mov	 ecx, DWORD PTR _morph_var$4[rsp]
  004ed	f7 e9		 imul	 ecx
  004ef	8b c2		 mov	 eax, edx
  004f1	c1 e8 1f	 shr	 eax, 31
  004f4	03 d0		 add	 edx, eax
  004f6	8d 04 52	 lea	 eax, DWORD PTR [rdx+rdx*2]
  004f9	3b c8		 cmp	 ecx, eax
  004fb	74 45		 je	 SHORT $LN142@GetForvard

; 49   : 		_morph_var += (int)a + 2;

  004fd	8b 4c 24 20	 mov	 ecx, DWORD PTR _morph_var$4[rsp]
  00501	03 ce		 add	 ecx, esi
  00503	03 cf		 add	 ecx, edi
  00505	89 4c 24 20	 mov	 DWORD PTR _morph_var$4[rsp], ecx

; 50   : 		while (!(_morph_var % 4)) ++_morph_var;

  00509	8b 44 24 20	 mov	 eax, DWORD PTR _morph_var$4[rsp]
  0050d	25 03 00 00 80	 and	 eax, -2147483645	; ffffffff80000003H
  00512	7d 07		 jge	 SHORT $LN1285@GetForvard
  00514	ff c8		 dec	 eax
  00516	83 c8 fc	 or	 eax, -4
  00519	ff c0		 inc	 eax
$LN1285@GetForvard:
  0051b	85 c0		 test	 eax, eax
  0051d	75 74		 jne	 SHORT $LN141@GetForvard
  0051f	90		 npad	 1
$LL134@GetForvard:
  00520	8b 44 24 20	 mov	 eax, DWORD PTR _morph_var$4[rsp]
  00524	ff c0		 inc	 eax
  00526	89 44 24 20	 mov	 DWORD PTR _morph_var$4[rsp], eax
  0052a	8b 44 24 20	 mov	 eax, DWORD PTR _morph_var$4[rsp]
  0052e	25 03 00 00 80	 and	 eax, -2147483645	; ffffffff80000003H
  00533	7d 07		 jge	 SHORT $LN1284@GetForvard
  00535	ff c8		 dec	 eax
  00537	83 c8 fc	 or	 eax, -4
  0053a	ff c0		 inc	 eax
$LN1284@GetForvard:
  0053c	85 c0		 test	 eax, eax
  0053e	74 e0		 je	 SHORT $LL134@GetForvard

; 51   : 	}

  00540	eb 51		 jmp	 SHORT $LN141@GetForvard
$LN142@GetForvard:

; 52   : 	else if (_morph_var % 2) {

  00542	8b 44 24 20	 mov	 eax, DWORD PTR _morph_var$4[rsp]

; 53   : 		_morph_var -= (int)a - 2;

  00546	8b ce		 mov	 ecx, esi
  00548	8b 44 24 20	 mov	 eax, DWORD PTR _morph_var$4[rsp]
  0054c	2b cf		 sub	 ecx, edi
  0054e	03 c8		 add	 ecx, eax

; 54   : 		while (!(_morph_var % 3)) ++_morph_var;

  00550	b8 56 55 55 55	 mov	 eax, 1431655766		; 55555556H
  00555	89 4c 24 20	 mov	 DWORD PTR _morph_var$4[rsp], ecx
  00559	8b 4c 24 20	 mov	 ecx, DWORD PTR _morph_var$4[rsp]
  0055d	f7 e9		 imul	 ecx
  0055f	8b c2		 mov	 eax, edx
  00561	c1 e8 1f	 shr	 eax, 31
  00564	03 d0		 add	 edx, eax
  00566	8d 04 52	 lea	 eax, DWORD PTR [rdx+rdx*2]
  00569	3b c8		 cmp	 ecx, eax
  0056b	75 26		 jne	 SHORT $LN141@GetForvard
  0056d	0f 1f 00	 npad	 3
$LL136@GetForvard:
  00570	8b 44 24 20	 mov	 eax, DWORD PTR _morph_var$4[rsp]
  00574	ff c0		 inc	 eax
  00576	89 44 24 20	 mov	 DWORD PTR _morph_var$4[rsp], eax
  0057a	b8 56 55 55 55	 mov	 eax, 1431655766		; 55555556H
  0057f	8b 4c 24 20	 mov	 ecx, DWORD PTR _morph_var$4[rsp]
  00583	f7 e9		 imul	 ecx
  00585	8b c2		 mov	 eax, edx
  00587	c1 e8 1f	 shr	 eax, 31
  0058a	03 d0		 add	 edx, eax
  0058c	8d 04 52	 lea	 eax, DWORD PTR [rdx+rdx*2]
  0058f	3b c8		 cmp	 ecx, eax
  00591	74 dd		 je	 SHORT $LL136@GetForvard
$LN141@GetForvard:
; File C:\Users\admin-z10\Desktop\conti_v3\cryptor\api\getapi.cpp

; 135  : 	unsigned int strLen = 0;

  00593	33 d2		 xor	 edx, edx
  00595	44 8b ca	 mov	 r9d, edx

; 136  : 	unsigned int i = 0;

  00598	8b ca		 mov	 ecx, edx

; 137  : 	while (str[i] != '\0') {

  0059a	41 38 13	 cmp	 BYTE PTR [r11], dl
  0059d	74 0d		 je	 SHORT $LN156@GetForvard
  0059f	90		 npad	 1
$LL155@GetForvard:

; 138  : 		strLen += 1;

  005a0	41 ff c1	 inc	 r9d

; 139  : 		i++;

  005a3	8d 49 01	 lea	 ecx, DWORD PTR [rcx+1]
  005a6	42 38 14 19	 cmp	 BYTE PTR [rcx+r11], dl
  005aa	75 f4		 jne	 SHORT $LL155@GetForvard
$LN156@GetForvard:

; 140  : 	}
; 141  : 
; 142  : 	int num = 0;

  005ac	44 8b d2	 mov	 r10d, edx

; 143  : 	int ten;
; 144  : 	BOOL signFlag = TRUE; //true: +, false: -

  005af	bb 01 00 00 00	 mov	 ebx, 1

; 145  : 	for (i = 0; i < strLen; i++) {

  005b4	8b fa		 mov	 edi, edx
  005b6	45 85 c9	 test	 r9d, r9d
  005b9	74 6b		 je	 SHORT $LN1274@GetForvard
  005bb	0f 1f 44 00 00	 npad	 5
$LL159@GetForvard:

; 146  : 		if (str[i] < '0' || str[i] > '9') {

  005c0	45 0f be 03	 movsx	 r8d, BYTE PTR [r11]
  005c4	41 8d 40 d0	 lea	 eax, DWORD PTR [r8-48]
  005c8	3c 09		 cmp	 al, 9
  005ca	77 2b		 ja	 SHORT $LN164@GetForvard

; 157  : 		}
; 158  : 
; 159  : 		ten = 1;
; 160  : 		for (unsigned int j = 0; j < strLen - 1 - i; j++) {

  005cc	41 8b c1	 mov	 eax, r9d
  005cf	b9 01 00 00 00	 mov	 ecx, 1
  005d4	2b c7		 sub	 eax, edi
  005d6	2b c1		 sub	 eax, ecx
  005d8	74 11		 je	 SHORT $LN161@GetForvard
  005da	66 0f 1f 44 00
	00		 npad	 6
$LL1193@GetForvard:

; 161  : 			ten *= 10;

  005e0	8d 0c 89	 lea	 ecx, DWORD PTR [rcx+rcx*4]
  005e3	03 c9		 add	 ecx, ecx
  005e5	48 83 e8 01	 sub	 rax, 1
  005e9	75 f5		 jne	 SHORT $LL1193@GetForvard
$LN161@GetForvard:

; 162  : 		}
; 163  : 
; 164  : 		num += ten * (str[i] - '0');

  005eb	41 8d 40 d0	 lea	 eax, DWORD PTR [r8-48]
  005ef	0f af c1	 imul	 eax, ecx
  005f2	44 03 d0	 add	 r10d, eax

; 165  : 	}

  005f5	eb 19		 jmp	 SHORT $LN157@GetForvard
$LN164@GetForvard:

; 147  : 			if (i == 0 && str[i] == '-') {

  005f7	85 ff		 test	 edi, edi
  005f9	75 28		 jne	 SHORT $LN166@GetForvard
  005fb	41 80 f8 2d	 cmp	 r8b, 45			; 0000002dH
  005ff	75 04		 jne	 SHORT $LN1275@GetForvard

; 148  : 				signFlag = FALSE;

  00601	8b da		 mov	 ebx, edx

; 149  : 				continue;

  00603	eb 0b		 jmp	 SHORT $LN157@GetForvard
$LN1275@GetForvard:

; 150  : 			}
; 151  : 			if (i == 0 && str[i] == '+') {

  00605	41 80 f8 2b	 cmp	 r8b, 43			; 0000002bH
  00609	75 18		 jne	 SHORT $LN166@GetForvard

; 152  : 				signFlag = TRUE;

  0060b	bb 01 00 00 00	 mov	 ebx, 1
$LN157@GetForvard:

; 145  : 	for (i = 0; i < strLen; i++) {

  00610	ff c7		 inc	 edi
  00612	49 ff c3	 inc	 r11
  00615	41 3b f9	 cmp	 edi, r9d
  00618	72 a6		 jb	 SHORT $LL159@GetForvard

; 166  : 
; 167  : 	if (signFlag) {

  0061a	85 db		 test	 ebx, ebx
  0061c	75 08		 jne	 SHORT $LN1274@GetForvard

; 168  : 		return num;
; 169  : 	}
; 170  : 	else {
; 171  : 		return -num;

  0061e	41 f7 da	 neg	 r10d
  00621	eb 03		 jmp	 SHORT $LN1274@GetForvard
$LN166@GetForvard:

; 153  : 				continue;
; 154  : 			}
; 155  : 
; 156  : 			return 0;

  00623	44 8b d2	 mov	 r10d, edx
$LN1274@GetForvard:
; File C:\Users\admin-z10\Desktop\conti_v3\cryptor\mrph.h

; 48   : 	if (_morph_var % 3) {

  00626	48 8b 9c 24 58
	01 00 00	 mov	 rbx, QWORD PTR [rsp+344]
  0062e	b8 56 55 55 55	 mov	 eax, 1431655766		; 55555556H
  00633	c7 44 24 20 c1
	9b 17 00	 mov	 DWORD PTR _morph_var$3[rsp], 1547201 ; 00179bc1H
  0063b	8b 4c 24 20	 mov	 ecx, DWORD PTR _morph_var$3[rsp]
  0063f	f7 e9		 imul	 ecx
  00641	8b c2		 mov	 eax, edx
  00643	c1 e8 1f	 shr	 eax, 31
  00646	03 d0		 add	 edx, eax
  00648	8d 04 52	 lea	 eax, DWORD PTR [rdx+rdx*2]
  0064b	3b c8		 cmp	 ecx, eax
  0064d	74 65		 je	 SHORT $LN179@GetForvard

; 49   : 		_morph_var += (int)a + 2;

  0064f	8b 4c 24 20	 mov	 ecx, DWORD PTR _morph_var$3[rsp]
  00653	03 ce		 add	 ecx, esi
  00655	41 03 ca	 add	 ecx, r10d
  00658	89 4c 24 20	 mov	 DWORD PTR _morph_var$3[rsp], ecx

; 50   : 		while (!(_morph_var % 4)) ++_morph_var;

  0065c	8b 44 24 20	 mov	 eax, DWORD PTR _morph_var$3[rsp]
  00660	25 03 00 00 80	 and	 eax, -2147483645	; ffffffff80000003H
  00665	7d 07		 jge	 SHORT $LN1282@GetForvard
  00667	ff c8		 dec	 eax
  00669	83 c8 fc	 or	 eax, -4
  0066c	ff c0		 inc	 eax
$LN1282@GetForvard:
  0066e	85 c0		 test	 eax, eax
  00670	0f 85 8d 00 00
	00		 jne	 $LN178@GetForvard
  00676	66 66 0f 1f 84
	00 00 00 00 00	 npad	 10
$LL171@GetForvard:
  00680	8b 44 24 20	 mov	 eax, DWORD PTR _morph_var$3[rsp]
  00684	ff c0		 inc	 eax
  00686	89 44 24 20	 mov	 DWORD PTR _morph_var$3[rsp], eax
  0068a	8b 44 24 20	 mov	 eax, DWORD PTR _morph_var$3[rsp]
  0068e	25 03 00 00 80	 and	 eax, -2147483645	; ffffffff80000003H
  00693	7d 07		 jge	 SHORT $LN1281@GetForvard
  00695	ff c8		 dec	 eax
  00697	83 c8 fc	 or	 eax, -4
  0069a	ff c0		 inc	 eax
$LN1281@GetForvard:
  0069c	85 c0		 test	 eax, eax
  0069e	74 e0		 je	 SHORT $LL171@GetForvard
; File C:\Users\admin-z10\Desktop\conti_v3\cryptor\api\getapi.cpp

; 224  : 		return getapi::GetProcAddressEx(DLLName, 0, OrdNomber); 

  006a0	45 8b c2	 mov	 r8d, r10d
  006a3	48 8d 4c 24 30	 lea	 rcx, QWORD PTR DLLName$[rsp]
  006a8	33 d2		 xor	 edx, edx
  006aa	e8 00 00 00 00	 call	 ?GetProcAddressEx@getapi@@YAPEAXPEBDKK@Z ; getapi::GetProcAddressEx
  006af	e9 fe fb ff ff	 jmp	 $LN1@GetForvard
$LN179@GetForvard:
; File C:\Users\admin-z10\Desktop\conti_v3\cryptor\mrph.h

; 52   : 	else if (_morph_var % 2) {

  006b4	8b 44 24 20	 mov	 eax, DWORD PTR _morph_var$3[rsp]

; 53   : 		_morph_var -= (int)a - 2;

  006b8	41 2b f2	 sub	 esi, r10d
  006bb	8b 44 24 20	 mov	 eax, DWORD PTR _morph_var$3[rsp]
  006bf	03 f0		 add	 esi, eax
  006c1	89 74 24 20	 mov	 DWORD PTR _morph_var$3[rsp], esi

; 54   : 		while (!(_morph_var % 3)) ++_morph_var;

  006c5	b8 56 55 55 55	 mov	 eax, 1431655766		; 55555556H
  006ca	8b 4c 24 20	 mov	 ecx, DWORD PTR _morph_var$3[rsp]
  006ce	f7 e9		 imul	 ecx
  006d0	8b c2		 mov	 eax, edx
  006d2	c1 e8 1f	 shr	 eax, 31
  006d5	03 d0		 add	 edx, eax
  006d7	8d 04 52	 lea	 eax, DWORD PTR [rdx+rdx*2]
  006da	3b c8		 cmp	 ecx, eax
  006dc	75 25		 jne	 SHORT $LN178@GetForvard
  006de	66 90		 npad	 2
$LL173@GetForvard:
  006e0	8b 44 24 20	 mov	 eax, DWORD PTR _morph_var$3[rsp]
  006e4	ff c0		 inc	 eax
  006e6	89 44 24 20	 mov	 DWORD PTR _morph_var$3[rsp], eax
  006ea	b8 56 55 55 55	 mov	 eax, 1431655766		; 55555556H
  006ef	8b 4c 24 20	 mov	 ecx, DWORD PTR _morph_var$3[rsp]
  006f3	f7 e9		 imul	 ecx
  006f5	8b c2		 mov	 eax, edx
  006f7	c1 e8 1f	 shr	 eax, 31
  006fa	03 d0		 add	 edx, eax
  006fc	8d 04 52	 lea	 eax, DWORD PTR [rdx+rdx*2]
  006ff	3b c8		 cmp	 ecx, eax
  00701	74 dd		 je	 SHORT $LL173@GetForvard
$LN178@GetForvard:
; File C:\Users\admin-z10\Desktop\conti_v3\cryptor\api\getapi.cpp

; 224  : 		return getapi::GetProcAddressEx(DLLName, 0, OrdNomber); 

  00703	45 8b c2	 mov	 r8d, r10d
  00706	48 8d 4c 24 30	 lea	 rcx, QWORD PTR DLLName$[rsp]
  0070b	33 d2		 xor	 edx, edx
  0070d	e8 00 00 00 00	 call	 ?GetProcAddressEx@getapi@@YAPEAXPEBDKK@Z ; getapi::GetProcAddressEx
  00712	e9 9b fb ff ff	 jmp	 $LN1@GetForvard
$LN4@GetForvard:

; 61   : 	INT Length = 0;

  00717	33 d2		 xor	 edx, edx

; 225  : 
; 226  : 	}
; 227  : 
; 228  : 	DWORD Hash = MurmurHash2A(NameStr, StrLen(NameStr), HASHING_SEED);

  00719	49 8d 41 01	 lea	 rax, QWORD PTR [r9+1]

; 62   : 	while (*Str)

  0071d	84 c9		 test	 cl, cl
  0071f	74 0b		 je	 SHORT $LN649@GetForvard
$LL648@GetForvard:

; 63   : 	{
; 64   : 
; 65   : 		Length++;

  00721	ff c2		 inc	 edx

; 66   : 		Str++;

  00723	48 8d 40 01	 lea	 rax, QWORD PTR [rax+1]
  00727	80 38 00	 cmp	 BYTE PTR [rax], 0
  0072a	75 f5		 jne	 SHORT $LL648@GetForvard
$LN649@GetForvard:

; 225  : 
; 226  : 	}
; 227  : 
; 228  : 	DWORD Hash = MurmurHash2A(NameStr, StrLen(NameStr), HASHING_SEED);

  0072c	49 8d 49 01	 lea	 rcx, QWORD PTR [r9+1]
  00730	e8 00 00 00 00	 call	 ?MurmurHash2A@@YAIPEBXHI@Z ; MurmurHash2A
  00735	44 8b c0	 mov	 r8d, eax
; File C:\Users\admin-z10\Desktop\conti_v3\cryptor\mrph.h

; 40   : 	volatile int _morph_var = static_cast<int>(1 + MetaRandom2<0, 0x7FFFFF - 1>::value);

  00738	c7 44 24 20 c1
	9b 17 00	 mov	 DWORD PTR _morph_var$2[rsp], 1547201 ; 00179bc1H

; 48   : 	if (_morph_var % 3) {

  00740	8b 7c 24 20	 mov	 edi, DWORD PTR _morph_var$2[rsp]
  00744	b8 56 55 55 55	 mov	 eax, 1431655766		; 55555556H
  00749	f7 ef		 imul	 edi
  0074b	8b ca		 mov	 ecx, edx
  0074d	c1 e9 1f	 shr	 ecx, 31
  00750	03 d1		 add	 edx, ecx
  00752	8d 0c 52	 lea	 ecx, DWORD PTR [rdx+rdx*2]
  00755	3b f9		 cmp	 edi, ecx
  00757	74 58		 je	 SHORT $LN660@GetForvard

; 49   : 		_morph_var += (int)a + 2;

  00759	8b 4c 24 20	 mov	 ecx, DWORD PTR _morph_var$2[rsp]
  0075d	03 ce		 add	 ecx, esi
  0075f	41 03 c8	 add	 ecx, r8d
  00762	89 4c 24 20	 mov	 DWORD PTR _morph_var$2[rsp], ecx

; 50   : 		while (!(_morph_var % 4)) ++_morph_var;

  00766	8b 44 24 20	 mov	 eax, DWORD PTR _morph_var$2[rsp]
  0076a	25 03 00 00 80	 and	 eax, -2147483645	; ffffffff80000003H
  0076f	7d 07		 jge	 SHORT $LN1279@GetForvard
  00771	ff c8		 dec	 eax
  00773	83 c8 fc	 or	 eax, -4
  00776	ff c0		 inc	 eax
$LN1279@GetForvard:
  00778	85 c0		 test	 eax, eax
  0077a	0f 85 83 00 00
	00		 jne	 $LN659@GetForvard
$LL652@GetForvard:
  00780	8b 44 24 20	 mov	 eax, DWORD PTR _morph_var$2[rsp]
  00784	ff c0		 inc	 eax
  00786	89 44 24 20	 mov	 DWORD PTR _morph_var$2[rsp], eax
  0078a	8b 44 24 20	 mov	 eax, DWORD PTR _morph_var$2[rsp]
  0078e	25 03 00 00 80	 and	 eax, -2147483645	; ffffffff80000003H
  00793	7d 07		 jge	 SHORT $LN1278@GetForvard
  00795	ff c8		 dec	 eax
  00797	83 c8 fc	 or	 eax, -4
  0079a	ff c0		 inc	 eax
$LN1278@GetForvard:
  0079c	85 c0		 test	 eax, eax
  0079e	74 e0		 je	 SHORT $LL652@GetForvard
; File C:\Users\admin-z10\Desktop\conti_v3\cryptor\api\getapi.cpp

; 232  : 	return getapi::GetProcAddressEx(DLLName, 0, Hash);

  007a0	33 d2		 xor	 edx, edx
  007a2	48 8d 4c 24 30	 lea	 rcx, QWORD PTR DLLName$[rsp]
  007a7	e8 00 00 00 00	 call	 ?GetProcAddressEx@getapi@@YAPEAXPEBDKK@Z ; getapi::GetProcAddressEx
  007ac	e9 01 fb ff ff	 jmp	 $LN1@GetForvard
$LN660@GetForvard:
; File C:\Users\admin-z10\Desktop\conti_v3\cryptor\mrph.h

; 52   : 	else if (_morph_var % 2) {

  007b1	8b 44 24 20	 mov	 eax, DWORD PTR _morph_var$2[rsp]

; 53   : 		_morph_var -= (int)a - 2;

  007b5	41 2b f0	 sub	 esi, r8d
  007b8	8b 44 24 20	 mov	 eax, DWORD PTR _morph_var$2[rsp]
  007bc	03 f0		 add	 esi, eax
  007be	89 74 24 20	 mov	 DWORD PTR _morph_var$2[rsp], esi

; 54   : 		while (!(_morph_var % 3)) ++_morph_var;

  007c2	b8 56 55 55 55	 mov	 eax, 1431655766		; 55555556H
  007c7	8b 4c 24 20	 mov	 ecx, DWORD PTR _morph_var$2[rsp]
  007cb	f7 e9		 imul	 ecx
  007cd	8b c2		 mov	 eax, edx
  007cf	c1 e8 1f	 shr	 eax, 31
  007d2	03 d0		 add	 edx, eax
  007d4	8d 04 52	 lea	 eax, DWORD PTR [rdx+rdx*2]
  007d7	3b c8		 cmp	 ecx, eax
  007d9	75 28		 jne	 SHORT $LN659@GetForvard
  007db	0f 1f 44 00 00	 npad	 5
$LL654@GetForvard:
  007e0	8b 44 24 20	 mov	 eax, DWORD PTR _morph_var$2[rsp]
  007e4	ff c0		 inc	 eax
  007e6	89 44 24 20	 mov	 DWORD PTR _morph_var$2[rsp], eax
  007ea	b8 56 55 55 55	 mov	 eax, 1431655766		; 55555556H
  007ef	8b 4c 24 20	 mov	 ecx, DWORD PTR _morph_var$2[rsp]
  007f3	f7 e9		 imul	 ecx
  007f5	8b c2		 mov	 eax, edx
  007f7	c1 e8 1f	 shr	 eax, 31
  007fa	03 d0		 add	 edx, eax
  007fc	8d 04 52	 lea	 eax, DWORD PTR [rdx+rdx*2]
  007ff	3b c8		 cmp	 ecx, eax
  00801	74 dd		 je	 SHORT $LL654@GetForvard
$LN659@GetForvard:
; File C:\Users\admin-z10\Desktop\conti_v3\cryptor\api\getapi.cpp

; 232  : 	return getapi::GetProcAddressEx(DLLName, 0, Hash);

  00803	33 d2		 xor	 edx, edx
  00805	48 8d 4c 24 30	 lea	 rcx, QWORD PTR DLLName$[rsp]
  0080a	e8 00 00 00 00	 call	 ?GetProcAddressEx@getapi@@YAPEAXPEBDKK@Z ; getapi::GetProcAddressEx
  0080f	e9 9e fa ff ff	 jmp	 $LN1@GetForvard
?GetForvardedProc@@YAPEAXPEAD@Z ENDP			; GetForvardedProc
_TEXT	ENDS
; Function compile flags: /Ogtpy
; File C:\Users\admin-z10\Desktop\conti_v3\cryptor\api\getapi.cpp
; File C:\Users\admin-z10\Desktop\conti_v3\cryptor\mrph.h
; File C:\Users\admin-z10\Desktop\conti_v3\cryptor\api\getapi.cpp
; File C:\Users\admin-z10\Desktop\conti_v3\cryptor\mrph.h
; File C:\Users\admin-z10\Desktop\conti_v3\cryptor\api\getapi.cpp
; File C:\Users\admin-z10\Desktop\conti_v3\cryptor\mrph.h
; File C:\Users\admin-z10\Desktop\conti_v3\cryptor\api\getapi.cpp
;	COMDAT ?CheckForForvardedProc@@YAH_KPEAU_IMAGE_EXPORT_DIRECTORY@@K@Z
_TEXT	SEGMENT
_morph_var$1 = 8
_morph_var$2 = 8
Addr$ = 8
Table$ = 16
DataSize$ = 24
?CheckForForvardedProc@@YAH_KPEAU_IMAGE_EXPORT_DIRECTORY@@K@Z PROC ; CheckForForvardedProc, COMDAT

; 236  : {

$LN112:
  00000	48 89 5c 24 10	 mov	 QWORD PTR [rsp+16], rbx
  00005	41 8b d8	 mov	 ebx, r8d
  00008	4c 8b da	 mov	 r11, rdx
  0000b	4c 8b d1	 mov	 r10, rcx

; 237  : 	if (Addr > (ADDR)Table) {

  0000e	48 3b ca	 cmp	 rcx, rdx
  00011	0f 86 b7 01 00
	00		 jbe	 $LN3@CheckForFo
; File C:\Users\admin-z10\Desktop\conti_v3\cryptor\mrph.h

; 40   : 	volatile int _morph_var = static_cast<int>(1 + MetaRandom2<0, 0x7FFFFF - 1>::value);

  00017	c7 44 24 08 c1
	9b 17 00	 mov	 DWORD PTR _morph_var$2[rsp], 1547201 ; 00179bc1H

; 41   : #else
; 42   : 	volatile int _morph_var = a;
; 43   : #endif
; 44   : 
; 45   : 	// делаем арифметическую операцию со случайным (времени компиляции) числом, и операндом.
; 46   : 	// за счет того, что число известно во время компиляции, оптимизатор оставит лишь один вариант действия,
; 47   : 	// выкинув остальные. Таким образом, одна и та же вставка будет давать всякий раз разный результат.
; 48   : 	if (_morph_var % 3) {

  0001f	b8 56 55 55 55	 mov	 eax, 1431655766		; 55555556H
  00024	44 8b 4c 24 08	 mov	 r9d, DWORD PTR _morph_var$2[rsp]
  00029	41 b8 02 00 00
	00		 mov	 r8d, 2
  0002f	41 f7 e9	 imul	 r9d
  00032	8b c2		 mov	 eax, edx
  00034	c1 e8 1f	 shr	 eax, 31
  00037	03 d0		 add	 edx, eax
  00039	8d 04 52	 lea	 eax, DWORD PTR [rdx+rdx*2]
  0003c	44 3b c8	 cmp	 r9d, eax
  0003f	74 51		 je	 SHORT $LN14@CheckForFo

; 49   : 		_morph_var += (int)a + 2;

  00041	8b 4c 24 08	 mov	 ecx, DWORD PTR _morph_var$2[rsp]
  00045	41 03 c8	 add	 ecx, r8d
  00048	41 03 ca	 add	 ecx, r10d
  0004b	89 4c 24 08	 mov	 DWORD PTR _morph_var$2[rsp], ecx

; 50   : 		while (!(_morph_var % 4)) ++_morph_var;

  0004f	8b 44 24 08	 mov	 eax, DWORD PTR _morph_var$2[rsp]
  00053	25 03 00 00 80	 and	 eax, -2147483645	; ffffffff80000003H
  00058	7d 07		 jge	 SHORT $LN82@CheckForFo
  0005a	ff c8		 dec	 eax
  0005c	83 c8 fc	 or	 eax, -4
  0005f	ff c0		 inc	 eax
$LN82@CheckForFo:
  00061	85 c0		 test	 eax, eax
  00063	75 7e		 jne	 SHORT $LN13@CheckForFo
  00065	66 66 66 0f 1f
	84 00 00 00 00
	00		 npad	 11
$LL6@CheckForFo:
  00070	8b 44 24 08	 mov	 eax, DWORD PTR _morph_var$2[rsp]
  00074	ff c0		 inc	 eax
  00076	89 44 24 08	 mov	 DWORD PTR _morph_var$2[rsp], eax
  0007a	8b 44 24 08	 mov	 eax, DWORD PTR _morph_var$2[rsp]
  0007e	25 03 00 00 80	 and	 eax, -2147483645	; ffffffff80000003H
  00083	7d 07		 jge	 SHORT $LN81@CheckForFo
  00085	ff c8		 dec	 eax
  00087	83 c8 fc	 or	 eax, -4
  0008a	ff c0		 inc	 eax
$LN81@CheckForFo:
  0008c	85 c0		 test	 eax, eax
  0008e	74 e0		 je	 SHORT $LL6@CheckForFo

; 51   : 	}

  00090	eb 51		 jmp	 SHORT $LN13@CheckForFo
$LN14@CheckForFo:

; 52   : 	else if (_morph_var % 2) {

  00092	8b 44 24 08	 mov	 eax, DWORD PTR _morph_var$2[rsp]

; 53   : 		_morph_var -= (int)a - 2;

  00096	41 8b c8	 mov	 ecx, r8d
  00099	8b 44 24 08	 mov	 eax, DWORD PTR _morph_var$2[rsp]
  0009d	41 2b ca	 sub	 ecx, r10d
  000a0	03 c8		 add	 ecx, eax

; 54   : 		while (!(_morph_var % 3)) ++_morph_var;

  000a2	b8 56 55 55 55	 mov	 eax, 1431655766		; 55555556H
  000a7	89 4c 24 08	 mov	 DWORD PTR _morph_var$2[rsp], ecx
  000ab	8b 4c 24 08	 mov	 ecx, DWORD PTR _morph_var$2[rsp]
  000af	f7 e9		 imul	 ecx
  000b1	8b c2		 mov	 eax, edx
  000b3	c1 e8 1f	 shr	 eax, 31
  000b6	03 d0		 add	 edx, eax
  000b8	8d 04 52	 lea	 eax, DWORD PTR [rdx+rdx*2]
  000bb	3b c8		 cmp	 ecx, eax
  000bd	75 24		 jne	 SHORT $LN13@CheckForFo
  000bf	90		 npad	 1
$LL8@CheckForFo:
  000c0	8b 44 24 08	 mov	 eax, DWORD PTR _morph_var$2[rsp]
  000c4	ff c0		 inc	 eax
  000c6	89 44 24 08	 mov	 DWORD PTR _morph_var$2[rsp], eax
  000ca	b8 56 55 55 55	 mov	 eax, 1431655766		; 55555556H
  000cf	8b 4c 24 08	 mov	 ecx, DWORD PTR _morph_var$2[rsp]
  000d3	f7 e9		 imul	 ecx
  000d5	8b c2		 mov	 eax, edx
  000d7	c1 e8 1f	 shr	 eax, 31
  000da	03 d0		 add	 edx, eax
  000dc	8d 04 52	 lea	 eax, DWORD PTR [rdx+rdx*2]
  000df	3b c8		 cmp	 ecx, eax
  000e1	74 dd		 je	 SHORT $LL8@CheckForFo
$LN13@CheckForFo:
; File C:\Users\admin-z10\Desktop\conti_v3\cryptor\api\getapi.cpp

; 241  : 		if ((Addr - (ADDR)Table < DataSize)) {

  000e3	4d 2b d3	 sub	 r10, r11
  000e6	4c 3b d3	 cmp	 r10, rbx
  000e9	0f 83 df 00 00
	00		 jae	 $LN3@CheckForFo
; File C:\Users\admin-z10\Desktop\conti_v3\cryptor\mrph.h

; 40   : 	volatile int _morph_var = static_cast<int>(1 + MetaRandom2<0, 0x7FFFFF - 1>::value);

  000ef	44 89 4c 24 08	 mov	 DWORD PTR _morph_var$1[rsp], r9d

; 41   : #else
; 42   : 	volatile int _morph_var = a;
; 43   : #endif
; 44   : 
; 45   : 	// делаем арифметическую операцию со случайным (времени компиляции) числом, и операндом.
; 46   : 	// за счет того, что число известно во время компиляции, оптимизатор оставит лишь один вариант действия,
; 47   : 	// выкинув остальные. Таким образом, одна и та же вставка будет давать всякий раз разный результат.
; 48   : 	if (_morph_var % 3) {

  000f4	b8 56 55 55 55	 mov	 eax, 1431655766		; 55555556H
  000f9	8b 4c 24 08	 mov	 ecx, DWORD PTR _morph_var$1[rsp]
  000fd	f7 e9		 imul	 ecx
  000ff	8b c2		 mov	 eax, edx
  00101	c1 e8 1f	 shr	 eax, 31
  00104	03 d0		 add	 edx, eax
  00106	8d 04 52	 lea	 eax, DWORD PTR [rdx+rdx*2]
  00109	3b c8		 cmp	 ecx, eax
  0010b	74 5e		 je	 SHORT $LN37@CheckForFo

; 49   : 		_morph_var += (int)a + 2;

  0010d	8b 4c 24 08	 mov	 ecx, DWORD PTR _morph_var$1[rsp]
  00111	41 03 c8	 add	 ecx, r8d
  00114	41 03 cb	 add	 ecx, r11d
  00117	89 4c 24 08	 mov	 DWORD PTR _morph_var$1[rsp], ecx

; 50   : 		while (!(_morph_var % 4)) ++_morph_var;

  0011b	8b 44 24 08	 mov	 eax, DWORD PTR _morph_var$1[rsp]
  0011f	25 03 00 00 80	 and	 eax, -2147483645	; ffffffff80000003H
  00124	7d 07		 jge	 SHORT $LN79@CheckForFo
  00126	ff c8		 dec	 eax
  00128	83 c8 fc	 or	 eax, -4
  0012b	ff c0		 inc	 eax
$LN79@CheckForFo:
  0012d	85 c0		 test	 eax, eax
  0012f	0f 85 8e 00 00
	00		 jne	 $LN36@CheckForFo
  00135	66 66 66 0f 1f
	84 00 00 00 00
	00		 npad	 11
$LL29@CheckForFo:
  00140	8b 44 24 08	 mov	 eax, DWORD PTR _morph_var$1[rsp]
  00144	ff c0		 inc	 eax
  00146	89 44 24 08	 mov	 DWORD PTR _morph_var$1[rsp], eax
  0014a	8b 44 24 08	 mov	 eax, DWORD PTR _morph_var$1[rsp]
  0014e	25 03 00 00 80	 and	 eax, -2147483645	; ffffffff80000003H
  00153	7d 07		 jge	 SHORT $LN78@CheckForFo
  00155	ff c8		 dec	 eax
  00157	83 c8 fc	 or	 eax, -4
  0015a	ff c0		 inc	 eax
$LN78@CheckForFo:
  0015c	85 c0		 test	 eax, eax
  0015e	74 e0		 je	 SHORT $LL29@CheckForFo
; File C:\Users\admin-z10\Desktop\conti_v3\cryptor\api\getapi.cpp

; 245  : 			return TRUE;

  00160	b8 01 00 00 00	 mov	 eax, 1

; 246  : 
; 247  : 		}
; 248  : 	}
; 249  : 	return FALSE;
; 250  : }

  00165	48 8b 5c 24 10	 mov	 rbx, QWORD PTR [rsp+16]
  0016a	c3		 ret	 0
$LN37@CheckForFo:
; File C:\Users\admin-z10\Desktop\conti_v3\cryptor\mrph.h

; 52   : 	else if (_morph_var % 2) {

  0016b	8b 44 24 08	 mov	 eax, DWORD PTR _morph_var$1[rsp]

; 53   : 		_morph_var -= (int)a - 2;

  0016f	45 2b c3	 sub	 r8d, r11d
  00172	8b 44 24 08	 mov	 eax, DWORD PTR _morph_var$1[rsp]
  00176	44 03 c0	 add	 r8d, eax
  00179	44 89 44 24 08	 mov	 DWORD PTR _morph_var$1[rsp], r8d

; 54   : 		while (!(_morph_var % 3)) ++_morph_var;

  0017e	b8 56 55 55 55	 mov	 eax, 1431655766		; 55555556H
  00183	8b 4c 24 08	 mov	 ecx, DWORD PTR _morph_var$1[rsp]
  00187	f7 e9		 imul	 ecx
  00189	8b c2		 mov	 eax, edx
  0018b	c1 e8 1f	 shr	 eax, 31
  0018e	03 d0		 add	 edx, eax
  00190	8d 04 52	 lea	 eax, DWORD PTR [rdx+rdx*2]
  00193	3b c8		 cmp	 ecx, eax
  00195	75 2c		 jne	 SHORT $LN36@CheckForFo
  00197	66 0f 1f 84 00
	00 00 00 00	 npad	 9
$LL31@CheckForFo:
  001a0	8b 44 24 08	 mov	 eax, DWORD PTR _morph_var$1[rsp]
  001a4	ff c0		 inc	 eax
  001a6	89 44 24 08	 mov	 DWORD PTR _morph_var$1[rsp], eax
  001aa	b8 56 55 55 55	 mov	 eax, 1431655766		; 55555556H
  001af	8b 4c 24 08	 mov	 ecx, DWORD PTR _morph_var$1[rsp]
  001b3	f7 e9		 imul	 ecx
  001b5	8b c2		 mov	 eax, edx
  001b7	c1 e8 1f	 shr	 eax, 31
  001ba	03 d0		 add	 edx, eax
  001bc	8d 04 52	 lea	 eax, DWORD PTR [rdx+rdx*2]
  001bf	3b c8		 cmp	 ecx, eax
  001c1	74 dd		 je	 SHORT $LL31@CheckForFo
$LN36@CheckForFo:
; File C:\Users\admin-z10\Desktop\conti_v3\cryptor\api\getapi.cpp

; 245  : 			return TRUE;

  001c3	b8 01 00 00 00	 mov	 eax, 1

; 246  : 
; 247  : 		}
; 248  : 	}
; 249  : 	return FALSE;
; 250  : }

  001c8	48 8b 5c 24 10	 mov	 rbx, QWORD PTR [rsp+16]
  001cd	c3		 ret	 0
$LN3@CheckForFo:
  001ce	48 8b 5c 24 10	 mov	 rbx, QWORD PTR [rsp+16]
  001d3	33 c0		 xor	 eax, eax
  001d5	c3		 ret	 0
?CheckForForvardedProc@@YAH_KPEAU_IMAGE_EXPORT_DIRECTORY@@K@Z ENDP ; CheckForForvardedProc
_TEXT	ENDS
; Function compile flags: /Ogtpy
; File C:\Users\admin-z10\Desktop\conti_v3\cryptor\api\getapi.cpp
; File C:\Users\admin-z10\Desktop\conti_v3\cryptor\mrph.h
; File C:\Users\admin-z10\Desktop\conti_v3\cryptor\api\getapi.cpp
; File C:\Users\admin-z10\Desktop\conti_v3\cryptor\mrph.h
; File C:\Users\admin-z10\Desktop\conti_v3\cryptor\api\getapi.cpp
; File C:\Users\admin-z10\Desktop\conti_v3\cryptor\mrph.h
; File C:\Users\admin-z10\Desktop\conti_v3\cryptor\api\getapi.cpp
; File C:\Users\admin-z10\Desktop\conti_v3\cryptor\mrph.h
; File C:\Users\admin-z10\Desktop\conti_v3\cryptor\api\getapi.cpp
; File C:\Users\admin-z10\Desktop\conti_v3\cryptor\mrph.h
; File C:\Users\admin-z10\Desktop\conti_v3\cryptor\api\getapi.cpp
; File C:\Users\admin-z10\Desktop\conti_v3\cryptor\mrph.h
; File C:\Users\admin-z10\Desktop\conti_v3\cryptor\api\getapi.cpp
;	COMDAT ?GetFunctionAddresss@@YA_KPEAUHINSTANCE__@@PEAU_IMAGE_EXPORT_DIRECTORY@@J@Z
_TEXT	SEGMENT
Module$ = 8
Table$ = 16
_morph_var$1 = 24
_morph_var$2 = 24
_morph_var$3 = 24
Ordinal$ = 24
?GetFunctionAddresss@@YA_KPEAUHINSTANCE__@@PEAU_IMAGE_EXPORT_DIRECTORY@@J@Z PROC ; GetFunctionAddresss, COMDAT

; 254  : {

$LN159:
  00000	48 89 5c 24 08	 mov	 QWORD PTR [rsp+8], rbx
  00005	4d 63 d0	 movsxd	 r10, r8d
; File C:\Users\admin-z10\Desktop\conti_v3\cryptor\mrph.h

; 48   : 	if (_morph_var % 3) {

  00008	b8 56 55 55 55	 mov	 eax, 1431655766		; 55555556H
; File C:\Users\admin-z10\Desktop\conti_v3\cryptor\api\getapi.cpp

; 255  : 	PDWORD AddrTable = (PDWORD)RVATOVA(Module, Table->AddressOfFunctions);

  0000d	44 8b 42 1c	 mov	 r8d, DWORD PTR [rdx+28]
  00011	48 8b d9	 mov	 rbx, rcx
; File C:\Users\admin-z10\Desktop\conti_v3\cryptor\mrph.h

; 40   : 	volatile int _morph_var = static_cast<int>(1 + MetaRandom2<0, 0x7FFFFF - 1>::value);

  00014	c7 44 24 18 c1
	9b 17 00	 mov	 DWORD PTR _morph_var$2[rsp], 1547201 ; 00179bc1H
; File C:\Users\admin-z10\Desktop\conti_v3\cryptor\api\getapi.cpp

; 255  : 	PDWORD AddrTable = (PDWORD)RVATOVA(Module, Table->AddressOfFunctions);

  0001c	4c 03 c1	 add	 r8, rcx
; File C:\Users\admin-z10\Desktop\conti_v3\cryptor\mrph.h

; 48   : 	if (_morph_var % 3) {

  0001f	44 8b 4c 24 18	 mov	 r9d, DWORD PTR _morph_var$2[rsp]
  00024	41 bb 02 00 00
	00		 mov	 r11d, 2
  0002a	41 f7 e9	 imul	 r9d
  0002d	8b c2		 mov	 eax, edx
  0002f	c1 e8 1f	 shr	 eax, 31
  00032	03 d0		 add	 edx, eax
  00034	8d 04 52	 lea	 eax, DWORD PTR [rdx+rdx*2]
  00037	44 3b c8	 cmp	 r9d, eax
  0003a	74 46		 je	 SHORT $LN14@GetFunctio

; 49   : 		_morph_var += (int)a + 2;

  0003c	8b 4c 24 18	 mov	 ecx, DWORD PTR _morph_var$2[rsp]
  00040	41 03 cb	 add	 ecx, r11d
  00043	41 03 c8	 add	 ecx, r8d
  00046	89 4c 24 18	 mov	 DWORD PTR _morph_var$2[rsp], ecx

; 50   : 		while (!(_morph_var % 4)) ++_morph_var;

  0004a	8b 44 24 18	 mov	 eax, DWORD PTR _morph_var$2[rsp]
  0004e	25 03 00 00 80	 and	 eax, -2147483645	; ffffffff80000003H
  00053	7d 07		 jge	 SHORT $LN118@GetFunctio
  00055	ff c8		 dec	 eax
  00057	83 c8 fc	 or	 eax, -4
  0005a	ff c0		 inc	 eax
$LN118@GetFunctio:
  0005c	85 c0		 test	 eax, eax
  0005e	75 73		 jne	 SHORT $LN13@GetFunctio
$LL6@GetFunctio:
  00060	8b 44 24 18	 mov	 eax, DWORD PTR _morph_var$2[rsp]
  00064	ff c0		 inc	 eax
  00066	89 44 24 18	 mov	 DWORD PTR _morph_var$2[rsp], eax
  0006a	8b 44 24 18	 mov	 eax, DWORD PTR _morph_var$2[rsp]
  0006e	25 03 00 00 80	 and	 eax, -2147483645	; ffffffff80000003H
  00073	7d 07		 jge	 SHORT $LN117@GetFunctio
  00075	ff c8		 dec	 eax
  00077	83 c8 fc	 or	 eax, -4
  0007a	ff c0		 inc	 eax
$LN117@GetFunctio:
  0007c	85 c0		 test	 eax, eax
  0007e	74 e0		 je	 SHORT $LL6@GetFunctio

; 51   : 	}

  00080	eb 51		 jmp	 SHORT $LN13@GetFunctio
$LN14@GetFunctio:

; 52   : 	else if (_morph_var % 2) {

  00082	8b 44 24 18	 mov	 eax, DWORD PTR _morph_var$2[rsp]

; 53   : 		_morph_var -= (int)a - 2;

  00086	41 8b cb	 mov	 ecx, r11d
  00089	8b 44 24 18	 mov	 eax, DWORD PTR _morph_var$2[rsp]
  0008d	41 2b c8	 sub	 ecx, r8d
  00090	03 c8		 add	 ecx, eax

; 54   : 		while (!(_morph_var % 3)) ++_morph_var;

  00092	b8 56 55 55 55	 mov	 eax, 1431655766		; 55555556H
  00097	89 4c 24 18	 mov	 DWORD PTR _morph_var$2[rsp], ecx
  0009b	8b 4c 24 18	 mov	 ecx, DWORD PTR _morph_var$2[rsp]
  0009f	f7 e9		 imul	 ecx
  000a1	8b c2		 mov	 eax, edx
  000a3	c1 e8 1f	 shr	 eax, 31
  000a6	03 d0		 add	 edx, eax
  000a8	8d 04 52	 lea	 eax, DWORD PTR [rdx+rdx*2]
  000ab	3b c8		 cmp	 ecx, eax
  000ad	75 24		 jne	 SHORT $LN13@GetFunctio
  000af	90		 npad	 1
$LL8@GetFunctio:
  000b0	8b 44 24 18	 mov	 eax, DWORD PTR _morph_var$2[rsp]
  000b4	ff c0		 inc	 eax
  000b6	89 44 24 18	 mov	 DWORD PTR _morph_var$2[rsp], eax
  000ba	b8 56 55 55 55	 mov	 eax, 1431655766		; 55555556H
  000bf	8b 4c 24 18	 mov	 ecx, DWORD PTR _morph_var$2[rsp]
  000c3	f7 e9		 imul	 ecx
  000c5	8b c2		 mov	 eax, edx
  000c7	c1 e8 1f	 shr	 eax, 31
  000ca	03 d0		 add	 edx, eax
  000cc	8d 04 52	 lea	 eax, DWORD PTR [rdx+rdx*2]
  000cf	3b c8		 cmp	 ecx, eax
  000d1	74 dd		 je	 SHORT $LL8@GetFunctio
$LN13@GetFunctio:
; File C:\Users\admin-z10\Desktop\conti_v3\cryptor\api\getapi.cpp

; 257  : 	DWORD RVA = AddrTable[Ordinal];

  000d3	47 8b 04 90	 mov	 r8d, DWORD PTR [r8+r10*4]
; File C:\Users\admin-z10\Desktop\conti_v3\cryptor\mrph.h

; 48   : 	if (_morph_var % 3) {

  000d7	b8 56 55 55 55	 mov	 eax, 1431655766		; 55555556H
  000dc	44 89 4c 24 18	 mov	 DWORD PTR _morph_var$3[rsp], r9d
  000e1	8b 4c 24 18	 mov	 ecx, DWORD PTR _morph_var$3[rsp]
  000e5	f7 e9		 imul	 ecx
  000e7	8b c2		 mov	 eax, edx
  000e9	c1 e8 1f	 shr	 eax, 31
  000ec	03 d0		 add	 edx, eax
  000ee	8d 04 52	 lea	 eax, DWORD PTR [rdx+rdx*2]
  000f1	3b c8		 cmp	 ecx, eax
  000f3	74 4d		 je	 SHORT $LN35@GetFunctio

; 49   : 		_morph_var += (int)a + 2;

  000f5	8b 4c 24 18	 mov	 ecx, DWORD PTR _morph_var$3[rsp]
  000f9	41 03 cb	 add	 ecx, r11d
  000fc	41 03 c8	 add	 ecx, r8d
  000ff	89 4c 24 18	 mov	 DWORD PTR _morph_var$3[rsp], ecx

; 50   : 		while (!(_morph_var % 4)) ++_morph_var;

  00103	8b 44 24 18	 mov	 eax, DWORD PTR _morph_var$3[rsp]
  00107	25 03 00 00 80	 and	 eax, -2147483645	; ffffffff80000003H
  0010c	7d 07		 jge	 SHORT $LN115@GetFunctio
  0010e	ff c8		 dec	 eax
  00110	83 c8 fc	 or	 eax, -4
  00113	ff c0		 inc	 eax
$LN115@GetFunctio:
  00115	85 c0		 test	 eax, eax
  00117	75 7a		 jne	 SHORT $LN34@GetFunctio
  00119	0f 1f 80 00 00
	00 00		 npad	 7
$LL27@GetFunctio:
  00120	8b 44 24 18	 mov	 eax, DWORD PTR _morph_var$3[rsp]
  00124	ff c0		 inc	 eax
  00126	89 44 24 18	 mov	 DWORD PTR _morph_var$3[rsp], eax
  0012a	8b 44 24 18	 mov	 eax, DWORD PTR _morph_var$3[rsp]
  0012e	25 03 00 00 80	 and	 eax, -2147483645	; ffffffff80000003H
  00133	7d 07		 jge	 SHORT $LN114@GetFunctio
  00135	ff c8		 dec	 eax
  00137	83 c8 fc	 or	 eax, -4
  0013a	ff c0		 inc	 eax
$LN114@GetFunctio:
  0013c	85 c0		 test	 eax, eax
  0013e	74 e0		 je	 SHORT $LL27@GetFunctio

; 51   : 	}

  00140	eb 51		 jmp	 SHORT $LN34@GetFunctio
$LN35@GetFunctio:

; 52   : 	else if (_morph_var % 2) {

  00142	8b 44 24 18	 mov	 eax, DWORD PTR _morph_var$3[rsp]

; 53   : 		_morph_var -= (int)a - 2;

  00146	41 8b cb	 mov	 ecx, r11d
  00149	8b 44 24 18	 mov	 eax, DWORD PTR _morph_var$3[rsp]
  0014d	41 2b c8	 sub	 ecx, r8d
  00150	03 c8		 add	 ecx, eax

; 54   : 		while (!(_morph_var % 3)) ++_morph_var;

  00152	b8 56 55 55 55	 mov	 eax, 1431655766		; 55555556H
  00157	89 4c 24 18	 mov	 DWORD PTR _morph_var$3[rsp], ecx
  0015b	8b 4c 24 18	 mov	 ecx, DWORD PTR _morph_var$3[rsp]
  0015f	f7 e9		 imul	 ecx
  00161	8b c2		 mov	 eax, edx
  00163	c1 e8 1f	 shr	 eax, 31
  00166	03 d0		 add	 edx, eax
  00168	8d 04 52	 lea	 eax, DWORD PTR [rdx+rdx*2]
  0016b	3b c8		 cmp	 ecx, eax
  0016d	75 24		 jne	 SHORT $LN34@GetFunctio
  0016f	90		 npad	 1
$LL29@GetFunctio:
  00170	8b 44 24 18	 mov	 eax, DWORD PTR _morph_var$3[rsp]
  00174	ff c0		 inc	 eax
  00176	89 44 24 18	 mov	 DWORD PTR _morph_var$3[rsp], eax
  0017a	b8 56 55 55 55	 mov	 eax, 1431655766		; 55555556H
  0017f	8b 4c 24 18	 mov	 ecx, DWORD PTR _morph_var$3[rsp]
  00183	f7 e9		 imul	 ecx
  00185	8b c2		 mov	 eax, edx
  00187	c1 e8 1f	 shr	 eax, 31
  0018a	03 d0		 add	 edx, eax
  0018c	8d 04 52	 lea	 eax, DWORD PTR [rdx+rdx*2]
  0018f	3b c8		 cmp	 ecx, eax
  00191	74 dd		 je	 SHORT $LL29@GetFunctio
$LN34@GetFunctio:

; 40   : 	volatile int _morph_var = static_cast<int>(1 + MetaRandom2<0, 0x7FFFFF - 1>::value);

  00193	c7 44 24 18 c1
	9b 17 00	 mov	 DWORD PTR _morph_var$1[rsp], 1547201 ; 00179bc1H
; File C:\Users\admin-z10\Desktop\conti_v3\cryptor\api\getapi.cpp

; 259  : 	ADDR Ret = (ADDR)RVATOVA(Module, RVA);

  0019b	4e 8d 0c 03	 lea	 r9, QWORD PTR [rbx+r8]
; File C:\Users\admin-z10\Desktop\conti_v3\cryptor\mrph.h

; 48   : 	if (_morph_var % 3) {

  0019f	8b 4c 24 18	 mov	 ecx, DWORD PTR _morph_var$1[rsp]
  001a3	b8 56 55 55 55	 mov	 eax, 1431655766		; 55555556H
  001a8	f7 e9		 imul	 ecx
  001aa	8b c2		 mov	 eax, edx
  001ac	c1 e8 1f	 shr	 eax, 31
  001af	03 d0		 add	 edx, eax
  001b1	8d 04 52	 lea	 eax, DWORD PTR [rdx+rdx*2]
  001b4	3b c8		 cmp	 ecx, eax
  001b6	74 51		 je	 SHORT $LN56@GetFunctio

; 49   : 		_morph_var += (int)a + 2;

  001b8	8b 4c 24 18	 mov	 ecx, DWORD PTR _morph_var$1[rsp]
  001bc	41 03 cb	 add	 ecx, r11d
  001bf	41 03 c9	 add	 ecx, r9d
  001c2	89 4c 24 18	 mov	 DWORD PTR _morph_var$1[rsp], ecx

; 50   : 		while (!(_morph_var % 4)) ++_morph_var;

  001c6	8b 44 24 18	 mov	 eax, DWORD PTR _morph_var$1[rsp]
  001ca	25 03 00 00 80	 and	 eax, -2147483645	; ffffffff80000003H
  001cf	7d 07		 jge	 SHORT $LN112@GetFunctio
  001d1	ff c8		 dec	 eax
  001d3	83 c8 fc	 or	 eax, -4
  001d6	ff c0		 inc	 eax
$LN112@GetFunctio:
  001d8	85 c0		 test	 eax, eax
  001da	0f 85 83 00 00
	00		 jne	 $LN55@GetFunctio
$LL48@GetFunctio:
  001e0	8b 44 24 18	 mov	 eax, DWORD PTR _morph_var$1[rsp]
  001e4	ff c0		 inc	 eax
  001e6	89 44 24 18	 mov	 DWORD PTR _morph_var$1[rsp], eax
  001ea	8b 44 24 18	 mov	 eax, DWORD PTR _morph_var$1[rsp]
  001ee	25 03 00 00 80	 and	 eax, -2147483645	; ffffffff80000003H
  001f3	7d 07		 jge	 SHORT $LN111@GetFunctio
  001f5	ff c8		 dec	 eax
  001f7	83 c8 fc	 or	 eax, -4
  001fa	ff c0		 inc	 eax
$LN111@GetFunctio:
  001fc	85 c0		 test	 eax, eax
  001fe	74 e0		 je	 SHORT $LL48@GetFunctio
; File C:\Users\admin-z10\Desktop\conti_v3\cryptor\api\getapi.cpp

; 261  : 	return Ret;

  00200	49 8b c1	 mov	 rax, r9

; 262  : }

  00203	48 8b 5c 24 08	 mov	 rbx, QWORD PTR [rsp+8]
  00208	c3		 ret	 0
$LN56@GetFunctio:
; File C:\Users\admin-z10\Desktop\conti_v3\cryptor\mrph.h

; 52   : 	else if (_morph_var % 2) {

  00209	8b 44 24 18	 mov	 eax, DWORD PTR _morph_var$1[rsp]

; 53   : 		_morph_var -= (int)a - 2;

  0020d	45 2b d9	 sub	 r11d, r9d
  00210	8b 44 24 18	 mov	 eax, DWORD PTR _morph_var$1[rsp]
  00214	44 03 d8	 add	 r11d, eax
  00217	44 89 5c 24 18	 mov	 DWORD PTR _morph_var$1[rsp], r11d

; 54   : 		while (!(_morph_var % 3)) ++_morph_var;

  0021c	b8 56 55 55 55	 mov	 eax, 1431655766		; 55555556H
  00221	8b 4c 24 18	 mov	 ecx, DWORD PTR _morph_var$1[rsp]
  00225	f7 e9		 imul	 ecx
  00227	8b c2		 mov	 eax, edx
  00229	c1 e8 1f	 shr	 eax, 31
  0022c	03 d0		 add	 edx, eax
  0022e	8d 04 52	 lea	 eax, DWORD PTR [rdx+rdx*2]
  00231	3b c8		 cmp	 ecx, eax
  00233	75 2e		 jne	 SHORT $LN55@GetFunctio
  00235	66 66 66 0f 1f
	84 00 00 00 00
	00		 npad	 11
$LL50@GetFunctio:
  00240	8b 44 24 18	 mov	 eax, DWORD PTR _morph_var$1[rsp]
  00244	ff c0		 inc	 eax
  00246	89 44 24 18	 mov	 DWORD PTR _morph_var$1[rsp], eax
  0024a	b8 56 55 55 55	 mov	 eax, 1431655766		; 55555556H
  0024f	8b 4c 24 18	 mov	 ecx, DWORD PTR _morph_var$1[rsp]
  00253	f7 e9		 imul	 ecx
  00255	8b c2		 mov	 eax, edx
  00257	c1 e8 1f	 shr	 eax, 31
  0025a	03 d0		 add	 edx, eax
  0025c	8d 04 52	 lea	 eax, DWORD PTR [rdx+rdx*2]
  0025f	3b c8		 cmp	 ecx, eax
  00261	74 dd		 je	 SHORT $LL50@GetFunctio
$LN55@GetFunctio:
; File C:\Users\admin-z10\Desktop\conti_v3\cryptor\api\getapi.cpp

; 262  : }

  00263	48 8b 5c 24 08	 mov	 rbx, QWORD PTR [rsp+8]
  00268	49 8b c1	 mov	 rax, r9
  0026b	c3		 ret	 0
?GetFunctionAddresss@@YA_KPEAUHINSTANCE__@@PEAU_IMAGE_EXPORT_DIRECTORY@@J@Z ENDP ; GetFunctionAddresss
_TEXT	ENDS
; Function compile flags: /Ogtpy
; File C:\Users\admin-z10\Desktop\conti_v3\cryptor\api\getapi.cpp
;	COMDAT ?GetApiAddr@@YA_KPEAUHINSTANCE__@@KPEA_K@Z
_TEXT	SEGMENT
Module$ = 80
ProcNameHash$ = 88
Address$ = 96
?GetApiAddr@@YA_KPEAUHINSTANCE__@@KPEA_K@Z PROC		; GetApiAddr, COMDAT

; 382  : {

$LN690:
  00000	48 89 5c 24 08	 mov	 QWORD PTR [rsp+8], rbx
  00005	48 89 6c 24 10	 mov	 QWORD PTR [rsp+16], rbp
  0000a	48 89 74 24 18	 mov	 QWORD PTR [rsp+24], rsi
  0000f	57		 push	 rdi
  00010	41 54		 push	 r12
  00012	41 55		 push	 r13
  00014	41 56		 push	 r14
  00016	41 57		 push	 r15
  00018	48 83 ec 20	 sub	 rsp, 32			; 00000020H

; 383  : 	/*----------- Функция возвращает адрес функции по её названию -----------*/
; 384  : 	// Получаем адрес дополнительных PE заголовков
; 385  : 	PIMAGE_OPTIONAL_HEADER poh = (PIMAGE_OPTIONAL_HEADER)((char*)Module + ((PIMAGE_DOS_HEADER)Module)->e_lfanew + sizeof(DWORD) + sizeof(IMAGE_FILE_HEADER));

  0001c	48 63 41 3c	 movsxd	 rax, DWORD PTR [rcx+60]
  00020	4d 8b e0	 mov	 r12, r8
  00023	44 8b fa	 mov	 r15d, edx
  00026	4c 8b f1	 mov	 r14, rcx

; 386  : 
; 387  : 	// Получаем адрес таблицы экспорта
; 388  : 	PIMAGE_EXPORT_DIRECTORY Table = (IMAGE_EXPORT_DIRECTORY*)RVATOVA(Module, poh->DataDirectory[IMAGE_DIRECTORY_ENTRY_EXPORT].VirtualAddress);

  00029	8b ac 08 88 00
	00 00		 mov	 ebp, DWORD PTR [rax+rcx+136]

; 389  : 
; 390  : 	DWORD DataSize = poh->DataDirectory[IMAGE_DIRECTORY_ENTRY_EXPORT].Size;

  00030	44 8b ac 08 8c
	00 00 00	 mov	 r13d, DWORD PTR [rax+rcx+140]
  00038	48 03 e9	 add	 rbp, rcx

; 391  : 
; 392  : 	INT Ordinal; // Номер необходимой нам функции
; 393  : 	BOOL Found = FALSE;
; 394  : 
; 395  : 	if (HIWORD(ProcNameHash) == 0)

  0003b	8b c2		 mov	 eax, edx
  0003d	c1 e8 10	 shr	 eax, 16
  00040	66 85 c0	 test	 ax, ax
  00043	74 4f		 je	 SHORT $LN683@GetApiAddr

; 396  : 	{
; 397  : 		// Ищем функцию по её номеру
; 398  : 		Ordinal = (LOWORD(ProcNameHash)) - Table->Base;
; 399  : 	}
; 400  : 	else
; 401  : 	{
; 402  : 		// Ищем функцию по номеру
; 403  : 		PDWORD NamesTable = (DWORD*)RVATOVA(Module, Table->AddressOfNames);

  00045	8b 5d 20	 mov	 ebx, DWORD PTR [rbp+32]

; 404  : 		PWORD  OrdinalTable = (WORD*)RVATOVA(Module, Table->AddressOfNameOrdinals);
; 405  : 
; 406  : 		unsigned int i;
; 407  : 		char* ProcName;
; 408  : 
; 409  : 		for (i = 0; i < Table->NumberOfNames; ++i)

  00048	33 ff		 xor	 edi, edi
  0004a	8b 75 24	 mov	 esi, DWORD PTR [rbp+36]
  0004d	48 03 d9	 add	 rbx, rcx
  00050	48 03 f1	 add	 rsi, rcx
  00053	39 7d 18	 cmp	 DWORD PTR [rbp+24], edi
  00056	76 3c		 jbe	 SHORT $LN683@GetApiAddr
  00058	0f 1f 84 00 00
	00 00 00	 npad	 8
$LL4@GetApiAddr:

; 410  : 		{
; 411  : 
; 412  : 			ProcName = (char*)RVATOVA(Module, *NamesTable);

  00060	8b 0b		 mov	 ecx, DWORD PTR [rbx]

; 61   : 	INT Length = 0;

  00062	33 d2		 xor	 edx, edx

; 410  : 		{
; 411  : 
; 412  : 			ProcName = (char*)RVATOVA(Module, *NamesTable);

  00064	49 03 ce	 add	 rcx, r14

; 413  : 
; 414  : 
; 415  : 			if (MurmurHash2A(ProcName, StrLen(ProcName), HASHING_SEED) == ProcNameHash)

  00067	48 8b c1	 mov	 rax, rcx

; 62   : 	while (*Str)

  0006a	38 11		 cmp	 BYTE PTR [rcx], dl
  0006c	74 0d		 je	 SHORT $LN13@GetApiAddr
  0006e	66 90		 npad	 2
$LL12@GetApiAddr:

; 63   : 	{
; 64   : 
; 65   : 		Length++;

  00070	ff c2		 inc	 edx

; 66   : 		Str++;

  00072	48 8d 40 01	 lea	 rax, QWORD PTR [rax+1]
  00076	80 38 00	 cmp	 BYTE PTR [rax], 0
  00079	75 f5		 jne	 SHORT $LL12@GetApiAddr
$LN13@GetApiAddr:

; 413  : 
; 414  : 
; 415  : 			if (MurmurHash2A(ProcName, StrLen(ProcName), HASHING_SEED) == ProcNameHash)

  0007b	e8 00 00 00 00	 call	 ?MurmurHash2A@@YAIPEBXHI@Z ; MurmurHash2A
  00080	41 3b c7	 cmp	 eax, r15d
  00083	74 36		 je	 SHORT $LN676@GetApiAddr

; 418  : 				Found = TRUE;
; 419  : 				break;
; 420  : 			}
; 421  : 
; 422  : 			// Увеличиваем позицию в таблице
; 423  : 			++NamesTable;

  00085	48 83 c3 04	 add	 rbx, 4

; 424  : 			++OrdinalTable;

  00089	48 83 c6 02	 add	 rsi, 2
  0008d	ff c7		 inc	 edi
  0008f	3b 7d 18	 cmp	 edi, DWORD PTR [rbp+24]
  00092	72 cc		 jb	 SHORT $LL4@GetApiAddr
$LN683@GetApiAddr:

; 425  : 
; 426  : 		}
; 427  : 
; 428  : 	}
; 429  : 
; 430  : 
; 431  : 	// не нашли номер
; 432  : 	if (!Found) {
; 433  : 
; 434  : 		*Address = 0;

  00094	49 c7 04 24 00
	00 00 00	 mov	 QWORD PTR [r12], 0

; 435  : 		return 0;

  0009c	33 c0		 xor	 eax, eax
$LN1@GetApiAddr:

; 447  : }

  0009e	48 8b 5c 24 50	 mov	 rbx, QWORD PTR [rsp+80]
  000a3	48 8b 6c 24 58	 mov	 rbp, QWORD PTR [rsp+88]
  000a8	48 8b 74 24 60	 mov	 rsi, QWORD PTR [rsp+96]
  000ad	48 83 c4 20	 add	 rsp, 32			; 00000020H
  000b1	41 5f		 pop	 r15
  000b3	41 5e		 pop	 r14
  000b5	41 5d		 pop	 r13
  000b7	41 5c		 pop	 r12
  000b9	5f		 pop	 rdi
  000ba	c3		 ret	 0
$LN676@GetApiAddr:

; 416  : 			{
; 417  : 				Ordinal = *OrdinalTable;

  000bb	44 0f b7 06	 movzx	 r8d, WORD PTR [rsi]

; 436  : 
; 437  : 	}
; 438  : 
; 439  : 	ADDR Ret = GetFunctionAddresss(Module, Table, Ordinal);

  000bf	48 8b d5	 mov	 rdx, rbp
  000c2	49 8b ce	 mov	 rcx, r14
  000c5	e8 00 00 00 00	 call	 ?GetFunctionAddresss@@YA_KPEAUHINSTANCE__@@PEAU_IMAGE_EXPORT_DIRECTORY@@J@Z ; GetFunctionAddresss

; 440  : 
; 441  : 	if (CheckForForvardedProc(Ret, Table, DataSize)) {

  000ca	45 8b c5	 mov	 r8d, r13d
  000cd	48 8b d5	 mov	 rdx, rbp
  000d0	48 8b c8	 mov	 rcx, rax
  000d3	48 8b d8	 mov	 rbx, rax
  000d6	e8 00 00 00 00	 call	 ?CheckForForvardedProc@@YAH_KPEAU_IMAGE_EXPORT_DIRECTORY@@K@Z ; CheckForForvardedProc
  000db	85 c0		 test	 eax, eax
  000dd	74 0b		 je	 SHORT $LN9@GetApiAddr

; 442  : 		Ret = (ADDR)GetForvardedProc((PCHAR)Ret);

  000df	48 8b cb	 mov	 rcx, rbx
  000e2	e8 00 00 00 00	 call	 ?GetForvardedProc@@YAPEAXPEAD@Z ; GetForvardedProc
  000e7	48 8b d8	 mov	 rbx, rax
$LN9@GetApiAddr:

; 443  : 	}
; 444  : 
; 445  : 	//ReturnAddress(Address, Ret + 1);
; 446  : 	return Ret;

  000ea	48 8b c3	 mov	 rax, rbx
  000ed	eb af		 jmp	 SHORT $LN1@GetApiAddr
?GetApiAddr@@YA_KPEAUHINSTANCE__@@KPEA_K@Z ENDP		; GetApiAddr
_TEXT	ENDS
; Function compile flags: /Ogtpy
; File C:\Users\admin-z10\Desktop\conti_v3\cryptor\api\getapi.cpp
; File C:\Users\admin-z10\Desktop\conti_v3\cryptor\mrph.h
; File C:\Users\admin-z10\Desktop\conti_v3\cryptor\api\getapi.cpp
; File C:\Users\admin-z10\Desktop\conti_v3\cryptor\mrph.h
; File C:\Users\admin-z10\Desktop\conti_v3\cryptor\api\getapi.cpp
; File C:\Users\admin-z10\Desktop\conti_v3\cryptor\mrph.h
; File C:\Users\admin-z10\Desktop\conti_v3\cryptor\api\getapi.cpp
;	COMDAT ?GetHashBase@@YAKPEAULDR_MODULE@@@Z
_TEXT	SEGMENT
_morph_var$2 = 32
_morph_var$3 = 32
name$ = 48
__$ArrayPad$ = 112
mdll$ = 144
?GetHashBase@@YAKPEAULDR_MODULE@@@Z PROC		; GetHashBase, COMDAT

; 452  : {

$LN99:
  00000	48 81 ec 88 00
	00 00		 sub	 rsp, 136		; 00000088H
  00007	48 8b 05 00 00
	00 00		 mov	 rax, QWORD PTR __security_cookie
  0000e	48 33 c4	 xor	 rax, rsp
  00011	48 89 44 24 70	 mov	 QWORD PTR __$ArrayPad$[rsp], rax

; 457  : 	while (mdll->dllname.Buffer[i] && i < sizeof(name) - 1)

  00016	48 8b 41 60	 mov	 rax, QWORD PTR [rcx+96]
  0001a	45 33 d2	 xor	 r10d, r10d
  0001d	45 8b ca	 mov	 r9d, r10d
  00020	4c 8b d9	 mov	 r11, rcx
  00023	66 44 39 08	 cmp	 WORD PTR [rax], r9w
  00027	0f 84 bf 01 00
	00		 je	 $LN89@GetHashBas
  0002d	0f 1f 00	 npad	 3
$LL2@GetHashBas:
  00030	49 83 f9 3f	 cmp	 r9, 63			; 0000003fH
  00034	0f 83 ac 01 00
	00		 jae	 $LN3@GetHashBas

; 458  : 	{
; 459  : 
; 460  : 		morphcode(mdll->dllname.Buffer[i]);

  0003a	46 0f b7 04 48	 movzx	 r8d, WORD PTR [rax+r9*2]
; File C:\Users\admin-z10\Desktop\conti_v3\cryptor\mrph.h

; 48   : 	if (_morph_var % 3) {

  0003f	b8 56 55 55 55	 mov	 eax, 1431655766		; 55555556H
  00044	c7 44 24 20 c1
	9b 17 00	 mov	 DWORD PTR _morph_var$3[rsp], 1547201 ; 00179bc1H
  0004c	8b 4c 24 20	 mov	 ecx, DWORD PTR _morph_var$3[rsp]
  00050	f7 e9		 imul	 ecx
  00052	8b c2		 mov	 eax, edx
  00054	c1 e8 1f	 shr	 eax, 31
  00057	03 d0		 add	 edx, eax
  00059	8d 04 52	 lea	 eax, DWORD PTR [rdx+rdx*2]
  0005c	3b c8		 cmp	 ecx, eax
  0005e	74 52		 je	 SHORT $LN16@GetHashBas

; 49   : 		_morph_var += (int)a + 2;

  00060	8b 4c 24 20	 mov	 ecx, DWORD PTR _morph_var$3[rsp]
  00064	83 c1 02	 add	 ecx, 2
  00067	41 03 c8	 add	 ecx, r8d
  0006a	89 4c 24 20	 mov	 DWORD PTR _morph_var$3[rsp], ecx

; 50   : 		while (!(_morph_var % 4)) ++_morph_var;

  0006e	8b 44 24 20	 mov	 eax, DWORD PTR _morph_var$3[rsp]
  00072	25 03 00 00 80	 and	 eax, -2147483645	; ffffffff80000003H
  00077	7d 07		 jge	 SHORT $LN95@GetHashBas
  00079	ff c8		 dec	 eax
  0007b	83 c8 fc	 or	 eax, -4
  0007e	ff c0		 inc	 eax
$LN95@GetHashBas:
  00080	85 c0		 test	 eax, eax
  00082	0f 85 7c 00 00
	00		 jne	 $LN15@GetHashBas
  00088	0f 1f 84 00 00
	00 00 00	 npad	 8
$LL8@GetHashBas:
  00090	8b 44 24 20	 mov	 eax, DWORD PTR _morph_var$3[rsp]
  00094	ff c0		 inc	 eax
  00096	89 44 24 20	 mov	 DWORD PTR _morph_var$3[rsp], eax
  0009a	8b 44 24 20	 mov	 eax, DWORD PTR _morph_var$3[rsp]
  0009e	25 03 00 00 80	 and	 eax, -2147483645	; ffffffff80000003H
  000a3	7d 07		 jge	 SHORT $LN94@GetHashBas
  000a5	ff c8		 dec	 eax
  000a7	83 c8 fc	 or	 eax, -4
  000aa	ff c0		 inc	 eax
$LN94@GetHashBas:
  000ac	85 c0		 test	 eax, eax
  000ae	74 e0		 je	 SHORT $LL8@GetHashBas

; 51   : 	}

  000b0	eb 52		 jmp	 SHORT $LN15@GetHashBas
$LN16@GetHashBas:

; 52   : 	else if (_morph_var % 2) {

  000b2	8b 44 24 20	 mov	 eax, DWORD PTR _morph_var$3[rsp]

; 53   : 		_morph_var -= (int)a - 2;

  000b6	b9 02 00 00 00	 mov	 ecx, 2
  000bb	8b 44 24 20	 mov	 eax, DWORD PTR _morph_var$3[rsp]
  000bf	41 2b c8	 sub	 ecx, r8d
  000c2	03 c8		 add	 ecx, eax

; 54   : 		while (!(_morph_var % 3)) ++_morph_var;

  000c4	b8 56 55 55 55	 mov	 eax, 1431655766		; 55555556H
  000c9	89 4c 24 20	 mov	 DWORD PTR _morph_var$3[rsp], ecx
  000cd	8b 4c 24 20	 mov	 ecx, DWORD PTR _morph_var$3[rsp]
  000d1	f7 e9		 imul	 ecx
  000d3	8b c2		 mov	 eax, edx
  000d5	c1 e8 1f	 shr	 eax, 31
  000d8	03 d0		 add	 edx, eax
  000da	8d 04 52	 lea	 eax, DWORD PTR [rdx+rdx*2]
  000dd	3b c8		 cmp	 ecx, eax
  000df	75 23		 jne	 SHORT $LN15@GetHashBas
$LL10@GetHashBas:
  000e1	8b 44 24 20	 mov	 eax, DWORD PTR _morph_var$3[rsp]
  000e5	ff c0		 inc	 eax
  000e7	89 44 24 20	 mov	 DWORD PTR _morph_var$3[rsp], eax
  000eb	b8 56 55 55 55	 mov	 eax, 1431655766		; 55555556H
  000f0	8b 4c 24 20	 mov	 ecx, DWORD PTR _morph_var$3[rsp]
  000f4	f7 e9		 imul	 ecx
  000f6	8b c2		 mov	 eax, edx
  000f8	c1 e8 1f	 shr	 eax, 31
  000fb	03 d0		 add	 edx, eax
  000fd	8d 04 52	 lea	 eax, DWORD PTR [rdx+rdx*2]
  00100	3b c8		 cmp	 ecx, eax
  00102	74 dd		 je	 SHORT $LL10@GetHashBas
$LN15@GetHashBas:
; File C:\Users\admin-z10\Desktop\conti_v3\cryptor\api\getapi.cpp

; 462  : 		name[i] = (char)mdll->dllname.Buffer[i];

  00104	49 8b 43 60	 mov	 rax, QWORD PTR [r11+96]
  00108	42 0f be 0c 48	 movsx	 ecx, BYTE PTR [rax+r9*2]
; File C:\Users\admin-z10\Desktop\conti_v3\cryptor\mrph.h

; 48   : 	if (_morph_var % 3) {

  0010d	b8 56 55 55 55	 mov	 eax, 1431655766		; 55555556H
; File C:\Users\admin-z10\Desktop\conti_v3\cryptor\api\getapi.cpp

; 462  : 		name[i] = (char)mdll->dllname.Buffer[i];

  00112	42 88 4c 0c 30	 mov	 BYTE PTR name$[rsp+r9], cl

; 463  : 
; 464  : 		morphcode(name[i]);

  00117	44 8b c1	 mov	 r8d, ecx
; File C:\Users\admin-z10\Desktop\conti_v3\cryptor\mrph.h

; 40   : 	volatile int _morph_var = static_cast<int>(1 + MetaRandom2<0, 0x7FFFFF - 1>::value);

  0011a	c7 44 24 20 c1
	9b 17 00	 mov	 DWORD PTR _morph_var$2[rsp], 1547201 ; 00179bc1H

; 48   : 	if (_morph_var % 3) {

  00122	8b 4c 24 20	 mov	 ecx, DWORD PTR _morph_var$2[rsp]
  00126	f7 e9		 imul	 ecx
  00128	8b c2		 mov	 eax, edx
  0012a	c1 e8 1f	 shr	 eax, 31
  0012d	03 d0		 add	 edx, eax
  0012f	8d 04 52	 lea	 eax, DWORD PTR [rdx+rdx*2]
  00132	3b c8		 cmp	 ecx, eax
  00134	74 4c		 je	 SHORT $LN37@GetHashBas

; 49   : 		_morph_var += (int)a + 2;

  00136	8b 4c 24 20	 mov	 ecx, DWORD PTR _morph_var$2[rsp]
  0013a	83 c1 02	 add	 ecx, 2
  0013d	41 03 c8	 add	 ecx, r8d
  00140	89 4c 24 20	 mov	 DWORD PTR _morph_var$2[rsp], ecx

; 50   : 		while (!(_morph_var % 4)) ++_morph_var;

  00144	8b 44 24 20	 mov	 eax, DWORD PTR _morph_var$2[rsp]
  00148	25 03 00 00 80	 and	 eax, -2147483645	; ffffffff80000003H
  0014d	7d 07		 jge	 SHORT $LN92@GetHashBas
  0014f	ff c8		 dec	 eax
  00151	83 c8 fc	 or	 eax, -4
  00154	ff c0		 inc	 eax
$LN92@GetHashBas:
  00156	85 c0		 test	 eax, eax
  00158	75 7a		 jne	 SHORT $LN36@GetHashBas
  0015a	66 0f 1f 44 00
	00		 npad	 6
$LL29@GetHashBas:
  00160	8b 44 24 20	 mov	 eax, DWORD PTR _morph_var$2[rsp]
  00164	ff c0		 inc	 eax
  00166	89 44 24 20	 mov	 DWORD PTR _morph_var$2[rsp], eax
  0016a	8b 44 24 20	 mov	 eax, DWORD PTR _morph_var$2[rsp]
  0016e	25 03 00 00 80	 and	 eax, -2147483645	; ffffffff80000003H
  00173	7d 07		 jge	 SHORT $LN91@GetHashBas
  00175	ff c8		 dec	 eax
  00177	83 c8 fc	 or	 eax, -4
  0017a	ff c0		 inc	 eax
$LN91@GetHashBas:
  0017c	85 c0		 test	 eax, eax
  0017e	74 e0		 je	 SHORT $LL29@GetHashBas

; 51   : 	}

  00180	eb 52		 jmp	 SHORT $LN36@GetHashBas
$LN37@GetHashBas:

; 52   : 	else if (_morph_var % 2) {

  00182	8b 44 24 20	 mov	 eax, DWORD PTR _morph_var$2[rsp]

; 53   : 		_morph_var -= (int)a - 2;

  00186	b9 02 00 00 00	 mov	 ecx, 2
  0018b	8b 44 24 20	 mov	 eax, DWORD PTR _morph_var$2[rsp]
  0018f	41 2b c8	 sub	 ecx, r8d
  00192	03 c8		 add	 ecx, eax

; 54   : 		while (!(_morph_var % 3)) ++_morph_var;

  00194	b8 56 55 55 55	 mov	 eax, 1431655766		; 55555556H
  00199	89 4c 24 20	 mov	 DWORD PTR _morph_var$2[rsp], ecx
  0019d	8b 4c 24 20	 mov	 ecx, DWORD PTR _morph_var$2[rsp]
  001a1	f7 e9		 imul	 ecx
  001a3	8b c2		 mov	 eax, edx
  001a5	c1 e8 1f	 shr	 eax, 31
  001a8	03 d0		 add	 edx, eax
  001aa	8d 04 52	 lea	 eax, DWORD PTR [rdx+rdx*2]
  001ad	3b c8		 cmp	 ecx, eax
  001af	75 23		 jne	 SHORT $LN36@GetHashBas
$LL31@GetHashBas:
  001b1	8b 44 24 20	 mov	 eax, DWORD PTR _morph_var$2[rsp]
  001b5	ff c0		 inc	 eax
  001b7	89 44 24 20	 mov	 DWORD PTR _morph_var$2[rsp], eax
  001bb	b8 56 55 55 55	 mov	 eax, 1431655766		; 55555556H
  001c0	8b 4c 24 20	 mov	 ecx, DWORD PTR _morph_var$2[rsp]
  001c4	f7 e9		 imul	 ecx
  001c6	8b c2		 mov	 eax, edx
  001c8	c1 e8 1f	 shr	 eax, 31
  001cb	03 d0		 add	 edx, eax
  001cd	8d 04 52	 lea	 eax, DWORD PTR [rdx+rdx*2]
  001d0	3b c8		 cmp	 ecx, eax
  001d2	74 dd		 je	 SHORT $LL31@GetHashBas
$LN36@GetHashBas:
; File C:\Users\admin-z10\Desktop\conti_v3\cryptor\api\getapi.cpp

; 457  : 	while (mdll->dllname.Buffer[i] && i < sizeof(name) - 1)

  001d4	49 8b 43 60	 mov	 rax, QWORD PTR [r11+96]

; 465  : 
; 466  : 		i++;

  001d8	49 ff c1	 inc	 r9
  001db	66 46 39 14 48	 cmp	 WORD PTR [rax+r9*2], r10w
  001e0	0f 85 4a fe ff
	ff		 jne	 $LL2@GetHashBas
$LN3@GetHashBas:

; 467  : 	}
; 468  : 
; 469  : 	name[i] = 0;

  001e6	49 83 f9 40	 cmp	 r9, 64			; 00000040H
  001ea	73 42		 jae	 SHORT $LN98@GetHashBas
$LN89@GetHashBas:
  001ec	46 88 54 0c 30	 mov	 BYTE PTR name$[rsp+r9], r10b

; 470  : 
; 471  : 	return MurmurHash2A(name, StrLen(name), HASHING_SEED);

  001f1	48 8d 44 24 30	 lea	 rax, QWORD PTR name$[rsp]

; 62   : 	while (*Str)

  001f6	44 38 54 24 30	 cmp	 BYTE PTR name$[rsp], r10b
  001fb	74 0f		 je	 SHORT $LN51@GetHashBas
  001fd	0f 1f 00	 npad	 3
$LL50@GetHashBas:

; 63   : 	{
; 64   : 
; 65   : 		Length++;

  00200	41 ff c2	 inc	 r10d

; 66   : 		Str++;

  00203	48 8d 40 01	 lea	 rax, QWORD PTR [rax+1]
  00207	80 38 00	 cmp	 BYTE PTR [rax], 0
  0020a	75 f4		 jne	 SHORT $LL50@GetHashBas
$LN51@GetHashBas:

; 470  : 
; 471  : 	return MurmurHash2A(name, StrLen(name), HASHING_SEED);

  0020c	41 8b d2	 mov	 edx, r10d
  0020f	48 8d 4c 24 30	 lea	 rcx, QWORD PTR name$[rsp]
  00214	e8 00 00 00 00	 call	 ?MurmurHash2A@@YAIPEBXHI@Z ; MurmurHash2A

; 472  : }

  00219	48 8b 4c 24 70	 mov	 rcx, QWORD PTR __$ArrayPad$[rsp]
  0021e	48 33 cc	 xor	 rcx, rsp
  00221	e8 00 00 00 00	 call	 __security_check_cookie
  00226	48 81 c4 88 00
	00 00		 add	 rsp, 136		; 00000088H
  0022d	c3		 ret	 0
$LN98@GetHashBas:

; 467  : 	}
; 468  : 
; 469  : 	name[i] = 0;

  0022e	e8 00 00 00 00	 call	 __report_rangecheckfailure
  00233	cc		 int	 3
$LN96@GetHashBas:
?GetHashBase@@YAKPEAULDR_MODULE@@@Z ENDP		; GetHashBase
_TEXT	ENDS
; Function compile flags: /Ogtpy
; File C:\Users\admin-z10\Desktop\conti_v3\cryptor\api\getapi.cpp
; File C:\Users\admin-z10\Desktop\conti_v3\cryptor\obfuscation\MetaString.h
; File C:\Users\admin-z10\Desktop\conti_v3\cryptor\api\getapi.cpp
; File C:\Users\admin-z10\Desktop\conti_v3\cryptor\mrph.h
; File C:\Users\admin-z10\Desktop\conti_v3\cryptor\api\getapi.cpp
; File C:\Users\admin-z10\Desktop\conti_v3\cryptor\mrph.h
; File C:\Users\admin-z10\Desktop\conti_v3\cryptor\api\getapi.cpp
; File C:\Users\admin-z10\Desktop\conti_v3\cryptor\mrph.h
; File C:\Users\admin-z10\Desktop\conti_v3\cryptor\api\getapi.cpp
; File C:\Users\admin-z10\Desktop\conti_v3\cryptor\mrph.h
; File C:\Users\admin-z10\Desktop\conti_v3\cryptor\api\getapi.cpp
; File C:\Users\admin-z10\Desktop\conti_v3\cryptor\mrph.h
; File C:\Users\admin-z10\Desktop\conti_v3\cryptor\api\getapi.cpp
; File C:\Users\admin-z10\Desktop\conti_v3\cryptor\mrph.h
; File C:\Users\admin-z10\Desktop\conti_v3\cryptor\api\getapi.cpp
; File C:\Users\admin-z10\Desktop\conti_v3\cryptor\mrph.h
; File C:\Users\admin-z10\Desktop\conti_v3\cryptor\api\getapi.cpp
;	COMDAT ?GetKernel32@@YAPEAUHINSTANCE__@@XZ
_TEXT	SEGMENT
$T1 = 32
_morph_var$2 = 80
_morph_var$3 = 80
_morph_var$4 = 80
_morph_var$5 = 80
_morph_var$6 = 80
_morph_var$7 = 80
?GetKernel32@@YAPEAUHINSTANCE__@@XZ PROC		; GetKernel32, COMDAT

; 477  : {

$LN398:
  00000	48 89 5c 24 10	 mov	 QWORD PTR [rsp+16], rbx
  00005	48 89 74 24 18	 mov	 QWORD PTR [rsp+24], rsi
  0000a	48 89 7c 24 20	 mov	 QWORD PTR [rsp+32], rdi
  0000f	55		 push	 rbp
  00010	48 8b ec	 mov	 rbp, rsp
  00013	48 83 ec 40	 sub	 rsp, 64			; 00000040H
; File C:\Users\admin-z10\Desktop\conti_v3\cryptor\obfuscation\MetaString.h

; 83   :     volatile bool m_isDecrypted = false;

  00017	c6 45 e0 00	 mov	 BYTE PTR $T1[rbp-64], 0
  0001b	c6 45 e1 33	 mov	 BYTE PTR $T1[rbp-63], 51 ; 00000033H
  0001f	c6 45 e2 47	 mov	 BYTE PTR $T1[rbp-62], 71 ; 00000047H
  00023	c6 45 e3 3d	 mov	 BYTE PTR $T1[rbp-61], 61 ; 0000003dH
  00027	c6 45 e4 47	 mov	 BYTE PTR $T1[rbp-60], 71 ; 00000047H
  0002b	c6 45 e5 42	 mov	 BYTE PTR $T1[rbp-59], 66 ; 00000042H
  0002f	c6 45 e6 47	 mov	 BYTE PTR $T1[rbp-58], 71 ; 00000047H
  00033	c6 45 e7 54	 mov	 BYTE PTR $T1[rbp-57], 84 ; 00000054H
  00037	c6 45 e8 47	 mov	 BYTE PTR $T1[rbp-56], 71 ; 00000047H
  0003b	c6 45 e9 3d	 mov	 BYTE PTR $T1[rbp-55], 61 ; 0000003dH
  0003f	c6 45 ea 47	 mov	 BYTE PTR $T1[rbp-54], 71 ; 00000047H
  00043	c6 45 eb 5d	 mov	 BYTE PTR $T1[rbp-53], 93 ; 0000005dH
  00047	c6 45 ec 47	 mov	 BYTE PTR $T1[rbp-52], 71 ; 00000047H
  0004b	c6 45 ed 20	 mov	 BYTE PTR $T1[rbp-51], 32 ; 00000020H
  0004f	c6 45 ee 47	 mov	 BYTE PTR $T1[rbp-50], 71 ; 00000047H
  00053	c6 45 ef 64	 mov	 BYTE PTR $T1[rbp-49], 100 ; 00000064H
  00057	c6 45 f0 47	 mov	 BYTE PTR $T1[rbp-48], 71 ; 00000047H
  0005b	c6 45 f1 76	 mov	 BYTE PTR $T1[rbp-47], 118 ; 00000076H
  0005f	c6 45 f2 47	 mov	 BYTE PTR $T1[rbp-46], 71 ; 00000047H
  00063	c6 45 f3 02	 mov	 BYTE PTR $T1[rbp-45], 2
  00067	c6 45 f4 47	 mov	 BYTE PTR $T1[rbp-44], 71 ; 00000047H
  0006b	c6 45 f5 5d	 mov	 BYTE PTR $T1[rbp-43], 93 ; 0000005dH
  0006f	c6 45 f6 47	 mov	 BYTE PTR $T1[rbp-42], 71 ; 00000047H
  00073	c6 45 f7 5d	 mov	 BYTE PTR $T1[rbp-41], 93 ; 0000005dH
  00077	c6 45 f8 47	 mov	 BYTE PTR $T1[rbp-40], 71 ; 00000047H
  0007b	c6 45 f9 47	 mov	 BYTE PTR $T1[rbp-39], 71 ; 00000047H
  0007f	c6 45 fa 47	 mov	 BYTE PTR $T1[rbp-38], 71 ; 00000047H
  00083	0f b6 45 e1	 movzx	 eax, BYTE PTR $T1[rbp-63]

; 58   :         return m_isDecrypted;

  00087	0f b6 45 e0	 movzx	 eax, BYTE PTR $T1[rbp-64]

; 63   :         if (!isDecrypted())

  0008b	84 c0		 test	 al, al
  0008d	75 58		 jne	 SHORT $LN64@GetKernel3

; 64   :         {
; 65   :             for (size_t i = 0; i < sizeof...(Ints); ++i)

  0008f	45 33 c9	 xor	 r9d, r9d
$LL65@GetKernel3:

; 66   :                 m_buffer[i] = decrypt(m_buffer[i]);

  00092	42 0f b6 4c 0d
	e1		 movzx	 ecx, BYTE PTR $T1[rbp+r9-63]

; 40   :     return (a % n + n) % n;

  00098	b8 09 04 02 81	 mov	 eax, -2130574327	; ffffffff81020409H

; 80   :         return positive_modulo(ExtendedEuclidian<127, A>::y * (byte - B), 127);

  0009d	83 e9 47	 sub	 ecx, 71			; 00000047H
  000a0	44 6b c1 1c	 imul	 r8d, ecx, 28

; 40   :     return (a % n + n) % n;

  000a4	41 f7 e8	 imul	 r8d
  000a7	41 03 d0	 add	 edx, r8d
  000aa	c1 fa 06	 sar	 edx, 6
  000ad	8b c2		 mov	 eax, edx
  000af	c1 e8 1f	 shr	 eax, 31
  000b2	03 d0		 add	 edx, eax
  000b4	6b c2 7f	 imul	 eax, edx, 127		; 0000007fH
  000b7	44 2b c0	 sub	 r8d, eax
  000ba	b8 09 04 02 81	 mov	 eax, -2130574327	; ffffffff81020409H
  000bf	41 83 c0 7f	 add	 r8d, 127		; 0000007fH
  000c3	41 f7 e8	 imul	 r8d
  000c6	41 03 d0	 add	 edx, r8d
  000c9	c1 fa 06	 sar	 edx, 6
  000cc	8b c2		 mov	 eax, edx
  000ce	c1 e8 1f	 shr	 eax, 31
  000d1	03 d0		 add	 edx, eax
  000d3	6b c2 7f	 imul	 eax, edx, 127		; 0000007fH
  000d6	44 2b c0	 sub	 r8d, eax

; 66   :                 m_buffer[i] = decrypt(m_buffer[i]);

  000d9	46 88 44 0d e1	 mov	 BYTE PTR $T1[rbp+r9-63], r8b
  000de	49 ff c1	 inc	 r9
  000e1	49 83 f9 1a	 cmp	 r9, 26
  000e5	72 ab		 jb	 SHORT $LL65@GetKernel3
$LN64@GetKernel3:
; File C:\Users\admin-z10\Desktop\conti_v3\cryptor\api\getapi.cpp

; 485  : 	const INT_PTR peb = __readgsqword(0x60);

  000e7	65 48 8b 04 25
	60 00 00 00	 mov	 rax, QWORD PTR gs:96
; File C:\Users\admin-z10\Desktop\conti_v3\cryptor\mrph.h

; 48   : 	if (_morph_var % 3) {

  000f0	be 02 00 00 00	 mov	 esi, 2
; File C:\Users\admin-z10\Desktop\conti_v3\cryptor\api\getapi.cpp

; 494  : 	const auto mdllist = *(INT_PTR*)(peb + ModuleList);

  000f5	4c 8b 40 18	 mov	 r8, QWORD PTR [rax+24]
; File C:\Users\admin-z10\Desktop\conti_v3\cryptor\mrph.h

; 48   : 	if (_morph_var % 3) {

  000f9	b8 56 55 55 55	 mov	 eax, 1431655766		; 55555556H
  000fe	c7 45 10 c1 9b
	17 00		 mov	 DWORD PTR _morph_var$7[rbp-64], 1547201 ; 00179bc1H
  00105	8b 4d 10	 mov	 ecx, DWORD PTR _morph_var$7[rbp-64]
  00108	f7 e9		 imul	 ecx
  0010a	8b c2		 mov	 eax, edx
  0010c	c1 e8 1f	 shr	 eax, 31
  0010f	03 d0		 add	 edx, eax
  00111	8d 04 52	 lea	 eax, DWORD PTR [rdx+rdx*2]
  00114	3b c8		 cmp	 ecx, eax
  00116	74 47		 je	 SHORT $LN83@GetKernel3

; 49   : 		_morph_var += (int)a + 2;

  00118	8b 4d 10	 mov	 ecx, DWORD PTR _morph_var$7[rbp-64]
  0011b	03 ce		 add	 ecx, esi
  0011d	41 03 c8	 add	 ecx, r8d
  00120	89 4d 10	 mov	 DWORD PTR _morph_var$7[rbp-64], ecx

; 50   : 		while (!(_morph_var % 4)) ++_morph_var;

  00123	8b 45 10	 mov	 eax, DWORD PTR _morph_var$7[rbp-64]
  00126	25 03 00 00 80	 and	 eax, -2147483645	; ffffffff80000003H
  0012b	7d 07		 jge	 SHORT $LN315@GetKernel3
  0012d	ff c8		 dec	 eax
  0012f	83 c8 fc	 or	 eax, -4
  00132	ff c0		 inc	 eax
$LN315@GetKernel3:
  00134	85 c0		 test	 eax, eax
  00136	75 78		 jne	 SHORT $LN82@GetKernel3
  00138	0f 1f 84 00 00
	00 00 00	 npad	 8
$LL75@GetKernel3:
  00140	8b 45 10	 mov	 eax, DWORD PTR _morph_var$7[rbp-64]
  00143	ff c0		 inc	 eax
  00145	89 45 10	 mov	 DWORD PTR _morph_var$7[rbp-64], eax
  00148	8b 45 10	 mov	 eax, DWORD PTR _morph_var$7[rbp-64]
  0014b	25 03 00 00 80	 and	 eax, -2147483645	; ffffffff80000003H
  00150	7d 07		 jge	 SHORT $LN314@GetKernel3
  00152	ff c8		 dec	 eax
  00154	83 c8 fc	 or	 eax, -4
  00157	ff c0		 inc	 eax
$LN314@GetKernel3:
  00159	85 c0		 test	 eax, eax
  0015b	74 e3		 je	 SHORT $LL75@GetKernel3

; 51   : 	}

  0015d	eb 51		 jmp	 SHORT $LN82@GetKernel3
$LN83@GetKernel3:

; 52   : 	else if (_morph_var % 2) {

  0015f	8b 45 10	 mov	 eax, DWORD PTR _morph_var$7[rbp-64]

; 53   : 		_morph_var -= (int)a - 2;

  00162	8b ce		 mov	 ecx, esi
  00164	8b 45 10	 mov	 eax, DWORD PTR _morph_var$7[rbp-64]
  00167	41 2b c8	 sub	 ecx, r8d
  0016a	03 c8		 add	 ecx, eax

; 54   : 		while (!(_morph_var % 3)) ++_morph_var;

  0016c	b8 56 55 55 55	 mov	 eax, 1431655766		; 55555556H
  00171	89 4d 10	 mov	 DWORD PTR _morph_var$7[rbp-64], ecx
  00174	8b 4d 10	 mov	 ecx, DWORD PTR _morph_var$7[rbp-64]
  00177	f7 e9		 imul	 ecx
  00179	8b c2		 mov	 eax, edx
  0017b	c1 e8 1f	 shr	 eax, 31
  0017e	03 d0		 add	 edx, eax
  00180	8d 04 52	 lea	 eax, DWORD PTR [rdx+rdx*2]
  00183	3b c8		 cmp	 ecx, eax
  00185	75 29		 jne	 SHORT $LN82@GetKernel3
  00187	66 0f 1f 84 00
	00 00 00 00	 npad	 9
$LL77@GetKernel3:
  00190	8b 45 10	 mov	 eax, DWORD PTR _morph_var$7[rbp-64]
  00193	ff c0		 inc	 eax
  00195	89 45 10	 mov	 DWORD PTR _morph_var$7[rbp-64], eax
  00198	b8 56 55 55 55	 mov	 eax, 1431655766		; 55555556H
  0019d	8b 4d 10	 mov	 ecx, DWORD PTR _morph_var$7[rbp-64]
  001a0	f7 e9		 imul	 ecx
  001a2	8b c2		 mov	 eax, edx
  001a4	c1 e8 1f	 shr	 eax, 31
  001a7	03 d0		 add	 edx, eax
  001a9	8d 04 52	 lea	 eax, DWORD PTR [rdx+rdx*2]
  001ac	3b c8		 cmp	 ecx, eax
  001ae	74 e0		 je	 SHORT $LL77@GetKernel3
$LN82@GetKernel3:
; File C:\Users\admin-z10\Desktop\conti_v3\cryptor\api\getapi.cpp

; 496  : 	const auto mlink = *(INT_PTR*)(mdllist + ModuleListFlink);

  001b0	49 8b 78 18	 mov	 rdi, QWORD PTR [r8+24]
; File C:\Users\admin-z10\Desktop\conti_v3\cryptor\mrph.h

; 48   : 	if (_morph_var % 3) {

  001b4	b8 56 55 55 55	 mov	 eax, 1431655766		; 55555556H
  001b9	c7 45 10 c1 9b
	17 00		 mov	 DWORD PTR _morph_var$6[rbp-64], 1547201 ; 00179bc1H
  001c0	8b 4d 10	 mov	 ecx, DWORD PTR _morph_var$6[rbp-64]
  001c3	f7 e9		 imul	 ecx
  001c5	8b c2		 mov	 eax, edx
  001c7	c1 e8 1f	 shr	 eax, 31
  001ca	03 d0		 add	 edx, eax
  001cc	8d 04 52	 lea	 eax, DWORD PTR [rdx+rdx*2]
  001cf	3b c8		 cmp	 ecx, eax
  001d1	74 4c		 je	 SHORT $LN104@GetKernel3

; 49   : 		_morph_var += (int)a + 2;

  001d3	8b 4d 10	 mov	 ecx, DWORD PTR _morph_var$6[rbp-64]
  001d6	03 ce		 add	 ecx, esi
  001d8	03 cf		 add	 ecx, edi
  001da	89 4d 10	 mov	 DWORD PTR _morph_var$6[rbp-64], ecx

; 50   : 		while (!(_morph_var % 4)) ++_morph_var;

  001dd	8b 45 10	 mov	 eax, DWORD PTR _morph_var$6[rbp-64]
  001e0	25 03 00 00 80	 and	 eax, -2147483645	; ffffffff80000003H
  001e5	7d 07		 jge	 SHORT $LN312@GetKernel3
  001e7	ff c8		 dec	 eax
  001e9	83 c8 fc	 or	 eax, -4
  001ec	ff c0		 inc	 eax
$LN312@GetKernel3:
  001ee	85 c0		 test	 eax, eax
  001f0	75 7e		 jne	 SHORT $LN103@GetKernel3
  001f2	0f 1f 40 00 66
	66 0f 1f 84 00
	00 00 00 00	 npad	 14
$LL96@GetKernel3:
  00200	8b 45 10	 mov	 eax, DWORD PTR _morph_var$6[rbp-64]
  00203	ff c0		 inc	 eax
  00205	89 45 10	 mov	 DWORD PTR _morph_var$6[rbp-64], eax
  00208	8b 45 10	 mov	 eax, DWORD PTR _morph_var$6[rbp-64]
  0020b	25 03 00 00 80	 and	 eax, -2147483645	; ffffffff80000003H
  00210	7d 07		 jge	 SHORT $LN311@GetKernel3
  00212	ff c8		 dec	 eax
  00214	83 c8 fc	 or	 eax, -4
  00217	ff c0		 inc	 eax
$LN311@GetKernel3:
  00219	85 c0		 test	 eax, eax
  0021b	74 e3		 je	 SHORT $LL96@GetKernel3

; 51   : 	}

  0021d	eb 51		 jmp	 SHORT $LN103@GetKernel3
$LN104@GetKernel3:

; 52   : 	else if (_morph_var % 2) {

  0021f	8b 45 10	 mov	 eax, DWORD PTR _morph_var$6[rbp-64]

; 53   : 		_morph_var -= (int)a - 2;

  00222	8b ce		 mov	 ecx, esi
  00224	8b 45 10	 mov	 eax, DWORD PTR _morph_var$6[rbp-64]
  00227	2b cf		 sub	 ecx, edi
  00229	03 c8		 add	 ecx, eax

; 54   : 		while (!(_morph_var % 3)) ++_morph_var;

  0022b	b8 56 55 55 55	 mov	 eax, 1431655766		; 55555556H
  00230	89 4d 10	 mov	 DWORD PTR _morph_var$6[rbp-64], ecx
  00233	8b 4d 10	 mov	 ecx, DWORD PTR _morph_var$6[rbp-64]
  00236	f7 e9		 imul	 ecx
  00238	8b c2		 mov	 eax, edx
  0023a	c1 e8 1f	 shr	 eax, 31
  0023d	03 d0		 add	 edx, eax
  0023f	8d 04 52	 lea	 eax, DWORD PTR [rdx+rdx*2]
  00242	3b c8		 cmp	 ecx, eax
  00244	75 2a		 jne	 SHORT $LN103@GetKernel3
  00246	66 66 0f 1f 84
	00 00 00 00 00	 npad	 10
$LL98@GetKernel3:
  00250	8b 45 10	 mov	 eax, DWORD PTR _morph_var$6[rbp-64]
  00253	ff c0		 inc	 eax
  00255	89 45 10	 mov	 DWORD PTR _morph_var$6[rbp-64], eax
  00258	b8 56 55 55 55	 mov	 eax, 1431655766		; 55555556H
  0025d	8b 4d 10	 mov	 ecx, DWORD PTR _morph_var$6[rbp-64]
  00260	f7 e9		 imul	 ecx
  00262	8b c2		 mov	 eax, edx
  00264	c1 e8 1f	 shr	 eax, 31
  00267	03 d0		 add	 edx, eax
  00269	8d 04 52	 lea	 eax, DWORD PTR [rdx+rdx*2]
  0026c	3b c8		 cmp	 ecx, eax
  0026e	74 e0		 je	 SHORT $LL98@GetKernel3
$LN103@GetKernel3:
; File C:\Users\admin-z10\Desktop\conti_v3\cryptor\api\getapi.cpp

; 498  : 	auto krnbase = *(INT_PTR*)(mlink + KernelBaseAddr);

  00270	4c 8b 47 10	 mov	 r8, QWORD PTR [rdi+16]
; File C:\Users\admin-z10\Desktop\conti_v3\cryptor\mrph.h

; 48   : 	if (_morph_var % 3) {

  00274	b8 56 55 55 55	 mov	 eax, 1431655766		; 55555556H
  00279	c7 45 10 c1 9b
	17 00		 mov	 DWORD PTR _morph_var$5[rbp-64], 1547201 ; 00179bc1H
  00280	8b 4d 10	 mov	 ecx, DWORD PTR _morph_var$5[rbp-64]
  00283	f7 e9		 imul	 ecx
  00285	8b c2		 mov	 eax, edx
  00287	c1 e8 1f	 shr	 eax, 31
  0028a	03 d0		 add	 edx, eax
  0028c	8d 04 52	 lea	 eax, DWORD PTR [rdx+rdx*2]
  0028f	3b c8		 cmp	 ecx, eax
  00291	74 4c		 je	 SHORT $LN125@GetKernel3

; 49   : 		_morph_var += (int)a + 2;

  00293	8b 4d 10	 mov	 ecx, DWORD PTR _morph_var$5[rbp-64]
  00296	03 ce		 add	 ecx, esi
  00298	41 03 c8	 add	 ecx, r8d
  0029b	89 4d 10	 mov	 DWORD PTR _morph_var$5[rbp-64], ecx

; 50   : 		while (!(_morph_var % 4)) ++_morph_var;

  0029e	8b 45 10	 mov	 eax, DWORD PTR _morph_var$5[rbp-64]
  002a1	25 03 00 00 80	 and	 eax, -2147483645	; ffffffff80000003H
  002a6	7d 07		 jge	 SHORT $LN309@GetKernel3
  002a8	ff c8		 dec	 eax
  002aa	83 c8 fc	 or	 eax, -4
  002ad	ff c0		 inc	 eax
$LN309@GetKernel3:
  002af	85 c0		 test	 eax, eax
  002b1	75 7d		 jne	 SHORT $LN124@GetKernel3
  002b3	0f 1f 40 00 66
	0f 1f 84 00 00
	00 00 00	 npad	 13
$LL117@GetKernel3:
  002c0	8b 45 10	 mov	 eax, DWORD PTR _morph_var$5[rbp-64]
  002c3	ff c0		 inc	 eax
  002c5	89 45 10	 mov	 DWORD PTR _morph_var$5[rbp-64], eax
  002c8	8b 45 10	 mov	 eax, DWORD PTR _morph_var$5[rbp-64]
  002cb	25 03 00 00 80	 and	 eax, -2147483645	; ffffffff80000003H
  002d0	7d 07		 jge	 SHORT $LN308@GetKernel3
  002d2	ff c8		 dec	 eax
  002d4	83 c8 fc	 or	 eax, -4
  002d7	ff c0		 inc	 eax
$LN308@GetKernel3:
  002d9	85 c0		 test	 eax, eax
  002db	74 e3		 je	 SHORT $LL117@GetKernel3

; 51   : 	}

  002dd	eb 51		 jmp	 SHORT $LN124@GetKernel3
$LN125@GetKernel3:

; 52   : 	else if (_morph_var % 2) {

  002df	8b 45 10	 mov	 eax, DWORD PTR _morph_var$5[rbp-64]

; 53   : 		_morph_var -= (int)a - 2;

  002e2	8b ce		 mov	 ecx, esi
  002e4	8b 45 10	 mov	 eax, DWORD PTR _morph_var$5[rbp-64]
  002e7	41 2b c8	 sub	 ecx, r8d
  002ea	03 c8		 add	 ecx, eax

; 54   : 		while (!(_morph_var % 3)) ++_morph_var;

  002ec	b8 56 55 55 55	 mov	 eax, 1431655766		; 55555556H
  002f1	89 4d 10	 mov	 DWORD PTR _morph_var$5[rbp-64], ecx
  002f4	8b 4d 10	 mov	 ecx, DWORD PTR _morph_var$5[rbp-64]
  002f7	f7 e9		 imul	 ecx
  002f9	8b c2		 mov	 eax, edx
  002fb	c1 e8 1f	 shr	 eax, 31
  002fe	03 d0		 add	 edx, eax
  00300	8d 04 52	 lea	 eax, DWORD PTR [rdx+rdx*2]
  00303	3b c8		 cmp	 ecx, eax
  00305	75 29		 jne	 SHORT $LN124@GetKernel3
  00307	66 0f 1f 84 00
	00 00 00 00	 npad	 9
$LL119@GetKernel3:
  00310	8b 45 10	 mov	 eax, DWORD PTR _morph_var$5[rbp-64]
  00313	ff c0		 inc	 eax
  00315	89 45 10	 mov	 DWORD PTR _morph_var$5[rbp-64], eax
  00318	b8 56 55 55 55	 mov	 eax, 1431655766		; 55555556H
  0031d	8b 4d 10	 mov	 ecx, DWORD PTR _morph_var$5[rbp-64]
  00320	f7 e9		 imul	 ecx
  00322	8b c2		 mov	 eax, edx
  00324	c1 e8 1f	 shr	 eax, 31
  00327	03 d0		 add	 edx, eax
  00329	8d 04 52	 lea	 eax, DWORD PTR [rdx+rdx*2]
  0032c	3b c8		 cmp	 ecx, eax
  0032e	74 e0		 je	 SHORT $LL119@GetKernel3
$LN124@GetKernel3:
; File C:\Users\admin-z10\Desktop\conti_v3\cryptor\api\getapi.cpp

; 501  : 	auto mdl = (LDR_MODULE*)mlink;

  00330	48 8b df	 mov	 rbx, rdi
  00333	0f 1f 40 00 66
	0f 1f 84 00 00
	00 00 00	 npad	 13
$LL4@GetKernel3:

; 502  : 	do
; 503  : 	{
; 504  : 		mdl = (LDR_MODULE*)mdl->e[0].Flink;

  00340	48 8b 1b	 mov	 rbx, QWORD PTR [rbx]
; File C:\Users\admin-z10\Desktop\conti_v3\cryptor\mrph.h

; 48   : 	if (_morph_var % 3) {

  00343	b8 56 55 55 55	 mov	 eax, 1431655766		; 55555556H
  00348	c7 45 10 c1 9b
	17 00		 mov	 DWORD PTR _morph_var$4[rbp-64], 1547201 ; 00179bc1H
  0034f	8b 4d 10	 mov	 ecx, DWORD PTR _morph_var$4[rbp-64]
  00352	f7 e9		 imul	 ecx
  00354	8b c2		 mov	 eax, edx
  00356	c1 e8 1f	 shr	 eax, 31
  00359	03 d0		 add	 edx, eax
  0035b	8d 04 52	 lea	 eax, DWORD PTR [rdx+rdx*2]
  0035e	3b c8		 cmp	 ecx, eax
  00360	74 4d		 je	 SHORT $LN148@GetKernel3

; 49   : 		_morph_var += (int)a + 2;

  00362	8b 4d 10	 mov	 ecx, DWORD PTR _morph_var$4[rbp-64]
  00365	03 ce		 add	 ecx, esi
  00367	03 cb		 add	 ecx, ebx
  00369	89 4d 10	 mov	 DWORD PTR _morph_var$4[rbp-64], ecx

; 50   : 		while (!(_morph_var % 4)) ++_morph_var;

  0036c	8b 45 10	 mov	 eax, DWORD PTR _morph_var$4[rbp-64]
  0036f	25 03 00 00 80	 and	 eax, -2147483645	; ffffffff80000003H
  00374	7d 07		 jge	 SHORT $LN306@GetKernel3
  00376	ff c8		 dec	 eax
  00378	83 c8 fc	 or	 eax, -4
  0037b	ff c0		 inc	 eax
$LN306@GetKernel3:
  0037d	85 c0		 test	 eax, eax
  0037f	75 7f		 jne	 SHORT $LN147@GetKernel3
  00381	0f 1f 40 00 66
	66 66 0f 1f 84
	00 00 00 00 00	 npad	 15
$LL140@GetKernel3:
  00390	8b 45 10	 mov	 eax, DWORD PTR _morph_var$4[rbp-64]
  00393	ff c0		 inc	 eax
  00395	89 45 10	 mov	 DWORD PTR _morph_var$4[rbp-64], eax
  00398	8b 45 10	 mov	 eax, DWORD PTR _morph_var$4[rbp-64]
  0039b	25 03 00 00 80	 and	 eax, -2147483645	; ffffffff80000003H
  003a0	7d 07		 jge	 SHORT $LN305@GetKernel3
  003a2	ff c8		 dec	 eax
  003a4	83 c8 fc	 or	 eax, -4
  003a7	ff c0		 inc	 eax
$LN305@GetKernel3:
  003a9	85 c0		 test	 eax, eax
  003ab	74 e3		 je	 SHORT $LL140@GetKernel3

; 51   : 	}

  003ad	eb 51		 jmp	 SHORT $LN147@GetKernel3
$LN148@GetKernel3:

; 52   : 	else if (_morph_var % 2) {

  003af	8b 45 10	 mov	 eax, DWORD PTR _morph_var$4[rbp-64]

; 53   : 		_morph_var -= (int)a - 2;

  003b2	8b ce		 mov	 ecx, esi
  003b4	8b 45 10	 mov	 eax, DWORD PTR _morph_var$4[rbp-64]
  003b7	2b cb		 sub	 ecx, ebx
  003b9	03 c8		 add	 ecx, eax

; 54   : 		while (!(_morph_var % 3)) ++_morph_var;

  003bb	b8 56 55 55 55	 mov	 eax, 1431655766		; 55555556H
  003c0	89 4d 10	 mov	 DWORD PTR _morph_var$4[rbp-64], ecx
  003c3	8b 4d 10	 mov	 ecx, DWORD PTR _morph_var$4[rbp-64]
  003c6	f7 e9		 imul	 ecx
  003c8	8b c2		 mov	 eax, edx
  003ca	c1 e8 1f	 shr	 eax, 31
  003cd	03 d0		 add	 edx, eax
  003cf	8d 04 52	 lea	 eax, DWORD PTR [rdx+rdx*2]
  003d2	3b c8		 cmp	 ecx, eax
  003d4	75 2a		 jne	 SHORT $LN147@GetKernel3
  003d6	66 66 0f 1f 84
	00 00 00 00 00	 npad	 10
$LL142@GetKernel3:
  003e0	8b 45 10	 mov	 eax, DWORD PTR _morph_var$4[rbp-64]
  003e3	ff c0		 inc	 eax
  003e5	89 45 10	 mov	 DWORD PTR _morph_var$4[rbp-64], eax
  003e8	b8 56 55 55 55	 mov	 eax, 1431655766		; 55555556H
  003ed	8b 4d 10	 mov	 ecx, DWORD PTR _morph_var$4[rbp-64]
  003f0	f7 e9		 imul	 ecx
  003f2	8b c2		 mov	 eax, edx
  003f4	c1 e8 1f	 shr	 eax, 31
  003f7	03 d0		 add	 edx, eax
  003f9	8d 04 52	 lea	 eax, DWORD PTR [rdx+rdx*2]
  003fc	3b c8		 cmp	 ecx, eax
  003fe	74 e0		 je	 SHORT $LL142@GetKernel3
$LN147@GetKernel3:
; File C:\Users\admin-z10\Desktop\conti_v3\cryptor\api\getapi.cpp

; 507  : 		if (mdl->base != nullptr)

  00400	4c 8b 43 30	 mov	 r8, QWORD PTR [rbx+48]
  00404	4d 85 c0	 test	 r8, r8
  00407	0f 84 c2 00 00
	00		 je	 $LN2@GetKernel3
; File C:\Users\admin-z10\Desktop\conti_v3\cryptor\mrph.h

; 40   : 	volatile int _morph_var = static_cast<int>(1 + MetaRandom2<0, 0x7FFFFF - 1>::value);

  0040d	c7 45 10 c1 9b
	17 00		 mov	 DWORD PTR _morph_var$3[rbp-64], 1547201 ; 00179bc1H

; 48   : 	if (_morph_var % 3) {

  00414	b8 56 55 55 55	 mov	 eax, 1431655766		; 55555556H
  00419	8b 4d 10	 mov	 ecx, DWORD PTR _morph_var$3[rbp-64]
  0041c	f7 e9		 imul	 ecx
  0041e	8b c2		 mov	 eax, edx
  00420	c1 e8 1f	 shr	 eax, 31
  00423	03 d0		 add	 edx, eax
  00425	8d 04 52	 lea	 eax, DWORD PTR [rdx+rdx*2]
  00428	3b c8		 cmp	 ecx, eax
  0042a	74 43		 je	 SHORT $LN171@GetKernel3

; 49   : 		_morph_var += (int)a + 2;

  0042c	8b 4d 10	 mov	 ecx, DWORD PTR _morph_var$3[rbp-64]
  0042f	03 ce		 add	 ecx, esi
  00431	41 03 c8	 add	 ecx, r8d
  00434	89 4d 10	 mov	 DWORD PTR _morph_var$3[rbp-64], ecx

; 50   : 		while (!(_morph_var % 4)) ++_morph_var;

  00437	8b 45 10	 mov	 eax, DWORD PTR _morph_var$3[rbp-64]
  0043a	25 03 00 00 80	 and	 eax, -2147483645	; ffffffff80000003H
  0043f	7d 07		 jge	 SHORT $LN303@GetKernel3
  00441	ff c8		 dec	 eax
  00443	83 c8 fc	 or	 eax, -4
  00446	ff c0		 inc	 eax
$LN303@GetKernel3:
  00448	85 c0		 test	 eax, eax
  0044a	75 74		 jne	 SHORT $LN170@GetKernel3
  0044c	0f 1f 40 00	 npad	 4
$LL163@GetKernel3:
  00450	8b 45 10	 mov	 eax, DWORD PTR _morph_var$3[rbp-64]
  00453	ff c0		 inc	 eax
  00455	89 45 10	 mov	 DWORD PTR _morph_var$3[rbp-64], eax
  00458	8b 45 10	 mov	 eax, DWORD PTR _morph_var$3[rbp-64]
  0045b	25 03 00 00 80	 and	 eax, -2147483645	; ffffffff80000003H
  00460	7d 07		 jge	 SHORT $LN302@GetKernel3
  00462	ff c8		 dec	 eax
  00464	83 c8 fc	 or	 eax, -4
  00467	ff c0		 inc	 eax
$LN302@GetKernel3:
  00469	85 c0		 test	 eax, eax
  0046b	74 e3		 je	 SHORT $LL163@GetKernel3

; 51   : 	}

  0046d	eb 51		 jmp	 SHORT $LN170@GetKernel3
$LN171@GetKernel3:

; 52   : 	else if (_morph_var % 2) {

  0046f	8b 45 10	 mov	 eax, DWORD PTR _morph_var$3[rbp-64]

; 53   : 		_morph_var -= (int)a - 2;

  00472	8b ce		 mov	 ecx, esi
  00474	8b 45 10	 mov	 eax, DWORD PTR _morph_var$3[rbp-64]
  00477	41 2b c8	 sub	 ecx, r8d
  0047a	03 c8		 add	 ecx, eax

; 54   : 		while (!(_morph_var % 3)) ++_morph_var;

  0047c	b8 56 55 55 55	 mov	 eax, 1431655766		; 55555556H
  00481	89 4d 10	 mov	 DWORD PTR _morph_var$3[rbp-64], ecx
  00484	8b 4d 10	 mov	 ecx, DWORD PTR _morph_var$3[rbp-64]
  00487	f7 e9		 imul	 ecx
  00489	8b c2		 mov	 eax, edx
  0048b	c1 e8 1f	 shr	 eax, 31
  0048e	03 d0		 add	 edx, eax
  00490	8d 04 52	 lea	 eax, DWORD PTR [rdx+rdx*2]
  00493	3b c8		 cmp	 ecx, eax
  00495	75 29		 jne	 SHORT $LN170@GetKernel3
  00497	66 0f 1f 84 00
	00 00 00 00	 npad	 9
$LL165@GetKernel3:
  004a0	8b 45 10	 mov	 eax, DWORD PTR _morph_var$3[rbp-64]
  004a3	ff c0		 inc	 eax
  004a5	89 45 10	 mov	 DWORD PTR _morph_var$3[rbp-64], eax
  004a8	b8 56 55 55 55	 mov	 eax, 1431655766		; 55555556H
  004ad	8b 4d 10	 mov	 ecx, DWORD PTR _morph_var$3[rbp-64]
  004b0	f7 e9		 imul	 ecx
  004b2	8b c2		 mov	 eax, edx
  004b4	c1 e8 1f	 shr	 eax, 31
  004b7	03 d0		 add	 edx, eax
  004b9	8d 04 52	 lea	 eax, DWORD PTR [rdx+rdx*2]
  004bc	3b c8		 cmp	 ecx, eax
  004be	74 e0		 je	 SHORT $LL165@GetKernel3
$LN170@GetKernel3:
; File C:\Users\admin-z10\Desktop\conti_v3\cryptor\api\getapi.cpp

; 511  : 			if (GetHashBase(mdl) == KERNEL32DLL_HASH) { // KERNEL32.DLL

  004c0	48 8b cb	 mov	 rcx, rbx
  004c3	e8 00 00 00 00	 call	 ?GetHashBase@@YAKPEAULDR_MODULE@@@Z ; GetHashBase
  004c8	3d d8 71 67 b2	 cmp	 eax, -1301843496	; b26771d8H
  004cd	74 09		 je	 SHORT $LN3@GetKernel3
$LN2@GetKernel3:

; 512  : 
; 513  : 				break;
; 514  : 
; 515  : 			}
; 516  : 		}
; 517  : 	} while (mlink != (INT_PTR)mdl);

  004cf	48 3b fb	 cmp	 rdi, rbx
  004d2	0f 85 68 fe ff
	ff		 jne	 $LL4@GetKernel3
$LN3@GetKernel3:

; 518  : 
; 519  : 	krnl32 = static_cast<HMODULE>(mdl->base);

  004d8	4c 8b 4b 30	 mov	 r9, QWORD PTR [rbx+48]
; File C:\Users\admin-z10\Desktop\conti_v3\cryptor\mrph.h

; 48   : 	if (_morph_var % 3) {

  004dc	b8 56 55 55 55	 mov	 eax, 1431655766		; 55555556H
  004e1	c7 45 10 c1 9b
	17 00		 mov	 DWORD PTR _morph_var$2[rbp-64], 1547201 ; 00179bc1H
  004e8	8b 4d 10	 mov	 ecx, DWORD PTR _morph_var$2[rbp-64]
  004eb	f7 e9		 imul	 ecx
  004ed	8b c2		 mov	 eax, edx
  004ef	c1 e8 1f	 shr	 eax, 31
  004f2	03 d0		 add	 edx, eax
  004f4	8d 04 52	 lea	 eax, DWORD PTR [rdx+rdx*2]
  004f7	3b c8		 cmp	 ecx, eax
  004f9	74 44		 je	 SHORT $LN194@GetKernel3

; 49   : 		_morph_var += (int)a + 2;

  004fb	8b 4d 10	 mov	 ecx, DWORD PTR _morph_var$2[rbp-64]
  004fe	03 ce		 add	 ecx, esi
  00500	41 03 c9	 add	 ecx, r9d
  00503	89 4d 10	 mov	 DWORD PTR _morph_var$2[rbp-64], ecx

; 50   : 		while (!(_morph_var % 4)) ++_morph_var;

  00506	8b 45 10	 mov	 eax, DWORD PTR _morph_var$2[rbp-64]
  00509	25 03 00 00 80	 and	 eax, -2147483645	; ffffffff80000003H
  0050e	7d 07		 jge	 SHORT $LN300@GetKernel3
  00510	ff c8		 dec	 eax
  00512	83 c8 fc	 or	 eax, -4
  00515	ff c0		 inc	 eax
$LN300@GetKernel3:
  00517	85 c0		 test	 eax, eax
  00519	75 75		 jne	 SHORT $LN193@GetKernel3
  0051b	0f 1f 44 00 00	 npad	 5
$LL186@GetKernel3:
  00520	8b 45 10	 mov	 eax, DWORD PTR _morph_var$2[rbp-64]
  00523	ff c0		 inc	 eax
  00525	89 45 10	 mov	 DWORD PTR _morph_var$2[rbp-64], eax
  00528	8b 45 10	 mov	 eax, DWORD PTR _morph_var$2[rbp-64]
  0052b	25 03 00 00 80	 and	 eax, -2147483645	; ffffffff80000003H
  00530	7d 07		 jge	 SHORT $LN299@GetKernel3
  00532	ff c8		 dec	 eax
  00534	83 c8 fc	 or	 eax, -4
  00537	ff c0		 inc	 eax
$LN299@GetKernel3:
  00539	85 c0		 test	 eax, eax
  0053b	74 e3		 je	 SHORT $LL186@GetKernel3

; 51   : 	}

  0053d	eb 51		 jmp	 SHORT $LN193@GetKernel3
$LN194@GetKernel3:

; 52   : 	else if (_morph_var % 2) {

  0053f	8b 45 10	 mov	 eax, DWORD PTR _morph_var$2[rbp-64]

; 53   : 		_morph_var -= (int)a - 2;

  00542	41 2b f1	 sub	 esi, r9d
  00545	8b 45 10	 mov	 eax, DWORD PTR _morph_var$2[rbp-64]
  00548	03 f0		 add	 esi, eax
  0054a	89 75 10	 mov	 DWORD PTR _morph_var$2[rbp-64], esi

; 54   : 		while (!(_morph_var % 3)) ++_morph_var;

  0054d	b8 56 55 55 55	 mov	 eax, 1431655766		; 55555556H
  00552	8b 4d 10	 mov	 ecx, DWORD PTR _morph_var$2[rbp-64]
  00555	f7 e9		 imul	 ecx
  00557	8b c2		 mov	 eax, edx
  00559	c1 e8 1f	 shr	 eax, 31
  0055c	03 d0		 add	 edx, eax
  0055e	8d 04 52	 lea	 eax, DWORD PTR [rdx+rdx*2]
  00561	3b c8		 cmp	 ecx, eax
  00563	75 2b		 jne	 SHORT $LN193@GetKernel3
  00565	66 66 66 0f 1f
	84 00 00 00 00
	00		 npad	 11
$LL188@GetKernel3:
  00570	8b 45 10	 mov	 eax, DWORD PTR _morph_var$2[rbp-64]
  00573	ff c0		 inc	 eax
  00575	89 45 10	 mov	 DWORD PTR _morph_var$2[rbp-64], eax
  00578	b8 56 55 55 55	 mov	 eax, 1431655766		; 55555556H
  0057d	8b 4d 10	 mov	 ecx, DWORD PTR _morph_var$2[rbp-64]
  00580	f7 e9		 imul	 ecx
  00582	8b c2		 mov	 eax, edx
  00584	c1 e8 1f	 shr	 eax, 31
  00587	03 d0		 add	 edx, eax
  00589	8d 04 52	 lea	 eax, DWORD PTR [rdx+rdx*2]
  0058c	3b c8		 cmp	 ecx, eax
  0058e	74 e0		 je	 SHORT $LL188@GetKernel3
$LN193@GetKernel3:
; File C:\Users\admin-z10\Desktop\conti_v3\cryptor\api\getapi.cpp

; 522  : }

  00590	48 8b 5c 24 58	 mov	 rbx, QWORD PTR [rsp+88]
  00595	49 8b c1	 mov	 rax, r9
  00598	48 8b 74 24 60	 mov	 rsi, QWORD PTR [rsp+96]
  0059d	48 8b 7c 24 68	 mov	 rdi, QWORD PTR [rsp+104]
  005a2	48 83 c4 40	 add	 rsp, 64			; 00000040H
  005a6	5d		 pop	 rbp
  005a7	c3		 ret	 0
?GetKernel32@@YAPEAUHINSTANCE__@@XZ ENDP		; GetKernel32
_TEXT	ENDS
; Function compile flags: /Ogtpy
; File C:\Users\admin-z10\Desktop\conti_v3\cryptor\api\getapi.cpp
; File C:\Users\admin-z10\Desktop\conti_v3\cryptor\mrph.h
; File C:\Users\admin-z10\Desktop\conti_v3\cryptor\api\getapi.cpp
; File C:\Users\admin-z10\Desktop\conti_v3\cryptor\mrph.h
; File C:\Users\admin-z10\Desktop\conti_v3\cryptor\api\getapi.cpp
; File C:\Users\admin-z10\Desktop\conti_v3\cryptor\mrph.h
; File C:\Users\admin-z10\Desktop\conti_v3\cryptor\api\getapi.cpp
; File C:\Program Files (x86)\Windows Kits\10\Include\10.0.22621.0\um\winnt.h
; File C:\Users\admin-z10\Desktop\conti_v3\cryptor\api\getapi.cpp
;	COMDAT ?InitializeGetapiModule@getapi@@YAHXZ
_TEXT	SEGMENT
_morph_var$1 = 48
_morph_var$2 = 48
_morph_var$3 = 48
dwLoadLibraryA$ = 56
?InitializeGetapiModule@getapi@@YAHXZ PROC		; getapi::InitializeGetapiModule, COMDAT

; 526  : {

$LN376:
  00000	40 57		 push	 rdi
  00002	48 83 ec 20	 sub	 rsp, 32			; 00000020H

; 527  : 	g_hKernel32 = GetKernel32();

  00006	e8 00 00 00 00	 call	 ?GetKernel32@@YAPEAUHINSTANCE__@@XZ ; GetKernel32
  0000b	48 89 05 00 00
	00 00		 mov	 QWORD PTR ?g_hKernel32@@3PEAUHINSTANCE__@@EA, rax ; g_hKernel32
; File C:\Users\admin-z10\Desktop\conti_v3\cryptor\mrph.h

; 48   : 	if (_morph_var % 3) {

  00012	bf 02 00 00 00	 mov	 edi, 2
  00017	c7 44 24 30 c1
	9b 17 00	 mov	 DWORD PTR _morph_var$1[rsp], 1547201 ; 00179bc1H
  0001f	b8 56 55 55 55	 mov	 eax, 1431655766		; 55555556H
  00024	8b 4c 24 30	 mov	 ecx, DWORD PTR _morph_var$1[rsp]
  00028	f7 e9		 imul	 ecx
  0002a	8b c2		 mov	 eax, edx
  0002c	c1 e8 1f	 shr	 eax, 31
  0002f	03 d0		 add	 edx, eax
  00031	8d 04 52	 lea	 eax, DWORD PTR [rdx+rdx*2]
  00034	3b c8		 cmp	 ecx, eax
  00036	74 4a		 je	 SHORT $LN221@Initialize

; 49   : 		_morph_var += (int)a + 2;

  00038	8b 4c 24 30	 mov	 ecx, DWORD PTR _morph_var$1[rsp]
  0003c	8b 05 00 00 00
	00		 mov	 eax, DWORD PTR ?g_hKernel32@@3PEAUHINSTANCE__@@EA
  00042	03 c7		 add	 eax, edi
  00044	03 c8		 add	 ecx, eax
  00046	89 4c 24 30	 mov	 DWORD PTR _morph_var$1[rsp], ecx

; 50   : 		while (!(_morph_var % 4)) ++_morph_var;

  0004a	8b 44 24 30	 mov	 eax, DWORD PTR _morph_var$1[rsp]
  0004e	25 03 00 00 80	 and	 eax, -2147483645	; ffffffff80000003H
  00053	7d 07		 jge	 SHORT $LN333@Initialize
  00055	ff c8		 dec	 eax
  00057	83 c8 fc	 or	 eax, -4
  0005a	ff c0		 inc	 eax
$LN333@Initialize:
  0005c	85 c0		 test	 eax, eax
  0005e	75 74		 jne	 SHORT $LN220@Initialize
$LL213@Initialize:
  00060	8b 44 24 30	 mov	 eax, DWORD PTR _morph_var$1[rsp]
  00064	ff c0		 inc	 eax
  00066	89 44 24 30	 mov	 DWORD PTR _morph_var$1[rsp], eax
  0006a	8b 44 24 30	 mov	 eax, DWORD PTR _morph_var$1[rsp]
  0006e	25 03 00 00 80	 and	 eax, -2147483645	; ffffffff80000003H
  00073	7d 07		 jge	 SHORT $LN332@Initialize
  00075	ff c8		 dec	 eax
  00077	83 c8 fc	 or	 eax, -4
  0007a	ff c0		 inc	 eax
$LN332@Initialize:
  0007c	85 c0		 test	 eax, eax
  0007e	74 e0		 je	 SHORT $LL213@Initialize

; 51   : 	}

  00080	eb 52		 jmp	 SHORT $LN220@Initialize
$LN221@Initialize:

; 52   : 	else if (_morph_var % 2) {

  00082	8b 44 24 30	 mov	 eax, DWORD PTR _morph_var$1[rsp]

; 53   : 		_morph_var -= (int)a - 2;

  00086	8b cf		 mov	 ecx, edi
  00088	2b 0d 00 00 00
	00		 sub	 ecx, DWORD PTR ?g_hKernel32@@3PEAUHINSTANCE__@@EA
  0008e	8b 44 24 30	 mov	 eax, DWORD PTR _morph_var$1[rsp]
  00092	03 c1		 add	 eax, ecx
  00094	89 44 24 30	 mov	 DWORD PTR _morph_var$1[rsp], eax

; 54   : 		while (!(_morph_var % 3)) ++_morph_var;

  00098	b8 56 55 55 55	 mov	 eax, 1431655766		; 55555556H
  0009d	8b 4c 24 30	 mov	 ecx, DWORD PTR _morph_var$1[rsp]
  000a1	f7 e9		 imul	 ecx
  000a3	8b c2		 mov	 eax, edx
  000a5	c1 e8 1f	 shr	 eax, 31
  000a8	03 d0		 add	 edx, eax
  000aa	8d 04 52	 lea	 eax, DWORD PTR [rdx+rdx*2]
  000ad	3b c8		 cmp	 ecx, eax
  000af	75 23		 jne	 SHORT $LN220@Initialize
$LL215@Initialize:
  000b1	8b 44 24 30	 mov	 eax, DWORD PTR _morph_var$1[rsp]
  000b5	ff c0		 inc	 eax
  000b7	89 44 24 30	 mov	 DWORD PTR _morph_var$1[rsp], eax
  000bb	b8 56 55 55 55	 mov	 eax, 1431655766		; 55555556H
  000c0	8b 4c 24 30	 mov	 ecx, DWORD PTR _morph_var$1[rsp]
  000c4	f7 e9		 imul	 ecx
  000c6	8b c2		 mov	 eax, edx
  000c8	c1 e8 1f	 shr	 eax, 31
  000cb	03 d0		 add	 edx, eax
  000cd	8d 04 52	 lea	 eax, DWORD PTR [rdx+rdx*2]
  000d0	3b c8		 cmp	 ecx, eax
  000d2	74 dd		 je	 SHORT $LL215@Initialize
$LN220@Initialize:
; File C:\Users\admin-z10\Desktop\conti_v3\cryptor\api\getapi.cpp

; 531  : 	pLoadLibraryA = (fnLoadLibraryA)GetApiAddr(g_hKernel32, LOADLIBRARYA_HASH, &dwLoadLibraryA);

  000d4	48 8b 0d 00 00
	00 00		 mov	 rcx, QWORD PTR ?g_hKernel32@@3PEAUHINSTANCE__@@EA ; g_hKernel32
  000db	4c 8d 44 24 38	 lea	 r8, QWORD PTR dwLoadLibraryA$[rsp]
  000e0	ba 33 7e 9c 43	 mov	 edx, 1134329395		; 439c7e33H
  000e5	e8 00 00 00 00	 call	 ?GetApiAddr@@YA_KPEAUHINSTANCE__@@KPEA_K@Z ; GetApiAddr
  000ea	48 89 05 00 00
	00 00		 mov	 QWORD PTR ?pLoadLibraryA@@3P6APEAUHINSTANCE__@@PEBD@ZEA, rax ; pLoadLibraryA
; File C:\Users\admin-z10\Desktop\conti_v3\cryptor\mrph.h

; 48   : 	if (_morph_var % 3) {

  000f1	b8 56 55 55 55	 mov	 eax, 1431655766		; 55555556H
  000f6	c7 44 24 30 c1
	9b 17 00	 mov	 DWORD PTR _morph_var$3[rsp], 1547201 ; 00179bc1H
  000fe	8b 4c 24 30	 mov	 ecx, DWORD PTR _morph_var$3[rsp]
  00102	f7 e9		 imul	 ecx
  00104	8b c2		 mov	 eax, edx
  00106	c1 e8 1f	 shr	 eax, 31
  00109	03 d0		 add	 edx, eax
  0010b	8d 04 52	 lea	 eax, DWORD PTR [rdx+rdx*2]
  0010e	3b c8		 cmp	 ecx, eax
  00110	74 50		 je	 SHORT $LN244@Initialize

; 49   : 		_morph_var += (int)a + 2;

  00112	8b 4c 24 30	 mov	 ecx, DWORD PTR _morph_var$3[rsp]
  00116	8b 05 00 00 00
	00		 mov	 eax, DWORD PTR ?pLoadLibraryA@@3P6APEAUHINSTANCE__@@PEBD@ZEA
  0011c	03 c7		 add	 eax, edi
  0011e	03 c8		 add	 ecx, eax
  00120	89 4c 24 30	 mov	 DWORD PTR _morph_var$3[rsp], ecx

; 50   : 		while (!(_morph_var % 4)) ++_morph_var;

  00124	8b 44 24 30	 mov	 eax, DWORD PTR _morph_var$3[rsp]
  00128	25 03 00 00 80	 and	 eax, -2147483645	; ffffffff80000003H
  0012d	7d 07		 jge	 SHORT $LN330@Initialize
  0012f	ff c8		 dec	 eax
  00131	83 c8 fc	 or	 eax, -4
  00134	ff c0		 inc	 eax
$LN330@Initialize:
  00136	85 c0		 test	 eax, eax
  00138	75 7a		 jne	 SHORT $LN243@Initialize
  0013a	66 0f 1f 44 00
	00		 npad	 6
$LL236@Initialize:
  00140	8b 44 24 30	 mov	 eax, DWORD PTR _morph_var$3[rsp]
  00144	ff c0		 inc	 eax
  00146	89 44 24 30	 mov	 DWORD PTR _morph_var$3[rsp], eax
  0014a	8b 44 24 30	 mov	 eax, DWORD PTR _morph_var$3[rsp]
  0014e	25 03 00 00 80	 and	 eax, -2147483645	; ffffffff80000003H
  00153	7d 07		 jge	 SHORT $LN329@Initialize
  00155	ff c8		 dec	 eax
  00157	83 c8 fc	 or	 eax, -4
  0015a	ff c0		 inc	 eax
$LN329@Initialize:
  0015c	85 c0		 test	 eax, eax
  0015e	74 e0		 je	 SHORT $LL236@Initialize

; 51   : 	}

  00160	eb 52		 jmp	 SHORT $LN243@Initialize
$LN244@Initialize:

; 52   : 	else if (_morph_var % 2) {

  00162	8b 44 24 30	 mov	 eax, DWORD PTR _morph_var$3[rsp]

; 53   : 		_morph_var -= (int)a - 2;

  00166	8b cf		 mov	 ecx, edi
  00168	2b 0d 00 00 00
	00		 sub	 ecx, DWORD PTR ?pLoadLibraryA@@3P6APEAUHINSTANCE__@@PEBD@ZEA
  0016e	8b 44 24 30	 mov	 eax, DWORD PTR _morph_var$3[rsp]
  00172	03 c1		 add	 eax, ecx
  00174	89 44 24 30	 mov	 DWORD PTR _morph_var$3[rsp], eax

; 54   : 		while (!(_morph_var % 3)) ++_morph_var;

  00178	b8 56 55 55 55	 mov	 eax, 1431655766		; 55555556H
  0017d	8b 4c 24 30	 mov	 ecx, DWORD PTR _morph_var$3[rsp]
  00181	f7 e9		 imul	 ecx
  00183	8b c2		 mov	 eax, edx
  00185	c1 e8 1f	 shr	 eax, 31
  00188	03 d0		 add	 edx, eax
  0018a	8d 04 52	 lea	 eax, DWORD PTR [rdx+rdx*2]
  0018d	3b c8		 cmp	 ecx, eax
  0018f	75 23		 jne	 SHORT $LN243@Initialize
$LL238@Initialize:
  00191	8b 44 24 30	 mov	 eax, DWORD PTR _morph_var$3[rsp]
  00195	ff c0		 inc	 eax
  00197	89 44 24 30	 mov	 DWORD PTR _morph_var$3[rsp], eax
  0019b	b8 56 55 55 55	 mov	 eax, 1431655766		; 55555556H
  001a0	8b 4c 24 30	 mov	 ecx, DWORD PTR _morph_var$3[rsp]
  001a4	f7 e9		 imul	 ecx
  001a6	8b c2		 mov	 eax, edx
  001a8	c1 e8 1f	 shr	 eax, 31
  001ab	03 d0		 add	 edx, eax
  001ad	8d 04 52	 lea	 eax, DWORD PTR [rdx+rdx*2]
  001b0	3b c8		 cmp	 ecx, eax
  001b2	74 dd		 je	 SHORT $LL238@Initialize
$LN243@Initialize:
; File C:\Users\admin-z10\Desktop\conti_v3\cryptor\api\getapi.cpp

; 535  : 	if (!pLoadLibraryA) {

  001b4	48 83 3d 00 00
	00 00 00	 cmp	 QWORD PTR ?pLoadLibraryA@@3P6APEAUHINSTANCE__@@PEBD@ZEA, 0 ; pLoadLibraryA
  001bc	0f 84 f1 00 00
	00		 je	 $LN323@Initialize

; 536  : 		return FALSE;
; 537  : 	}
; 538  : 
; 539  : 	g_ApiCache = (LPVOID*)malloc(API_CACHE_SIZE);

  001c2	b9 00 20 00 00	 mov	 ecx, 8192		; 00002000H
  001c7	e8 00 00 00 00	 call	 malloc
  001cc	48 89 05 00 00
	00 00		 mov	 QWORD PTR ?g_ApiCache@@3PEAPEAXEA, rax ; g_ApiCache
; File C:\Users\admin-z10\Desktop\conti_v3\cryptor\mrph.h

; 48   : 	if (_morph_var % 3) {

  001d3	b8 56 55 55 55	 mov	 eax, 1431655766		; 55555556H
  001d8	c7 44 24 30 c1
	9b 17 00	 mov	 DWORD PTR _morph_var$2[rsp], 1547201 ; 00179bc1H
  001e0	8b 4c 24 30	 mov	 ecx, DWORD PTR _morph_var$2[rsp]
  001e4	f7 e9		 imul	 ecx
  001e6	8b c2		 mov	 eax, edx
  001e8	c1 e8 1f	 shr	 eax, 31
  001eb	03 d0		 add	 edx, eax
  001ed	8d 04 52	 lea	 eax, DWORD PTR [rdx+rdx*2]
  001f0	3b c8		 cmp	 ecx, eax
  001f2	74 4e		 je	 SHORT $LN267@Initialize

; 49   : 		_morph_var += (int)a + 2;

  001f4	8b 4c 24 30	 mov	 ecx, DWORD PTR _morph_var$2[rsp]
  001f8	8b 05 00 00 00
	00		 mov	 eax, DWORD PTR ?g_ApiCache@@3PEAPEAXEA
  001fe	03 c7		 add	 eax, edi
  00200	03 c8		 add	 ecx, eax
  00202	89 4c 24 30	 mov	 DWORD PTR _morph_var$2[rsp], ecx

; 50   : 		while (!(_morph_var % 4)) ++_morph_var;

  00206	8b 44 24 30	 mov	 eax, DWORD PTR _morph_var$2[rsp]
  0020a	25 03 00 00 80	 and	 eax, -2147483645	; ffffffff80000003H
  0020f	7d 07		 jge	 SHORT $LN327@Initialize
  00211	ff c8		 dec	 eax
  00213	83 c8 fc	 or	 eax, -4
  00216	ff c0		 inc	 eax
$LN327@Initialize:
  00218	85 c0		 test	 eax, eax
  0021a	75 77		 jne	 SHORT $LN266@Initialize
  0021c	0f 1f 40 00	 npad	 4
$LL259@Initialize:
  00220	8b 44 24 30	 mov	 eax, DWORD PTR _morph_var$2[rsp]
  00224	ff c0		 inc	 eax
  00226	89 44 24 30	 mov	 DWORD PTR _morph_var$2[rsp], eax
  0022a	8b 44 24 30	 mov	 eax, DWORD PTR _morph_var$2[rsp]
  0022e	25 03 00 00 80	 and	 eax, -2147483645	; ffffffff80000003H
  00233	7d 07		 jge	 SHORT $LN326@Initialize
  00235	ff c8		 dec	 eax
  00237	83 c8 fc	 or	 eax, -4
  0023a	ff c0		 inc	 eax
$LN326@Initialize:
  0023c	85 c0		 test	 eax, eax
  0023e	74 e0		 je	 SHORT $LL259@Initialize

; 51   : 	}

  00240	eb 51		 jmp	 SHORT $LN266@Initialize
$LN267@Initialize:

; 52   : 	else if (_morph_var % 2) {

  00242	8b 44 24 30	 mov	 eax, DWORD PTR _morph_var$2[rsp]

; 53   : 		_morph_var -= (int)a - 2;

  00246	8b 44 24 30	 mov	 eax, DWORD PTR _morph_var$2[rsp]
  0024a	2b 3d 00 00 00
	00		 sub	 edi, DWORD PTR ?g_ApiCache@@3PEAPEAXEA
  00250	03 c7		 add	 eax, edi
  00252	89 44 24 30	 mov	 DWORD PTR _morph_var$2[rsp], eax

; 54   : 		while (!(_morph_var % 3)) ++_morph_var;

  00256	b8 56 55 55 55	 mov	 eax, 1431655766		; 55555556H
  0025b	8b 4c 24 30	 mov	 ecx, DWORD PTR _morph_var$2[rsp]
  0025f	f7 e9		 imul	 ecx
  00261	8b c2		 mov	 eax, edx
  00263	c1 e8 1f	 shr	 eax, 31
  00266	03 d0		 add	 edx, eax
  00268	8d 04 52	 lea	 eax, DWORD PTR [rdx+rdx*2]
  0026b	3b c8		 cmp	 ecx, eax
  0026d	75 24		 jne	 SHORT $LN266@Initialize
  0026f	90		 npad	 1
$LL261@Initialize:
  00270	8b 44 24 30	 mov	 eax, DWORD PTR _morph_var$2[rsp]
  00274	ff c0		 inc	 eax
  00276	89 44 24 30	 mov	 DWORD PTR _morph_var$2[rsp], eax
  0027a	b8 56 55 55 55	 mov	 eax, 1431655766		; 55555556H
  0027f	8b 4c 24 30	 mov	 ecx, DWORD PTR _morph_var$2[rsp]
  00283	f7 e9		 imul	 ecx
  00285	8b c2		 mov	 eax, edx
  00287	c1 e8 1f	 shr	 eax, 31
  0028a	03 d0		 add	 edx, eax
  0028c	8d 04 52	 lea	 eax, DWORD PTR [rdx+rdx*2]
  0028f	3b c8		 cmp	 ecx, eax
  00291	74 dd		 je	 SHORT $LL261@Initialize
$LN266@Initialize:
; File C:\Users\admin-z10\Desktop\conti_v3\cryptor\api\getapi.cpp

; 543  : 	if (!g_ApiCache) {

  00293	48 8b 3d 00 00
	00 00		 mov	 rdi, QWORD PTR ?g_ApiCache@@3PEAPEAXEA ; g_ApiCache
  0029a	48 85 ff	 test	 rdi, rdi
  0029d	74 14		 je	 SHORT $LN323@Initialize
; File C:\Program Files (x86)\Windows Kits\10\Include\10.0.22621.0\um\winnt.h

; 21771:     __stosb((PBYTE )((DWORD64)vptr), 0, cnt);

  0029f	33 c0		 xor	 eax, eax
  002a1	b9 00 20 00 00	 mov	 ecx, 8192		; 00002000H
  002a6	f3 aa		 rep stosb
; File C:\Users\admin-z10\Desktop\conti_v3\cryptor\api\getapi.cpp

; 548  : 	return TRUE;

  002a8	b8 01 00 00 00	 mov	 eax, 1

; 549  : }

  002ad	48 83 c4 20	 add	 rsp, 32			; 00000020H
  002b1	5f		 pop	 rdi
  002b2	c3		 ret	 0
$LN323@Initialize:

; 544  : 		return FALSE;

  002b3	33 c0		 xor	 eax, eax

; 549  : }

  002b5	48 83 c4 20	 add	 rsp, 32			; 00000020H
  002b9	5f		 pop	 rdi
  002ba	c3		 ret	 0
?InitializeGetapiModule@getapi@@YAHXZ ENDP		; getapi::InitializeGetapiModule
_TEXT	ENDS
; Function compile flags: /Ogtpy
; File C:\Users\admin-z10\Desktop\conti_v3\cryptor\api\getapi.cpp
; File C:\Users\admin-z10\Desktop\conti_v3\cryptor\obfuscation\MetaString.h
; File C:\Users\admin-z10\Desktop\conti_v3\cryptor\api\getapi.cpp
; File C:\Users\admin-z10\Desktop\conti_v3\cryptor\obfuscation\MetaString.h
; File C:\Users\admin-z10\Desktop\conti_v3\cryptor\api\getapi.cpp
; File C:\Users\admin-z10\Desktop\conti_v3\cryptor\mrph.h
; File C:\Users\admin-z10\Desktop\conti_v3\cryptor\api\getapi.cpp
; File C:\Users\admin-z10\Desktop\conti_v3\cryptor\mrph.h
; File C:\Users\admin-z10\Desktop\conti_v3\cryptor\api\getapi.cpp
; File C:\Users\admin-z10\Desktop\conti_v3\cryptor\mrph.h
; File C:\Users\admin-z10\Desktop\conti_v3\cryptor\api\getapi.cpp
; File C:\Users\admin-z10\Desktop\conti_v3\cryptor\mrph.h
; File C:\Users\admin-z10\Desktop\conti_v3\cryptor\api\getapi.cpp
; File C:\Users\admin-z10\Desktop\conti_v3\cryptor\mrph.h
; File C:\Users\admin-z10\Desktop\conti_v3\cryptor\api\getapi.cpp
; File C:\Users\admin-z10\Desktop\conti_v3\cryptor\mrph.h
; File C:\Users\admin-z10\Desktop\conti_v3\cryptor\api\getapi.cpp
; File C:\Users\admin-z10\Desktop\conti_v3\cryptor\mrph.h
; File C:\Users\admin-z10\Desktop\conti_v3\cryptor\api\getapi.cpp
; File C:\Users\admin-z10\Desktop\conti_v3\cryptor\mrph.h
; File C:\Users\admin-z10\Desktop\conti_v3\cryptor\api\getapi.cpp
;	COMDAT ?GetProcAddressEx@getapi@@YAPEAXPEBDKK@Z
_TEXT	SEGMENT
_morph_var$13 = 32
_morph_var$14 = 32
_morph_var$15 = 32
_morph_var$16 = 32
_morph_var$17 = 32
$T10 = 40
$T12 = 56
$T7 = 72
$T6 = 88
$T8 = 104
$T9 = 120
$T2 = 136
$T1 = 152
$T3 = 168
$T4 = 184
$T5 = 200
$T11 = 216
ProcAddress$ = 232
__$ArrayPad$ = 240
ModuleName$ = 272
ModuleId$ = 280
Hash$ = 288
?GetProcAddressEx@getapi@@YAPEAXPEBDKK@Z PROC		; getapi::GetProcAddressEx, COMDAT

; 557  : {

$LN805:
  00000	48 89 5c 24 10	 mov	 QWORD PTR [rsp+16], rbx
  00005	48 89 7c 24 20	 mov	 QWORD PTR [rsp+32], rdi
  0000a	55		 push	 rbp
  0000b	48 8d 6c 24 a9	 lea	 rbp, QWORD PTR [rsp-87]
  00010	48 81 ec 00 01
	00 00		 sub	 rsp, 256		; 00000100H
  00017	48 8b 05 00 00
	00 00		 mov	 rax, QWORD PTR __security_cookie
  0001e	48 33 c4	 xor	 rax, rsp
  00021	48 89 45 47	 mov	 QWORD PTR __$ArrayPad$[rbp-169], rax

; 558  : 	HMODULE hModule = NULL;
; 559  : 	ADDR ProcAddress = NULL;

  00025	45 33 c9	 xor	 r9d, r9d
  00028	41 8b f8	 mov	 edi, r8d
  0002b	4c 89 4d 3f	 mov	 QWORD PTR ProcAddress$[rbp-169], r9
  0002f	8b da		 mov	 ebx, edx
; File C:\Users\admin-z10\Desktop\conti_v3\cryptor\obfuscation\MetaString.h

; 83   :     volatile bool m_isDecrypted = false;

  00031	44 88 4d ef	 mov	 BYTE PTR $T1[rbp-169], r9b
; File C:\Users\admin-z10\Desktop\conti_v3\cryptor\api\getapi.cpp

; 557  : {

  00035	4c 8b d9	 mov	 r11, rcx
; File C:\Users\admin-z10\Desktop\conti_v3\cryptor\obfuscation\MetaString.h

; 51   :         : m_buffer{ encrypt(data[Ints])... }

  00038	c6 45 f0 5f	 mov	 BYTE PTR $T1[rbp-168], 95 ; 0000005fH
  0003c	c6 45 f1 4c	 mov	 BYTE PTR $T1[rbp-167], 76 ; 0000004cH
  00040	c6 45 f2 58	 mov	 BYTE PTR $T1[rbp-166], 88 ; 00000058H
  00044	c6 45 f3 4a	 mov	 BYTE PTR $T1[rbp-165], 74 ; 0000004aH
  00048	c6 45 f4 54	 mov	 BYTE PTR $T1[rbp-164], 84 ; 00000054H
  0004c	c6 45 f5 25	 mov	 BYTE PTR $T1[rbp-163], 37 ; 00000025H
  00050	c6 45 f6 01	 mov	 BYTE PTR $T1[rbp-162], 1
  00054	c6 45 f7 55	 mov	 BYTE PTR $T1[rbp-161], 85 ; 00000055H
  00058	c6 45 f8 28	 mov	 BYTE PTR $T1[rbp-160], 40 ; 00000028H
  0005c	c6 45 f9 4c	 mov	 BYTE PTR $T1[rbp-159], 76 ; 0000004cH
  00060	c6 45 fa 27	 mov	 BYTE PTR $T1[rbp-158], 39 ; 00000027H
  00064	c6 45 fb 27	 mov	 BYTE PTR $T1[rbp-157], 39 ; 00000027H
  00068	c6 45 fc 5e	 mov	 BYTE PTR $T1[rbp-156], 94 ; 0000005eH
  0006c	0f b6 45 f0	 movzx	 eax, BYTE PTR $T1[rbp-168]

; 58   :         return m_isDecrypted;

  00070	0f b6 45 ef	 movzx	 eax, BYTE PTR $T1[rbp-169]

; 63   :         if (!isDecrypted())

  00074	84 c0		 test	 al, al
  00076	75 59		 jne	 SHORT $LN52@GetProcAdd

; 64   :         {
; 65   :             for (size_t i = 0; i < sizeof...(Ints); ++i)

  00078	45 8b c1	 mov	 r8d, r9d
  0007b	0f 1f 44 00 00	 npad	 5
$LL53@GetProcAdd:

; 66   :                 m_buffer[i] = decrypt(m_buffer[i]);

  00080	42 0f b6 4c 05
	f0		 movzx	 ecx, BYTE PTR $T1[rbp+r8-168]

; 80   :         return positive_modulo(ExtendedEuclidian<127, A>::y * (byte - B), 127);

  00086	b8 5e 00 00 00	 mov	 eax, 94			; 0000005eH
  0008b	2b c1		 sub	 eax, ecx
  0008d	6b c8 3e	 imul	 ecx, eax, 62		; 0000003eH

; 40   :     return (a % n + n) % n;

  00090	b8 09 04 02 81	 mov	 eax, -2130574327	; ffffffff81020409H
  00095	f7 e9		 imul	 ecx
  00097	03 d1		 add	 edx, ecx
  00099	c1 fa 06	 sar	 edx, 6
  0009c	8b c2		 mov	 eax, edx
  0009e	c1 e8 1f	 shr	 eax, 31
  000a1	03 d0		 add	 edx, eax
  000a3	6b c2 7f	 imul	 eax, edx, 127		; 0000007fH
  000a6	2b c8		 sub	 ecx, eax
  000a8	b8 09 04 02 81	 mov	 eax, -2130574327	; ffffffff81020409H
  000ad	83 c1 7f	 add	 ecx, 127		; 0000007fH
  000b0	f7 e9		 imul	 ecx
  000b2	03 d1		 add	 edx, ecx
  000b4	c1 fa 06	 sar	 edx, 6
  000b7	8b c2		 mov	 eax, edx
  000b9	c1 e8 1f	 shr	 eax, 31
  000bc	03 d0		 add	 edx, eax
  000be	6b c2 7f	 imul	 eax, edx, 127		; 0000007fH
  000c1	2b c8		 sub	 ecx, eax

; 66   :                 m_buffer[i] = decrypt(m_buffer[i]);

  000c3	42 88 4c 05 f0	 mov	 BYTE PTR $T1[rbp+r8-168], cl
  000c8	49 ff c0	 inc	 r8
  000cb	49 83 f8 0d	 cmp	 r8, 13
  000cf	72 af		 jb	 SHORT $LL53@GetProcAdd
$LN52@GetProcAdd:

; 83   :     volatile bool m_isDecrypted = false;

  000d1	44 88 4d df	 mov	 BYTE PTR $T2[rbp-169], r9b
  000d5	c6 45 e0 61	 mov	 BYTE PTR $T2[rbp-168], 97 ; 00000061H
  000d9	c6 45 e1 64	 mov	 BYTE PTR $T2[rbp-167], 100 ; 00000064H
  000dd	c6 45 e2 26	 mov	 BYTE PTR $T2[rbp-166], 38 ; 00000026H
  000e1	c6 45 e3 12	 mov	 BYTE PTR $T2[rbp-165], 18
  000e5	c6 45 e4 64	 mov	 BYTE PTR $T2[rbp-164], 100 ; 00000064H
  000e9	c6 45 e5 08	 mov	 BYTE PTR $T2[rbp-163], 8
  000ed	c6 45 e6 68	 mov	 BYTE PTR $T2[rbp-162], 104 ; 00000068H
  000f1	c6 45 e7 63	 mov	 BYTE PTR $T2[rbp-161], 99 ; 00000063H
  000f5	c6 45 e8 4f	 mov	 BYTE PTR $T2[rbp-160], 79 ; 0000004fH
  000f9	c6 45 e9 5f	 mov	 BYTE PTR $T2[rbp-159], 95 ; 0000005fH
  000fd	c6 45 ea 08	 mov	 BYTE PTR $T2[rbp-158], 8
  00101	c6 45 eb 08	 mov	 BYTE PTR $T2[rbp-157], 8
  00105	c6 45 ec 67	 mov	 BYTE PTR $T2[rbp-156], 103 ; 00000067H
  00109	0f b6 45 e0	 movzx	 eax, BYTE PTR $T2[rbp-168]

; 58   :         return m_isDecrypted;

  0010d	0f b6 45 df	 movzx	 eax, BYTE PTR $T2[rbp-169]

; 63   :         if (!isDecrypted())

  00111	84 c0		 test	 al, al
  00113	75 60		 jne	 SHORT $LN92@GetProcAdd

; 64   :         {
; 65   :             for (size_t i = 0; i < sizeof...(Ints); ++i)

  00115	4d 8b d1	 mov	 r10, r9
  00118	0f 1f 84 00 00
	00 00 00	 npad	 8
$LL93@GetProcAdd:

; 66   :                 m_buffer[i] = decrypt(m_buffer[i]);

  00120	42 0f b6 4c 15
	e0		 movzx	 ecx, BYTE PTR $T2[rbp+r10-168]

; 40   :     return (a % n + n) % n;

  00126	b8 09 04 02 81	 mov	 eax, -2130574327	; ffffffff81020409H

; 80   :         return positive_modulo(ExtendedEuclidian<127, A>::y * (byte - B), 127);

  0012b	83 e9 67	 sub	 ecx, 103		; 00000067H
  0012e	44 6b c1 33	 imul	 r8d, ecx, 51		; 00000033H

; 40   :     return (a % n + n) % n;

  00132	41 f7 e8	 imul	 r8d
  00135	41 03 d0	 add	 edx, r8d
  00138	c1 fa 06	 sar	 edx, 6
  0013b	8b c2		 mov	 eax, edx
  0013d	c1 e8 1f	 shr	 eax, 31
  00140	03 d0		 add	 edx, eax
  00142	6b c2 7f	 imul	 eax, edx, 127		; 0000007fH
  00145	44 2b c0	 sub	 r8d, eax
  00148	b8 09 04 02 81	 mov	 eax, -2130574327	; ffffffff81020409H
  0014d	41 83 c0 7f	 add	 r8d, 127		; 0000007fH
  00151	41 f7 e8	 imul	 r8d
  00154	41 03 d0	 add	 edx, r8d
  00157	c1 fa 06	 sar	 edx, 6
  0015a	8b c2		 mov	 eax, edx
  0015c	c1 e8 1f	 shr	 eax, 31
  0015f	03 d0		 add	 edx, eax
  00161	6b c2 7f	 imul	 eax, edx, 127		; 0000007fH
  00164	44 2b c0	 sub	 r8d, eax

; 66   :                 m_buffer[i] = decrypt(m_buffer[i]);

  00167	46 88 44 15 e0	 mov	 BYTE PTR $T2[rbp+r10-168], r8b
  0016c	49 ff c2	 inc	 r10
  0016f	49 83 fa 0d	 cmp	 r10, 13
  00173	72 ab		 jb	 SHORT $LL93@GetProcAdd
$LN92@GetProcAdd:

; 83   :     volatile bool m_isDecrypted = false;

  00175	44 88 4d ff	 mov	 BYTE PTR $T3[rbp-169], r9b
  00179	c6 45 00 5b	 mov	 BYTE PTR $T3[rbp-168], 91 ; 0000005bH
  0017d	c6 45 01 49	 mov	 BYTE PTR $T3[rbp-167], 73 ; 00000049H
  00181	c6 45 02 7a	 mov	 BYTE PTR $T3[rbp-166], 122 ; 0000007aH
  00185	c6 45 03 2b	 mov	 BYTE PTR $T3[rbp-165], 43 ; 0000002bH
  00189	c6 45 04 5c	 mov	 BYTE PTR $T3[rbp-164], 92 ; 0000005cH
  0018d	c6 45 05 67	 mov	 BYTE PTR $T3[rbp-163], 103 ; 00000067H
  00191	c6 45 06 4f	 mov	 BYTE PTR $T3[rbp-162], 79 ; 0000004fH
  00195	c6 45 07 08	 mov	 BYTE PTR $T3[rbp-161], 8
  00199	c6 45 08 69	 mov	 BYTE PTR $T3[rbp-160], 105 ; 00000069H
  0019d	c6 45 09 02	 mov	 BYTE PTR $T3[rbp-159], 2
  001a1	c6 45 0a 3e	 mov	 BYTE PTR $T3[rbp-158], 62 ; 0000003eH
  001a5	c6 45 0b 3e	 mov	 BYTE PTR $T3[rbp-157], 62 ; 0000003eH
  001a9	c6 45 0c 0e	 mov	 BYTE PTR $T3[rbp-156], 14
  001ad	0f b6 45 00	 movzx	 eax, BYTE PTR $T3[rbp-168]

; 58   :         return m_isDecrypted;

  001b1	0f b6 45 ff	 movzx	 eax, BYTE PTR $T3[rbp-169]

; 63   :         if (!isDecrypted())

  001b5	84 c0		 test	 al, al
  001b7	75 5c		 jne	 SHORT $LN132@GetProcAdd

; 64   :         {
; 65   :             for (size_t i = 0; i < sizeof...(Ints); ++i)

  001b9	4d 8b d1	 mov	 r10, r9
  001bc	0f 1f 40 00	 npad	 4
$LL133@GetProcAdd:

; 66   :                 m_buffer[i] = decrypt(m_buffer[i]);

  001c0	42 0f b6 4c 15
	00		 movzx	 ecx, BYTE PTR $T3[rbp+r10-168]

; 40   :     return (a % n + n) % n;

  001c6	b8 09 04 02 81	 mov	 eax, -2130574327	; ffffffff81020409H

; 80   :         return positive_modulo(ExtendedEuclidian<127, A>::y * (byte - B), 127);

  001cb	83 e9 0e	 sub	 ecx, 14
  001ce	44 6b c1 22	 imul	 r8d, ecx, 34		; 00000022H

; 40   :     return (a % n + n) % n;

  001d2	41 f7 e8	 imul	 r8d
  001d5	41 03 d0	 add	 edx, r8d
  001d8	c1 fa 06	 sar	 edx, 6
  001db	8b c2		 mov	 eax, edx
  001dd	c1 e8 1f	 shr	 eax, 31
  001e0	03 d0		 add	 edx, eax
  001e2	6b c2 7f	 imul	 eax, edx, 127		; 0000007fH
  001e5	44 2b c0	 sub	 r8d, eax
  001e8	b8 09 04 02 81	 mov	 eax, -2130574327	; ffffffff81020409H
  001ed	41 83 c0 7f	 add	 r8d, 127		; 0000007fH
  001f1	41 f7 e8	 imul	 r8d
  001f4	41 03 d0	 add	 edx, r8d
  001f7	c1 fa 06	 sar	 edx, 6
  001fa	8b c2		 mov	 eax, edx
  001fc	c1 e8 1f	 shr	 eax, 31
  001ff	03 d0		 add	 edx, eax
  00201	6b c2 7f	 imul	 eax, edx, 127		; 0000007fH
  00204	44 2b c0	 sub	 r8d, eax

; 66   :                 m_buffer[i] = decrypt(m_buffer[i]);

  00207	46 88 44 15 00	 mov	 BYTE PTR $T3[rbp+r10-168], r8b
  0020c	49 ff c2	 inc	 r10
  0020f	49 83 fa 0d	 cmp	 r10, 13
  00213	72 ab		 jb	 SHORT $LL133@GetProcAdd
$LN132@GetProcAdd:

; 83   :     volatile bool m_isDecrypted = false;

  00215	44 88 4d 0f	 mov	 BYTE PTR $T4[rbp-169], r9b
  00219	c6 45 10 4d	 mov	 BYTE PTR $T4[rbp-168], 77 ; 0000004dH
  0021d	c6 45 11 0a	 mov	 BYTE PTR $T4[rbp-167], 10
  00221	c6 45 12 1b	 mov	 BYTE PTR $T4[rbp-166], 27
  00225	c6 45 13 52	 mov	 BYTE PTR $T4[rbp-165], 82 ; 00000052H
  00229	c6 45 14 0a	 mov	 BYTE PTR $T4[rbp-164], 10
  0022d	c6 45 15 1a	 mov	 BYTE PTR $T4[rbp-163], 26
  00231	c6 45 16 0a	 mov	 BYTE PTR $T4[rbp-162], 10
  00235	c6 45 17 09	 mov	 BYTE PTR $T4[rbp-161], 9
  00239	c6 45 18 37	 mov	 BYTE PTR $T4[rbp-160], 55 ; 00000037H
  0023d	c6 45 19 63	 mov	 BYTE PTR $T4[rbp-159], 99 ; 00000063H
  00241	c6 45 1a 52	 mov	 BYTE PTR $T4[rbp-158], 82 ; 00000052H
  00245	c6 45 1b 52	 mov	 BYTE PTR $T4[rbp-157], 82 ; 00000052H
  00249	c6 45 1c 79	 mov	 BYTE PTR $T4[rbp-156], 121 ; 00000079H
  0024d	0f b6 45 10	 movzx	 eax, BYTE PTR $T4[rbp-168]

; 58   :         return m_isDecrypted;

  00251	0f b6 45 0f	 movzx	 eax, BYTE PTR $T4[rbp-169]

; 63   :         if (!isDecrypted())

  00255	84 c0		 test	 al, al
  00257	75 5c		 jne	 SHORT $LN172@GetProcAdd

; 64   :         {
; 65   :             for (size_t i = 0; i < sizeof...(Ints); ++i)

  00259	4d 8b d1	 mov	 r10, r9
  0025c	0f 1f 40 00	 npad	 4
$LL173@GetProcAdd:

; 66   :                 m_buffer[i] = decrypt(m_buffer[i]);

  00260	42 0f b6 4c 15
	10		 movzx	 ecx, BYTE PTR $T4[rbp+r10-168]

; 40   :     return (a % n + n) % n;

  00266	b8 09 04 02 81	 mov	 eax, -2130574327	; ffffffff81020409H

; 80   :         return positive_modulo(ExtendedEuclidian<127, A>::y * (byte - B), 127);

  0026b	83 e9 79	 sub	 ecx, 121		; 00000079H
  0026e	44 6b c1 07	 imul	 r8d, ecx, 7

; 40   :     return (a % n + n) % n;

  00272	41 f7 e8	 imul	 r8d
  00275	41 03 d0	 add	 edx, r8d
  00278	c1 fa 06	 sar	 edx, 6
  0027b	8b c2		 mov	 eax, edx
  0027d	c1 e8 1f	 shr	 eax, 31
  00280	03 d0		 add	 edx, eax
  00282	6b c2 7f	 imul	 eax, edx, 127		; 0000007fH
  00285	44 2b c0	 sub	 r8d, eax
  00288	b8 09 04 02 81	 mov	 eax, -2130574327	; ffffffff81020409H
  0028d	41 83 c0 7f	 add	 r8d, 127		; 0000007fH
  00291	41 f7 e8	 imul	 r8d
  00294	41 03 d0	 add	 edx, r8d
  00297	c1 fa 06	 sar	 edx, 6
  0029a	8b c2		 mov	 eax, edx
  0029c	c1 e8 1f	 shr	 eax, 31
  0029f	03 d0		 add	 edx, eax
  002a1	6b c2 7f	 imul	 eax, edx, 127		; 0000007fH
  002a4	44 2b c0	 sub	 r8d, eax

; 66   :                 m_buffer[i] = decrypt(m_buffer[i]);

  002a7	46 88 44 15 10	 mov	 BYTE PTR $T4[rbp+r10-168], r8b
  002ac	49 ff c2	 inc	 r10
  002af	49 83 fa 0d	 cmp	 r10, 13
  002b3	72 ab		 jb	 SHORT $LL173@GetProcAdd
$LN172@GetProcAdd:

; 83   :     volatile bool m_isDecrypted = false;

  002b5	44 88 4d 1f	 mov	 BYTE PTR $T5[rbp-169], r9b
  002b9	c6 45 20 0b	 mov	 BYTE PTR $T5[rbp-168], 11
  002bd	c6 45 21 3b	 mov	 BYTE PTR $T5[rbp-167], 59 ; 0000003bH
  002c1	c6 45 22 48	 mov	 BYTE PTR $T5[rbp-166], 72 ; 00000048H
  002c5	c6 45 23 2e	 mov	 BYTE PTR $T5[rbp-165], 46 ; 0000002eH
  002c9	c6 45 24 48	 mov	 BYTE PTR $T5[rbp-164], 72 ; 00000048H
  002cd	c6 45 25 6c	 mov	 BYTE PTR $T5[rbp-163], 108 ; 0000006cH
  002d1	c6 45 26 1e	 mov	 BYTE PTR $T5[rbp-162], 30
  002d5	c6 45 27 2e	 mov	 BYTE PTR $T5[rbp-161], 46 ; 0000002eH
  002d9	c6 45 28 33	 mov	 BYTE PTR $T5[rbp-160], 51 ; 00000033H
  002dd	c6 45 29 76	 mov	 BYTE PTR $T5[rbp-159], 118 ; 00000076H
  002e1	c6 45 2a 5f	 mov	 BYTE PTR $T5[rbp-158], 95 ; 0000005fH
  002e5	c6 45 2b 5f	 mov	 BYTE PTR $T5[rbp-157], 95 ; 0000005fH
  002e9	c6 45 2c 58	 mov	 BYTE PTR $T5[rbp-156], 88 ; 00000058H
  002ed	0f b6 45 20	 movzx	 eax, BYTE PTR $T5[rbp-168]

; 58   :         return m_isDecrypted;

  002f1	0f b6 45 1f	 movzx	 eax, BYTE PTR $T5[rbp-169]

; 63   :         if (!isDecrypted())

  002f5	84 c0		 test	 al, al
  002f7	75 58		 jne	 SHORT $LN212@GetProcAdd

; 64   :         {
; 65   :             for (size_t i = 0; i < sizeof...(Ints); ++i)

  002f9	4d 8b c1	 mov	 r8, r9
  002fc	0f 1f 40 00	 npad	 4
$LL213@GetProcAdd:

; 66   :                 m_buffer[i] = decrypt(m_buffer[i]);

  00300	42 0f b6 4c 05
	20		 movzx	 ecx, BYTE PTR $T5[rbp+r8-168]

; 80   :         return positive_modulo(ExtendedEuclidian<127, A>::y * (byte - B), 127);

  00306	b8 58 00 00 00	 mov	 eax, 88			; 00000058H
  0030b	2b c1		 sub	 eax, ecx
  0030d	6b c8 27	 imul	 ecx, eax, 39		; 00000027H

; 40   :     return (a % n + n) % n;

  00310	b8 09 04 02 81	 mov	 eax, -2130574327	; ffffffff81020409H
  00315	f7 e9		 imul	 ecx
  00317	03 d1		 add	 edx, ecx
  00319	c1 fa 06	 sar	 edx, 6
  0031c	8b c2		 mov	 eax, edx
  0031e	c1 e8 1f	 shr	 eax, 31
  00321	03 d0		 add	 edx, eax
  00323	6b c2 7f	 imul	 eax, edx, 127		; 0000007fH
  00326	2b c8		 sub	 ecx, eax
  00328	b8 09 04 02 81	 mov	 eax, -2130574327	; ffffffff81020409H
  0032d	83 c1 7f	 add	 ecx, 127		; 0000007fH
  00330	f7 e9		 imul	 ecx
  00332	03 d1		 add	 edx, ecx
  00334	c1 fa 06	 sar	 edx, 6
  00337	8b c2		 mov	 eax, edx
  00339	c1 e8 1f	 shr	 eax, 31
  0033c	03 d0		 add	 edx, eax
  0033e	6b c2 7f	 imul	 eax, edx, 127		; 0000007fH
  00341	2b c8		 sub	 ecx, eax

; 66   :                 m_buffer[i] = decrypt(m_buffer[i]);

  00343	42 88 4c 05 20	 mov	 BYTE PTR $T5[rbp+r8-168], cl
  00348	49 ff c0	 inc	 r8
  0034b	49 83 f8 0d	 cmp	 r8, 13
  0034f	72 af		 jb	 SHORT $LL213@GetProcAdd
$LN212@GetProcAdd:

; 83   :     volatile bool m_isDecrypted = false;

  00351	44 88 4d af	 mov	 BYTE PTR $T6[rbp-169], r9b
  00355	c6 45 b0 7a	 mov	 BYTE PTR $T6[rbp-168], 122 ; 0000007aH
  00359	c6 45 b1 4e	 mov	 BYTE PTR $T6[rbp-167], 78 ; 0000004eH
  0035d	c6 45 b2 7d	 mov	 BYTE PTR $T6[rbp-166], 125 ; 0000007dH
  00361	c6 45 b3 70	 mov	 BYTE PTR $T6[rbp-165], 112 ; 00000070H
  00365	c6 45 b4 09	 mov	 BYTE PTR $T6[rbp-164], 9
  00369	c6 45 b5 7d	 mov	 BYTE PTR $T6[rbp-163], 125 ; 0000007dH
  0036d	c6 45 b6 51	 mov	 BYTE PTR $T6[rbp-162], 81 ; 00000051H
  00371	c6 45 b7 28	 mov	 BYTE PTR $T6[rbp-161], 40 ; 00000028H
  00375	c6 45 b8 01	 mov	 BYTE PTR $T6[rbp-160], 1
  00379	c6 45 b9 01	 mov	 BYTE PTR $T6[rbp-159], 1
  0037d	c6 45 ba 53	 mov	 BYTE PTR $T6[rbp-158], 83 ; 00000053H
  00381	0f b6 45 b0	 movzx	 eax, BYTE PTR $T6[rbp-168]

; 58   :         return m_isDecrypted;

  00385	0f b6 45 af	 movzx	 eax, BYTE PTR $T6[rbp-169]

; 63   :         if (!isDecrypted())

  00389	84 c0		 test	 al, al
  0038b	75 54		 jne	 SHORT $LN248@GetProcAdd

; 64   :         {
; 65   :             for (size_t i = 0; i < sizeof...(Ints); ++i)

  0038d	4d 8b c1	 mov	 r8, r9
$LL249@GetProcAdd:

; 66   :                 m_buffer[i] = decrypt(m_buffer[i]);

  00390	42 0f b6 4c 05
	b0		 movzx	 ecx, BYTE PTR $T6[rbp+r8-168]

; 80   :         return positive_modulo(ExtendedEuclidian<127, A>::y * (byte - B), 127);

  00396	b8 53 00 00 00	 mov	 eax, 83			; 00000053H
  0039b	2b c1		 sub	 eax, ecx
  0039d	6b c8 17	 imul	 ecx, eax, 23

; 40   :     return (a % n + n) % n;

  003a0	b8 09 04 02 81	 mov	 eax, -2130574327	; ffffffff81020409H
  003a5	f7 e9		 imul	 ecx
  003a7	03 d1		 add	 edx, ecx
  003a9	c1 fa 06	 sar	 edx, 6
  003ac	8b c2		 mov	 eax, edx
  003ae	c1 e8 1f	 shr	 eax, 31
  003b1	03 d0		 add	 edx, eax
  003b3	6b c2 7f	 imul	 eax, edx, 127		; 0000007fH
  003b6	2b c8		 sub	 ecx, eax
  003b8	b8 09 04 02 81	 mov	 eax, -2130574327	; ffffffff81020409H
  003bd	83 c1 7f	 add	 ecx, 127		; 0000007fH
  003c0	f7 e9		 imul	 ecx
  003c2	03 d1		 add	 edx, ecx
  003c4	c1 fa 06	 sar	 edx, 6
  003c7	8b c2		 mov	 eax, edx
  003c9	c1 e8 1f	 shr	 eax, 31
  003cc	03 d0		 add	 edx, eax
  003ce	6b c2 7f	 imul	 eax, edx, 127		; 0000007fH
  003d1	2b c8		 sub	 ecx, eax

; 66   :                 m_buffer[i] = decrypt(m_buffer[i]);

  003d3	42 88 4c 05 b0	 mov	 BYTE PTR $T6[rbp+r8-168], cl
  003d8	49 ff c0	 inc	 r8
  003db	49 83 f8 0b	 cmp	 r8, 11
  003df	72 af		 jb	 SHORT $LL249@GetProcAdd
$LN248@GetProcAdd:

; 83   :     volatile bool m_isDecrypted = false;

  003e1	44 88 4d 9f	 mov	 BYTE PTR $T7[rbp-169], r9b
  003e5	c6 45 a0 17	 mov	 BYTE PTR $T7[rbp-168], 23
  003e9	c6 45 a1 71	 mov	 BYTE PTR $T7[rbp-167], 113 ; 00000071H
  003ed	c6 45 a2 47	 mov	 BYTE PTR $T7[rbp-166], 71 ; 00000047H
  003f1	c6 45 a3 6e	 mov	 BYTE PTR $T7[rbp-165], 110 ; 0000006eH
  003f5	c6 45 a4 30	 mov	 BYTE PTR $T7[rbp-164], 48 ; 00000030H
  003f9	c6 45 a5 2d	 mov	 BYTE PTR $T7[rbp-163], 45 ; 0000002dH
  003fd	c6 45 a6 21	 mov	 BYTE PTR $T7[rbp-162], 33 ; 00000021H
  00401	c6 45 a7 44	 mov	 BYTE PTR $T7[rbp-161], 68 ; 00000044H
  00405	c6 45 a8 5c	 mov	 BYTE PTR $T7[rbp-160], 92 ; 0000005cH
  00409	c6 45 a9 5c	 mov	 BYTE PTR $T7[rbp-159], 92 ; 0000005cH
  0040d	c6 45 aa 16	 mov	 BYTE PTR $T7[rbp-158], 22
  00411	0f b6 45 a0	 movzx	 eax, BYTE PTR $T7[rbp-168]

; 58   :         return m_isDecrypted;

  00415	0f b6 45 9f	 movzx	 eax, BYTE PTR $T7[rbp-169]

; 63   :         if (!isDecrypted())

  00419	84 c0		 test	 al, al
  0041b	75 54		 jne	 SHORT $LN284@GetProcAdd

; 64   :         {
; 65   :             for (size_t i = 0; i < sizeof...(Ints); ++i)

  0041d	4d 8b c1	 mov	 r8, r9
$LL285@GetProcAdd:

; 66   :                 m_buffer[i] = decrypt(m_buffer[i]);

  00420	42 0f b6 4c 05
	a0		 movzx	 ecx, BYTE PTR $T7[rbp+r8-168]

; 80   :         return positive_modulo(ExtendedEuclidian<127, A>::y * (byte - B), 127);

  00426	b8 16 00 00 00	 mov	 eax, 22
  0042b	2b c1		 sub	 eax, ecx
  0042d	6b c8 2a	 imul	 ecx, eax, 42		; 0000002aH

; 40   :     return (a % n + n) % n;

  00430	b8 09 04 02 81	 mov	 eax, -2130574327	; ffffffff81020409H
  00435	f7 e9		 imul	 ecx
  00437	03 d1		 add	 edx, ecx
  00439	c1 fa 06	 sar	 edx, 6
  0043c	8b c2		 mov	 eax, edx
  0043e	c1 e8 1f	 shr	 eax, 31
  00441	03 d0		 add	 edx, eax
  00443	6b c2 7f	 imul	 eax, edx, 127		; 0000007fH
  00446	2b c8		 sub	 ecx, eax
  00448	b8 09 04 02 81	 mov	 eax, -2130574327	; ffffffff81020409H
  0044d	83 c1 7f	 add	 ecx, 127		; 0000007fH
  00450	f7 e9		 imul	 ecx
  00452	03 d1		 add	 edx, ecx
  00454	c1 fa 06	 sar	 edx, 6
  00457	8b c2		 mov	 eax, edx
  00459	c1 e8 1f	 shr	 eax, 31
  0045c	03 d0		 add	 edx, eax
  0045e	6b c2 7f	 imul	 eax, edx, 127		; 0000007fH
  00461	2b c8		 sub	 ecx, eax

; 66   :                 m_buffer[i] = decrypt(m_buffer[i]);

  00463	42 88 4c 05 a0	 mov	 BYTE PTR $T7[rbp+r8-168], cl
  00468	49 ff c0	 inc	 r8
  0046b	49 83 f8 0b	 cmp	 r8, 11
  0046f	72 af		 jb	 SHORT $LL285@GetProcAdd
$LN284@GetProcAdd:

; 83   :     volatile bool m_isDecrypted = false;

  00471	44 88 4d bf	 mov	 BYTE PTR $T8[rbp-169], r9b
  00475	c6 45 c0 24	 mov	 BYTE PTR $T8[rbp-168], 36 ; 00000024H
  00479	c6 45 c1 2d	 mov	 BYTE PTR $T8[rbp-167], 45 ; 0000002dH
  0047d	c6 45 c2 53	 mov	 BYTE PTR $T8[rbp-166], 83 ; 00000053H
  00481	c6 45 c3 7c	 mov	 BYTE PTR $T8[rbp-165], 124 ; 0000007cH
  00485	c6 45 c4 2a	 mov	 BYTE PTR $T8[rbp-164], 42 ; 0000002aH
  00489	c6 45 c5 79	 mov	 BYTE PTR $T8[rbp-163], 121 ; 00000079H
  0048d	c6 45 c6 76	 mov	 BYTE PTR $T8[rbp-162], 118 ; 00000076H
  00491	c6 45 c7 02	 mov	 BYTE PTR $T8[rbp-161], 2
  00495	c6 45 c8 07	 mov	 BYTE PTR $T8[rbp-160], 7
  00499	c6 45 c9 53	 mov	 BYTE PTR $T8[rbp-159], 83 ; 00000053H
  0049d	c6 45 ca 53	 mov	 BYTE PTR $T8[rbp-158], 83 ; 00000053H
  004a1	c6 45 cb 49	 mov	 BYTE PTR $T8[rbp-157], 73 ; 00000049H
  004a5	0f b6 45 c0	 movzx	 eax, BYTE PTR $T8[rbp-168]

; 58   :         return m_isDecrypted;

  004a9	0f b6 45 bf	 movzx	 eax, BYTE PTR $T8[rbp-169]

; 63   :         if (!isDecrypted())

  004ad	84 c0		 test	 al, al
  004af	75 63		 jne	 SHORT $LN322@GetProcAdd

; 64   :         {
; 65   :             for (size_t i = 0; i < sizeof...(Ints); ++i)

  004b1	4d 8b c1	 mov	 r8, r9
  004b4	0f 1f 40 00 0f
	1f 84 00 00 00
	00 00		 npad	 12
$LL323@GetProcAdd:

; 66   :                 m_buffer[i] = decrypt(m_buffer[i]);

  004c0	42 0f b6 4c 05
	c0		 movzx	 ecx, BYTE PTR $T8[rbp+r8-168]

; 80   :         return positive_modulo(ExtendedEuclidian<127, A>::y * (byte - B), 127);

  004c6	b8 49 00 00 00	 mov	 eax, 73			; 00000049H
  004cb	2b c1		 sub	 eax, ecx
  004cd	8d 0c 80	 lea	 ecx, DWORD PTR [rax+rax*4]

; 40   :     return (a % n + n) % n;

  004d0	b8 09 04 02 81	 mov	 eax, -2130574327	; ffffffff81020409H

; 80   :         return positive_modulo(ExtendedEuclidian<127, A>::y * (byte - B), 127);

  004d5	c1 e1 03	 shl	 ecx, 3

; 40   :     return (a % n + n) % n;

  004d8	f7 e9		 imul	 ecx
  004da	03 d1		 add	 edx, ecx
  004dc	c1 fa 06	 sar	 edx, 6
  004df	8b c2		 mov	 eax, edx
  004e1	c1 e8 1f	 shr	 eax, 31
  004e4	03 d0		 add	 edx, eax
  004e6	6b c2 7f	 imul	 eax, edx, 127		; 0000007fH
  004e9	2b c8		 sub	 ecx, eax
  004eb	b8 09 04 02 81	 mov	 eax, -2130574327	; ffffffff81020409H
  004f0	83 c1 7f	 add	 ecx, 127		; 0000007fH
  004f3	f7 e9		 imul	 ecx
  004f5	03 d1		 add	 edx, ecx
  004f7	c1 fa 06	 sar	 edx, 6
  004fa	8b c2		 mov	 eax, edx
  004fc	c1 e8 1f	 shr	 eax, 31
  004ff	03 d0		 add	 edx, eax
  00501	6b c2 7f	 imul	 eax, edx, 127		; 0000007fH
  00504	2b c8		 sub	 ecx, eax

; 66   :                 m_buffer[i] = decrypt(m_buffer[i]);

  00506	42 88 4c 05 c0	 mov	 BYTE PTR $T8[rbp+r8-168], cl
  0050b	49 ff c0	 inc	 r8
  0050e	49 83 f8 0c	 cmp	 r8, 12
  00512	72 ac		 jb	 SHORT $LL323@GetProcAdd
$LN322@GetProcAdd:

; 83   :     volatile bool m_isDecrypted = false;

  00514	44 88 4d cf	 mov	 BYTE PTR $T9[rbp-169], r9b
  00518	c6 45 d0 4f	 mov	 BYTE PTR $T9[rbp-168], 79 ; 0000004fH
  0051c	c6 45 d1 61	 mov	 BYTE PTR $T9[rbp-167], 97 ; 00000061H
  00520	c6 45 d2 28	 mov	 BYTE PTR $T9[rbp-166], 40 ; 00000028H
  00524	c6 45 d3 2e	 mov	 BYTE PTR $T9[rbp-165], 46 ; 0000002eH
  00528	c6 45 d4 2e	 mov	 BYTE PTR $T9[rbp-164], 46 ; 0000002eH
  0052c	c6 45 d5 6a	 mov	 BYTE PTR $T9[rbp-163], 106 ; 0000006aH
  00530	c6 45 d6 57	 mov	 BYTE PTR $T9[rbp-162], 87 ; 00000057H
  00534	c6 45 d7 0b	 mov	 BYTE PTR $T9[rbp-161], 11
  00538	c6 45 d8 15	 mov	 BYTE PTR $T9[rbp-160], 21
  0053c	c6 45 d9 2e	 mov	 BYTE PTR $T9[rbp-159], 46 ; 0000002eH
  00540	c6 45 da 2e	 mov	 BYTE PTR $T9[rbp-158], 46 ; 0000002eH
  00544	c6 45 db 1a	 mov	 BYTE PTR $T9[rbp-157], 26
  00548	0f b6 45 d0	 movzx	 eax, BYTE PTR $T9[rbp-168]

; 58   :         return m_isDecrypted;

  0054c	0f b6 45 cf	 movzx	 eax, BYTE PTR $T9[rbp-169]

; 63   :         if (!isDecrypted())

  00550	84 c0		 test	 al, al
  00552	75 60		 jne	 SHORT $LN360@GetProcAdd

; 64   :         {
; 65   :             for (size_t i = 0; i < sizeof...(Ints); ++i)

  00554	4d 8b c1	 mov	 r8, r9
  00557	66 0f 1f 84 00
	00 00 00 00	 npad	 9
$LL361@GetProcAdd:

; 66   :                 m_buffer[i] = decrypt(m_buffer[i]);

  00560	42 0f b6 4c 05
	d0		 movzx	 ecx, BYTE PTR $T9[rbp+r8-168]

; 80   :         return positive_modulo(ExtendedEuclidian<127, A>::y * (byte - B), 127);

  00566	b8 1a 00 00 00	 mov	 eax, 26
  0056b	2b c1		 sub	 eax, ecx
  0056d	8d 0c 80	 lea	 ecx, DWORD PTR [rax+rax*4]

; 40   :     return (a % n + n) % n;

  00570	b8 09 04 02 81	 mov	 eax, -2130574327	; ffffffff81020409H

; 80   :         return positive_modulo(ExtendedEuclidian<127, A>::y * (byte - B), 127);

  00575	c1 e1 02	 shl	 ecx, 2

; 40   :     return (a % n + n) % n;

  00578	f7 e9		 imul	 ecx
  0057a	03 d1		 add	 edx, ecx
  0057c	c1 fa 06	 sar	 edx, 6
  0057f	8b c2		 mov	 eax, edx
  00581	c1 e8 1f	 shr	 eax, 31
  00584	03 d0		 add	 edx, eax
  00586	6b c2 7f	 imul	 eax, edx, 127		; 0000007fH
  00589	2b c8		 sub	 ecx, eax
  0058b	b8 09 04 02 81	 mov	 eax, -2130574327	; ffffffff81020409H
  00590	83 c1 7f	 add	 ecx, 127		; 0000007fH
  00593	f7 e9		 imul	 ecx
  00595	03 d1		 add	 edx, ecx
  00597	c1 fa 06	 sar	 edx, 6
  0059a	8b c2		 mov	 eax, edx
  0059c	c1 e8 1f	 shr	 eax, 31
  0059f	03 d0		 add	 edx, eax
  005a1	6b c2 7f	 imul	 eax, edx, 127		; 0000007fH
  005a4	2b c8		 sub	 ecx, eax

; 66   :                 m_buffer[i] = decrypt(m_buffer[i]);

  005a6	42 88 4c 05 d0	 mov	 BYTE PTR $T9[rbp+r8-168], cl
  005ab	49 ff c0	 inc	 r8
  005ae	49 83 f8 0c	 cmp	 r8, 12
  005b2	72 ac		 jb	 SHORT $LL361@GetProcAdd
$LN360@GetProcAdd:

; 83   :     volatile bool m_isDecrypted = false;

  005b4	44 88 4c 24 28	 mov	 BYTE PTR $T10[rsp], r9b
  005b9	c6 45 80 0b	 mov	 BYTE PTR $T10[rbp-168], 11
  005bd	c6 45 81 47	 mov	 BYTE PTR $T10[rbp-167], 71 ; 00000047H
  005c1	c6 45 82 27	 mov	 BYTE PTR $T10[rbp-166], 39 ; 00000027H
  005c5	c6 45 83 0a	 mov	 BYTE PTR $T10[rbp-165], 10
  005c9	c6 45 84 4e	 mov	 BYTE PTR $T10[rbp-164], 78 ; 0000004eH
  005cd	c6 45 85 60	 mov	 BYTE PTR $T10[rbp-163], 96 ; 00000060H
  005d1	c6 45 86 6b	 mov	 BYTE PTR $T10[rbp-162], 107 ; 0000006bH
  005d5	c6 45 87 47	 mov	 BYTE PTR $T10[rbp-161], 71 ; 00000047H
  005d9	c6 45 88 47	 mov	 BYTE PTR $T10[rbp-160], 71 ; 00000047H
  005dd	c6 45 89 31	 mov	 BYTE PTR $T10[rbp-159], 49 ; 00000031H
  005e1	0f b6 45 80	 movzx	 eax, BYTE PTR $T10[rbp-168]

; 58   :         return m_isDecrypted;

  005e5	0f b6 44 24 28	 movzx	 eax, BYTE PTR $T10[rsp]

; 63   :         if (!isDecrypted())

  005ea	84 c0		 test	 al, al
  005ec	75 58		 jne	 SHORT $LN394@GetProcAdd

; 64   :         {
; 65   :             for (size_t i = 0; i < sizeof...(Ints); ++i)

  005ee	4d 8b d1	 mov	 r10, r9
$LL395@GetProcAdd:

; 66   :                 m_buffer[i] = decrypt(m_buffer[i]);

  005f1	42 0f b6 4c 15
	80		 movzx	 ecx, BYTE PTR $T10[rbp+r10-168]

; 40   :     return (a % n + n) % n;

  005f7	b8 09 04 02 81	 mov	 eax, -2130574327	; ffffffff81020409H

; 80   :         return positive_modulo(ExtendedEuclidian<127, A>::y * (byte - B), 127);

  005fc	83 e9 31	 sub	 ecx, 49			; 00000031H
  005ff	44 6b c1 1c	 imul	 r8d, ecx, 28

; 40   :     return (a % n + n) % n;

  00603	41 f7 e8	 imul	 r8d
  00606	41 03 d0	 add	 edx, r8d
  00609	c1 fa 06	 sar	 edx, 6
  0060c	8b c2		 mov	 eax, edx
  0060e	c1 e8 1f	 shr	 eax, 31
  00611	03 d0		 add	 edx, eax
  00613	6b c2 7f	 imul	 eax, edx, 127		; 0000007fH
  00616	44 2b c0	 sub	 r8d, eax
  00619	b8 09 04 02 81	 mov	 eax, -2130574327	; ffffffff81020409H
  0061e	41 83 c0 7f	 add	 r8d, 127		; 0000007fH
  00622	41 f7 e8	 imul	 r8d
  00625	41 03 d0	 add	 edx, r8d
  00628	c1 fa 06	 sar	 edx, 6
  0062b	8b c2		 mov	 eax, edx
  0062d	c1 e8 1f	 shr	 eax, 31
  00630	03 d0		 add	 edx, eax
  00632	6b c2 7f	 imul	 eax, edx, 127		; 0000007fH
  00635	44 2b c0	 sub	 r8d, eax

; 66   :                 m_buffer[i] = decrypt(m_buffer[i]);

  00638	46 88 44 15 80	 mov	 BYTE PTR $T10[rbp+r10-168], r8b
  0063d	49 ff c2	 inc	 r10
  00640	49 83 fa 0a	 cmp	 r10, 10
  00644	72 ab		 jb	 SHORT $LL395@GetProcAdd
$LN394@GetProcAdd:

; 83   :     volatile bool m_isDecrypted = false;

  00646	44 88 4d 2f	 mov	 BYTE PTR $T11[rbp-169], r9b
  0064a	c6 45 30 68	 mov	 BYTE PTR $T11[rbp-168], 104 ; 00000068H
  0064e	c6 45 31 12	 mov	 BYTE PTR $T11[rbp-167], 18
  00652	c6 45 32 1e	 mov	 BYTE PTR $T11[rbp-166], 30
  00656	c6 45 33 01	 mov	 BYTE PTR $T11[rbp-165], 1
  0065a	c6 45 34 39	 mov	 BYTE PTR $T11[rbp-164], 57 ; 00000039H
  0065e	c6 45 35 5f	 mov	 BYTE PTR $T11[rbp-163], 95 ; 0000005fH
  00662	c6 45 36 19	 mov	 BYTE PTR $T11[rbp-162], 25
  00666	c6 45 37 3f	 mov	 BYTE PTR $T11[rbp-161], 63 ; 0000003fH
  0066a	c6 45 38 58	 mov	 BYTE PTR $T11[rbp-160], 88 ; 00000058H
  0066e	c6 45 39 44	 mov	 BYTE PTR $T11[rbp-159], 68 ; 00000044H
  00672	c6 45 3a 12	 mov	 BYTE PTR $T11[rbp-158], 18
  00676	c6 45 3b 12	 mov	 BYTE PTR $T11[rbp-157], 18
  0067a	c6 45 3c 3a	 mov	 BYTE PTR $T11[rbp-156], 58 ; 0000003aH
  0067e	0f b6 45 30	 movzx	 eax, BYTE PTR $T11[rbp-168]

; 58   :         return m_isDecrypted;

  00682	0f b6 45 2f	 movzx	 eax, BYTE PTR $T11[rbp-169]

; 63   :         if (!isDecrypted())

  00686	84 c0		 test	 al, al
  00688	75 5e		 jne	 SHORT $LN434@GetProcAdd

; 64   :         {
; 65   :             for (size_t i = 0; i < sizeof...(Ints); ++i)

  0068a	4d 8b d1	 mov	 r10, r9
  0068d	0f 1f 00	 npad	 3
$LL435@GetProcAdd:

; 66   :                 m_buffer[i] = decrypt(m_buffer[i]);

  00690	42 0f b6 4c 15
	30		 movzx	 ecx, BYTE PTR $T11[rbp+r10-168]

; 40   :     return (a % n + n) % n;

  00696	b8 09 04 02 81	 mov	 eax, -2130574327	; ffffffff81020409H

; 80   :         return positive_modulo(ExtendedEuclidian<127, A>::y * (byte - B), 127);

  0069b	83 e9 3a	 sub	 ecx, 58			; 0000003aH
  0069e	44 8d 04 89	 lea	 r8d, DWORD PTR [rcx+rcx*4]
  006a2	45 03 c0	 add	 r8d, r8d

; 40   :     return (a % n + n) % n;

  006a5	41 f7 e8	 imul	 r8d
  006a8	41 03 d0	 add	 edx, r8d
  006ab	c1 fa 06	 sar	 edx, 6
  006ae	8b c2		 mov	 eax, edx
  006b0	c1 e8 1f	 shr	 eax, 31
  006b3	03 d0		 add	 edx, eax
  006b5	6b c2 7f	 imul	 eax, edx, 127		; 0000007fH
  006b8	44 2b c0	 sub	 r8d, eax
  006bb	b8 09 04 02 81	 mov	 eax, -2130574327	; ffffffff81020409H
  006c0	41 83 c0 7f	 add	 r8d, 127		; 0000007fH
  006c4	41 f7 e8	 imul	 r8d
  006c7	41 03 d0	 add	 edx, r8d
  006ca	c1 fa 06	 sar	 edx, 6
  006cd	8b c2		 mov	 eax, edx
  006cf	c1 e8 1f	 shr	 eax, 31
  006d2	03 d0		 add	 edx, eax
  006d4	6b c2 7f	 imul	 eax, edx, 127		; 0000007fH
  006d7	44 2b c0	 sub	 r8d, eax

; 66   :                 m_buffer[i] = decrypt(m_buffer[i]);

  006da	46 88 44 15 30	 mov	 BYTE PTR $T11[rbp+r10-168], r8b
  006df	49 ff c2	 inc	 r10
  006e2	49 83 fa 0d	 cmp	 r10, 13
  006e6	72 a8		 jb	 SHORT $LL435@GetProcAdd
$LN434@GetProcAdd:

; 83   :     volatile bool m_isDecrypted = false;

  006e8	44 88 4d 8f	 mov	 BYTE PTR $T12[rbp-169], r9b
  006ec	c6 45 90 51	 mov	 BYTE PTR $T12[rbp-168], 81 ; 00000051H
  006f0	c6 45 91 47	 mov	 BYTE PTR $T12[rbp-167], 71 ; 00000047H
  006f4	c6 45 92 0d	 mov	 BYTE PTR $T12[rbp-166], 13
  006f8	c6 45 93 2a	 mov	 BYTE PTR $T12[rbp-165], 42 ; 0000002aH
  006fc	c6 45 94 2a	 mov	 BYTE PTR $T12[rbp-164], 42 ; 0000002aH
  00700	c6 45 95 67	 mov	 BYTE PTR $T12[rbp-163], 103 ; 00000067H
  00704	c6 45 96 0d	 mov	 BYTE PTR $T12[rbp-162], 13
  00708	c6 45 97 2a	 mov	 BYTE PTR $T12[rbp-161], 42 ; 0000002aH
  0070c	c6 45 98 2a	 mov	 BYTE PTR $T12[rbp-160], 42 ; 0000002aH
  00710	c6 45 99 5f	 mov	 BYTE PTR $T12[rbp-159], 95 ; 0000005fH
  00714	0f b6 45 90	 movzx	 eax, BYTE PTR $T12[rbp-168]

; 58   :         return m_isDecrypted;

  00718	0f b6 45 8f	 movzx	 eax, BYTE PTR $T12[rbp-169]

; 63   :         if (!isDecrypted())

  0071c	84 c0		 test	 al, al
  0071e	75 51		 jne	 SHORT $LN468@GetProcAdd
$LL469@GetProcAdd:

; 66   :                 m_buffer[i] = decrypt(m_buffer[i]);

  00720	42 0f b6 4c 0d
	90		 movzx	 ecx, BYTE PTR $T12[rbp+r9-168]

; 80   :         return positive_modulo(ExtendedEuclidian<127, A>::y * (byte - B), 127);

  00726	b8 5f 00 00 00	 mov	 eax, 95			; 0000005fH
  0072b	2b c1		 sub	 eax, ecx
  0072d	6b c8 1a	 imul	 ecx, eax, 26

; 40   :     return (a % n + n) % n;

  00730	b8 09 04 02 81	 mov	 eax, -2130574327	; ffffffff81020409H
  00735	f7 e9		 imul	 ecx
  00737	03 d1		 add	 edx, ecx
  00739	c1 fa 06	 sar	 edx, 6
  0073c	8b c2		 mov	 eax, edx
  0073e	c1 e8 1f	 shr	 eax, 31
  00741	03 d0		 add	 edx, eax
  00743	6b c2 7f	 imul	 eax, edx, 127		; 0000007fH
  00746	2b c8		 sub	 ecx, eax
  00748	b8 09 04 02 81	 mov	 eax, -2130574327	; ffffffff81020409H
  0074d	83 c1 7f	 add	 ecx, 127		; 0000007fH
  00750	f7 e9		 imul	 ecx
  00752	03 d1		 add	 edx, ecx
  00754	c1 fa 06	 sar	 edx, 6
  00757	8b c2		 mov	 eax, edx
  00759	c1 e8 1f	 shr	 eax, 31
  0075c	03 d0		 add	 edx, eax
  0075e	6b c2 7f	 imul	 eax, edx, 127		; 0000007fH
  00761	2b c8		 sub	 ecx, eax

; 66   :                 m_buffer[i] = decrypt(m_buffer[i]);

  00763	42 88 4c 0d 90	 mov	 BYTE PTR $T12[rbp+r9-168], cl
  00768	49 ff c1	 inc	 r9
  0076b	49 83 f9 0a	 cmp	 r9, 10
  0076f	72 af		 jb	 SHORT $LL469@GetProcAdd
$LN468@GetProcAdd:
; File C:\Users\admin-z10\Desktop\conti_v3\cryptor\api\getapi.cpp

; 574  : 	if (ModuleName)

  00771	4d 85 db	 test	 r11, r11
  00774	0f 84 92 02 00
	00		 je	 $LN4@GetProcAdd
; File C:\Users\admin-z10\Desktop\conti_v3\cryptor\mrph.h

; 40   : 	volatile int _morph_var = static_cast<int>(1 + MetaRandom2<0, 0x7FFFFF - 1>::value);

  0077a	c7 44 24 20 c1
	9b 17 00	 mov	 DWORD PTR _morph_var$15[rsp], 1547201 ; 00179bc1H

; 48   : 	if (_morph_var % 3) {

  00782	b8 56 55 55 55	 mov	 eax, 1431655766		; 55555556H
  00787	8b 4c 24 20	 mov	 ecx, DWORD PTR _morph_var$15[rsp]
  0078b	bb 02 00 00 00	 mov	 ebx, 2
  00790	f7 e9		 imul	 ecx
  00792	8b c2		 mov	 eax, edx
  00794	c1 e8 1f	 shr	 eax, 31
  00797	03 d0		 add	 edx, eax
  00799	8d 04 52	 lea	 eax, DWORD PTR [rdx+rdx*2]
  0079c	3b c8		 cmp	 ecx, eax
  0079e	74 52		 je	 SHORT $LN489@GetProcAdd

; 49   : 		_morph_var += (int)a + 2;

  007a0	8b 4c 24 20	 mov	 ecx, DWORD PTR _morph_var$15[rsp]
  007a4	03 cb		 add	 ecx, ebx
  007a6	41 03 cb	 add	 ecx, r11d
  007a9	89 4c 24 20	 mov	 DWORD PTR _morph_var$15[rsp], ecx

; 50   : 		while (!(_morph_var % 4)) ++_morph_var;

  007ad	8b 44 24 20	 mov	 eax, DWORD PTR _morph_var$15[rsp]
  007b1	25 03 00 00 80	 and	 eax, -2147483645	; ffffffff80000003H
  007b6	7d 07		 jge	 SHORT $LN722@GetProcAdd
  007b8	ff c8		 dec	 eax
  007ba	83 c8 fc	 or	 eax, -4
  007bd	ff c0		 inc	 eax
$LN722@GetProcAdd:
  007bf	85 c0		 test	 eax, eax
  007c1	0f 85 7c 00 00
	00		 jne	 $LN488@GetProcAdd
  007c7	66 0f 1f 84 00
	00 00 00 00	 npad	 9
$LL481@GetProcAdd:
  007d0	8b 44 24 20	 mov	 eax, DWORD PTR _morph_var$15[rsp]
  007d4	ff c0		 inc	 eax
  007d6	89 44 24 20	 mov	 DWORD PTR _morph_var$15[rsp], eax
  007da	8b 44 24 20	 mov	 eax, DWORD PTR _morph_var$15[rsp]
  007de	25 03 00 00 80	 and	 eax, -2147483645	; ffffffff80000003H
  007e3	7d 07		 jge	 SHORT $LN721@GetProcAdd
  007e5	ff c8		 dec	 eax
  007e7	83 c8 fc	 or	 eax, -4
  007ea	ff c0		 inc	 eax
$LN721@GetProcAdd:
  007ec	85 c0		 test	 eax, eax
  007ee	74 e0		 je	 SHORT $LL481@GetProcAdd

; 51   : 	}

  007f0	eb 51		 jmp	 SHORT $LN488@GetProcAdd
$LN489@GetProcAdd:

; 52   : 	else if (_morph_var % 2) {

  007f2	8b 44 24 20	 mov	 eax, DWORD PTR _morph_var$15[rsp]

; 53   : 		_morph_var -= (int)a - 2;

  007f6	8b cb		 mov	 ecx, ebx
  007f8	8b 44 24 20	 mov	 eax, DWORD PTR _morph_var$15[rsp]
  007fc	41 2b cb	 sub	 ecx, r11d
  007ff	03 c8		 add	 ecx, eax

; 54   : 		while (!(_morph_var % 3)) ++_morph_var;

  00801	b8 56 55 55 55	 mov	 eax, 1431655766		; 55555556H
  00806	89 4c 24 20	 mov	 DWORD PTR _morph_var$15[rsp], ecx
  0080a	8b 4c 24 20	 mov	 ecx, DWORD PTR _morph_var$15[rsp]
  0080e	f7 e9		 imul	 ecx
  00810	8b c2		 mov	 eax, edx
  00812	c1 e8 1f	 shr	 eax, 31
  00815	03 d0		 add	 edx, eax
  00817	8d 04 52	 lea	 eax, DWORD PTR [rdx+rdx*2]
  0081a	3b c8		 cmp	 ecx, eax
  0081c	75 25		 jne	 SHORT $LN488@GetProcAdd
  0081e	66 90		 npad	 2
$LL483@GetProcAdd:
  00820	8b 44 24 20	 mov	 eax, DWORD PTR _morph_var$15[rsp]
  00824	ff c0		 inc	 eax
  00826	89 44 24 20	 mov	 DWORD PTR _morph_var$15[rsp], eax
  0082a	b8 56 55 55 55	 mov	 eax, 1431655766		; 55555556H
  0082f	8b 4c 24 20	 mov	 ecx, DWORD PTR _morph_var$15[rsp]
  00833	f7 e9		 imul	 ecx
  00835	8b c2		 mov	 eax, edx
  00837	c1 e8 1f	 shr	 eax, 31
  0083a	03 d0		 add	 edx, eax
  0083c	8d 04 52	 lea	 eax, DWORD PTR [rdx+rdx*2]
  0083f	3b c8		 cmp	 ecx, eax
  00841	74 dd		 je	 SHORT $LL483@GetProcAdd
$LN488@GetProcAdd:
; File C:\Users\admin-z10\Desktop\conti_v3\cryptor\api\getapi.cpp

; 579  : 		hModule = pLoadLibraryA(ModuleName);

  00843	49 8b cb	 mov	 rcx, r11
  00846	ff 15 00 00 00
	00		 call	 QWORD PTR ?pLoadLibraryA@@3P6APEAUHINSTANCE__@@PEBD@ZEA ; pLoadLibraryA
  0084c	4c 8b c8	 mov	 r9, rax
; File C:\Users\admin-z10\Desktop\conti_v3\cryptor\mrph.h

; 40   : 	volatile int _morph_var = static_cast<int>(1 + MetaRandom2<0, 0x7FFFFF - 1>::value);

  0084f	c7 44 24 20 c1
	9b 17 00	 mov	 DWORD PTR _morph_var$14[rsp], 1547201 ; 00179bc1H

; 48   : 	if (_morph_var % 3) {

  00857	44 8b 44 24 20	 mov	 r8d, DWORD PTR _morph_var$14[rsp]
  0085c	b8 56 55 55 55	 mov	 eax, 1431655766		; 55555556H
  00861	41 f7 e8	 imul	 r8d
  00864	8b ca		 mov	 ecx, edx
  00866	c1 e9 1f	 shr	 ecx, 31
  00869	03 d1		 add	 edx, ecx
  0086b	8d 0c 52	 lea	 ecx, DWORD PTR [rdx+rdx*2]
  0086e	44 3b c1	 cmp	 r8d, ecx
  00871	74 4f		 je	 SHORT $LN512@GetProcAdd

; 49   : 		_morph_var += (int)a + 2;

  00873	8b 4c 24 20	 mov	 ecx, DWORD PTR _morph_var$14[rsp]
  00877	03 cb		 add	 ecx, ebx
  00879	41 03 c9	 add	 ecx, r9d
  0087c	89 4c 24 20	 mov	 DWORD PTR _morph_var$14[rsp], ecx

; 50   : 		while (!(_morph_var % 4)) ++_morph_var;

  00880	8b 44 24 20	 mov	 eax, DWORD PTR _morph_var$14[rsp]
  00884	25 03 00 00 80	 and	 eax, -2147483645	; ffffffff80000003H
  00889	7d 07		 jge	 SHORT $LN719@GetProcAdd
  0088b	ff c8		 dec	 eax
  0088d	83 c8 fc	 or	 eax, -4
  00890	ff c0		 inc	 eax
$LN719@GetProcAdd:
  00892	85 c0		 test	 eax, eax
  00894	75 7d		 jne	 SHORT $LN511@GetProcAdd
  00896	66 66 0f 1f 84
	00 00 00 00 00	 npad	 10
$LL504@GetProcAdd:
  008a0	8b 44 24 20	 mov	 eax, DWORD PTR _morph_var$14[rsp]
  008a4	ff c0		 inc	 eax
  008a6	89 44 24 20	 mov	 DWORD PTR _morph_var$14[rsp], eax
  008aa	8b 44 24 20	 mov	 eax, DWORD PTR _morph_var$14[rsp]
  008ae	25 03 00 00 80	 and	 eax, -2147483645	; ffffffff80000003H
  008b3	7d 07		 jge	 SHORT $LN718@GetProcAdd
  008b5	ff c8		 dec	 eax
  008b7	83 c8 fc	 or	 eax, -4
  008ba	ff c0		 inc	 eax
$LN718@GetProcAdd:
  008bc	85 c0		 test	 eax, eax
  008be	74 e0		 je	 SHORT $LL504@GetProcAdd

; 51   : 	}

  008c0	eb 51		 jmp	 SHORT $LN511@GetProcAdd
$LN512@GetProcAdd:

; 52   : 	else if (_morph_var % 2) {

  008c2	8b 44 24 20	 mov	 eax, DWORD PTR _morph_var$14[rsp]

; 53   : 		_morph_var -= (int)a - 2;

  008c6	8b cb		 mov	 ecx, ebx
  008c8	8b 44 24 20	 mov	 eax, DWORD PTR _morph_var$14[rsp]
  008cc	41 2b c9	 sub	 ecx, r9d
  008cf	03 c8		 add	 ecx, eax

; 54   : 		while (!(_morph_var % 3)) ++_morph_var;

  008d1	b8 56 55 55 55	 mov	 eax, 1431655766		; 55555556H
  008d6	89 4c 24 20	 mov	 DWORD PTR _morph_var$14[rsp], ecx
  008da	8b 4c 24 20	 mov	 ecx, DWORD PTR _morph_var$14[rsp]
  008de	f7 e9		 imul	 ecx
  008e0	8b c2		 mov	 eax, edx
  008e2	c1 e8 1f	 shr	 eax, 31
  008e5	03 d0		 add	 edx, eax
  008e7	8d 04 52	 lea	 eax, DWORD PTR [rdx+rdx*2]
  008ea	3b c8		 cmp	 ecx, eax
  008ec	75 25		 jne	 SHORT $LN511@GetProcAdd
  008ee	66 90		 npad	 2
$LL506@GetProcAdd:
  008f0	8b 44 24 20	 mov	 eax, DWORD PTR _morph_var$14[rsp]
  008f4	ff c0		 inc	 eax
  008f6	89 44 24 20	 mov	 DWORD PTR _morph_var$14[rsp], eax
  008fa	b8 56 55 55 55	 mov	 eax, 1431655766		; 55555556H
  008ff	8b 4c 24 20	 mov	 ecx, DWORD PTR _morph_var$14[rsp]
  00903	f7 e9		 imul	 ecx
  00905	8b c2		 mov	 eax, edx
  00907	c1 e8 1f	 shr	 eax, 31
  0090a	03 d0		 add	 edx, eax
  0090c	8d 04 52	 lea	 eax, DWORD PTR [rdx+rdx*2]
  0090f	3b c8		 cmp	 ecx, eax
  00911	74 dd		 je	 SHORT $LL506@GetProcAdd
$LN511@GetProcAdd:
; File C:\Users\admin-z10\Desktop\conti_v3\cryptor\api\getapi.cpp

; 583  : 		if (hModule) {

  00913	4d 85 c9	 test	 r9, r9
  00916	0f 84 0d 03 00
	00		 je	 $LN19@GetProcAdd

; 584  : 
; 585  : 			ProcAddress = GetApiAddr(hModule, Hash, &ProcAddress);

  0091c	4c 8d 45 3f	 lea	 r8, QWORD PTR ProcAddress$[rbp-169]
  00920	8b d7		 mov	 edx, edi
  00922	49 8b c9	 mov	 rcx, r9
  00925	e8 00 00 00 00	 call	 ?GetApiAddr@@YA_KPEAUHINSTANCE__@@KPEA_K@Z ; GetApiAddr
  0092a	48 89 45 3f	 mov	 QWORD PTR ProcAddress$[rbp-169], rax
; File C:\Users\admin-z10\Desktop\conti_v3\cryptor\mrph.h

; 48   : 	if (_morph_var % 3) {

  0092e	b8 56 55 55 55	 mov	 eax, 1431655766		; 55555556H
  00933	c7 44 24 20 c1
	9b 17 00	 mov	 DWORD PTR _morph_var$16[rsp], 1547201 ; 00179bc1H
  0093b	8b 4c 24 20	 mov	 ecx, DWORD PTR _morph_var$16[rsp]
  0093f	f7 e9		 imul	 ecx
  00941	8b c2		 mov	 eax, edx
  00943	c1 e8 1f	 shr	 eax, 31
  00946	03 d0		 add	 edx, eax
  00948	8d 04 52	 lea	 eax, DWORD PTR [rdx+rdx*2]
  0094b	3b c8		 cmp	 ecx, eax
  0094d	74 5a		 je	 SHORT $LN533@GetProcAdd

; 49   : 		_morph_var += (int)a + 2;

  0094f	8b 4c 24 20	 mov	 ecx, DWORD PTR _morph_var$16[rsp]
  00953	8b 45 3f	 mov	 eax, DWORD PTR ProcAddress$[rbp-169]
  00956	03 c3		 add	 eax, ebx
  00958	03 c8		 add	 ecx, eax
  0095a	89 4c 24 20	 mov	 DWORD PTR _morph_var$16[rsp], ecx

; 50   : 		while (!(_morph_var % 4)) ++_morph_var;

  0095e	8b 44 24 20	 mov	 eax, DWORD PTR _morph_var$16[rsp]
  00962	25 03 00 00 80	 and	 eax, -2147483645	; ffffffff80000003H
  00967	7d 07		 jge	 SHORT $LN716@GetProcAdd
  00969	ff c8		 dec	 eax
  0096b	83 c8 fc	 or	 eax, -4
  0096e	ff c0		 inc	 eax
$LN716@GetProcAdd:
  00970	85 c0		 test	 eax, eax
  00972	0f 85 ab 02 00
	00		 jne	 $LN576@GetProcAdd
  00978	0f 1f 84 00 00
	00 00 00	 npad	 8
$LL525@GetProcAdd:
  00980	8b 44 24 20	 mov	 eax, DWORD PTR _morph_var$16[rsp]
  00984	ff c0		 inc	 eax
  00986	89 44 24 20	 mov	 DWORD PTR _morph_var$16[rsp], eax
  0098a	8b 44 24 20	 mov	 eax, DWORD PTR _morph_var$16[rsp]
  0098e	25 03 00 00 80	 and	 eax, -2147483645	; ffffffff80000003H
  00993	7d 07		 jge	 SHORT $LN715@GetProcAdd
  00995	ff c8		 dec	 eax
  00997	83 c8 fc	 or	 eax, -4
  0099a	ff c0		 inc	 eax
$LN715@GetProcAdd:
  0099c	85 c0		 test	 eax, eax
  0099e	74 e0		 je	 SHORT $LL525@GetProcAdd
; File C:\Users\admin-z10\Desktop\conti_v3\cryptor\api\getapi.cpp

; 665  : 			return (LPVOID)ProcAddress;

  009a0	48 8b 45 3f	 mov	 rax, QWORD PTR ProcAddress$[rbp-169]
  009a4	e9 82 02 00 00	 jmp	 $LN1@GetProcAdd
$LN533@GetProcAdd:
; File C:\Users\admin-z10\Desktop\conti_v3\cryptor\mrph.h

; 52   : 	else if (_morph_var % 2) {

  009a9	8b 44 24 20	 mov	 eax, DWORD PTR _morph_var$16[rsp]

; 53   : 		_morph_var -= (int)a - 2;

  009ad	8b 44 24 20	 mov	 eax, DWORD PTR _morph_var$16[rsp]
  009b1	2b 5d 3f	 sub	 ebx, DWORD PTR ProcAddress$[rbp-169]
  009b4	03 c3		 add	 eax, ebx
  009b6	89 44 24 20	 mov	 DWORD PTR _morph_var$16[rsp], eax

; 54   : 		while (!(_morph_var % 3)) ++_morph_var;

  009ba	b8 56 55 55 55	 mov	 eax, 1431655766		; 55555556H
  009bf	8b 4c 24 20	 mov	 ecx, DWORD PTR _morph_var$16[rsp]
  009c3	f7 e9		 imul	 ecx
  009c5	8b c2		 mov	 eax, edx
  009c7	c1 e8 1f	 shr	 eax, 31
  009ca	03 d0		 add	 edx, eax
  009cc	8d 04 52	 lea	 eax, DWORD PTR [rdx+rdx*2]
  009cf	3b c8		 cmp	 ecx, eax
  009d1	0f 85 4c 02 00
	00		 jne	 $LN576@GetProcAdd
  009d7	66 0f 1f 84 00
	00 00 00 00	 npad	 9
$LL527@GetProcAdd:
  009e0	8b 44 24 20	 mov	 eax, DWORD PTR _morph_var$16[rsp]
  009e4	ff c0		 inc	 eax
  009e6	89 44 24 20	 mov	 DWORD PTR _morph_var$16[rsp], eax
  009ea	b8 56 55 55 55	 mov	 eax, 1431655766		; 55555556H
  009ef	8b 4c 24 20	 mov	 ecx, DWORD PTR _morph_var$16[rsp]
  009f3	f7 e9		 imul	 ecx
  009f5	8b c2		 mov	 eax, edx
  009f7	c1 e8 1f	 shr	 eax, 31
  009fa	03 d0		 add	 edx, eax
  009fc	8d 04 52	 lea	 eax, DWORD PTR [rdx+rdx*2]
  009ff	3b c8		 cmp	 ecx, eax
  00a01	74 dd		 je	 SHORT $LL527@GetProcAdd
; File C:\Users\admin-z10\Desktop\conti_v3\cryptor\api\getapi.cpp

; 665  : 			return (LPVOID)ProcAddress;

  00a03	48 8b 45 3f	 mov	 rax, QWORD PTR ProcAddress$[rbp-169]
  00a07	e9 1f 02 00 00	 jmp	 $LN1@GetProcAdd
$LN4@GetProcAdd:

; 586  : 
; 587  : 			morphcode(ProcAddress);
; 588  : 
; 589  : 			return (LPVOID)ProcAddress;
; 590  : 
; 591  : 		}
; 592  : 
; 593  : 		return (LPVOID)0;
; 594  : 
; 595  : 	}
; 596  : 	else
; 597  : 	{
; 598  : 
; 599  : 		switch (ModuleId)

  00a0c	8d 43 f1	 lea	 eax, DWORD PTR [rbx-15]
  00a0f	83 f8 0b	 cmp	 eax, 11
  00a12	0f 87 11 02 00
	00		 ja	 $LN19@GetProcAdd
  00a18	48 8d 15 00 00
	00 00		 lea	 rdx, OFFSET FLAT:__ImageBase
  00a1f	8b 8c 82 00 00
	00 00		 mov	 ecx, DWORD PTR $LN713@GetProcAdd[rdx+rax*4]
  00a26	48 03 ca	 add	 rcx, rdx
  00a29	ff e1		 jmp	 rcx
$LN7@GetProcAdd:

; 600  : 		{
; 601  : 
; 602  : 		case KERNEL32_MODULE_ID:
; 603  : 			ModuleName = Kernel32DLL;

  00a2b	48 8d 4d e0	 lea	 rcx, QWORD PTR $T2[rbp-168]

; 604  : 			break;

  00a2f	eb 40		 jmp	 SHORT $LN2@GetProcAdd
$LN8@GetProcAdd:

; 605  : 
; 606  : 		case ADVAPI32_MODULE_ID:
; 607  : 			ModuleName = Advapi32DLL;

  00a31	48 8d 4d f0	 lea	 rcx, QWORD PTR $T1[rbp-168]

; 608  : 			break;

  00a35	eb 3a		 jmp	 SHORT $LN2@GetProcAdd
$LN9@GetProcAdd:

; 609  : 
; 610  : 		case NETAPI32_MODULE_ID:
; 611  : 			ModuleName = Netapi32DLL;

  00a37	48 8d 4d 00	 lea	 rcx, QWORD PTR $T3[rbp-168]

; 612  : 			break;

  00a3b	eb 34		 jmp	 SHORT $LN2@GetProcAdd
$LN10@GetProcAdd:

; 613  : 
; 614  : 		case IPHLPAPI_MODULE_ID:
; 615  : 			ModuleName = IphlpapiDLL;

  00a3d	48 8d 4d 10	 lea	 rcx, QWORD PTR $T4[rbp-168]

; 616  : 			break;

  00a41	eb 2e		 jmp	 SHORT $LN2@GetProcAdd
$LN11@GetProcAdd:

; 617  : 
; 618  : 		case RSTRTMGR_MODULE_ID:
; 619  : 			ModuleName = RstrtmgrDLL;

  00a43	48 8d 4d 20	 lea	 rcx, QWORD PTR $T5[rbp-168]

; 620  : 			break;

  00a47	eb 28		 jmp	 SHORT $LN2@GetProcAdd
$LN12@GetProcAdd:

; 621  : 
; 622  : 		case USER32_MODULE_ID:
; 623  : 			ModuleName = User32DLL;

  00a49	48 8d 4d a0	 lea	 rcx, QWORD PTR $T7[rbp-168]

; 624  : 			break;

  00a4d	eb 22		 jmp	 SHORT $LN2@GetProcAdd
$LN13@GetProcAdd:

; 625  : 
; 626  : 		case WS2_32_MODULE_ID:
; 627  : 			ModuleName = Ws2_32DLL;

  00a4f	48 8d 4d b0	 lea	 rcx, QWORD PTR $T6[rbp-168]

; 628  : 			break;

  00a53	eb 1c		 jmp	 SHORT $LN2@GetProcAdd
$LN14@GetProcAdd:

; 629  : 
; 630  : 		case SHLWAPI_MODULE_ID:
; 631  : 			ModuleName = ShlwapiDLL;

  00a55	48 8d 4d c0	 lea	 rcx, QWORD PTR $T8[rbp-168]

; 632  : 			break;

  00a59	eb 16		 jmp	 SHORT $LN2@GetProcAdd
$LN15@GetProcAdd:

; 633  : 
; 634  : 		case SHELL32_MODULE_ID:
; 635  : 			ModuleName = Shell32DLL;

  00a5b	48 8d 4d d0	 lea	 rcx, QWORD PTR $T9[rbp-168]

; 636  : 			break;

  00a5f	eb 10		 jmp	 SHORT $LN2@GetProcAdd
$LN16@GetProcAdd:

; 637  : 
; 638  : 		case OLE32_MODULE_ID:
; 639  : 			ModuleName = Ole32DLL;

  00a61	48 8d 4d 80	 lea	 rcx, QWORD PTR $T10[rbp-168]

; 640  : 			break;

  00a65	eb 0a		 jmp	 SHORT $LN2@GetProcAdd
$LN17@GetProcAdd:

; 641  : 
; 642  : 		case OLEAUT32_MODULE_ID:
; 643  : 			ModuleName = OleAut32DLL;

  00a67	48 8d 4d 30	 lea	 rcx, QWORD PTR $T11[rbp-168]

; 644  : 			break;

  00a6b	eb 04		 jmp	 SHORT $LN2@GetProcAdd
$LN18@GetProcAdd:

; 645  : 
; 646  : 		case NTDLL_MODULE_ID:
; 647  : 			ModuleName = NtdllDLL;

  00a6d	48 8d 4d 90	 lea	 rcx, QWORD PTR $T12[rbp-168]
$LN2@GetProcAdd:

; 655  : 		hModule = pLoadLibraryA(ModuleName);

  00a71	ff 15 00 00 00
	00		 call	 QWORD PTR ?pLoadLibraryA@@3P6APEAUHINSTANCE__@@PEBD@ZEA ; pLoadLibraryA
; File C:\Users\admin-z10\Desktop\conti_v3\cryptor\mrph.h

; 40   : 	volatile int _morph_var = static_cast<int>(1 + MetaRandom2<0, 0x7FFFFF - 1>::value);

  00a77	c7 44 24 20 c1
	9b 17 00	 mov	 DWORD PTR _morph_var$13[rsp], 1547201 ; 00179bc1H

; 48   : 	if (_morph_var % 3) {

  00a7f	bb 02 00 00 00	 mov	 ebx, 2
  00a84	44 8b 44 24 20	 mov	 r8d, DWORD PTR _morph_var$13[rsp]
; File C:\Users\admin-z10\Desktop\conti_v3\cryptor\api\getapi.cpp

; 655  : 		hModule = pLoadLibraryA(ModuleName);

  00a89	4c 8b c8	 mov	 r9, rax
; File C:\Users\admin-z10\Desktop\conti_v3\cryptor\mrph.h

; 48   : 	if (_morph_var % 3) {

  00a8c	b8 56 55 55 55	 mov	 eax, 1431655766		; 55555556H
  00a91	41 f7 e8	 imul	 r8d
  00a94	8b ca		 mov	 ecx, edx
  00a96	c1 e9 1f	 shr	 ecx, 31
  00a99	03 d1		 add	 edx, ecx
  00a9b	8d 0c 52	 lea	 ecx, DWORD PTR [rdx+rdx*2]
  00a9e	44 3b c1	 cmp	 r8d, ecx
  00aa1	74 4f		 je	 SHORT $LN556@GetProcAdd

; 49   : 		_morph_var += (int)a + 2;

  00aa3	8b 4c 24 20	 mov	 ecx, DWORD PTR _morph_var$13[rsp]
  00aa7	03 cb		 add	 ecx, ebx
  00aa9	41 03 c9	 add	 ecx, r9d
  00aac	89 4c 24 20	 mov	 DWORD PTR _morph_var$13[rsp], ecx

; 50   : 		while (!(_morph_var % 4)) ++_morph_var;

  00ab0	8b 44 24 20	 mov	 eax, DWORD PTR _morph_var$13[rsp]
  00ab4	25 03 00 00 80	 and	 eax, -2147483645	; ffffffff80000003H
  00ab9	7d 07		 jge	 SHORT $LN712@GetProcAdd
  00abb	ff c8		 dec	 eax
  00abd	83 c8 fc	 or	 eax, -4
  00ac0	ff c0		 inc	 eax
$LN712@GetProcAdd:
  00ac2	85 c0		 test	 eax, eax
  00ac4	75 7d		 jne	 SHORT $LN555@GetProcAdd
  00ac6	66 66 0f 1f 84
	00 00 00 00 00	 npad	 10
$LL548@GetProcAdd:
  00ad0	8b 44 24 20	 mov	 eax, DWORD PTR _morph_var$13[rsp]
  00ad4	ff c0		 inc	 eax
  00ad6	89 44 24 20	 mov	 DWORD PTR _morph_var$13[rsp], eax
  00ada	8b 44 24 20	 mov	 eax, DWORD PTR _morph_var$13[rsp]
  00ade	25 03 00 00 80	 and	 eax, -2147483645	; ffffffff80000003H
  00ae3	7d 07		 jge	 SHORT $LN711@GetProcAdd
  00ae5	ff c8		 dec	 eax
  00ae7	83 c8 fc	 or	 eax, -4
  00aea	ff c0		 inc	 eax
$LN711@GetProcAdd:
  00aec	85 c0		 test	 eax, eax
  00aee	74 e0		 je	 SHORT $LL548@GetProcAdd

; 51   : 	}

  00af0	eb 51		 jmp	 SHORT $LN555@GetProcAdd
$LN556@GetProcAdd:

; 52   : 	else if (_morph_var % 2) {

  00af2	8b 44 24 20	 mov	 eax, DWORD PTR _morph_var$13[rsp]

; 53   : 		_morph_var -= (int)a - 2;

  00af6	8b cb		 mov	 ecx, ebx
  00af8	8b 44 24 20	 mov	 eax, DWORD PTR _morph_var$13[rsp]
  00afc	41 2b c9	 sub	 ecx, r9d
  00aff	03 c8		 add	 ecx, eax

; 54   : 		while (!(_morph_var % 3)) ++_morph_var;

  00b01	b8 56 55 55 55	 mov	 eax, 1431655766		; 55555556H
  00b06	89 4c 24 20	 mov	 DWORD PTR _morph_var$13[rsp], ecx
  00b0a	8b 4c 24 20	 mov	 ecx, DWORD PTR _morph_var$13[rsp]
  00b0e	f7 e9		 imul	 ecx
  00b10	8b c2		 mov	 eax, edx
  00b12	c1 e8 1f	 shr	 eax, 31
  00b15	03 d0		 add	 edx, eax
  00b17	8d 04 52	 lea	 eax, DWORD PTR [rdx+rdx*2]
  00b1a	3b c8		 cmp	 ecx, eax
  00b1c	75 25		 jne	 SHORT $LN555@GetProcAdd
  00b1e	66 90		 npad	 2
$LL550@GetProcAdd:
  00b20	8b 44 24 20	 mov	 eax, DWORD PTR _morph_var$13[rsp]
  00b24	ff c0		 inc	 eax
  00b26	89 44 24 20	 mov	 DWORD PTR _morph_var$13[rsp], eax
  00b2a	b8 56 55 55 55	 mov	 eax, 1431655766		; 55555556H
  00b2f	8b 4c 24 20	 mov	 ecx, DWORD PTR _morph_var$13[rsp]
  00b33	f7 e9		 imul	 ecx
  00b35	8b c2		 mov	 eax, edx
  00b37	c1 e8 1f	 shr	 eax, 31
  00b3a	03 d0		 add	 edx, eax
  00b3c	8d 04 52	 lea	 eax, DWORD PTR [rdx+rdx*2]
  00b3f	3b c8		 cmp	 ecx, eax
  00b41	74 dd		 je	 SHORT $LL550@GetProcAdd
$LN555@GetProcAdd:
; File C:\Users\admin-z10\Desktop\conti_v3\cryptor\api\getapi.cpp

; 659  : 		if (hModule) {

  00b43	4d 85 c9	 test	 r9, r9
  00b46	0f 84 dd 00 00
	00		 je	 $LN19@GetProcAdd

; 660  : 
; 661  : 			ProcAddress = GetApiAddr(hModule, Hash, &ProcAddress);

  00b4c	4c 8d 45 3f	 lea	 r8, QWORD PTR ProcAddress$[rbp-169]
  00b50	8b d7		 mov	 edx, edi
  00b52	49 8b c9	 mov	 rcx, r9
  00b55	e8 00 00 00 00	 call	 ?GetApiAddr@@YA_KPEAUHINSTANCE__@@KPEA_K@Z ; GetApiAddr
  00b5a	48 89 45 3f	 mov	 QWORD PTR ProcAddress$[rbp-169], rax
; File C:\Users\admin-z10\Desktop\conti_v3\cryptor\mrph.h

; 48   : 	if (_morph_var % 3) {

  00b5e	b8 56 55 55 55	 mov	 eax, 1431655766		; 55555556H
  00b63	c7 44 24 20 c1
	9b 17 00	 mov	 DWORD PTR _morph_var$17[rsp], 1547201 ; 00179bc1H
  00b6b	8b 4c 24 20	 mov	 ecx, DWORD PTR _morph_var$17[rsp]
  00b6f	f7 e9		 imul	 ecx
  00b71	8b c2		 mov	 eax, edx
  00b73	c1 e8 1f	 shr	 eax, 31
  00b76	03 d0		 add	 edx, eax
  00b78	8d 04 52	 lea	 eax, DWORD PTR [rdx+rdx*2]
  00b7b	3b c8		 cmp	 ecx, eax
  00b7d	74 57		 je	 SHORT $LN577@GetProcAdd

; 49   : 		_morph_var += (int)a + 2;

  00b7f	8b 4c 24 20	 mov	 ecx, DWORD PTR _morph_var$17[rsp]
  00b83	8b 45 3f	 mov	 eax, DWORD PTR ProcAddress$[rbp-169]
  00b86	03 c3		 add	 eax, ebx
  00b88	03 c8		 add	 ecx, eax
  00b8a	89 4c 24 20	 mov	 DWORD PTR _morph_var$17[rsp], ecx

; 50   : 		while (!(_morph_var % 4)) ++_morph_var;

  00b8e	8b 44 24 20	 mov	 eax, DWORD PTR _morph_var$17[rsp]
  00b92	25 03 00 00 80	 and	 eax, -2147483645	; ffffffff80000003H
  00b97	7d 07		 jge	 SHORT $LN709@GetProcAdd
  00b99	ff c8		 dec	 eax
  00b9b	83 c8 fc	 or	 eax, -4
  00b9e	ff c0		 inc	 eax
$LN709@GetProcAdd:
  00ba0	85 c0		 test	 eax, eax
  00ba2	75 7f		 jne	 SHORT $LN576@GetProcAdd
  00ba4	0f 1f 40 00 0f
	1f 84 00 00 00
	00 00		 npad	 12
$LL569@GetProcAdd:
  00bb0	8b 44 24 20	 mov	 eax, DWORD PTR _morph_var$17[rsp]
  00bb4	ff c0		 inc	 eax
  00bb6	89 44 24 20	 mov	 DWORD PTR _morph_var$17[rsp], eax
  00bba	8b 44 24 20	 mov	 eax, DWORD PTR _morph_var$17[rsp]
  00bbe	25 03 00 00 80	 and	 eax, -2147483645	; ffffffff80000003H
  00bc3	7d 07		 jge	 SHORT $LN708@GetProcAdd
  00bc5	ff c8		 dec	 eax
  00bc7	83 c8 fc	 or	 eax, -4
  00bca	ff c0		 inc	 eax
$LN708@GetProcAdd:
  00bcc	85 c0		 test	 eax, eax
  00bce	74 e0		 je	 SHORT $LL569@GetProcAdd
; File C:\Users\admin-z10\Desktop\conti_v3\cryptor\api\getapi.cpp

; 665  : 			return (LPVOID)ProcAddress;

  00bd0	48 8b 45 3f	 mov	 rax, QWORD PTR ProcAddress$[rbp-169]
  00bd4	eb 55		 jmp	 SHORT $LN1@GetProcAdd
$LN577@GetProcAdd:
; File C:\Users\admin-z10\Desktop\conti_v3\cryptor\mrph.h

; 52   : 	else if (_morph_var % 2) {

  00bd6	8b 44 24 20	 mov	 eax, DWORD PTR _morph_var$17[rsp]

; 53   : 		_morph_var -= (int)a - 2;

  00bda	8b 44 24 20	 mov	 eax, DWORD PTR _morph_var$17[rsp]
  00bde	2b 5d 3f	 sub	 ebx, DWORD PTR ProcAddress$[rbp-169]
  00be1	03 c3		 add	 eax, ebx
  00be3	89 44 24 20	 mov	 DWORD PTR _morph_var$17[rsp], eax

; 54   : 		while (!(_morph_var % 3)) ++_morph_var;

  00be7	b8 56 55 55 55	 mov	 eax, 1431655766		; 55555556H
  00bec	8b 4c 24 20	 mov	 ecx, DWORD PTR _morph_var$17[rsp]
  00bf0	f7 e9		 imul	 ecx
  00bf2	8b c2		 mov	 eax, edx
  00bf4	c1 e8 1f	 shr	 eax, 31
  00bf7	03 d0		 add	 edx, eax
  00bf9	8d 04 52	 lea	 eax, DWORD PTR [rdx+rdx*2]
  00bfc	3b c8		 cmp	 ecx, eax
  00bfe	75 23		 jne	 SHORT $LN576@GetProcAdd
$LL571@GetProcAdd:
  00c00	8b 44 24 20	 mov	 eax, DWORD PTR _morph_var$17[rsp]
  00c04	ff c0		 inc	 eax
  00c06	89 44 24 20	 mov	 DWORD PTR _morph_var$17[rsp], eax
  00c0a	b8 56 55 55 55	 mov	 eax, 1431655766		; 55555556H
  00c0f	8b 4c 24 20	 mov	 ecx, DWORD PTR _morph_var$17[rsp]
  00c13	f7 e9		 imul	 ecx
  00c15	8b c2		 mov	 eax, edx
  00c17	c1 e8 1f	 shr	 eax, 31
  00c1a	03 d0		 add	 edx, eax
  00c1c	8d 04 52	 lea	 eax, DWORD PTR [rdx+rdx*2]
  00c1f	3b c8		 cmp	 ecx, eax
  00c21	74 dd		 je	 SHORT $LL571@GetProcAdd
$LN576@GetProcAdd:
; File C:\Users\admin-z10\Desktop\conti_v3\cryptor\api\getapi.cpp

; 665  : 			return (LPVOID)ProcAddress;

  00c23	48 8b 45 3f	 mov	 rax, QWORD PTR ProcAddress$[rbp-169]
  00c27	eb 02		 jmp	 SHORT $LN1@GetProcAdd
$LN19@GetProcAdd:

; 648  : 			break;
; 649  : 
; 650  : 		default:
; 651  : 			return (LPVOID)0;

  00c29	33 c0		 xor	 eax, eax
$LN1@GetProcAdd:

; 666  : 
; 667  : 		}
; 668  : 
; 669  : 	}
; 670  : 
; 671  : 	return (LPVOID)0;
; 672  : }

  00c2b	48 8b 4d 47	 mov	 rcx, QWORD PTR __$ArrayPad$[rbp-169]
  00c2f	48 33 cc	 xor	 rcx, rsp
  00c32	e8 00 00 00 00	 call	 __security_check_cookie
  00c37	4c 8d 9c 24 00
	01 00 00	 lea	 r11, QWORD PTR [rsp+256]
  00c3f	49 8b 5b 18	 mov	 rbx, QWORD PTR [r11+24]
  00c43	49 8b 7b 28	 mov	 rdi, QWORD PTR [r11+40]
  00c47	49 8b e3	 mov	 rsp, r11
  00c4a	5d		 pop	 rbp
  00c4b	c3		 ret	 0
$LN713@GetProcAdd:
  00c4c	00 00 00 00	 DD	 $LN7@GetProcAdd
  00c50	00 00 00 00	 DD	 $LN8@GetProcAdd
  00c54	00 00 00 00	 DD	 $LN9@GetProcAdd
  00c58	00 00 00 00	 DD	 $LN10@GetProcAdd
  00c5c	00 00 00 00	 DD	 $LN11@GetProcAdd
  00c60	00 00 00 00	 DD	 $LN12@GetProcAdd
  00c64	00 00 00 00	 DD	 $LN13@GetProcAdd
  00c68	00 00 00 00	 DD	 $LN14@GetProcAdd
  00c6c	00 00 00 00	 DD	 $LN15@GetProcAdd
  00c70	00 00 00 00	 DD	 $LN16@GetProcAdd
  00c74	00 00 00 00	 DD	 $LN17@GetProcAdd
  00c78	00 00 00 00	 DD	 $LN18@GetProcAdd
?GetProcAddressEx@getapi@@YAPEAXPEBDKK@Z ENDP		; getapi::GetProcAddressEx
_TEXT	ENDS
; Function compile flags: /Ogtpy
; File C:\Users\admin-z10\Desktop\conti_v3\cryptor\obfuscation\MetaString.h
;	COMDAT ?decrypt@?$MetaBuffer@$0FD@$0FP@U?$integer_sequence@_K$0A@$00$01$02$03$04$05$06$07$08@std@@@@QEAAPEBDXZ
_TEXT	SEGMENT
this$ = 8
?decrypt@?$MetaBuffer@$0FD@$0FP@U?$integer_sequence@_K$0A@$00$01$02$03$04$05$06$07$08@std@@@@QEAAPEBDXZ PROC ; MetaBuffer<83,95,std::integer_sequence<unsigned __int64,0,1,2,3,4,5,6,7,8,9> >::decrypt, COMDAT

; 58   :         return m_isDecrypted;

  00000	0f b6 01	 movzx	 eax, BYTE PTR [rcx]
  00003	4c 8d 41 01	 lea	 r8, QWORD PTR [rcx+1]

; 63   :         if (!isDecrypted())

  00007	84 c0		 test	 al, al
  00009	75 64		 jne	 SHORT $LN17@decrypt

; 64   :         {
; 65   :             for (size_t i = 0; i < sizeof...(Ints); ++i)

  0000b	4d 8b c8	 mov	 r9, r8
  0000e	41 ba 0a 00 00
	00		 mov	 r10d, 10
  00014	0f 1f 40 00 0f
	1f 84 00 00 00
	00 00		 npad	 12
$LL4@decrypt:

; 66   :                 m_buffer[i] = decrypt(m_buffer[i]);

  00020	41 0f b6 09	 movzx	 ecx, BYTE PTR [r9]
  00024	4d 8d 49 01	 lea	 r9, QWORD PTR [r9+1]

; 80   :         return positive_modulo(ExtendedEuclidian<127, A>::y * (byte - B), 127);

  00028	b8 5f 00 00 00	 mov	 eax, 95			; 0000005fH
  0002d	2b c1		 sub	 eax, ecx
  0002f	6b c8 1a	 imul	 ecx, eax, 26

; 40   :     return (a % n + n) % n;

  00032	b8 09 04 02 81	 mov	 eax, -2130574327	; ffffffff81020409H
  00037	f7 e9		 imul	 ecx
  00039	03 d1		 add	 edx, ecx
  0003b	c1 fa 06	 sar	 edx, 6
  0003e	8b c2		 mov	 eax, edx
  00040	c1 e8 1f	 shr	 eax, 31
  00043	03 d0		 add	 edx, eax
  00045	6b c2 7f	 imul	 eax, edx, 127		; 0000007fH
  00048	2b c8		 sub	 ecx, eax
  0004a	b8 09 04 02 81	 mov	 eax, -2130574327	; ffffffff81020409H
  0004f	83 c1 7f	 add	 ecx, 127		; 0000007fH
  00052	f7 e9		 imul	 ecx
  00054	03 d1		 add	 edx, ecx
  00056	c1 fa 06	 sar	 edx, 6
  00059	8b c2		 mov	 eax, edx
  0005b	c1 e8 1f	 shr	 eax, 31
  0005e	03 d0		 add	 edx, eax
  00060	6b c2 7f	 imul	 eax, edx, 127		; 0000007fH
  00063	2b c8		 sub	 ecx, eax

; 66   :                 m_buffer[i] = decrypt(m_buffer[i]);

  00065	41 88 49 ff	 mov	 BYTE PTR [r9-1], cl
  00069	49 83 ea 01	 sub	 r10, 1
  0006d	75 b1		 jne	 SHORT $LL4@decrypt
$LN17@decrypt:

; 67   :         }
; 68   : 
; 69   :         return (const char*)m_buffer;
; 70   :     }

  0006f	49 8b c0	 mov	 rax, r8
  00072	c3		 ret	 0
?decrypt@?$MetaBuffer@$0FD@$0FP@U?$integer_sequence@_K$0A@$00$01$02$03$04$05$06$07$08@std@@@@QEAAPEBDXZ ENDP ; MetaBuffer<83,95,std::integer_sequence<unsigned __int64,0,1,2,3,4,5,6,7,8,9> >::decrypt
_TEXT	ENDS
; Function compile flags: /Ogtpy
; File C:\Users\admin-z10\Desktop\conti_v3\cryptor\obfuscation\MetaString.h
;	COMDAT ??0?$MetaBuffer@$0FD@$0FP@U?$integer_sequence@_K$0A@$00$01$02$03$04$05$06$07$08@std@@@@QEAA@PEBE@Z
_TEXT	SEGMENT
this$ = 8
data$dead$ = 16
??0?$MetaBuffer@$0FD@$0FP@U?$integer_sequence@_K$0A@$00$01$02$03$04$05$06$07$08@std@@@@QEAA@PEBE@Z PROC ; MetaBuffer<83,95,std::integer_sequence<unsigned __int64,0,1,2,3,4,5,6,7,8,9> >::MetaBuffer<83,95,std::integer_sequence<unsigned __int64,0,1,2,3,4,5,6,7,8,9> >, COMDAT

; 55   : 
; 56   :     inline bool isDecrypted() const
; 57   :     {
; 58   :         return m_isDecrypted;
; 59   :     }
; 60   : 
; 61   :     inline const char* decrypt()
; 62   :     {
; 63   :         if (!isDecrypted())
; 64   :         {
; 65   :             for (size_t i = 0; i < sizeof...(Ints); ++i)
; 66   :                 m_buffer[i] = decrypt(m_buffer[i]);
; 67   :         }
; 68   : 
; 69   :         return (const char*)m_buffer;
; 70   :     }
; 71   : 
; 72   : private:
; 73   :     constexpr unsigned char __forceinline encrypt(unsigned char byte) const
; 74   :     {
; 75   :         return (A * byte + B) % 127;
; 76   :     }
; 77   : 
; 78   :     constexpr unsigned char __forceinline decrypt(unsigned char byte) const
; 79   :     {
; 80   :         return positive_modulo(ExtendedEuclidian<127, A>::y * (byte - B), 127);
; 81   :     }
; 82   : 
; 83   :     volatile bool m_isDecrypted = false;

  00000	c6 01 00	 mov	 BYTE PTR [rcx], 0
  00003	c6 41 01 51	 mov	 BYTE PTR [rcx+1], 81	; 00000051H
  00007	c6 41 02 47	 mov	 BYTE PTR [rcx+2], 71	; 00000047H
  0000b	c6 41 03 0d	 mov	 BYTE PTR [rcx+3], 13
  0000f	c6 41 04 2a	 mov	 BYTE PTR [rcx+4], 42	; 0000002aH
  00013	c6 41 05 2a	 mov	 BYTE PTR [rcx+5], 42	; 0000002aH
  00017	c6 41 06 67	 mov	 BYTE PTR [rcx+6], 103	; 00000067H
  0001b	c6 41 07 0d	 mov	 BYTE PTR [rcx+7], 13
  0001f	c6 41 08 2a	 mov	 BYTE PTR [rcx+8], 42	; 0000002aH
  00023	c6 41 09 2a	 mov	 BYTE PTR [rcx+9], 42	; 0000002aH
  00027	c6 41 0a 5f	 mov	 BYTE PTR [rcx+10], 95	; 0000005fH
  0002b	0f b6 41 01	 movzx	 eax, BYTE PTR [rcx+1]
  0002f	48 8b c1	 mov	 rax, rcx
  00032	c3		 ret	 0
??0?$MetaBuffer@$0FD@$0FP@U?$integer_sequence@_K$0A@$00$01$02$03$04$05$06$07$08@std@@@@QEAA@PEBE@Z ENDP ; MetaBuffer<83,95,std::integer_sequence<unsigned __int64,0,1,2,3,4,5,6,7,8,9> >::MetaBuffer<83,95,std::integer_sequence<unsigned __int64,0,1,2,3,4,5,6,7,8,9> >
_TEXT	ENDS
; Function compile flags: /Ogtpy
; File C:\Users\admin-z10\Desktop\conti_v3\cryptor\obfuscation\MetaString.h
;	COMDAT ?decrypt@?$MetaBuffer@$0FJ@$0DK@U?$integer_sequence@_K$0A@$00$01$02$03$04$05$06$07$08$09$0L@$0M@@std@@@@QEAAPEBDXZ
_TEXT	SEGMENT
this$ = 8
?decrypt@?$MetaBuffer@$0FJ@$0DK@U?$integer_sequence@_K$0A@$00$01$02$03$04$05$06$07$08$09$0L@$0M@@std@@@@QEAAPEBDXZ PROC ; MetaBuffer<89,58,std::integer_sequence<unsigned __int64,0,1,2,3,4,5,6,7,8,9,10,11,12> >::decrypt, COMDAT

; 58   :         return m_isDecrypted;

  00000	0f b6 01	 movzx	 eax, BYTE PTR [rcx]
  00003	4c 8d 49 01	 lea	 r9, QWORD PTR [rcx+1]

; 63   :         if (!isDecrypted())

  00007	84 c0		 test	 al, al
  00009	75 6b		 jne	 SHORT $LN17@decrypt

; 64   :         {
; 65   :             for (size_t i = 0; i < sizeof...(Ints); ++i)

  0000b	4d 8b d1	 mov	 r10, r9
  0000e	41 bb 0d 00 00
	00		 mov	 r11d, 13
  00014	0f 1f 40 00 0f
	1f 84 00 00 00
	00 00		 npad	 12
$LL4@decrypt:

; 66   :                 m_buffer[i] = decrypt(m_buffer[i]);

  00020	41 0f b6 0a	 movzx	 ecx, BYTE PTR [r10]
  00024	4d 8d 52 01	 lea	 r10, QWORD PTR [r10+1]

; 80   :         return positive_modulo(ExtendedEuclidian<127, A>::y * (byte - B), 127);

  00028	83 e9 3a	 sub	 ecx, 58			; 0000003aH

; 40   :     return (a % n + n) % n;

  0002b	b8 09 04 02 81	 mov	 eax, -2130574327	; ffffffff81020409H

; 80   :         return positive_modulo(ExtendedEuclidian<127, A>::y * (byte - B), 127);

  00030	44 8d 04 89	 lea	 r8d, DWORD PTR [rcx+rcx*4]
  00034	45 03 c0	 add	 r8d, r8d

; 40   :     return (a % n + n) % n;

  00037	41 f7 e8	 imul	 r8d
  0003a	41 03 d0	 add	 edx, r8d
  0003d	c1 fa 06	 sar	 edx, 6
  00040	8b c2		 mov	 eax, edx
  00042	c1 e8 1f	 shr	 eax, 31
  00045	03 d0		 add	 edx, eax
  00047	6b c2 7f	 imul	 eax, edx, 127		; 0000007fH
  0004a	44 2b c0	 sub	 r8d, eax
  0004d	b8 09 04 02 81	 mov	 eax, -2130574327	; ffffffff81020409H
  00052	41 83 c0 7f	 add	 r8d, 127		; 0000007fH
  00056	41 f7 e8	 imul	 r8d
  00059	41 03 d0	 add	 edx, r8d
  0005c	c1 fa 06	 sar	 edx, 6
  0005f	8b c2		 mov	 eax, edx
  00061	c1 e8 1f	 shr	 eax, 31
  00064	03 d0		 add	 edx, eax
  00066	6b c2 7f	 imul	 eax, edx, 127		; 0000007fH
  00069	44 2b c0	 sub	 r8d, eax

; 66   :                 m_buffer[i] = decrypt(m_buffer[i]);

  0006c	45 88 42 ff	 mov	 BYTE PTR [r10-1], r8b
  00070	49 83 eb 01	 sub	 r11, 1
  00074	75 aa		 jne	 SHORT $LL4@decrypt
$LN17@decrypt:

; 67   :         }
; 68   : 
; 69   :         return (const char*)m_buffer;
; 70   :     }

  00076	49 8b c1	 mov	 rax, r9
  00079	c3		 ret	 0
?decrypt@?$MetaBuffer@$0FJ@$0DK@U?$integer_sequence@_K$0A@$00$01$02$03$04$05$06$07$08$09$0L@$0M@@std@@@@QEAAPEBDXZ ENDP ; MetaBuffer<89,58,std::integer_sequence<unsigned __int64,0,1,2,3,4,5,6,7,8,9,10,11,12> >::decrypt
_TEXT	ENDS
; Function compile flags: /Ogtpy
; File C:\Users\admin-z10\Desktop\conti_v3\cryptor\obfuscation\MetaString.h
;	COMDAT ??0?$MetaBuffer@$0FJ@$0DK@U?$integer_sequence@_K$0A@$00$01$02$03$04$05$06$07$08$09$0L@$0M@@std@@@@QEAA@PEBE@Z
_TEXT	SEGMENT
this$ = 8
data$dead$ = 16
??0?$MetaBuffer@$0FJ@$0DK@U?$integer_sequence@_K$0A@$00$01$02$03$04$05$06$07$08$09$0L@$0M@@std@@@@QEAA@PEBE@Z PROC ; MetaBuffer<89,58,std::integer_sequence<unsigned __int64,0,1,2,3,4,5,6,7,8,9,10,11,12> >::MetaBuffer<89,58,std::integer_sequence<unsigned __int64,0,1,2,3,4,5,6,7,8,9,10,11,12> >, COMDAT

; 55   : 
; 56   :     inline bool isDecrypted() const
; 57   :     {
; 58   :         return m_isDecrypted;
; 59   :     }
; 60   : 
; 61   :     inline const char* decrypt()
; 62   :     {
; 63   :         if (!isDecrypted())
; 64   :         {
; 65   :             for (size_t i = 0; i < sizeof...(Ints); ++i)
; 66   :                 m_buffer[i] = decrypt(m_buffer[i]);
; 67   :         }
; 68   : 
; 69   :         return (const char*)m_buffer;
; 70   :     }
; 71   : 
; 72   : private:
; 73   :     constexpr unsigned char __forceinline encrypt(unsigned char byte) const
; 74   :     {
; 75   :         return (A * byte + B) % 127;
; 76   :     }
; 77   : 
; 78   :     constexpr unsigned char __forceinline decrypt(unsigned char byte) const
; 79   :     {
; 80   :         return positive_modulo(ExtendedEuclidian<127, A>::y * (byte - B), 127);
; 81   :     }
; 82   : 
; 83   :     volatile bool m_isDecrypted = false;

  00000	c6 01 00	 mov	 BYTE PTR [rcx], 0
  00003	c6 41 01 68	 mov	 BYTE PTR [rcx+1], 104	; 00000068H
  00007	c6 41 02 12	 mov	 BYTE PTR [rcx+2], 18
  0000b	c6 41 03 1e	 mov	 BYTE PTR [rcx+3], 30
  0000f	c6 41 04 01	 mov	 BYTE PTR [rcx+4], 1
  00013	c6 41 05 39	 mov	 BYTE PTR [rcx+5], 57	; 00000039H
  00017	c6 41 06 5f	 mov	 BYTE PTR [rcx+6], 95	; 0000005fH
  0001b	c6 41 07 19	 mov	 BYTE PTR [rcx+7], 25
  0001f	c6 41 08 3f	 mov	 BYTE PTR [rcx+8], 63	; 0000003fH
  00023	c6 41 09 58	 mov	 BYTE PTR [rcx+9], 88	; 00000058H
  00027	c6 41 0a 44	 mov	 BYTE PTR [rcx+10], 68	; 00000044H
  0002b	c6 41 0b 12	 mov	 BYTE PTR [rcx+11], 18
  0002f	c6 41 0c 12	 mov	 BYTE PTR [rcx+12], 18
  00033	c6 41 0d 3a	 mov	 BYTE PTR [rcx+13], 58	; 0000003aH
  00037	0f b6 41 01	 movzx	 eax, BYTE PTR [rcx+1]
  0003b	48 8b c1	 mov	 rax, rcx
  0003e	c3		 ret	 0
??0?$MetaBuffer@$0FJ@$0DK@U?$integer_sequence@_K$0A@$00$01$02$03$04$05$06$07$08$09$0L@$0M@@std@@@@QEAA@PEBE@Z ENDP ; MetaBuffer<89,58,std::integer_sequence<unsigned __int64,0,1,2,3,4,5,6,7,8,9,10,11,12> >::MetaBuffer<89,58,std::integer_sequence<unsigned __int64,0,1,2,3,4,5,6,7,8,9,10,11,12> >
_TEXT	ENDS
; Function compile flags: /Ogtpy
; File C:\Users\admin-z10\Desktop\conti_v3\cryptor\obfuscation\MetaString.h
;	COMDAT ?decrypt@?$MetaBuffer@$0DL@$0DB@U?$integer_sequence@_K$0A@$00$01$02$03$04$05$06$07$08@std@@@@QEAAPEBDXZ
_TEXT	SEGMENT
this$ = 8
?decrypt@?$MetaBuffer@$0DL@$0DB@U?$integer_sequence@_K$0A@$00$01$02$03$04$05$06$07$08@std@@@@QEAAPEBDXZ PROC ; MetaBuffer<59,49,std::integer_sequence<unsigned __int64,0,1,2,3,4,5,6,7,8,9> >::decrypt, COMDAT

; 58   :         return m_isDecrypted;

  00000	0f b6 01	 movzx	 eax, BYTE PTR [rcx]
  00003	4c 8d 49 01	 lea	 r9, QWORD PTR [rcx+1]

; 63   :         if (!isDecrypted())

  00007	84 c0		 test	 al, al
  00009	75 68		 jne	 SHORT $LN17@decrypt

; 64   :         {
; 65   :             for (size_t i = 0; i < sizeof...(Ints); ++i)

  0000b	4d 8b d1	 mov	 r10, r9
  0000e	41 bb 0a 00 00
	00		 mov	 r11d, 10
  00014	0f 1f 40 00 0f
	1f 84 00 00 00
	00 00		 npad	 12
$LL4@decrypt:

; 66   :                 m_buffer[i] = decrypt(m_buffer[i]);

  00020	41 0f b6 0a	 movzx	 ecx, BYTE PTR [r10]
  00024	4d 8d 52 01	 lea	 r10, QWORD PTR [r10+1]

; 80   :         return positive_modulo(ExtendedEuclidian<127, A>::y * (byte - B), 127);

  00028	83 e9 31	 sub	 ecx, 49			; 00000031H

; 40   :     return (a % n + n) % n;

  0002b	b8 09 04 02 81	 mov	 eax, -2130574327	; ffffffff81020409H

; 80   :         return positive_modulo(ExtendedEuclidian<127, A>::y * (byte - B), 127);

  00030	44 6b c1 1c	 imul	 r8d, ecx, 28

; 40   :     return (a % n + n) % n;

  00034	41 f7 e8	 imul	 r8d
  00037	41 03 d0	 add	 edx, r8d
  0003a	c1 fa 06	 sar	 edx, 6
  0003d	8b c2		 mov	 eax, edx
  0003f	c1 e8 1f	 shr	 eax, 31
  00042	03 d0		 add	 edx, eax
  00044	6b c2 7f	 imul	 eax, edx, 127		; 0000007fH
  00047	44 2b c0	 sub	 r8d, eax
  0004a	b8 09 04 02 81	 mov	 eax, -2130574327	; ffffffff81020409H
  0004f	41 83 c0 7f	 add	 r8d, 127		; 0000007fH
  00053	41 f7 e8	 imul	 r8d
  00056	41 03 d0	 add	 edx, r8d
  00059	c1 fa 06	 sar	 edx, 6
  0005c	8b c2		 mov	 eax, edx
  0005e	c1 e8 1f	 shr	 eax, 31
  00061	03 d0		 add	 edx, eax
  00063	6b c2 7f	 imul	 eax, edx, 127		; 0000007fH
  00066	44 2b c0	 sub	 r8d, eax

; 66   :                 m_buffer[i] = decrypt(m_buffer[i]);

  00069	45 88 42 ff	 mov	 BYTE PTR [r10-1], r8b
  0006d	49 83 eb 01	 sub	 r11, 1
  00071	75 ad		 jne	 SHORT $LL4@decrypt
$LN17@decrypt:

; 67   :         }
; 68   : 
; 69   :         return (const char*)m_buffer;
; 70   :     }

  00073	49 8b c1	 mov	 rax, r9
  00076	c3		 ret	 0
?decrypt@?$MetaBuffer@$0DL@$0DB@U?$integer_sequence@_K$0A@$00$01$02$03$04$05$06$07$08@std@@@@QEAAPEBDXZ ENDP ; MetaBuffer<59,49,std::integer_sequence<unsigned __int64,0,1,2,3,4,5,6,7,8,9> >::decrypt
_TEXT	ENDS
; Function compile flags: /Ogtpy
; File C:\Users\admin-z10\Desktop\conti_v3\cryptor\obfuscation\MetaString.h
;	COMDAT ??0?$MetaBuffer@$0DL@$0DB@U?$integer_sequence@_K$0A@$00$01$02$03$04$05$06$07$08@std@@@@QEAA@PEBE@Z
_TEXT	SEGMENT
this$ = 8
data$dead$ = 16
??0?$MetaBuffer@$0DL@$0DB@U?$integer_sequence@_K$0A@$00$01$02$03$04$05$06$07$08@std@@@@QEAA@PEBE@Z PROC ; MetaBuffer<59,49,std::integer_sequence<unsigned __int64,0,1,2,3,4,5,6,7,8,9> >::MetaBuffer<59,49,std::integer_sequence<unsigned __int64,0,1,2,3,4,5,6,7,8,9> >, COMDAT

; 55   : 
; 56   :     inline bool isDecrypted() const
; 57   :     {
; 58   :         return m_isDecrypted;
; 59   :     }
; 60   : 
; 61   :     inline const char* decrypt()
; 62   :     {
; 63   :         if (!isDecrypted())
; 64   :         {
; 65   :             for (size_t i = 0; i < sizeof...(Ints); ++i)
; 66   :                 m_buffer[i] = decrypt(m_buffer[i]);
; 67   :         }
; 68   : 
; 69   :         return (const char*)m_buffer;
; 70   :     }
; 71   : 
; 72   : private:
; 73   :     constexpr unsigned char __forceinline encrypt(unsigned char byte) const
; 74   :     {
; 75   :         return (A * byte + B) % 127;
; 76   :     }
; 77   : 
; 78   :     constexpr unsigned char __forceinline decrypt(unsigned char byte) const
; 79   :     {
; 80   :         return positive_modulo(ExtendedEuclidian<127, A>::y * (byte - B), 127);
; 81   :     }
; 82   : 
; 83   :     volatile bool m_isDecrypted = false;

  00000	c6 01 00	 mov	 BYTE PTR [rcx], 0
  00003	c6 41 01 0b	 mov	 BYTE PTR [rcx+1], 11
  00007	c6 41 02 47	 mov	 BYTE PTR [rcx+2], 71	; 00000047H
  0000b	c6 41 03 27	 mov	 BYTE PTR [rcx+3], 39	; 00000027H
  0000f	c6 41 04 0a	 mov	 BYTE PTR [rcx+4], 10
  00013	c6 41 05 4e	 mov	 BYTE PTR [rcx+5], 78	; 0000004eH
  00017	c6 41 06 60	 mov	 BYTE PTR [rcx+6], 96	; 00000060H
  0001b	c6 41 07 6b	 mov	 BYTE PTR [rcx+7], 107	; 0000006bH
  0001f	c6 41 08 47	 mov	 BYTE PTR [rcx+8], 71	; 00000047H
  00023	c6 41 09 47	 mov	 BYTE PTR [rcx+9], 71	; 00000047H
  00027	c6 41 0a 31	 mov	 BYTE PTR [rcx+10], 49	; 00000031H
  0002b	0f b6 41 01	 movzx	 eax, BYTE PTR [rcx+1]
  0002f	48 8b c1	 mov	 rax, rcx
  00032	c3		 ret	 0
??0?$MetaBuffer@$0DL@$0DB@U?$integer_sequence@_K$0A@$00$01$02$03$04$05$06$07$08@std@@@@QEAA@PEBE@Z ENDP ; MetaBuffer<59,49,std::integer_sequence<unsigned __int64,0,1,2,3,4,5,6,7,8,9> >::MetaBuffer<59,49,std::integer_sequence<unsigned __int64,0,1,2,3,4,5,6,7,8,9> >
_TEXT	ENDS
; Function compile flags: /Ogtpy
; File C:\Users\admin-z10\Desktop\conti_v3\cryptor\obfuscation\MetaString.h
;	COMDAT ?decrypt@?$MetaBuffer@$0BD@$0BK@U?$integer_sequence@_K$0A@$00$01$02$03$04$05$06$07$08$09$0L@@std@@@@QEAAPEBDXZ
_TEXT	SEGMENT
this$ = 8
?decrypt@?$MetaBuffer@$0BD@$0BK@U?$integer_sequence@_K$0A@$00$01$02$03$04$05$06$07$08$09$0L@@std@@@@QEAAPEBDXZ PROC ; MetaBuffer<19,26,std::integer_sequence<unsigned __int64,0,1,2,3,4,5,6,7,8,9,10,11> >::decrypt, COMDAT

; 58   :         return m_isDecrypted;

  00000	0f b6 01	 movzx	 eax, BYTE PTR [rcx]
  00003	4c 8d 41 01	 lea	 r8, QWORD PTR [rcx+1]

; 63   :         if (!isDecrypted())

  00007	84 c0		 test	 al, al
  00009	75 67		 jne	 SHORT $LN17@decrypt

; 64   :         {
; 65   :             for (size_t i = 0; i < sizeof...(Ints); ++i)

  0000b	4d 8b c8	 mov	 r9, r8
  0000e	41 ba 0c 00 00
	00		 mov	 r10d, 12
  00014	0f 1f 40 00 0f
	1f 84 00 00 00
	00 00		 npad	 12
$LL4@decrypt:

; 66   :                 m_buffer[i] = decrypt(m_buffer[i]);

  00020	41 0f b6 09	 movzx	 ecx, BYTE PTR [r9]
  00024	4d 8d 49 01	 lea	 r9, QWORD PTR [r9+1]

; 80   :         return positive_modulo(ExtendedEuclidian<127, A>::y * (byte - B), 127);

  00028	b8 1a 00 00 00	 mov	 eax, 26
  0002d	2b c1		 sub	 eax, ecx
  0002f	8d 0c 80	 lea	 ecx, DWORD PTR [rax+rax*4]

; 40   :     return (a % n + n) % n;

  00032	b8 09 04 02 81	 mov	 eax, -2130574327	; ffffffff81020409H

; 80   :         return positive_modulo(ExtendedEuclidian<127, A>::y * (byte - B), 127);

  00037	c1 e1 02	 shl	 ecx, 2

; 40   :     return (a % n + n) % n;

  0003a	f7 e9		 imul	 ecx
  0003c	03 d1		 add	 edx, ecx
  0003e	c1 fa 06	 sar	 edx, 6
  00041	8b c2		 mov	 eax, edx
  00043	c1 e8 1f	 shr	 eax, 31
  00046	03 d0		 add	 edx, eax
  00048	6b c2 7f	 imul	 eax, edx, 127		; 0000007fH
  0004b	2b c8		 sub	 ecx, eax
  0004d	b8 09 04 02 81	 mov	 eax, -2130574327	; ffffffff81020409H
  00052	83 c1 7f	 add	 ecx, 127		; 0000007fH
  00055	f7 e9		 imul	 ecx
  00057	03 d1		 add	 edx, ecx
  00059	c1 fa 06	 sar	 edx, 6
  0005c	8b c2		 mov	 eax, edx
  0005e	c1 e8 1f	 shr	 eax, 31
  00061	03 d0		 add	 edx, eax
  00063	6b c2 7f	 imul	 eax, edx, 127		; 0000007fH
  00066	2b c8		 sub	 ecx, eax

; 66   :                 m_buffer[i] = decrypt(m_buffer[i]);

  00068	41 88 49 ff	 mov	 BYTE PTR [r9-1], cl
  0006c	49 83 ea 01	 sub	 r10, 1
  00070	75 ae		 jne	 SHORT $LL4@decrypt
$LN17@decrypt:

; 67   :         }
; 68   : 
; 69   :         return (const char*)m_buffer;
; 70   :     }

  00072	49 8b c0	 mov	 rax, r8
  00075	c3		 ret	 0
?decrypt@?$MetaBuffer@$0BD@$0BK@U?$integer_sequence@_K$0A@$00$01$02$03$04$05$06$07$08$09$0L@@std@@@@QEAAPEBDXZ ENDP ; MetaBuffer<19,26,std::integer_sequence<unsigned __int64,0,1,2,3,4,5,6,7,8,9,10,11> >::decrypt
_TEXT	ENDS
; Function compile flags: /Ogtpy
; File C:\Users\admin-z10\Desktop\conti_v3\cryptor\obfuscation\MetaString.h
;	COMDAT ??0?$MetaBuffer@$0BD@$0BK@U?$integer_sequence@_K$0A@$00$01$02$03$04$05$06$07$08$09$0L@@std@@@@QEAA@PEBE@Z
_TEXT	SEGMENT
this$ = 8
data$dead$ = 16
??0?$MetaBuffer@$0BD@$0BK@U?$integer_sequence@_K$0A@$00$01$02$03$04$05$06$07$08$09$0L@@std@@@@QEAA@PEBE@Z PROC ; MetaBuffer<19,26,std::integer_sequence<unsigned __int64,0,1,2,3,4,5,6,7,8,9,10,11> >::MetaBuffer<19,26,std::integer_sequence<unsigned __int64,0,1,2,3,4,5,6,7,8,9,10,11> >, COMDAT

; 55   : 
; 56   :     inline bool isDecrypted() const
; 57   :     {
; 58   :         return m_isDecrypted;
; 59   :     }
; 60   : 
; 61   :     inline const char* decrypt()
; 62   :     {
; 63   :         if (!isDecrypted())
; 64   :         {
; 65   :             for (size_t i = 0; i < sizeof...(Ints); ++i)
; 66   :                 m_buffer[i] = decrypt(m_buffer[i]);
; 67   :         }
; 68   : 
; 69   :         return (const char*)m_buffer;
; 70   :     }
; 71   : 
; 72   : private:
; 73   :     constexpr unsigned char __forceinline encrypt(unsigned char byte) const
; 74   :     {
; 75   :         return (A * byte + B) % 127;
; 76   :     }
; 77   : 
; 78   :     constexpr unsigned char __forceinline decrypt(unsigned char byte) const
; 79   :     {
; 80   :         return positive_modulo(ExtendedEuclidian<127, A>::y * (byte - B), 127);
; 81   :     }
; 82   : 
; 83   :     volatile bool m_isDecrypted = false;

  00000	c6 01 00	 mov	 BYTE PTR [rcx], 0
  00003	c6 41 01 4f	 mov	 BYTE PTR [rcx+1], 79	; 0000004fH
  00007	c6 41 02 61	 mov	 BYTE PTR [rcx+2], 97	; 00000061H
  0000b	c6 41 03 28	 mov	 BYTE PTR [rcx+3], 40	; 00000028H
  0000f	c6 41 04 2e	 mov	 BYTE PTR [rcx+4], 46	; 0000002eH
  00013	c6 41 05 2e	 mov	 BYTE PTR [rcx+5], 46	; 0000002eH
  00017	c6 41 06 6a	 mov	 BYTE PTR [rcx+6], 106	; 0000006aH
  0001b	c6 41 07 57	 mov	 BYTE PTR [rcx+7], 87	; 00000057H
  0001f	c6 41 08 0b	 mov	 BYTE PTR [rcx+8], 11
  00023	c6 41 09 15	 mov	 BYTE PTR [rcx+9], 21
  00027	c6 41 0a 2e	 mov	 BYTE PTR [rcx+10], 46	; 0000002eH
  0002b	c6 41 0b 2e	 mov	 BYTE PTR [rcx+11], 46	; 0000002eH
  0002f	c6 41 0c 1a	 mov	 BYTE PTR [rcx+12], 26
  00033	0f b6 41 01	 movzx	 eax, BYTE PTR [rcx+1]
  00037	48 8b c1	 mov	 rax, rcx
  0003a	c3		 ret	 0
??0?$MetaBuffer@$0BD@$0BK@U?$integer_sequence@_K$0A@$00$01$02$03$04$05$06$07$08$09$0L@@std@@@@QEAA@PEBE@Z ENDP ; MetaBuffer<19,26,std::integer_sequence<unsigned __int64,0,1,2,3,4,5,6,7,8,9,10,11> >::MetaBuffer<19,26,std::integer_sequence<unsigned __int64,0,1,2,3,4,5,6,7,8,9,10,11> >
_TEXT	ENDS
; Function compile flags: /Ogtpy
; File C:\Users\admin-z10\Desktop\conti_v3\cryptor\obfuscation\MetaString.h
;	COMDAT ?decrypt@?$MetaBuffer@$0EJ@$0EJ@U?$integer_sequence@_K$0A@$00$01$02$03$04$05$06$07$08$09$0L@@std@@@@QEAAPEBDXZ
_TEXT	SEGMENT
this$ = 8
?decrypt@?$MetaBuffer@$0EJ@$0EJ@U?$integer_sequence@_K$0A@$00$01$02$03$04$05$06$07$08$09$0L@@std@@@@QEAAPEBDXZ PROC ; MetaBuffer<73,73,std::integer_sequence<unsigned __int64,0,1,2,3,4,5,6,7,8,9,10,11> >::decrypt, COMDAT

; 58   :         return m_isDecrypted;

  00000	0f b6 01	 movzx	 eax, BYTE PTR [rcx]
  00003	4c 8d 41 01	 lea	 r8, QWORD PTR [rcx+1]

; 63   :         if (!isDecrypted())

  00007	84 c0		 test	 al, al
  00009	75 67		 jne	 SHORT $LN17@decrypt

; 64   :         {
; 65   :             for (size_t i = 0; i < sizeof...(Ints); ++i)

  0000b	4d 8b c8	 mov	 r9, r8
  0000e	41 ba 0c 00 00
	00		 mov	 r10d, 12
  00014	0f 1f 40 00 0f
	1f 84 00 00 00
	00 00		 npad	 12
$LL4@decrypt:

; 66   :                 m_buffer[i] = decrypt(m_buffer[i]);

  00020	41 0f b6 09	 movzx	 ecx, BYTE PTR [r9]
  00024	4d 8d 49 01	 lea	 r9, QWORD PTR [r9+1]

; 80   :         return positive_modulo(ExtendedEuclidian<127, A>::y * (byte - B), 127);

  00028	b8 49 00 00 00	 mov	 eax, 73			; 00000049H
  0002d	2b c1		 sub	 eax, ecx
  0002f	8d 0c 80	 lea	 ecx, DWORD PTR [rax+rax*4]

; 40   :     return (a % n + n) % n;

  00032	b8 09 04 02 81	 mov	 eax, -2130574327	; ffffffff81020409H

; 80   :         return positive_modulo(ExtendedEuclidian<127, A>::y * (byte - B), 127);

  00037	c1 e1 03	 shl	 ecx, 3

; 40   :     return (a % n + n) % n;

  0003a	f7 e9		 imul	 ecx
  0003c	03 d1		 add	 edx, ecx
  0003e	c1 fa 06	 sar	 edx, 6
  00041	8b c2		 mov	 eax, edx
  00043	c1 e8 1f	 shr	 eax, 31
  00046	03 d0		 add	 edx, eax
  00048	6b c2 7f	 imul	 eax, edx, 127		; 0000007fH
  0004b	2b c8		 sub	 ecx, eax
  0004d	b8 09 04 02 81	 mov	 eax, -2130574327	; ffffffff81020409H
  00052	83 c1 7f	 add	 ecx, 127		; 0000007fH
  00055	f7 e9		 imul	 ecx
  00057	03 d1		 add	 edx, ecx
  00059	c1 fa 06	 sar	 edx, 6
  0005c	8b c2		 mov	 eax, edx
  0005e	c1 e8 1f	 shr	 eax, 31
  00061	03 d0		 add	 edx, eax
  00063	6b c2 7f	 imul	 eax, edx, 127		; 0000007fH
  00066	2b c8		 sub	 ecx, eax

; 66   :                 m_buffer[i] = decrypt(m_buffer[i]);

  00068	41 88 49 ff	 mov	 BYTE PTR [r9-1], cl
  0006c	49 83 ea 01	 sub	 r10, 1
  00070	75 ae		 jne	 SHORT $LL4@decrypt
$LN17@decrypt:

; 67   :         }
; 68   : 
; 69   :         return (const char*)m_buffer;
; 70   :     }

  00072	49 8b c0	 mov	 rax, r8
  00075	c3		 ret	 0
?decrypt@?$MetaBuffer@$0EJ@$0EJ@U?$integer_sequence@_K$0A@$00$01$02$03$04$05$06$07$08$09$0L@@std@@@@QEAAPEBDXZ ENDP ; MetaBuffer<73,73,std::integer_sequence<unsigned __int64,0,1,2,3,4,5,6,7,8,9,10,11> >::decrypt
_TEXT	ENDS
; Function compile flags: /Ogtpy
; File C:\Users\admin-z10\Desktop\conti_v3\cryptor\obfuscation\MetaString.h
;	COMDAT ??0?$MetaBuffer@$0EJ@$0EJ@U?$integer_sequence@_K$0A@$00$01$02$03$04$05$06$07$08$09$0L@@std@@@@QEAA@PEBE@Z
_TEXT	SEGMENT
this$ = 8
data$dead$ = 16
??0?$MetaBuffer@$0EJ@$0EJ@U?$integer_sequence@_K$0A@$00$01$02$03$04$05$06$07$08$09$0L@@std@@@@QEAA@PEBE@Z PROC ; MetaBuffer<73,73,std::integer_sequence<unsigned __int64,0,1,2,3,4,5,6,7,8,9,10,11> >::MetaBuffer<73,73,std::integer_sequence<unsigned __int64,0,1,2,3,4,5,6,7,8,9,10,11> >, COMDAT

; 55   : 
; 56   :     inline bool isDecrypted() const
; 57   :     {
; 58   :         return m_isDecrypted;
; 59   :     }
; 60   : 
; 61   :     inline const char* decrypt()
; 62   :     {
; 63   :         if (!isDecrypted())
; 64   :         {
; 65   :             for (size_t i = 0; i < sizeof...(Ints); ++i)
; 66   :                 m_buffer[i] = decrypt(m_buffer[i]);
; 67   :         }
; 68   : 
; 69   :         return (const char*)m_buffer;
; 70   :     }
; 71   : 
; 72   : private:
; 73   :     constexpr unsigned char __forceinline encrypt(unsigned char byte) const
; 74   :     {
; 75   :         return (A * byte + B) % 127;
; 76   :     }
; 77   : 
; 78   :     constexpr unsigned char __forceinline decrypt(unsigned char byte) const
; 79   :     {
; 80   :         return positive_modulo(ExtendedEuclidian<127, A>::y * (byte - B), 127);
; 81   :     }
; 82   : 
; 83   :     volatile bool m_isDecrypted = false;

  00000	c6 01 00	 mov	 BYTE PTR [rcx], 0
  00003	c6 41 01 24	 mov	 BYTE PTR [rcx+1], 36	; 00000024H
  00007	c6 41 02 2d	 mov	 BYTE PTR [rcx+2], 45	; 0000002dH
  0000b	c6 41 03 53	 mov	 BYTE PTR [rcx+3], 83	; 00000053H
  0000f	c6 41 04 7c	 mov	 BYTE PTR [rcx+4], 124	; 0000007cH
  00013	c6 41 05 2a	 mov	 BYTE PTR [rcx+5], 42	; 0000002aH
  00017	c6 41 06 79	 mov	 BYTE PTR [rcx+6], 121	; 00000079H
  0001b	c6 41 07 76	 mov	 BYTE PTR [rcx+7], 118	; 00000076H
  0001f	c6 41 08 02	 mov	 BYTE PTR [rcx+8], 2
  00023	c6 41 09 07	 mov	 BYTE PTR [rcx+9], 7
  00027	c6 41 0a 53	 mov	 BYTE PTR [rcx+10], 83	; 00000053H
  0002b	c6 41 0b 53	 mov	 BYTE PTR [rcx+11], 83	; 00000053H
  0002f	c6 41 0c 49	 mov	 BYTE PTR [rcx+12], 73	; 00000049H
  00033	0f b6 41 01	 movzx	 eax, BYTE PTR [rcx+1]
  00037	48 8b c1	 mov	 rax, rcx
  0003a	c3		 ret	 0
??0?$MetaBuffer@$0EJ@$0EJ@U?$integer_sequence@_K$0A@$00$01$02$03$04$05$06$07$08$09$0L@@std@@@@QEAA@PEBE@Z ENDP ; MetaBuffer<73,73,std::integer_sequence<unsigned __int64,0,1,2,3,4,5,6,7,8,9,10,11> >::MetaBuffer<73,73,std::integer_sequence<unsigned __int64,0,1,2,3,4,5,6,7,8,9,10,11> >
_TEXT	ENDS
; Function compile flags: /Ogtpy
; File C:\Users\admin-z10\Desktop\conti_v3\cryptor\obfuscation\MetaString.h
;	COMDAT ?decrypt@?$MetaBuffer@$02$0BG@U?$integer_sequence@_K$0A@$00$01$02$03$04$05$06$07$08$09@std@@@@QEAAPEBDXZ
_TEXT	SEGMENT
this$ = 8
?decrypt@?$MetaBuffer@$02$0BG@U?$integer_sequence@_K$0A@$00$01$02$03$04$05$06$07$08$09@std@@@@QEAAPEBDXZ PROC ; MetaBuffer<3,22,std::integer_sequence<unsigned __int64,0,1,2,3,4,5,6,7,8,9,10> >::decrypt, COMDAT

; 58   :         return m_isDecrypted;

  00000	0f b6 01	 movzx	 eax, BYTE PTR [rcx]
  00003	4c 8d 41 01	 lea	 r8, QWORD PTR [rcx+1]

; 63   :         if (!isDecrypted())

  00007	84 c0		 test	 al, al
  00009	75 64		 jne	 SHORT $LN17@decrypt

; 64   :         {
; 65   :             for (size_t i = 0; i < sizeof...(Ints); ++i)

  0000b	4d 8b c8	 mov	 r9, r8
  0000e	41 ba 0b 00 00
	00		 mov	 r10d, 11
  00014	0f 1f 40 00 0f
	1f 84 00 00 00
	00 00		 npad	 12
$LL4@decrypt:

; 66   :                 m_buffer[i] = decrypt(m_buffer[i]);

  00020	41 0f b6 09	 movzx	 ecx, BYTE PTR [r9]
  00024	4d 8d 49 01	 lea	 r9, QWORD PTR [r9+1]

; 80   :         return positive_modulo(ExtendedEuclidian<127, A>::y * (byte - B), 127);

  00028	b8 16 00 00 00	 mov	 eax, 22
  0002d	2b c1		 sub	 eax, ecx
  0002f	6b c8 2a	 imul	 ecx, eax, 42		; 0000002aH

; 40   :     return (a % n + n) % n;

  00032	b8 09 04 02 81	 mov	 eax, -2130574327	; ffffffff81020409H
  00037	f7 e9		 imul	 ecx
  00039	03 d1		 add	 edx, ecx
  0003b	c1 fa 06	 sar	 edx, 6
  0003e	8b c2		 mov	 eax, edx
  00040	c1 e8 1f	 shr	 eax, 31
  00043	03 d0		 add	 edx, eax
  00045	6b c2 7f	 imul	 eax, edx, 127		; 0000007fH
  00048	2b c8		 sub	 ecx, eax
  0004a	b8 09 04 02 81	 mov	 eax, -2130574327	; ffffffff81020409H
  0004f	83 c1 7f	 add	 ecx, 127		; 0000007fH
  00052	f7 e9		 imul	 ecx
  00054	03 d1		 add	 edx, ecx
  00056	c1 fa 06	 sar	 edx, 6
  00059	8b c2		 mov	 eax, edx
  0005b	c1 e8 1f	 shr	 eax, 31
  0005e	03 d0		 add	 edx, eax
  00060	6b c2 7f	 imul	 eax, edx, 127		; 0000007fH
  00063	2b c8		 sub	 ecx, eax

; 66   :                 m_buffer[i] = decrypt(m_buffer[i]);

  00065	41 88 49 ff	 mov	 BYTE PTR [r9-1], cl
  00069	49 83 ea 01	 sub	 r10, 1
  0006d	75 b1		 jne	 SHORT $LL4@decrypt
$LN17@decrypt:

; 67   :         }
; 68   : 
; 69   :         return (const char*)m_buffer;
; 70   :     }

  0006f	49 8b c0	 mov	 rax, r8
  00072	c3		 ret	 0
?decrypt@?$MetaBuffer@$02$0BG@U?$integer_sequence@_K$0A@$00$01$02$03$04$05$06$07$08$09@std@@@@QEAAPEBDXZ ENDP ; MetaBuffer<3,22,std::integer_sequence<unsigned __int64,0,1,2,3,4,5,6,7,8,9,10> >::decrypt
_TEXT	ENDS
; Function compile flags: /Ogtpy
; File C:\Users\admin-z10\Desktop\conti_v3\cryptor\obfuscation\MetaString.h
;	COMDAT ??0?$MetaBuffer@$02$0BG@U?$integer_sequence@_K$0A@$00$01$02$03$04$05$06$07$08$09@std@@@@QEAA@PEBE@Z
_TEXT	SEGMENT
this$ = 8
data$dead$ = 16
??0?$MetaBuffer@$02$0BG@U?$integer_sequence@_K$0A@$00$01$02$03$04$05$06$07$08$09@std@@@@QEAA@PEBE@Z PROC ; MetaBuffer<3,22,std::integer_sequence<unsigned __int64,0,1,2,3,4,5,6,7,8,9,10> >::MetaBuffer<3,22,std::integer_sequence<unsigned __int64,0,1,2,3,4,5,6,7,8,9,10> >, COMDAT

; 55   : 
; 56   :     inline bool isDecrypted() const
; 57   :     {
; 58   :         return m_isDecrypted;
; 59   :     }
; 60   : 
; 61   :     inline const char* decrypt()
; 62   :     {
; 63   :         if (!isDecrypted())
; 64   :         {
; 65   :             for (size_t i = 0; i < sizeof...(Ints); ++i)
; 66   :                 m_buffer[i] = decrypt(m_buffer[i]);
; 67   :         }
; 68   : 
; 69   :         return (const char*)m_buffer;
; 70   :     }
; 71   : 
; 72   : private:
; 73   :     constexpr unsigned char __forceinline encrypt(unsigned char byte) const
; 74   :     {
; 75   :         return (A * byte + B) % 127;
; 76   :     }
; 77   : 
; 78   :     constexpr unsigned char __forceinline decrypt(unsigned char byte) const
; 79   :     {
; 80   :         return positive_modulo(ExtendedEuclidian<127, A>::y * (byte - B), 127);
; 81   :     }
; 82   : 
; 83   :     volatile bool m_isDecrypted = false;

  00000	c6 01 00	 mov	 BYTE PTR [rcx], 0
  00003	c6 41 01 17	 mov	 BYTE PTR [rcx+1], 23
  00007	c6 41 02 71	 mov	 BYTE PTR [rcx+2], 113	; 00000071H
  0000b	c6 41 03 47	 mov	 BYTE PTR [rcx+3], 71	; 00000047H
  0000f	c6 41 04 6e	 mov	 BYTE PTR [rcx+4], 110	; 0000006eH
  00013	c6 41 05 30	 mov	 BYTE PTR [rcx+5], 48	; 00000030H
  00017	c6 41 06 2d	 mov	 BYTE PTR [rcx+6], 45	; 0000002dH
  0001b	c6 41 07 21	 mov	 BYTE PTR [rcx+7], 33	; 00000021H
  0001f	c6 41 08 44	 mov	 BYTE PTR [rcx+8], 68	; 00000044H
  00023	c6 41 09 5c	 mov	 BYTE PTR [rcx+9], 92	; 0000005cH
  00027	c6 41 0a 5c	 mov	 BYTE PTR [rcx+10], 92	; 0000005cH
  0002b	c6 41 0b 16	 mov	 BYTE PTR [rcx+11], 22
  0002f	0f b6 41 01	 movzx	 eax, BYTE PTR [rcx+1]
  00033	48 8b c1	 mov	 rax, rcx
  00036	c3		 ret	 0
??0?$MetaBuffer@$02$0BG@U?$integer_sequence@_K$0A@$00$01$02$03$04$05$06$07$08$09@std@@@@QEAA@PEBE@Z ENDP ; MetaBuffer<3,22,std::integer_sequence<unsigned __int64,0,1,2,3,4,5,6,7,8,9,10> >::MetaBuffer<3,22,std::integer_sequence<unsigned __int64,0,1,2,3,4,5,6,7,8,9,10> >
_TEXT	ENDS
; Function compile flags: /Ogtpy
; File C:\Users\admin-z10\Desktop\conti_v3\cryptor\obfuscation\MetaString.h
;	COMDAT ?decrypt@?$MetaBuffer@$0L@$0FD@U?$integer_sequence@_K$0A@$00$01$02$03$04$05$06$07$08$09@std@@@@QEAAPEBDXZ
_TEXT	SEGMENT
this$ = 8
?decrypt@?$MetaBuffer@$0L@$0FD@U?$integer_sequence@_K$0A@$00$01$02$03$04$05$06$07$08$09@std@@@@QEAAPEBDXZ PROC ; MetaBuffer<11,83,std::integer_sequence<unsigned __int64,0,1,2,3,4,5,6,7,8,9,10> >::decrypt, COMDAT

; 58   :         return m_isDecrypted;

  00000	0f b6 01	 movzx	 eax, BYTE PTR [rcx]
  00003	4c 8d 41 01	 lea	 r8, QWORD PTR [rcx+1]

; 63   :         if (!isDecrypted())

  00007	84 c0		 test	 al, al
  00009	75 64		 jne	 SHORT $LN17@decrypt

; 64   :         {
; 65   :             for (size_t i = 0; i < sizeof...(Ints); ++i)

  0000b	4d 8b c8	 mov	 r9, r8
  0000e	41 ba 0b 00 00
	00		 mov	 r10d, 11
  00014	0f 1f 40 00 0f
	1f 84 00 00 00
	00 00		 npad	 12
$LL4@decrypt:

; 66   :                 m_buffer[i] = decrypt(m_buffer[i]);

  00020	41 0f b6 09	 movzx	 ecx, BYTE PTR [r9]
  00024	4d 8d 49 01	 lea	 r9, QWORD PTR [r9+1]

; 80   :         return positive_modulo(ExtendedEuclidian<127, A>::y * (byte - B), 127);

  00028	b8 53 00 00 00	 mov	 eax, 83			; 00000053H
  0002d	2b c1		 sub	 eax, ecx
  0002f	6b c8 17	 imul	 ecx, eax, 23

; 40   :     return (a % n + n) % n;

  00032	b8 09 04 02 81	 mov	 eax, -2130574327	; ffffffff81020409H
  00037	f7 e9		 imul	 ecx
  00039	03 d1		 add	 edx, ecx
  0003b	c1 fa 06	 sar	 edx, 6
  0003e	8b c2		 mov	 eax, edx
  00040	c1 e8 1f	 shr	 eax, 31
  00043	03 d0		 add	 edx, eax
  00045	6b c2 7f	 imul	 eax, edx, 127		; 0000007fH
  00048	2b c8		 sub	 ecx, eax
  0004a	b8 09 04 02 81	 mov	 eax, -2130574327	; ffffffff81020409H
  0004f	83 c1 7f	 add	 ecx, 127		; 0000007fH
  00052	f7 e9		 imul	 ecx
  00054	03 d1		 add	 edx, ecx
  00056	c1 fa 06	 sar	 edx, 6
  00059	8b c2		 mov	 eax, edx
  0005b	c1 e8 1f	 shr	 eax, 31
  0005e	03 d0		 add	 edx, eax
  00060	6b c2 7f	 imul	 eax, edx, 127		; 0000007fH
  00063	2b c8		 sub	 ecx, eax

; 66   :                 m_buffer[i] = decrypt(m_buffer[i]);

  00065	41 88 49 ff	 mov	 BYTE PTR [r9-1], cl
  00069	49 83 ea 01	 sub	 r10, 1
  0006d	75 b1		 jne	 SHORT $LL4@decrypt
$LN17@decrypt:

; 67   :         }
; 68   : 
; 69   :         return (const char*)m_buffer;
; 70   :     }

  0006f	49 8b c0	 mov	 rax, r8
  00072	c3		 ret	 0
?decrypt@?$MetaBuffer@$0L@$0FD@U?$integer_sequence@_K$0A@$00$01$02$03$04$05$06$07$08$09@std@@@@QEAAPEBDXZ ENDP ; MetaBuffer<11,83,std::integer_sequence<unsigned __int64,0,1,2,3,4,5,6,7,8,9,10> >::decrypt
_TEXT	ENDS
; Function compile flags: /Ogtpy
; File C:\Users\admin-z10\Desktop\conti_v3\cryptor\obfuscation\MetaString.h
;	COMDAT ??0?$MetaBuffer@$0L@$0FD@U?$integer_sequence@_K$0A@$00$01$02$03$04$05$06$07$08$09@std@@@@QEAA@PEBE@Z
_TEXT	SEGMENT
this$ = 8
data$dead$ = 16
??0?$MetaBuffer@$0L@$0FD@U?$integer_sequence@_K$0A@$00$01$02$03$04$05$06$07$08$09@std@@@@QEAA@PEBE@Z PROC ; MetaBuffer<11,83,std::integer_sequence<unsigned __int64,0,1,2,3,4,5,6,7,8,9,10> >::MetaBuffer<11,83,std::integer_sequence<unsigned __int64,0,1,2,3,4,5,6,7,8,9,10> >, COMDAT

; 55   : 
; 56   :     inline bool isDecrypted() const
; 57   :     {
; 58   :         return m_isDecrypted;
; 59   :     }
; 60   : 
; 61   :     inline const char* decrypt()
; 62   :     {
; 63   :         if (!isDecrypted())
; 64   :         {
; 65   :             for (size_t i = 0; i < sizeof...(Ints); ++i)
; 66   :                 m_buffer[i] = decrypt(m_buffer[i]);
; 67   :         }
; 68   : 
; 69   :         return (const char*)m_buffer;
; 70   :     }
; 71   : 
; 72   : private:
; 73   :     constexpr unsigned char __forceinline encrypt(unsigned char byte) const
; 74   :     {
; 75   :         return (A * byte + B) % 127;
; 76   :     }
; 77   : 
; 78   :     constexpr unsigned char __forceinline decrypt(unsigned char byte) const
; 79   :     {
; 80   :         return positive_modulo(ExtendedEuclidian<127, A>::y * (byte - B), 127);
; 81   :     }
; 82   : 
; 83   :     volatile bool m_isDecrypted = false;

  00000	c6 01 00	 mov	 BYTE PTR [rcx], 0
  00003	c6 41 01 7a	 mov	 BYTE PTR [rcx+1], 122	; 0000007aH
  00007	c6 41 02 4e	 mov	 BYTE PTR [rcx+2], 78	; 0000004eH
  0000b	c6 41 03 7d	 mov	 BYTE PTR [rcx+3], 125	; 0000007dH
  0000f	c6 41 04 70	 mov	 BYTE PTR [rcx+4], 112	; 00000070H
  00013	c6 41 05 09	 mov	 BYTE PTR [rcx+5], 9
  00017	c6 41 06 7d	 mov	 BYTE PTR [rcx+6], 125	; 0000007dH
  0001b	c6 41 07 51	 mov	 BYTE PTR [rcx+7], 81	; 00000051H
  0001f	c6 41 08 28	 mov	 BYTE PTR [rcx+8], 40	; 00000028H
  00023	c6 41 09 01	 mov	 BYTE PTR [rcx+9], 1
  00027	c6 41 0a 01	 mov	 BYTE PTR [rcx+10], 1
  0002b	c6 41 0b 53	 mov	 BYTE PTR [rcx+11], 83	; 00000053H
  0002f	0f b6 41 01	 movzx	 eax, BYTE PTR [rcx+1]
  00033	48 8b c1	 mov	 rax, rcx
  00036	c3		 ret	 0
??0?$MetaBuffer@$0L@$0FD@U?$integer_sequence@_K$0A@$00$01$02$03$04$05$06$07$08$09@std@@@@QEAA@PEBE@Z ENDP ; MetaBuffer<11,83,std::integer_sequence<unsigned __int64,0,1,2,3,4,5,6,7,8,9,10> >::MetaBuffer<11,83,std::integer_sequence<unsigned __int64,0,1,2,3,4,5,6,7,8,9,10> >
_TEXT	ENDS
; Function compile flags: /Ogtpy
; File C:\Users\admin-z10\Desktop\conti_v3\cryptor\obfuscation\MetaString.h
;	COMDAT ?decrypt@?$MetaBuffer@$0N@$0FI@U?$integer_sequence@_K$0A@$00$01$02$03$04$05$06$07$08$09$0L@$0M@@std@@@@QEAAPEBDXZ
_TEXT	SEGMENT
this$ = 8
?decrypt@?$MetaBuffer@$0N@$0FI@U?$integer_sequence@_K$0A@$00$01$02$03$04$05$06$07$08$09$0L@$0M@@std@@@@QEAAPEBDXZ PROC ; MetaBuffer<13,88,std::integer_sequence<unsigned __int64,0,1,2,3,4,5,6,7,8,9,10,11,12> >::decrypt, COMDAT

; 58   :         return m_isDecrypted;

  00000	0f b6 01	 movzx	 eax, BYTE PTR [rcx]
  00003	4c 8d 41 01	 lea	 r8, QWORD PTR [rcx+1]

; 63   :         if (!isDecrypted())

  00007	84 c0		 test	 al, al
  00009	75 64		 jne	 SHORT $LN17@decrypt

; 64   :         {
; 65   :             for (size_t i = 0; i < sizeof...(Ints); ++i)

  0000b	4d 8b c8	 mov	 r9, r8
  0000e	41 ba 0d 00 00
	00		 mov	 r10d, 13
  00014	0f 1f 40 00 0f
	1f 84 00 00 00
	00 00		 npad	 12
$LL4@decrypt:

; 66   :                 m_buffer[i] = decrypt(m_buffer[i]);

  00020	41 0f b6 09	 movzx	 ecx, BYTE PTR [r9]
  00024	4d 8d 49 01	 lea	 r9, QWORD PTR [r9+1]

; 80   :         return positive_modulo(ExtendedEuclidian<127, A>::y * (byte - B), 127);

  00028	b8 58 00 00 00	 mov	 eax, 88			; 00000058H
  0002d	2b c1		 sub	 eax, ecx
  0002f	6b c8 27	 imul	 ecx, eax, 39		; 00000027H

; 40   :     return (a % n + n) % n;

  00032	b8 09 04 02 81	 mov	 eax, -2130574327	; ffffffff81020409H
  00037	f7 e9		 imul	 ecx
  00039	03 d1		 add	 edx, ecx
  0003b	c1 fa 06	 sar	 edx, 6
  0003e	8b c2		 mov	 eax, edx
  00040	c1 e8 1f	 shr	 eax, 31
  00043	03 d0		 add	 edx, eax
  00045	6b c2 7f	 imul	 eax, edx, 127		; 0000007fH
  00048	2b c8		 sub	 ecx, eax
  0004a	b8 09 04 02 81	 mov	 eax, -2130574327	; ffffffff81020409H
  0004f	83 c1 7f	 add	 ecx, 127		; 0000007fH
  00052	f7 e9		 imul	 ecx
  00054	03 d1		 add	 edx, ecx
  00056	c1 fa 06	 sar	 edx, 6
  00059	8b c2		 mov	 eax, edx
  0005b	c1 e8 1f	 shr	 eax, 31
  0005e	03 d0		 add	 edx, eax
  00060	6b c2 7f	 imul	 eax, edx, 127		; 0000007fH
  00063	2b c8		 sub	 ecx, eax

; 66   :                 m_buffer[i] = decrypt(m_buffer[i]);

  00065	41 88 49 ff	 mov	 BYTE PTR [r9-1], cl
  00069	49 83 ea 01	 sub	 r10, 1
  0006d	75 b1		 jne	 SHORT $LL4@decrypt
$LN17@decrypt:

; 67   :         }
; 68   : 
; 69   :         return (const char*)m_buffer;
; 70   :     }

  0006f	49 8b c0	 mov	 rax, r8
  00072	c3		 ret	 0
?decrypt@?$MetaBuffer@$0N@$0FI@U?$integer_sequence@_K$0A@$00$01$02$03$04$05$06$07$08$09$0L@$0M@@std@@@@QEAAPEBDXZ ENDP ; MetaBuffer<13,88,std::integer_sequence<unsigned __int64,0,1,2,3,4,5,6,7,8,9,10,11,12> >::decrypt
_TEXT	ENDS
; Function compile flags: /Ogtpy
; File C:\Users\admin-z10\Desktop\conti_v3\cryptor\obfuscation\MetaString.h
;	COMDAT ??0?$MetaBuffer@$0N@$0FI@U?$integer_sequence@_K$0A@$00$01$02$03$04$05$06$07$08$09$0L@$0M@@std@@@@QEAA@PEBE@Z
_TEXT	SEGMENT
this$ = 8
data$dead$ = 16
??0?$MetaBuffer@$0N@$0FI@U?$integer_sequence@_K$0A@$00$01$02$03$04$05$06$07$08$09$0L@$0M@@std@@@@QEAA@PEBE@Z PROC ; MetaBuffer<13,88,std::integer_sequence<unsigned __int64,0,1,2,3,4,5,6,7,8,9,10,11,12> >::MetaBuffer<13,88,std::integer_sequence<unsigned __int64,0,1,2,3,4,5,6,7,8,9,10,11,12> >, COMDAT

; 55   : 
; 56   :     inline bool isDecrypted() const
; 57   :     {
; 58   :         return m_isDecrypted;
; 59   :     }
; 60   : 
; 61   :     inline const char* decrypt()
; 62   :     {
; 63   :         if (!isDecrypted())
; 64   :         {
; 65   :             for (size_t i = 0; i < sizeof...(Ints); ++i)
; 66   :                 m_buffer[i] = decrypt(m_buffer[i]);
; 67   :         }
; 68   : 
; 69   :         return (const char*)m_buffer;
; 70   :     }
; 71   : 
; 72   : private:
; 73   :     constexpr unsigned char __forceinline encrypt(unsigned char byte) const
; 74   :     {
; 75   :         return (A * byte + B) % 127;
; 76   :     }
; 77   : 
; 78   :     constexpr unsigned char __forceinline decrypt(unsigned char byte) const
; 79   :     {
; 80   :         return positive_modulo(ExtendedEuclidian<127, A>::y * (byte - B), 127);
; 81   :     }
; 82   : 
; 83   :     volatile bool m_isDecrypted = false;

  00000	c6 01 00	 mov	 BYTE PTR [rcx], 0
  00003	c6 41 01 0b	 mov	 BYTE PTR [rcx+1], 11
  00007	c6 41 02 3b	 mov	 BYTE PTR [rcx+2], 59	; 0000003bH
  0000b	c6 41 03 48	 mov	 BYTE PTR [rcx+3], 72	; 00000048H
  0000f	c6 41 04 2e	 mov	 BYTE PTR [rcx+4], 46	; 0000002eH
  00013	c6 41 05 48	 mov	 BYTE PTR [rcx+5], 72	; 00000048H
  00017	c6 41 06 6c	 mov	 BYTE PTR [rcx+6], 108	; 0000006cH
  0001b	c6 41 07 1e	 mov	 BYTE PTR [rcx+7], 30
  0001f	c6 41 08 2e	 mov	 BYTE PTR [rcx+8], 46	; 0000002eH
  00023	c6 41 09 33	 mov	 BYTE PTR [rcx+9], 51	; 00000033H
  00027	c6 41 0a 76	 mov	 BYTE PTR [rcx+10], 118	; 00000076H
  0002b	c6 41 0b 5f	 mov	 BYTE PTR [rcx+11], 95	; 0000005fH
  0002f	c6 41 0c 5f	 mov	 BYTE PTR [rcx+12], 95	; 0000005fH
  00033	c6 41 0d 58	 mov	 BYTE PTR [rcx+13], 88	; 00000058H
  00037	0f b6 41 01	 movzx	 eax, BYTE PTR [rcx+1]
  0003b	48 8b c1	 mov	 rax, rcx
  0003e	c3		 ret	 0
??0?$MetaBuffer@$0N@$0FI@U?$integer_sequence@_K$0A@$00$01$02$03$04$05$06$07$08$09$0L@$0M@@std@@@@QEAA@PEBE@Z ENDP ; MetaBuffer<13,88,std::integer_sequence<unsigned __int64,0,1,2,3,4,5,6,7,8,9,10,11,12> >::MetaBuffer<13,88,std::integer_sequence<unsigned __int64,0,1,2,3,4,5,6,7,8,9,10,11,12> >
_TEXT	ENDS
; Function compile flags: /Ogtpy
; File C:\Users\admin-z10\Desktop\conti_v3\cryptor\obfuscation\MetaString.h
;	COMDAT ?decrypt@?$MetaBuffer@$0GN@$0HJ@U?$integer_sequence@_K$0A@$00$01$02$03$04$05$06$07$08$09$0L@$0M@@std@@@@QEAAPEBDXZ
_TEXT	SEGMENT
this$ = 8
?decrypt@?$MetaBuffer@$0GN@$0HJ@U?$integer_sequence@_K$0A@$00$01$02$03$04$05$06$07$08$09$0L@$0M@@std@@@@QEAAPEBDXZ PROC ; MetaBuffer<109,121,std::integer_sequence<unsigned __int64,0,1,2,3,4,5,6,7,8,9,10,11,12> >::decrypt, COMDAT

; 58   :         return m_isDecrypted;

  00000	0f b6 01	 movzx	 eax, BYTE PTR [rcx]
  00003	4c 8d 49 01	 lea	 r9, QWORD PTR [rcx+1]

; 63   :         if (!isDecrypted())

  00007	84 c0		 test	 al, al
  00009	75 68		 jne	 SHORT $LN17@decrypt

; 64   :         {
; 65   :             for (size_t i = 0; i < sizeof...(Ints); ++i)

  0000b	4d 8b d1	 mov	 r10, r9
  0000e	41 bb 0d 00 00
	00		 mov	 r11d, 13
  00014	0f 1f 40 00 0f
	1f 84 00 00 00
	00 00		 npad	 12
$LL4@decrypt:

; 66   :                 m_buffer[i] = decrypt(m_buffer[i]);

  00020	41 0f b6 0a	 movzx	 ecx, BYTE PTR [r10]
  00024	4d 8d 52 01	 lea	 r10, QWORD PTR [r10+1]

; 80   :         return positive_modulo(ExtendedEuclidian<127, A>::y * (byte - B), 127);

  00028	83 e9 79	 sub	 ecx, 121		; 00000079H

; 40   :     return (a % n + n) % n;

  0002b	b8 09 04 02 81	 mov	 eax, -2130574327	; ffffffff81020409H

; 80   :         return positive_modulo(ExtendedEuclidian<127, A>::y * (byte - B), 127);

  00030	44 6b c1 07	 imul	 r8d, ecx, 7

; 40   :     return (a % n + n) % n;

  00034	41 f7 e8	 imul	 r8d
  00037	41 03 d0	 add	 edx, r8d
  0003a	c1 fa 06	 sar	 edx, 6
  0003d	8b c2		 mov	 eax, edx
  0003f	c1 e8 1f	 shr	 eax, 31
  00042	03 d0		 add	 edx, eax
  00044	6b c2 7f	 imul	 eax, edx, 127		; 0000007fH
  00047	44 2b c0	 sub	 r8d, eax
  0004a	b8 09 04 02 81	 mov	 eax, -2130574327	; ffffffff81020409H
  0004f	41 83 c0 7f	 add	 r8d, 127		; 0000007fH
  00053	41 f7 e8	 imul	 r8d
  00056	41 03 d0	 add	 edx, r8d
  00059	c1 fa 06	 sar	 edx, 6
  0005c	8b c2		 mov	 eax, edx
  0005e	c1 e8 1f	 shr	 eax, 31
  00061	03 d0		 add	 edx, eax
  00063	6b c2 7f	 imul	 eax, edx, 127		; 0000007fH
  00066	44 2b c0	 sub	 r8d, eax

; 66   :                 m_buffer[i] = decrypt(m_buffer[i]);

  00069	45 88 42 ff	 mov	 BYTE PTR [r10-1], r8b
  0006d	49 83 eb 01	 sub	 r11, 1
  00071	75 ad		 jne	 SHORT $LL4@decrypt
$LN17@decrypt:

; 67   :         }
; 68   : 
; 69   :         return (const char*)m_buffer;
; 70   :     }

  00073	49 8b c1	 mov	 rax, r9
  00076	c3		 ret	 0
?decrypt@?$MetaBuffer@$0GN@$0HJ@U?$integer_sequence@_K$0A@$00$01$02$03$04$05$06$07$08$09$0L@$0M@@std@@@@QEAAPEBDXZ ENDP ; MetaBuffer<109,121,std::integer_sequence<unsigned __int64,0,1,2,3,4,5,6,7,8,9,10,11,12> >::decrypt
_TEXT	ENDS
; Function compile flags: /Ogtpy
; File C:\Users\admin-z10\Desktop\conti_v3\cryptor\obfuscation\MetaString.h
;	COMDAT ??0?$MetaBuffer@$0GN@$0HJ@U?$integer_sequence@_K$0A@$00$01$02$03$04$05$06$07$08$09$0L@$0M@@std@@@@QEAA@PEBE@Z
_TEXT	SEGMENT
this$ = 8
data$dead$ = 16
??0?$MetaBuffer@$0GN@$0HJ@U?$integer_sequence@_K$0A@$00$01$02$03$04$05$06$07$08$09$0L@$0M@@std@@@@QEAA@PEBE@Z PROC ; MetaBuffer<109,121,std::integer_sequence<unsigned __int64,0,1,2,3,4,5,6,7,8,9,10,11,12> >::MetaBuffer<109,121,std::integer_sequence<unsigned __int64,0,1,2,3,4,5,6,7,8,9,10,11,12> >, COMDAT

; 55   : 
; 56   :     inline bool isDecrypted() const
; 57   :     {
; 58   :         return m_isDecrypted;
; 59   :     }
; 60   : 
; 61   :     inline const char* decrypt()
; 62   :     {
; 63   :         if (!isDecrypted())
; 64   :         {
; 65   :             for (size_t i = 0; i < sizeof...(Ints); ++i)
; 66   :                 m_buffer[i] = decrypt(m_buffer[i]);
; 67   :         }
; 68   : 
; 69   :         return (const char*)m_buffer;
; 70   :     }
; 71   : 
; 72   : private:
; 73   :     constexpr unsigned char __forceinline encrypt(unsigned char byte) const
; 74   :     {
; 75   :         return (A * byte + B) % 127;
; 76   :     }
; 77   : 
; 78   :     constexpr unsigned char __forceinline decrypt(unsigned char byte) const
; 79   :     {
; 80   :         return positive_modulo(ExtendedEuclidian<127, A>::y * (byte - B), 127);
; 81   :     }
; 82   : 
; 83   :     volatile bool m_isDecrypted = false;

  00000	c6 01 00	 mov	 BYTE PTR [rcx], 0
  00003	c6 41 01 4d	 mov	 BYTE PTR [rcx+1], 77	; 0000004dH
  00007	c6 41 02 0a	 mov	 BYTE PTR [rcx+2], 10
  0000b	c6 41 03 1b	 mov	 BYTE PTR [rcx+3], 27
  0000f	c6 41 04 52	 mov	 BYTE PTR [rcx+4], 82	; 00000052H
  00013	c6 41 05 0a	 mov	 BYTE PTR [rcx+5], 10
  00017	c6 41 06 1a	 mov	 BYTE PTR [rcx+6], 26
  0001b	c6 41 07 0a	 mov	 BYTE PTR [rcx+7], 10
  0001f	c6 41 08 09	 mov	 BYTE PTR [rcx+8], 9
  00023	c6 41 09 37	 mov	 BYTE PTR [rcx+9], 55	; 00000037H
  00027	c6 41 0a 63	 mov	 BYTE PTR [rcx+10], 99	; 00000063H
  0002b	c6 41 0b 52	 mov	 BYTE PTR [rcx+11], 82	; 00000052H
  0002f	c6 41 0c 52	 mov	 BYTE PTR [rcx+12], 82	; 00000052H
  00033	c6 41 0d 79	 mov	 BYTE PTR [rcx+13], 121	; 00000079H
  00037	0f b6 41 01	 movzx	 eax, BYTE PTR [rcx+1]
  0003b	48 8b c1	 mov	 rax, rcx
  0003e	c3		 ret	 0
??0?$MetaBuffer@$0GN@$0HJ@U?$integer_sequence@_K$0A@$00$01$02$03$04$05$06$07$08$09$0L@$0M@@std@@@@QEAA@PEBE@Z ENDP ; MetaBuffer<109,121,std::integer_sequence<unsigned __int64,0,1,2,3,4,5,6,7,8,9,10,11,12> >::MetaBuffer<109,121,std::integer_sequence<unsigned __int64,0,1,2,3,4,5,6,7,8,9,10,11,12> >
_TEXT	ENDS
; Function compile flags: /Ogtpy
; File C:\Users\admin-z10\Desktop\conti_v3\cryptor\obfuscation\MetaString.h
;	COMDAT ?decrypt@?$MetaBuffer@$0EH@$0O@U?$integer_sequence@_K$0A@$00$01$02$03$04$05$06$07$08$09$0L@$0M@@std@@@@QEAAPEBDXZ
_TEXT	SEGMENT
this$ = 8
?decrypt@?$MetaBuffer@$0EH@$0O@U?$integer_sequence@_K$0A@$00$01$02$03$04$05$06$07$08$09$0L@$0M@@std@@@@QEAAPEBDXZ PROC ; MetaBuffer<71,14,std::integer_sequence<unsigned __int64,0,1,2,3,4,5,6,7,8,9,10,11,12> >::decrypt, COMDAT

; 58   :         return m_isDecrypted;

  00000	0f b6 01	 movzx	 eax, BYTE PTR [rcx]
  00003	4c 8d 49 01	 lea	 r9, QWORD PTR [rcx+1]

; 63   :         if (!isDecrypted())

  00007	84 c0		 test	 al, al
  00009	75 68		 jne	 SHORT $LN17@decrypt

; 64   :         {
; 65   :             for (size_t i = 0; i < sizeof...(Ints); ++i)

  0000b	4d 8b d1	 mov	 r10, r9
  0000e	41 bb 0d 00 00
	00		 mov	 r11d, 13
  00014	0f 1f 40 00 0f
	1f 84 00 00 00
	00 00		 npad	 12
$LL4@decrypt:

; 66   :                 m_buffer[i] = decrypt(m_buffer[i]);

  00020	41 0f b6 0a	 movzx	 ecx, BYTE PTR [r10]
  00024	4d 8d 52 01	 lea	 r10, QWORD PTR [r10+1]

; 80   :         return positive_modulo(ExtendedEuclidian<127, A>::y * (byte - B), 127);

  00028	83 e9 0e	 sub	 ecx, 14

; 40   :     return (a % n + n) % n;

  0002b	b8 09 04 02 81	 mov	 eax, -2130574327	; ffffffff81020409H

; 80   :         return positive_modulo(ExtendedEuclidian<127, A>::y * (byte - B), 127);

  00030	44 6b c1 22	 imul	 r8d, ecx, 34		; 00000022H

; 40   :     return (a % n + n) % n;

  00034	41 f7 e8	 imul	 r8d
  00037	41 03 d0	 add	 edx, r8d
  0003a	c1 fa 06	 sar	 edx, 6
  0003d	8b c2		 mov	 eax, edx
  0003f	c1 e8 1f	 shr	 eax, 31
  00042	03 d0		 add	 edx, eax
  00044	6b c2 7f	 imul	 eax, edx, 127		; 0000007fH
  00047	44 2b c0	 sub	 r8d, eax
  0004a	b8 09 04 02 81	 mov	 eax, -2130574327	; ffffffff81020409H
  0004f	41 83 c0 7f	 add	 r8d, 127		; 0000007fH
  00053	41 f7 e8	 imul	 r8d
  00056	41 03 d0	 add	 edx, r8d
  00059	c1 fa 06	 sar	 edx, 6
  0005c	8b c2		 mov	 eax, edx
  0005e	c1 e8 1f	 shr	 eax, 31
  00061	03 d0		 add	 edx, eax
  00063	6b c2 7f	 imul	 eax, edx, 127		; 0000007fH
  00066	44 2b c0	 sub	 r8d, eax

; 66   :                 m_buffer[i] = decrypt(m_buffer[i]);

  00069	45 88 42 ff	 mov	 BYTE PTR [r10-1], r8b
  0006d	49 83 eb 01	 sub	 r11, 1
  00071	75 ad		 jne	 SHORT $LL4@decrypt
$LN17@decrypt:

; 67   :         }
; 68   : 
; 69   :         return (const char*)m_buffer;
; 70   :     }

  00073	49 8b c1	 mov	 rax, r9
  00076	c3		 ret	 0
?decrypt@?$MetaBuffer@$0EH@$0O@U?$integer_sequence@_K$0A@$00$01$02$03$04$05$06$07$08$09$0L@$0M@@std@@@@QEAAPEBDXZ ENDP ; MetaBuffer<71,14,std::integer_sequence<unsigned __int64,0,1,2,3,4,5,6,7,8,9,10,11,12> >::decrypt
_TEXT	ENDS
; Function compile flags: /Ogtpy
; File C:\Users\admin-z10\Desktop\conti_v3\cryptor\obfuscation\MetaString.h
;	COMDAT ??0?$MetaBuffer@$0EH@$0O@U?$integer_sequence@_K$0A@$00$01$02$03$04$05$06$07$08$09$0L@$0M@@std@@@@QEAA@PEBE@Z
_TEXT	SEGMENT
this$ = 8
data$dead$ = 16
??0?$MetaBuffer@$0EH@$0O@U?$integer_sequence@_K$0A@$00$01$02$03$04$05$06$07$08$09$0L@$0M@@std@@@@QEAA@PEBE@Z PROC ; MetaBuffer<71,14,std::integer_sequence<unsigned __int64,0,1,2,3,4,5,6,7,8,9,10,11,12> >::MetaBuffer<71,14,std::integer_sequence<unsigned __int64,0,1,2,3,4,5,6,7,8,9,10,11,12> >, COMDAT

; 55   : 
; 56   :     inline bool isDecrypted() const
; 57   :     {
; 58   :         return m_isDecrypted;
; 59   :     }
; 60   : 
; 61   :     inline const char* decrypt()
; 62   :     {
; 63   :         if (!isDecrypted())
; 64   :         {
; 65   :             for (size_t i = 0; i < sizeof...(Ints); ++i)
; 66   :                 m_buffer[i] = decrypt(m_buffer[i]);
; 67   :         }
; 68   : 
; 69   :         return (const char*)m_buffer;
; 70   :     }
; 71   : 
; 72   : private:
; 73   :     constexpr unsigned char __forceinline encrypt(unsigned char byte) const
; 74   :     {
; 75   :         return (A * byte + B) % 127;
; 76   :     }
; 77   : 
; 78   :     constexpr unsigned char __forceinline decrypt(unsigned char byte) const
; 79   :     {
; 80   :         return positive_modulo(ExtendedEuclidian<127, A>::y * (byte - B), 127);
; 81   :     }
; 82   : 
; 83   :     volatile bool m_isDecrypted = false;

  00000	c6 01 00	 mov	 BYTE PTR [rcx], 0
  00003	c6 41 01 5b	 mov	 BYTE PTR [rcx+1], 91	; 0000005bH
  00007	c6 41 02 49	 mov	 BYTE PTR [rcx+2], 73	; 00000049H
  0000b	c6 41 03 7a	 mov	 BYTE PTR [rcx+3], 122	; 0000007aH
  0000f	c6 41 04 2b	 mov	 BYTE PTR [rcx+4], 43	; 0000002bH
  00013	c6 41 05 5c	 mov	 BYTE PTR [rcx+5], 92	; 0000005cH
  00017	c6 41 06 67	 mov	 BYTE PTR [rcx+6], 103	; 00000067H
  0001b	c6 41 07 4f	 mov	 BYTE PTR [rcx+7], 79	; 0000004fH
  0001f	c6 41 08 08	 mov	 BYTE PTR [rcx+8], 8
  00023	c6 41 09 69	 mov	 BYTE PTR [rcx+9], 105	; 00000069H
  00027	c6 41 0a 02	 mov	 BYTE PTR [rcx+10], 2
  0002b	c6 41 0b 3e	 mov	 BYTE PTR [rcx+11], 62	; 0000003eH
  0002f	c6 41 0c 3e	 mov	 BYTE PTR [rcx+12], 62	; 0000003eH
  00033	c6 41 0d 0e	 mov	 BYTE PTR [rcx+13], 14
  00037	0f b6 41 01	 movzx	 eax, BYTE PTR [rcx+1]
  0003b	48 8b c1	 mov	 rax, rcx
  0003e	c3		 ret	 0
??0?$MetaBuffer@$0EH@$0O@U?$integer_sequence@_K$0A@$00$01$02$03$04$05$06$07$08$09$0L@$0M@@std@@@@QEAA@PEBE@Z ENDP ; MetaBuffer<71,14,std::integer_sequence<unsigned __int64,0,1,2,3,4,5,6,7,8,9,10,11,12> >::MetaBuffer<71,14,std::integer_sequence<unsigned __int64,0,1,2,3,4,5,6,7,8,9,10,11,12> >
_TEXT	ENDS
; Function compile flags: /Ogtpy
; File C:\Users\admin-z10\Desktop\conti_v3\cryptor\obfuscation\MetaString.h
;	COMDAT ?decrypt@?$MetaBuffer@$04$0GH@U?$integer_sequence@_K$0A@$00$01$02$03$04$05$06$07$08$09$0L@$0M@@std@@@@QEAAPEBDXZ
_TEXT	SEGMENT
this$ = 8
?decrypt@?$MetaBuffer@$04$0GH@U?$integer_sequence@_K$0A@$00$01$02$03$04$05$06$07$08$09$0L@$0M@@std@@@@QEAAPEBDXZ PROC ; MetaBuffer<5,103,std::integer_sequence<unsigned __int64,0,1,2,3,4,5,6,7,8,9,10,11,12> >::decrypt, COMDAT

; 58   :         return m_isDecrypted;

  00000	0f b6 01	 movzx	 eax, BYTE PTR [rcx]
  00003	4c 8d 49 01	 lea	 r9, QWORD PTR [rcx+1]

; 63   :         if (!isDecrypted())

  00007	84 c0		 test	 al, al
  00009	75 68		 jne	 SHORT $LN17@decrypt

; 64   :         {
; 65   :             for (size_t i = 0; i < sizeof...(Ints); ++i)

  0000b	4d 8b d1	 mov	 r10, r9
  0000e	41 bb 0d 00 00
	00		 mov	 r11d, 13
  00014	0f 1f 40 00 0f
	1f 84 00 00 00
	00 00		 npad	 12
$LL4@decrypt:

; 66   :                 m_buffer[i] = decrypt(m_buffer[i]);

  00020	41 0f b6 0a	 movzx	 ecx, BYTE PTR [r10]
  00024	4d 8d 52 01	 lea	 r10, QWORD PTR [r10+1]

; 80   :         return positive_modulo(ExtendedEuclidian<127, A>::y * (byte - B), 127);

  00028	83 e9 67	 sub	 ecx, 103		; 00000067H

; 40   :     return (a % n + n) % n;

  0002b	b8 09 04 02 81	 mov	 eax, -2130574327	; ffffffff81020409H

; 80   :         return positive_modulo(ExtendedEuclidian<127, A>::y * (byte - B), 127);

  00030	44 6b c1 33	 imul	 r8d, ecx, 51		; 00000033H

; 40   :     return (a % n + n) % n;

  00034	41 f7 e8	 imul	 r8d
  00037	41 03 d0	 add	 edx, r8d
  0003a	c1 fa 06	 sar	 edx, 6
  0003d	8b c2		 mov	 eax, edx
  0003f	c1 e8 1f	 shr	 eax, 31
  00042	03 d0		 add	 edx, eax
  00044	6b c2 7f	 imul	 eax, edx, 127		; 0000007fH
  00047	44 2b c0	 sub	 r8d, eax
  0004a	b8 09 04 02 81	 mov	 eax, -2130574327	; ffffffff81020409H
  0004f	41 83 c0 7f	 add	 r8d, 127		; 0000007fH
  00053	41 f7 e8	 imul	 r8d
  00056	41 03 d0	 add	 edx, r8d
  00059	c1 fa 06	 sar	 edx, 6
  0005c	8b c2		 mov	 eax, edx
  0005e	c1 e8 1f	 shr	 eax, 31
  00061	03 d0		 add	 edx, eax
  00063	6b c2 7f	 imul	 eax, edx, 127		; 0000007fH
  00066	44 2b c0	 sub	 r8d, eax

; 66   :                 m_buffer[i] = decrypt(m_buffer[i]);

  00069	45 88 42 ff	 mov	 BYTE PTR [r10-1], r8b
  0006d	49 83 eb 01	 sub	 r11, 1
  00071	75 ad		 jne	 SHORT $LL4@decrypt
$LN17@decrypt:

; 67   :         }
; 68   : 
; 69   :         return (const char*)m_buffer;
; 70   :     }

  00073	49 8b c1	 mov	 rax, r9
  00076	c3		 ret	 0
?decrypt@?$MetaBuffer@$04$0GH@U?$integer_sequence@_K$0A@$00$01$02$03$04$05$06$07$08$09$0L@$0M@@std@@@@QEAAPEBDXZ ENDP ; MetaBuffer<5,103,std::integer_sequence<unsigned __int64,0,1,2,3,4,5,6,7,8,9,10,11,12> >::decrypt
_TEXT	ENDS
; Function compile flags: /Ogtpy
; File C:\Users\admin-z10\Desktop\conti_v3\cryptor\obfuscation\MetaString.h
;	COMDAT ??0?$MetaBuffer@$04$0GH@U?$integer_sequence@_K$0A@$00$01$02$03$04$05$06$07$08$09$0L@$0M@@std@@@@QEAA@PEBE@Z
_TEXT	SEGMENT
this$ = 8
data$dead$ = 16
??0?$MetaBuffer@$04$0GH@U?$integer_sequence@_K$0A@$00$01$02$03$04$05$06$07$08$09$0L@$0M@@std@@@@QEAA@PEBE@Z PROC ; MetaBuffer<5,103,std::integer_sequence<unsigned __int64,0,1,2,3,4,5,6,7,8,9,10,11,12> >::MetaBuffer<5,103,std::integer_sequence<unsigned __int64,0,1,2,3,4,5,6,7,8,9,10,11,12> >, COMDAT

; 55   : 
; 56   :     inline bool isDecrypted() const
; 57   :     {
; 58   :         return m_isDecrypted;
; 59   :     }
; 60   : 
; 61   :     inline const char* decrypt()
; 62   :     {
; 63   :         if (!isDecrypted())
; 64   :         {
; 65   :             for (size_t i = 0; i < sizeof...(Ints); ++i)
; 66   :                 m_buffer[i] = decrypt(m_buffer[i]);
; 67   :         }
; 68   : 
; 69   :         return (const char*)m_buffer;
; 70   :     }
; 71   : 
; 72   : private:
; 73   :     constexpr unsigned char __forceinline encrypt(unsigned char byte) const
; 74   :     {
; 75   :         return (A * byte + B) % 127;
; 76   :     }
; 77   : 
; 78   :     constexpr unsigned char __forceinline decrypt(unsigned char byte) const
; 79   :     {
; 80   :         return positive_modulo(ExtendedEuclidian<127, A>::y * (byte - B), 127);
; 81   :     }
; 82   : 
; 83   :     volatile bool m_isDecrypted = false;

  00000	c6 01 00	 mov	 BYTE PTR [rcx], 0
  00003	c6 41 01 61	 mov	 BYTE PTR [rcx+1], 97	; 00000061H
  00007	c6 41 02 64	 mov	 BYTE PTR [rcx+2], 100	; 00000064H
  0000b	c6 41 03 26	 mov	 BYTE PTR [rcx+3], 38	; 00000026H
  0000f	c6 41 04 12	 mov	 BYTE PTR [rcx+4], 18
  00013	c6 41 05 64	 mov	 BYTE PTR [rcx+5], 100	; 00000064H
  00017	c6 41 06 08	 mov	 BYTE PTR [rcx+6], 8
  0001b	c6 41 07 68	 mov	 BYTE PTR [rcx+7], 104	; 00000068H
  0001f	c6 41 08 63	 mov	 BYTE PTR [rcx+8], 99	; 00000063H
  00023	c6 41 09 4f	 mov	 BYTE PTR [rcx+9], 79	; 0000004fH
  00027	c6 41 0a 5f	 mov	 BYTE PTR [rcx+10], 95	; 0000005fH
  0002b	c6 41 0b 08	 mov	 BYTE PTR [rcx+11], 8
  0002f	c6 41 0c 08	 mov	 BYTE PTR [rcx+12], 8
  00033	c6 41 0d 67	 mov	 BYTE PTR [rcx+13], 103	; 00000067H
  00037	0f b6 41 01	 movzx	 eax, BYTE PTR [rcx+1]
  0003b	48 8b c1	 mov	 rax, rcx
  0003e	c3		 ret	 0
??0?$MetaBuffer@$04$0GH@U?$integer_sequence@_K$0A@$00$01$02$03$04$05$06$07$08$09$0L@$0M@@std@@@@QEAA@PEBE@Z ENDP ; MetaBuffer<5,103,std::integer_sequence<unsigned __int64,0,1,2,3,4,5,6,7,8,9,10,11,12> >::MetaBuffer<5,103,std::integer_sequence<unsigned __int64,0,1,2,3,4,5,6,7,8,9,10,11,12> >
_TEXT	ENDS
; Function compile flags: /Ogtpy
; File C:\Users\admin-z10\Desktop\conti_v3\cryptor\obfuscation\MetaString.h
;	COMDAT ?decrypt@?$MetaBuffer@$0CL@$0FO@U?$integer_sequence@_K$0A@$00$01$02$03$04$05$06$07$08$09$0L@$0M@@std@@@@QEAAPEBDXZ
_TEXT	SEGMENT
this$ = 8
?decrypt@?$MetaBuffer@$0CL@$0FO@U?$integer_sequence@_K$0A@$00$01$02$03$04$05$06$07$08$09$0L@$0M@@std@@@@QEAAPEBDXZ PROC ; MetaBuffer<43,94,std::integer_sequence<unsigned __int64,0,1,2,3,4,5,6,7,8,9,10,11,12> >::decrypt, COMDAT

; 58   :         return m_isDecrypted;

  00000	0f b6 01	 movzx	 eax, BYTE PTR [rcx]
  00003	4c 8d 41 01	 lea	 r8, QWORD PTR [rcx+1]

; 63   :         if (!isDecrypted())

  00007	84 c0		 test	 al, al
  00009	75 64		 jne	 SHORT $LN17@decrypt

; 64   :         {
; 65   :             for (size_t i = 0; i < sizeof...(Ints); ++i)

  0000b	4d 8b c8	 mov	 r9, r8
  0000e	41 ba 0d 00 00
	00		 mov	 r10d, 13
  00014	0f 1f 40 00 0f
	1f 84 00 00 00
	00 00		 npad	 12
$LL4@decrypt:

; 66   :                 m_buffer[i] = decrypt(m_buffer[i]);

  00020	41 0f b6 09	 movzx	 ecx, BYTE PTR [r9]
  00024	4d 8d 49 01	 lea	 r9, QWORD PTR [r9+1]

; 80   :         return positive_modulo(ExtendedEuclidian<127, A>::y * (byte - B), 127);

  00028	b8 5e 00 00 00	 mov	 eax, 94			; 0000005eH
  0002d	2b c1		 sub	 eax, ecx
  0002f	6b c8 3e	 imul	 ecx, eax, 62		; 0000003eH

; 40   :     return (a % n + n) % n;

  00032	b8 09 04 02 81	 mov	 eax, -2130574327	; ffffffff81020409H
  00037	f7 e9		 imul	 ecx
  00039	03 d1		 add	 edx, ecx
  0003b	c1 fa 06	 sar	 edx, 6
  0003e	8b c2		 mov	 eax, edx
  00040	c1 e8 1f	 shr	 eax, 31
  00043	03 d0		 add	 edx, eax
  00045	6b c2 7f	 imul	 eax, edx, 127		; 0000007fH
  00048	2b c8		 sub	 ecx, eax
  0004a	b8 09 04 02 81	 mov	 eax, -2130574327	; ffffffff81020409H
  0004f	83 c1 7f	 add	 ecx, 127		; 0000007fH
  00052	f7 e9		 imul	 ecx
  00054	03 d1		 add	 edx, ecx
  00056	c1 fa 06	 sar	 edx, 6
  00059	8b c2		 mov	 eax, edx
  0005b	c1 e8 1f	 shr	 eax, 31
  0005e	03 d0		 add	 edx, eax
  00060	6b c2 7f	 imul	 eax, edx, 127		; 0000007fH
  00063	2b c8		 sub	 ecx, eax

; 66   :                 m_buffer[i] = decrypt(m_buffer[i]);

  00065	41 88 49 ff	 mov	 BYTE PTR [r9-1], cl
  00069	49 83 ea 01	 sub	 r10, 1
  0006d	75 b1		 jne	 SHORT $LL4@decrypt
$LN17@decrypt:

; 67   :         }
; 68   : 
; 69   :         return (const char*)m_buffer;
; 70   :     }

  0006f	49 8b c0	 mov	 rax, r8
  00072	c3		 ret	 0
?decrypt@?$MetaBuffer@$0CL@$0FO@U?$integer_sequence@_K$0A@$00$01$02$03$04$05$06$07$08$09$0L@$0M@@std@@@@QEAAPEBDXZ ENDP ; MetaBuffer<43,94,std::integer_sequence<unsigned __int64,0,1,2,3,4,5,6,7,8,9,10,11,12> >::decrypt
_TEXT	ENDS
; Function compile flags: /Ogtpy
; File C:\Users\admin-z10\Desktop\conti_v3\cryptor\obfuscation\MetaString.h
;	COMDAT ??0?$MetaBuffer@$0CL@$0FO@U?$integer_sequence@_K$0A@$00$01$02$03$04$05$06$07$08$09$0L@$0M@@std@@@@QEAA@PEBE@Z
_TEXT	SEGMENT
this$ = 8
data$dead$ = 16
??0?$MetaBuffer@$0CL@$0FO@U?$integer_sequence@_K$0A@$00$01$02$03$04$05$06$07$08$09$0L@$0M@@std@@@@QEAA@PEBE@Z PROC ; MetaBuffer<43,94,std::integer_sequence<unsigned __int64,0,1,2,3,4,5,6,7,8,9,10,11,12> >::MetaBuffer<43,94,std::integer_sequence<unsigned __int64,0,1,2,3,4,5,6,7,8,9,10,11,12> >, COMDAT

; 55   : 
; 56   :     inline bool isDecrypted() const
; 57   :     {
; 58   :         return m_isDecrypted;
; 59   :     }
; 60   : 
; 61   :     inline const char* decrypt()
; 62   :     {
; 63   :         if (!isDecrypted())
; 64   :         {
; 65   :             for (size_t i = 0; i < sizeof...(Ints); ++i)
; 66   :                 m_buffer[i] = decrypt(m_buffer[i]);
; 67   :         }
; 68   : 
; 69   :         return (const char*)m_buffer;
; 70   :     }
; 71   : 
; 72   : private:
; 73   :     constexpr unsigned char __forceinline encrypt(unsigned char byte) const
; 74   :     {
; 75   :         return (A * byte + B) % 127;
; 76   :     }
; 77   : 
; 78   :     constexpr unsigned char __forceinline decrypt(unsigned char byte) const
; 79   :     {
; 80   :         return positive_modulo(ExtendedEuclidian<127, A>::y * (byte - B), 127);
; 81   :     }
; 82   : 
; 83   :     volatile bool m_isDecrypted = false;

  00000	c6 01 00	 mov	 BYTE PTR [rcx], 0
  00003	c6 41 01 5f	 mov	 BYTE PTR [rcx+1], 95	; 0000005fH
  00007	c6 41 02 4c	 mov	 BYTE PTR [rcx+2], 76	; 0000004cH
  0000b	c6 41 03 58	 mov	 BYTE PTR [rcx+3], 88	; 00000058H
  0000f	c6 41 04 4a	 mov	 BYTE PTR [rcx+4], 74	; 0000004aH
  00013	c6 41 05 54	 mov	 BYTE PTR [rcx+5], 84	; 00000054H
  00017	c6 41 06 25	 mov	 BYTE PTR [rcx+6], 37	; 00000025H
  0001b	c6 41 07 01	 mov	 BYTE PTR [rcx+7], 1
  0001f	c6 41 08 55	 mov	 BYTE PTR [rcx+8], 85	; 00000055H
  00023	c6 41 09 28	 mov	 BYTE PTR [rcx+9], 40	; 00000028H
  00027	c6 41 0a 4c	 mov	 BYTE PTR [rcx+10], 76	; 0000004cH
  0002b	c6 41 0b 27	 mov	 BYTE PTR [rcx+11], 39	; 00000027H
  0002f	c6 41 0c 27	 mov	 BYTE PTR [rcx+12], 39	; 00000027H
  00033	c6 41 0d 5e	 mov	 BYTE PTR [rcx+13], 94	; 0000005eH
  00037	0f b6 41 01	 movzx	 eax, BYTE PTR [rcx+1]
  0003b	48 8b c1	 mov	 rax, rcx
  0003e	c3		 ret	 0
??0?$MetaBuffer@$0CL@$0FO@U?$integer_sequence@_K$0A@$00$01$02$03$04$05$06$07$08$09$0L@$0M@@std@@@@QEAA@PEBE@Z ENDP ; MetaBuffer<43,94,std::integer_sequence<unsigned __int64,0,1,2,3,4,5,6,7,8,9,10,11,12> >::MetaBuffer<43,94,std::integer_sequence<unsigned __int64,0,1,2,3,4,5,6,7,8,9,10,11,12> >
_TEXT	ENDS
; Function compile flags: /Ogtpy
; File C:\Users\admin-z10\Desktop\conti_v3\cryptor\obfuscation\MetaString.h
;	COMDAT ?decrypt@?$MetaBuffer@$0DL@$0EH@U?$integer_sequence@_K$0A@$00$01$02$03$04$05$06$07$08$09$0L@$0M@$0N@$0O@$0P@$0BA@$0BB@$0BC@$0BD@$0BE@$0BF@$0BG@$0BH@$0BI@$0BJ@@std@@@@QEAAPEBDXZ
_TEXT	SEGMENT
this$ = 8
?decrypt@?$MetaBuffer@$0DL@$0EH@U?$integer_sequence@_K$0A@$00$01$02$03$04$05$06$07$08$09$0L@$0M@$0N@$0O@$0P@$0BA@$0BB@$0BC@$0BD@$0BE@$0BF@$0BG@$0BH@$0BI@$0BJ@@std@@@@QEAAPEBDXZ PROC ; MetaBuffer<59,71,std::integer_sequence<unsigned __int64,0,1,2,3,4,5,6,7,8,9,10,11,12,13,14,15,16,17,18,19,20,21,22,23,24,25> >::decrypt, COMDAT

; 58   :         return m_isDecrypted;

  00000	0f b6 01	 movzx	 eax, BYTE PTR [rcx]
  00003	4c 8d 49 01	 lea	 r9, QWORD PTR [rcx+1]

; 63   :         if (!isDecrypted())

  00007	84 c0		 test	 al, al
  00009	75 68		 jne	 SHORT $LN17@decrypt

; 64   :         {
; 65   :             for (size_t i = 0; i < sizeof...(Ints); ++i)

  0000b	4d 8b d1	 mov	 r10, r9
  0000e	41 bb 1a 00 00
	00		 mov	 r11d, 26
  00014	0f 1f 40 00 0f
	1f 84 00 00 00
	00 00		 npad	 12
$LL4@decrypt:

; 66   :                 m_buffer[i] = decrypt(m_buffer[i]);

  00020	41 0f b6 0a	 movzx	 ecx, BYTE PTR [r10]
  00024	4d 8d 52 01	 lea	 r10, QWORD PTR [r10+1]

; 80   :         return positive_modulo(ExtendedEuclidian<127, A>::y * (byte - B), 127);

  00028	83 e9 47	 sub	 ecx, 71			; 00000047H

; 40   :     return (a % n + n) % n;

  0002b	b8 09 04 02 81	 mov	 eax, -2130574327	; ffffffff81020409H

; 80   :         return positive_modulo(ExtendedEuclidian<127, A>::y * (byte - B), 127);

  00030	44 6b c1 1c	 imul	 r8d, ecx, 28

; 40   :     return (a % n + n) % n;

  00034	41 f7 e8	 imul	 r8d
  00037	41 03 d0	 add	 edx, r8d
  0003a	c1 fa 06	 sar	 edx, 6
  0003d	8b c2		 mov	 eax, edx
  0003f	c1 e8 1f	 shr	 eax, 31
  00042	03 d0		 add	 edx, eax
  00044	6b c2 7f	 imul	 eax, edx, 127		; 0000007fH
  00047	44 2b c0	 sub	 r8d, eax
  0004a	b8 09 04 02 81	 mov	 eax, -2130574327	; ffffffff81020409H
  0004f	41 83 c0 7f	 add	 r8d, 127		; 0000007fH
  00053	41 f7 e8	 imul	 r8d
  00056	41 03 d0	 add	 edx, r8d
  00059	c1 fa 06	 sar	 edx, 6
  0005c	8b c2		 mov	 eax, edx
  0005e	c1 e8 1f	 shr	 eax, 31
  00061	03 d0		 add	 edx, eax
  00063	6b c2 7f	 imul	 eax, edx, 127		; 0000007fH
  00066	44 2b c0	 sub	 r8d, eax

; 66   :                 m_buffer[i] = decrypt(m_buffer[i]);

  00069	45 88 42 ff	 mov	 BYTE PTR [r10-1], r8b
  0006d	49 83 eb 01	 sub	 r11, 1
  00071	75 ad		 jne	 SHORT $LL4@decrypt
$LN17@decrypt:

; 67   :         }
; 68   : 
; 69   :         return (const char*)m_buffer;
; 70   :     }

  00073	49 8b c1	 mov	 rax, r9
  00076	c3		 ret	 0
?decrypt@?$MetaBuffer@$0DL@$0EH@U?$integer_sequence@_K$0A@$00$01$02$03$04$05$06$07$08$09$0L@$0M@$0N@$0O@$0P@$0BA@$0BB@$0BC@$0BD@$0BE@$0BF@$0BG@$0BH@$0BI@$0BJ@@std@@@@QEAAPEBDXZ ENDP ; MetaBuffer<59,71,std::integer_sequence<unsigned __int64,0,1,2,3,4,5,6,7,8,9,10,11,12,13,14,15,16,17,18,19,20,21,22,23,24,25> >::decrypt
_TEXT	ENDS
; Function compile flags: /Ogtpy
; File C:\Users\admin-z10\Desktop\conti_v3\cryptor\obfuscation\MetaString.h
;	COMDAT ??0?$MetaBuffer@$0DL@$0EH@U?$integer_sequence@_K$0A@$00$01$02$03$04$05$06$07$08$09$0L@$0M@$0N@$0O@$0P@$0BA@$0BB@$0BC@$0BD@$0BE@$0BF@$0BG@$0BH@$0BI@$0BJ@@std@@@@QEAA@PEBE@Z
_TEXT	SEGMENT
this$ = 8
data$dead$ = 16
??0?$MetaBuffer@$0DL@$0EH@U?$integer_sequence@_K$0A@$00$01$02$03$04$05$06$07$08$09$0L@$0M@$0N@$0O@$0P@$0BA@$0BB@$0BC@$0BD@$0BE@$0BF@$0BG@$0BH@$0BI@$0BJ@@std@@@@QEAA@PEBE@Z PROC ; MetaBuffer<59,71,std::integer_sequence<unsigned __int64,0,1,2,3,4,5,6,7,8,9,10,11,12,13,14,15,16,17,18,19,20,21,22,23,24,25> >::MetaBuffer<59,71,std::integer_sequence<unsigned __int64,0,1,2,3,4,5,6,7,8,9,10,11,12,13,14,15,16,17,18,19,20,21,22,23,24,25> >, COMDAT

; 55   : 
; 56   :     inline bool isDecrypted() const
; 57   :     {
; 58   :         return m_isDecrypted;
; 59   :     }
; 60   : 
; 61   :     inline const char* decrypt()
; 62   :     {
; 63   :         if (!isDecrypted())
; 64   :         {
; 65   :             for (size_t i = 0; i < sizeof...(Ints); ++i)
; 66   :                 m_buffer[i] = decrypt(m_buffer[i]);
; 67   :         }
; 68   : 
; 69   :         return (const char*)m_buffer;
; 70   :     }
; 71   : 
; 72   : private:
; 73   :     constexpr unsigned char __forceinline encrypt(unsigned char byte) const
; 74   :     {
; 75   :         return (A * byte + B) % 127;
; 76   :     }
; 77   : 
; 78   :     constexpr unsigned char __forceinline decrypt(unsigned char byte) const
; 79   :     {
; 80   :         return positive_modulo(ExtendedEuclidian<127, A>::y * (byte - B), 127);
; 81   :     }
; 82   : 
; 83   :     volatile bool m_isDecrypted = false;

  00000	c6 01 00	 mov	 BYTE PTR [rcx], 0
  00003	c6 41 01 33	 mov	 BYTE PTR [rcx+1], 51	; 00000033H
  00007	c6 41 02 47	 mov	 BYTE PTR [rcx+2], 71	; 00000047H
  0000b	c6 41 03 3d	 mov	 BYTE PTR [rcx+3], 61	; 0000003dH
  0000f	c6 41 04 47	 mov	 BYTE PTR [rcx+4], 71	; 00000047H
  00013	c6 41 05 42	 mov	 BYTE PTR [rcx+5], 66	; 00000042H
  00017	c6 41 06 47	 mov	 BYTE PTR [rcx+6], 71	; 00000047H
  0001b	c6 41 07 54	 mov	 BYTE PTR [rcx+7], 84	; 00000054H
  0001f	c6 41 08 47	 mov	 BYTE PTR [rcx+8], 71	; 00000047H
  00023	c6 41 09 3d	 mov	 BYTE PTR [rcx+9], 61	; 0000003dH
  00027	c6 41 0a 47	 mov	 BYTE PTR [rcx+10], 71	; 00000047H
  0002b	c6 41 0b 5d	 mov	 BYTE PTR [rcx+11], 93	; 0000005dH
  0002f	c6 41 0c 47	 mov	 BYTE PTR [rcx+12], 71	; 00000047H
  00033	c6 41 0d 20	 mov	 BYTE PTR [rcx+13], 32	; 00000020H
  00037	c6 41 0e 47	 mov	 BYTE PTR [rcx+14], 71	; 00000047H
  0003b	c6 41 0f 64	 mov	 BYTE PTR [rcx+15], 100	; 00000064H
  0003f	c6 41 10 47	 mov	 BYTE PTR [rcx+16], 71	; 00000047H
  00043	c6 41 11 76	 mov	 BYTE PTR [rcx+17], 118	; 00000076H
  00047	c6 41 12 47	 mov	 BYTE PTR [rcx+18], 71	; 00000047H
  0004b	c6 41 13 02	 mov	 BYTE PTR [rcx+19], 2
  0004f	c6 41 14 47	 mov	 BYTE PTR [rcx+20], 71	; 00000047H
  00053	c6 41 15 5d	 mov	 BYTE PTR [rcx+21], 93	; 0000005dH
  00057	c6 41 16 47	 mov	 BYTE PTR [rcx+22], 71	; 00000047H
  0005b	c6 41 17 5d	 mov	 BYTE PTR [rcx+23], 93	; 0000005dH
  0005f	c6 41 18 47	 mov	 BYTE PTR [rcx+24], 71	; 00000047H
  00063	c6 41 19 47	 mov	 BYTE PTR [rcx+25], 71	; 00000047H
  00067	c6 41 1a 47	 mov	 BYTE PTR [rcx+26], 71	; 00000047H
  0006b	0f b6 41 01	 movzx	 eax, BYTE PTR [rcx+1]
  0006f	48 8b c1	 mov	 rax, rcx
  00072	c3		 ret	 0
??0?$MetaBuffer@$0DL@$0EH@U?$integer_sequence@_K$0A@$00$01$02$03$04$05$06$07$08$09$0L@$0M@$0N@$0O@$0P@$0BA@$0BB@$0BC@$0BD@$0BE@$0BF@$0BG@$0BH@$0BI@$0BJ@@std@@@@QEAA@PEBE@Z ENDP ; MetaBuffer<59,71,std::integer_sequence<unsigned __int64,0,1,2,3,4,5,6,7,8,9,10,11,12,13,14,15,16,17,18,19,20,21,22,23,24,25> >::MetaBuffer<59,71,std::integer_sequence<unsigned __int64,0,1,2,3,4,5,6,7,8,9,10,11,12,13,14,15,16,17,18,19,20,21,22,23,24,25> >
_TEXT	ENDS
; Function compile flags: /Ogtpy
; File C:\Users\admin-z10\Desktop\conti_v3\cryptor\obfuscation\MetaString.h
;	COMDAT ?decrypt@?$MetaBuffer@$0FD@$0FP@U?$integer_sequence@_K$0A@$00$01$02$03$04$05$06$07$08@std@@@@AEBAEE@Z
_TEXT	SEGMENT
this$dead$ = 8
byte$ = 16
?decrypt@?$MetaBuffer@$0FD@$0FP@U?$integer_sequence@_K$0A@$00$01$02$03$04$05$06$07$08@std@@@@AEBAEE@Z PROC ; MetaBuffer<83,95,std::integer_sequence<unsigned __int64,0,1,2,3,4,5,6,7,8,9> >::decrypt, COMDAT

; 80   :         return positive_modulo(ExtendedEuclidian<127, A>::y * (byte - B), 127);

  00000	0f b6 c2	 movzx	 eax, dl
  00003	b9 5f 00 00 00	 mov	 ecx, 95			; 0000005fH
  00008	2b c8		 sub	 ecx, eax

; 40   :     return (a % n + n) % n;

  0000a	b8 09 04 02 81	 mov	 eax, -2130574327	; ffffffff81020409H

; 80   :         return positive_modulo(ExtendedEuclidian<127, A>::y * (byte - B), 127);

  0000f	44 6b c1 1a	 imul	 r8d, ecx, 26

; 40   :     return (a % n + n) % n;

  00013	41 f7 e8	 imul	 r8d
  00016	b8 09 04 02 81	 mov	 eax, -2130574327	; ffffffff81020409H
  0001b	41 03 d0	 add	 edx, r8d
  0001e	c1 fa 06	 sar	 edx, 6
  00021	8b ca		 mov	 ecx, edx
  00023	c1 e9 1f	 shr	 ecx, 31
  00026	03 d1		 add	 edx, ecx
  00028	6b ca 7f	 imul	 ecx, edx, 127		; 0000007fH
  0002b	44 2b c1	 sub	 r8d, ecx
  0002e	41 83 c0 7f	 add	 r8d, 127		; 0000007fH
  00032	41 f7 e8	 imul	 r8d
  00035	41 03 d0	 add	 edx, r8d
  00038	c1 fa 06	 sar	 edx, 6
  0003b	8b ca		 mov	 ecx, edx
  0003d	c1 e9 1f	 shr	 ecx, 31
  00040	03 d1		 add	 edx, ecx
  00042	6b ca 7f	 imul	 ecx, edx, 127		; 0000007fH
  00045	44 2b c1	 sub	 r8d, ecx

; 80   :         return positive_modulo(ExtendedEuclidian<127, A>::y * (byte - B), 127);

  00048	41 0f b6 c0	 movzx	 eax, r8b

; 81   :     }

  0004c	c3		 ret	 0
?decrypt@?$MetaBuffer@$0FD@$0FP@U?$integer_sequence@_K$0A@$00$01$02$03$04$05$06$07$08@std@@@@AEBAEE@Z ENDP ; MetaBuffer<83,95,std::integer_sequence<unsigned __int64,0,1,2,3,4,5,6,7,8,9> >::decrypt
_TEXT	ENDS
; Function compile flags: /Ogtpy
; File C:\Users\admin-z10\Desktop\conti_v3\cryptor\obfuscation\MetaString.h
;	COMDAT ?encrypt@?$MetaBuffer@$0FD@$0FP@U?$integer_sequence@_K$0A@$00$01$02$03$04$05$06$07$08@std@@@@AEBAEE@Z
_TEXT	SEGMENT
this$dead$ = 8
byte$ = 16
?encrypt@?$MetaBuffer@$0FD@$0FP@U?$integer_sequence@_K$0A@$00$01$02$03$04$05$06$07$08@std@@@@AEBAEE@Z PROC ; MetaBuffer<83,95,std::integer_sequence<unsigned __int64,0,1,2,3,4,5,6,7,8,9> >::encrypt, COMDAT

; 75   :         return (A * byte + B) % 127;

  00000	0f b6 c2	 movzx	 eax, dl
  00003	44 6b c0 53	 imul	 r8d, eax, 83		; 00000053H
  00007	b8 11 08 04 02	 mov	 eax, 33818641		; 02040811H
  0000c	41 83 c0 5f	 add	 r8d, 95			; 0000005fH
  00010	41 f7 e0	 mul	 r8d
  00013	41 8b c8	 mov	 ecx, r8d
  00016	2b ca		 sub	 ecx, edx
  00018	d1 e9		 shr	 ecx, 1
  0001a	03 ca		 add	 ecx, edx
  0001c	c1 e9 06	 shr	 ecx, 6
  0001f	6b c9 7f	 imul	 ecx, ecx, 127		; 0000007fH
  00022	44 2b c1	 sub	 r8d, ecx
  00025	41 0f b6 c0	 movzx	 eax, r8b

; 76   :     }

  00029	c3		 ret	 0
?encrypt@?$MetaBuffer@$0FD@$0FP@U?$integer_sequence@_K$0A@$00$01$02$03$04$05$06$07$08@std@@@@AEBAEE@Z ENDP ; MetaBuffer<83,95,std::integer_sequence<unsigned __int64,0,1,2,3,4,5,6,7,8,9> >::encrypt
_TEXT	ENDS
; Function compile flags: /Ogtpy
; File C:\Users\admin-z10\Desktop\conti_v3\cryptor\obfuscation\MetaString.h
;	COMDAT ?isDecrypted@?$MetaBuffer@$0FD@$0FP@U?$integer_sequence@_K$0A@$00$01$02$03$04$05$06$07$08@std@@@@QEBA_NXZ
_TEXT	SEGMENT
this$ = 8
?isDecrypted@?$MetaBuffer@$0FD@$0FP@U?$integer_sequence@_K$0A@$00$01$02$03$04$05$06$07$08@std@@@@QEBA_NXZ PROC ; MetaBuffer<83,95,std::integer_sequence<unsigned __int64,0,1,2,3,4,5,6,7,8,9> >::isDecrypted, COMDAT

; 58   :         return m_isDecrypted;

  00000	0f b6 01	 movzx	 eax, BYTE PTR [rcx]

; 59   :     }

  00003	c3		 ret	 0
?isDecrypted@?$MetaBuffer@$0FD@$0FP@U?$integer_sequence@_K$0A@$00$01$02$03$04$05$06$07$08@std@@@@QEBA_NXZ ENDP ; MetaBuffer<83,95,std::integer_sequence<unsigned __int64,0,1,2,3,4,5,6,7,8,9> >::isDecrypted
_TEXT	ENDS
; Function compile flags: /Ogtpy
; File C:\Users\admin-z10\Desktop\conti_v3\cryptor\obfuscation\MetaString.h
;	COMDAT ?decrypt@?$MetaBuffer@$0FJ@$0DK@U?$integer_sequence@_K$0A@$00$01$02$03$04$05$06$07$08$09$0L@$0M@@std@@@@AEBAEE@Z
_TEXT	SEGMENT
this$dead$ = 8
byte$ = 16
?decrypt@?$MetaBuffer@$0FJ@$0DK@U?$integer_sequence@_K$0A@$00$01$02$03$04$05$06$07$08$09$0L@$0M@@std@@@@AEBAEE@Z PROC ; MetaBuffer<89,58,std::integer_sequence<unsigned __int64,0,1,2,3,4,5,6,7,8,9,10,11,12> >::decrypt, COMDAT

; 80   :         return positive_modulo(ExtendedEuclidian<127, A>::y * (byte - B), 127);

  00000	0f b6 c2	 movzx	 eax, dl
  00003	83 e8 3a	 sub	 eax, 58			; 0000003aH
  00006	44 8d 04 80	 lea	 r8d, DWORD PTR [rax+rax*4]

; 40   :     return (a % n + n) % n;

  0000a	b8 09 04 02 81	 mov	 eax, -2130574327	; ffffffff81020409H

; 80   :         return positive_modulo(ExtendedEuclidian<127, A>::y * (byte - B), 127);

  0000f	45 03 c0	 add	 r8d, r8d

; 40   :     return (a % n + n) % n;

  00012	41 f7 e8	 imul	 r8d
  00015	b8 09 04 02 81	 mov	 eax, -2130574327	; ffffffff81020409H
  0001a	41 03 d0	 add	 edx, r8d
  0001d	c1 fa 06	 sar	 edx, 6
  00020	8b ca		 mov	 ecx, edx
  00022	c1 e9 1f	 shr	 ecx, 31
  00025	03 d1		 add	 edx, ecx
  00027	6b ca 7f	 imul	 ecx, edx, 127		; 0000007fH
  0002a	44 2b c1	 sub	 r8d, ecx
  0002d	41 83 c0 7f	 add	 r8d, 127		; 0000007fH
  00031	41 f7 e8	 imul	 r8d
  00034	41 03 d0	 add	 edx, r8d
  00037	c1 fa 06	 sar	 edx, 6
  0003a	8b ca		 mov	 ecx, edx
  0003c	c1 e9 1f	 shr	 ecx, 31
  0003f	03 d1		 add	 edx, ecx
  00041	6b ca 7f	 imul	 ecx, edx, 127		; 0000007fH
  00044	44 2b c1	 sub	 r8d, ecx

; 80   :         return positive_modulo(ExtendedEuclidian<127, A>::y * (byte - B), 127);

  00047	41 0f b6 c0	 movzx	 eax, r8b

; 81   :     }

  0004b	c3		 ret	 0
?decrypt@?$MetaBuffer@$0FJ@$0DK@U?$integer_sequence@_K$0A@$00$01$02$03$04$05$06$07$08$09$0L@$0M@@std@@@@AEBAEE@Z ENDP ; MetaBuffer<89,58,std::integer_sequence<unsigned __int64,0,1,2,3,4,5,6,7,8,9,10,11,12> >::decrypt
_TEXT	ENDS
; Function compile flags: /Ogtpy
; File C:\Users\admin-z10\Desktop\conti_v3\cryptor\obfuscation\MetaString.h
;	COMDAT ?encrypt@?$MetaBuffer@$0FJ@$0DK@U?$integer_sequence@_K$0A@$00$01$02$03$04$05$06$07$08$09$0L@$0M@@std@@@@AEBAEE@Z
_TEXT	SEGMENT
this$dead$ = 8
byte$ = 16
?encrypt@?$MetaBuffer@$0FJ@$0DK@U?$integer_sequence@_K$0A@$00$01$02$03$04$05$06$07$08$09$0L@$0M@@std@@@@AEBAEE@Z PROC ; MetaBuffer<89,58,std::integer_sequence<unsigned __int64,0,1,2,3,4,5,6,7,8,9,10,11,12> >::encrypt, COMDAT

; 75   :         return (A * byte + B) % 127;

  00000	0f b6 c2	 movzx	 eax, dl
  00003	44 6b c0 59	 imul	 r8d, eax, 89		; 00000059H
  00007	b8 11 08 04 02	 mov	 eax, 33818641		; 02040811H
  0000c	41 83 c0 3a	 add	 r8d, 58			; 0000003aH
  00010	41 f7 e0	 mul	 r8d
  00013	41 8b c8	 mov	 ecx, r8d
  00016	2b ca		 sub	 ecx, edx
  00018	d1 e9		 shr	 ecx, 1
  0001a	03 ca		 add	 ecx, edx
  0001c	c1 e9 06	 shr	 ecx, 6
  0001f	6b c9 7f	 imul	 ecx, ecx, 127		; 0000007fH
  00022	44 2b c1	 sub	 r8d, ecx
  00025	41 0f b6 c0	 movzx	 eax, r8b

; 76   :     }

  00029	c3		 ret	 0
?encrypt@?$MetaBuffer@$0FJ@$0DK@U?$integer_sequence@_K$0A@$00$01$02$03$04$05$06$07$08$09$0L@$0M@@std@@@@AEBAEE@Z ENDP ; MetaBuffer<89,58,std::integer_sequence<unsigned __int64,0,1,2,3,4,5,6,7,8,9,10,11,12> >::encrypt
_TEXT	ENDS
; Function compile flags: /Ogtpy
; File C:\Users\admin-z10\Desktop\conti_v3\cryptor\obfuscation\MetaString.h
;	COMDAT ?isDecrypted@?$MetaBuffer@$0FJ@$0DK@U?$integer_sequence@_K$0A@$00$01$02$03$04$05$06$07$08$09$0L@$0M@@std@@@@QEBA_NXZ
_TEXT	SEGMENT
this$ = 8
?isDecrypted@?$MetaBuffer@$0FJ@$0DK@U?$integer_sequence@_K$0A@$00$01$02$03$04$05$06$07$08$09$0L@$0M@@std@@@@QEBA_NXZ PROC ; MetaBuffer<89,58,std::integer_sequence<unsigned __int64,0,1,2,3,4,5,6,7,8,9,10,11,12> >::isDecrypted, COMDAT

; 58   :         return m_isDecrypted;

  00000	0f b6 01	 movzx	 eax, BYTE PTR [rcx]

; 59   :     }

  00003	c3		 ret	 0
?isDecrypted@?$MetaBuffer@$0FJ@$0DK@U?$integer_sequence@_K$0A@$00$01$02$03$04$05$06$07$08$09$0L@$0M@@std@@@@QEBA_NXZ ENDP ; MetaBuffer<89,58,std::integer_sequence<unsigned __int64,0,1,2,3,4,5,6,7,8,9,10,11,12> >::isDecrypted
_TEXT	ENDS
; Function compile flags: /Ogtpy
; File C:\Users\admin-z10\Desktop\conti_v3\cryptor\obfuscation\MetaString.h
;	COMDAT ?decrypt@?$MetaBuffer@$0DL@$0DB@U?$integer_sequence@_K$0A@$00$01$02$03$04$05$06$07$08@std@@@@AEBAEE@Z
_TEXT	SEGMENT
this$dead$ = 8
byte$ = 16
?decrypt@?$MetaBuffer@$0DL@$0DB@U?$integer_sequence@_K$0A@$00$01$02$03$04$05$06$07$08@std@@@@AEBAEE@Z PROC ; MetaBuffer<59,49,std::integer_sequence<unsigned __int64,0,1,2,3,4,5,6,7,8,9> >::decrypt, COMDAT

; 80   :         return positive_modulo(ExtendedEuclidian<127, A>::y * (byte - B), 127);

  00000	0f b6 c2	 movzx	 eax, dl
  00003	83 e8 31	 sub	 eax, 49			; 00000031H
  00006	44 6b c0 1c	 imul	 r8d, eax, 28

; 40   :     return (a % n + n) % n;

  0000a	b8 09 04 02 81	 mov	 eax, -2130574327	; ffffffff81020409H
  0000f	41 f7 e8	 imul	 r8d
  00012	b8 09 04 02 81	 mov	 eax, -2130574327	; ffffffff81020409H
  00017	41 03 d0	 add	 edx, r8d
  0001a	c1 fa 06	 sar	 edx, 6
  0001d	8b ca		 mov	 ecx, edx
  0001f	c1 e9 1f	 shr	 ecx, 31
  00022	03 d1		 add	 edx, ecx
  00024	6b ca 7f	 imul	 ecx, edx, 127		; 0000007fH
  00027	44 2b c1	 sub	 r8d, ecx
  0002a	41 83 c0 7f	 add	 r8d, 127		; 0000007fH
  0002e	41 f7 e8	 imul	 r8d
  00031	41 03 d0	 add	 edx, r8d
  00034	c1 fa 06	 sar	 edx, 6
  00037	8b ca		 mov	 ecx, edx
  00039	c1 e9 1f	 shr	 ecx, 31
  0003c	03 d1		 add	 edx, ecx
  0003e	6b ca 7f	 imul	 ecx, edx, 127		; 0000007fH
  00041	44 2b c1	 sub	 r8d, ecx

; 80   :         return positive_modulo(ExtendedEuclidian<127, A>::y * (byte - B), 127);

  00044	41 0f b6 c0	 movzx	 eax, r8b

; 81   :     }

  00048	c3		 ret	 0
?decrypt@?$MetaBuffer@$0DL@$0DB@U?$integer_sequence@_K$0A@$00$01$02$03$04$05$06$07$08@std@@@@AEBAEE@Z ENDP ; MetaBuffer<59,49,std::integer_sequence<unsigned __int64,0,1,2,3,4,5,6,7,8,9> >::decrypt
_TEXT	ENDS
; Function compile flags: /Ogtpy
; File C:\Users\admin-z10\Desktop\conti_v3\cryptor\obfuscation\MetaString.h
;	COMDAT ?encrypt@?$MetaBuffer@$0DL@$0DB@U?$integer_sequence@_K$0A@$00$01$02$03$04$05$06$07$08@std@@@@AEBAEE@Z
_TEXT	SEGMENT
this$dead$ = 8
byte$ = 16
?encrypt@?$MetaBuffer@$0DL@$0DB@U?$integer_sequence@_K$0A@$00$01$02$03$04$05$06$07$08@std@@@@AEBAEE@Z PROC ; MetaBuffer<59,49,std::integer_sequence<unsigned __int64,0,1,2,3,4,5,6,7,8,9> >::encrypt, COMDAT

; 75   :         return (A * byte + B) % 127;

  00000	0f b6 c2	 movzx	 eax, dl
  00003	44 6b c0 3b	 imul	 r8d, eax, 59		; 0000003bH
  00007	b8 11 08 04 02	 mov	 eax, 33818641		; 02040811H
  0000c	41 83 c0 31	 add	 r8d, 49			; 00000031H
  00010	41 f7 e0	 mul	 r8d
  00013	41 8b c8	 mov	 ecx, r8d
  00016	2b ca		 sub	 ecx, edx
  00018	d1 e9		 shr	 ecx, 1
  0001a	03 ca		 add	 ecx, edx
  0001c	c1 e9 06	 shr	 ecx, 6
  0001f	6b c9 7f	 imul	 ecx, ecx, 127		; 0000007fH
  00022	44 2b c1	 sub	 r8d, ecx
  00025	41 0f b6 c0	 movzx	 eax, r8b

; 76   :     }

  00029	c3		 ret	 0
?encrypt@?$MetaBuffer@$0DL@$0DB@U?$integer_sequence@_K$0A@$00$01$02$03$04$05$06$07$08@std@@@@AEBAEE@Z ENDP ; MetaBuffer<59,49,std::integer_sequence<unsigned __int64,0,1,2,3,4,5,6,7,8,9> >::encrypt
_TEXT	ENDS
; Function compile flags: /Ogtpy
; File C:\Users\admin-z10\Desktop\conti_v3\cryptor\obfuscation\MetaString.h
;	COMDAT ?isDecrypted@?$MetaBuffer@$0DL@$0DB@U?$integer_sequence@_K$0A@$00$01$02$03$04$05$06$07$08@std@@@@QEBA_NXZ
_TEXT	SEGMENT
this$ = 8
?isDecrypted@?$MetaBuffer@$0DL@$0DB@U?$integer_sequence@_K$0A@$00$01$02$03$04$05$06$07$08@std@@@@QEBA_NXZ PROC ; MetaBuffer<59,49,std::integer_sequence<unsigned __int64,0,1,2,3,4,5,6,7,8,9> >::isDecrypted, COMDAT

; 58   :         return m_isDecrypted;

  00000	0f b6 01	 movzx	 eax, BYTE PTR [rcx]

; 59   :     }

  00003	c3		 ret	 0
?isDecrypted@?$MetaBuffer@$0DL@$0DB@U?$integer_sequence@_K$0A@$00$01$02$03$04$05$06$07$08@std@@@@QEBA_NXZ ENDP ; MetaBuffer<59,49,std::integer_sequence<unsigned __int64,0,1,2,3,4,5,6,7,8,9> >::isDecrypted
_TEXT	ENDS
; Function compile flags: /Ogtpy
; File C:\Users\admin-z10\Desktop\conti_v3\cryptor\obfuscation\MetaString.h
;	COMDAT ?decrypt@?$MetaBuffer@$0BD@$0BK@U?$integer_sequence@_K$0A@$00$01$02$03$04$05$06$07$08$09$0L@@std@@@@AEBAEE@Z
_TEXT	SEGMENT
this$dead$ = 8
byte$ = 16
?decrypt@?$MetaBuffer@$0BD@$0BK@U?$integer_sequence@_K$0A@$00$01$02$03$04$05$06$07$08$09$0L@@std@@@@AEBAEE@Z PROC ; MetaBuffer<19,26,std::integer_sequence<unsigned __int64,0,1,2,3,4,5,6,7,8,9,10,11> >::decrypt, COMDAT

; 80   :         return positive_modulo(ExtendedEuclidian<127, A>::y * (byte - B), 127);

  00000	0f b6 c2	 movzx	 eax, dl
  00003	b9 1a 00 00 00	 mov	 ecx, 26
  00008	2b c8		 sub	 ecx, eax

; 40   :     return (a % n + n) % n;

  0000a	b8 09 04 02 81	 mov	 eax, -2130574327	; ffffffff81020409H

; 80   :         return positive_modulo(ExtendedEuclidian<127, A>::y * (byte - B), 127);

  0000f	44 8d 04 89	 lea	 r8d, DWORD PTR [rcx+rcx*4]
  00013	41 c1 e0 02	 shl	 r8d, 2

; 40   :     return (a % n + n) % n;

  00017	41 f7 e8	 imul	 r8d
  0001a	b8 09 04 02 81	 mov	 eax, -2130574327	; ffffffff81020409H
  0001f	41 03 d0	 add	 edx, r8d
  00022	c1 fa 06	 sar	 edx, 6
  00025	8b ca		 mov	 ecx, edx
  00027	c1 e9 1f	 shr	 ecx, 31
  0002a	03 d1		 add	 edx, ecx
  0002c	6b ca 7f	 imul	 ecx, edx, 127		; 0000007fH
  0002f	44 2b c1	 sub	 r8d, ecx
  00032	41 83 c0 7f	 add	 r8d, 127		; 0000007fH
  00036	41 f7 e8	 imul	 r8d
  00039	41 03 d0	 add	 edx, r8d
  0003c	c1 fa 06	 sar	 edx, 6
  0003f	8b ca		 mov	 ecx, edx
  00041	c1 e9 1f	 shr	 ecx, 31
  00044	03 d1		 add	 edx, ecx
  00046	6b ca 7f	 imul	 ecx, edx, 127		; 0000007fH
  00049	44 2b c1	 sub	 r8d, ecx

; 80   :         return positive_modulo(ExtendedEuclidian<127, A>::y * (byte - B), 127);

  0004c	41 0f b6 c0	 movzx	 eax, r8b

; 81   :     }

  00050	c3		 ret	 0
?decrypt@?$MetaBuffer@$0BD@$0BK@U?$integer_sequence@_K$0A@$00$01$02$03$04$05$06$07$08$09$0L@@std@@@@AEBAEE@Z ENDP ; MetaBuffer<19,26,std::integer_sequence<unsigned __int64,0,1,2,3,4,5,6,7,8,9,10,11> >::decrypt
_TEXT	ENDS
; Function compile flags: /Ogtpy
; File C:\Users\admin-z10\Desktop\conti_v3\cryptor\obfuscation\MetaString.h
;	COMDAT ?encrypt@?$MetaBuffer@$0BD@$0BK@U?$integer_sequence@_K$0A@$00$01$02$03$04$05$06$07$08$09$0L@@std@@@@AEBAEE@Z
_TEXT	SEGMENT
this$dead$ = 8
byte$ = 16
?encrypt@?$MetaBuffer@$0BD@$0BK@U?$integer_sequence@_K$0A@$00$01$02$03$04$05$06$07$08$09$0L@@std@@@@AEBAEE@Z PROC ; MetaBuffer<19,26,std::integer_sequence<unsigned __int64,0,1,2,3,4,5,6,7,8,9,10,11> >::encrypt, COMDAT

; 75   :         return (A * byte + B) % 127;

  00000	0f b6 c2	 movzx	 eax, dl
  00003	44 6b c0 13	 imul	 r8d, eax, 19
  00007	b8 11 08 04 02	 mov	 eax, 33818641		; 02040811H
  0000c	41 83 c0 1a	 add	 r8d, 26
  00010	41 f7 e0	 mul	 r8d
  00013	41 8b c8	 mov	 ecx, r8d
  00016	2b ca		 sub	 ecx, edx
  00018	d1 e9		 shr	 ecx, 1
  0001a	03 ca		 add	 ecx, edx
  0001c	c1 e9 06	 shr	 ecx, 6
  0001f	6b c9 7f	 imul	 ecx, ecx, 127		; 0000007fH
  00022	44 2b c1	 sub	 r8d, ecx
  00025	41 0f b6 c0	 movzx	 eax, r8b

; 76   :     }

  00029	c3		 ret	 0
?encrypt@?$MetaBuffer@$0BD@$0BK@U?$integer_sequence@_K$0A@$00$01$02$03$04$05$06$07$08$09$0L@@std@@@@AEBAEE@Z ENDP ; MetaBuffer<19,26,std::integer_sequence<unsigned __int64,0,1,2,3,4,5,6,7,8,9,10,11> >::encrypt
_TEXT	ENDS
; Function compile flags: /Ogtpy
; File C:\Users\admin-z10\Desktop\conti_v3\cryptor\obfuscation\MetaString.h
;	COMDAT ?isDecrypted@?$MetaBuffer@$0BD@$0BK@U?$integer_sequence@_K$0A@$00$01$02$03$04$05$06$07$08$09$0L@@std@@@@QEBA_NXZ
_TEXT	SEGMENT
this$ = 8
?isDecrypted@?$MetaBuffer@$0BD@$0BK@U?$integer_sequence@_K$0A@$00$01$02$03$04$05$06$07$08$09$0L@@std@@@@QEBA_NXZ PROC ; MetaBuffer<19,26,std::integer_sequence<unsigned __int64,0,1,2,3,4,5,6,7,8,9,10,11> >::isDecrypted, COMDAT

; 58   :         return m_isDecrypted;

  00000	0f b6 01	 movzx	 eax, BYTE PTR [rcx]

; 59   :     }

  00003	c3		 ret	 0
?isDecrypted@?$MetaBuffer@$0BD@$0BK@U?$integer_sequence@_K$0A@$00$01$02$03$04$05$06$07$08$09$0L@@std@@@@QEBA_NXZ ENDP ; MetaBuffer<19,26,std::integer_sequence<unsigned __int64,0,1,2,3,4,5,6,7,8,9,10,11> >::isDecrypted
_TEXT	ENDS
; Function compile flags: /Ogtpy
; File C:\Users\admin-z10\Desktop\conti_v3\cryptor\obfuscation\MetaString.h
;	COMDAT ?decrypt@?$MetaBuffer@$0EJ@$0EJ@U?$integer_sequence@_K$0A@$00$01$02$03$04$05$06$07$08$09$0L@@std@@@@AEBAEE@Z
_TEXT	SEGMENT
this$dead$ = 8
byte$ = 16
?decrypt@?$MetaBuffer@$0EJ@$0EJ@U?$integer_sequence@_K$0A@$00$01$02$03$04$05$06$07$08$09$0L@@std@@@@AEBAEE@Z PROC ; MetaBuffer<73,73,std::integer_sequence<unsigned __int64,0,1,2,3,4,5,6,7,8,9,10,11> >::decrypt, COMDAT

; 80   :         return positive_modulo(ExtendedEuclidian<127, A>::y * (byte - B), 127);

  00000	0f b6 c2	 movzx	 eax, dl
  00003	b9 49 00 00 00	 mov	 ecx, 73			; 00000049H
  00008	2b c8		 sub	 ecx, eax

; 40   :     return (a % n + n) % n;

  0000a	b8 09 04 02 81	 mov	 eax, -2130574327	; ffffffff81020409H

; 80   :         return positive_modulo(ExtendedEuclidian<127, A>::y * (byte - B), 127);

  0000f	44 8d 04 89	 lea	 r8d, DWORD PTR [rcx+rcx*4]
  00013	41 c1 e0 03	 shl	 r8d, 3

; 40   :     return (a % n + n) % n;

  00017	41 f7 e8	 imul	 r8d
  0001a	b8 09 04 02 81	 mov	 eax, -2130574327	; ffffffff81020409H
  0001f	41 03 d0	 add	 edx, r8d
  00022	c1 fa 06	 sar	 edx, 6
  00025	8b ca		 mov	 ecx, edx
  00027	c1 e9 1f	 shr	 ecx, 31
  0002a	03 d1		 add	 edx, ecx
  0002c	6b ca 7f	 imul	 ecx, edx, 127		; 0000007fH
  0002f	44 2b c1	 sub	 r8d, ecx
  00032	41 83 c0 7f	 add	 r8d, 127		; 0000007fH
  00036	41 f7 e8	 imul	 r8d
  00039	41 03 d0	 add	 edx, r8d
  0003c	c1 fa 06	 sar	 edx, 6
  0003f	8b ca		 mov	 ecx, edx
  00041	c1 e9 1f	 shr	 ecx, 31
  00044	03 d1		 add	 edx, ecx
  00046	6b ca 7f	 imul	 ecx, edx, 127		; 0000007fH
  00049	44 2b c1	 sub	 r8d, ecx

; 80   :         return positive_modulo(ExtendedEuclidian<127, A>::y * (byte - B), 127);

  0004c	41 0f b6 c0	 movzx	 eax, r8b

; 81   :     }

  00050	c3		 ret	 0
?decrypt@?$MetaBuffer@$0EJ@$0EJ@U?$integer_sequence@_K$0A@$00$01$02$03$04$05$06$07$08$09$0L@@std@@@@AEBAEE@Z ENDP ; MetaBuffer<73,73,std::integer_sequence<unsigned __int64,0,1,2,3,4,5,6,7,8,9,10,11> >::decrypt
_TEXT	ENDS
; Function compile flags: /Ogtpy
; File C:\Users\admin-z10\Desktop\conti_v3\cryptor\obfuscation\MetaString.h
;	COMDAT ?encrypt@?$MetaBuffer@$0EJ@$0EJ@U?$integer_sequence@_K$0A@$00$01$02$03$04$05$06$07$08$09$0L@@std@@@@AEBAEE@Z
_TEXT	SEGMENT
this$dead$ = 8
byte$ = 16
?encrypt@?$MetaBuffer@$0EJ@$0EJ@U?$integer_sequence@_K$0A@$00$01$02$03$04$05$06$07$08$09$0L@@std@@@@AEBAEE@Z PROC ; MetaBuffer<73,73,std::integer_sequence<unsigned __int64,0,1,2,3,4,5,6,7,8,9,10,11> >::encrypt, COMDAT

; 75   :         return (A * byte + B) % 127;

  00000	0f b6 c2	 movzx	 eax, dl
  00003	ff c0		 inc	 eax
  00005	44 6b c0 49	 imul	 r8d, eax, 73		; 00000049H
  00009	b8 11 08 04 02	 mov	 eax, 33818641		; 02040811H
  0000e	41 f7 e0	 mul	 r8d
  00011	41 8b c8	 mov	 ecx, r8d
  00014	2b ca		 sub	 ecx, edx
  00016	d1 e9		 shr	 ecx, 1
  00018	03 ca		 add	 ecx, edx
  0001a	c1 e9 06	 shr	 ecx, 6
  0001d	6b c9 7f	 imul	 ecx, ecx, 127		; 0000007fH
  00020	44 2b c1	 sub	 r8d, ecx
  00023	41 0f b6 c0	 movzx	 eax, r8b

; 76   :     }

  00027	c3		 ret	 0
?encrypt@?$MetaBuffer@$0EJ@$0EJ@U?$integer_sequence@_K$0A@$00$01$02$03$04$05$06$07$08$09$0L@@std@@@@AEBAEE@Z ENDP ; MetaBuffer<73,73,std::integer_sequence<unsigned __int64,0,1,2,3,4,5,6,7,8,9,10,11> >::encrypt
_TEXT	ENDS
; Function compile flags: /Ogtpy
; File C:\Users\admin-z10\Desktop\conti_v3\cryptor\obfuscation\MetaString.h
;	COMDAT ?isDecrypted@?$MetaBuffer@$0EJ@$0EJ@U?$integer_sequence@_K$0A@$00$01$02$03$04$05$06$07$08$09$0L@@std@@@@QEBA_NXZ
_TEXT	SEGMENT
this$ = 8
?isDecrypted@?$MetaBuffer@$0EJ@$0EJ@U?$integer_sequence@_K$0A@$00$01$02$03$04$05$06$07$08$09$0L@@std@@@@QEBA_NXZ PROC ; MetaBuffer<73,73,std::integer_sequence<unsigned __int64,0,1,2,3,4,5,6,7,8,9,10,11> >::isDecrypted, COMDAT

; 58   :         return m_isDecrypted;

  00000	0f b6 01	 movzx	 eax, BYTE PTR [rcx]

; 59   :     }

  00003	c3		 ret	 0
?isDecrypted@?$MetaBuffer@$0EJ@$0EJ@U?$integer_sequence@_K$0A@$00$01$02$03$04$05$06$07$08$09$0L@@std@@@@QEBA_NXZ ENDP ; MetaBuffer<73,73,std::integer_sequence<unsigned __int64,0,1,2,3,4,5,6,7,8,9,10,11> >::isDecrypted
_TEXT	ENDS
; Function compile flags: /Ogtpy
; File C:\Users\admin-z10\Desktop\conti_v3\cryptor\obfuscation\MetaString.h
;	COMDAT ?decrypt@?$MetaBuffer@$02$0BG@U?$integer_sequence@_K$0A@$00$01$02$03$04$05$06$07$08$09@std@@@@AEBAEE@Z
_TEXT	SEGMENT
this$dead$ = 8
byte$ = 16
?decrypt@?$MetaBuffer@$02$0BG@U?$integer_sequence@_K$0A@$00$01$02$03$04$05$06$07$08$09@std@@@@AEBAEE@Z PROC ; MetaBuffer<3,22,std::integer_sequence<unsigned __int64,0,1,2,3,4,5,6,7,8,9,10> >::decrypt, COMDAT

; 80   :         return positive_modulo(ExtendedEuclidian<127, A>::y * (byte - B), 127);

  00000	0f b6 c2	 movzx	 eax, dl
  00003	b9 16 00 00 00	 mov	 ecx, 22
  00008	2b c8		 sub	 ecx, eax

; 40   :     return (a % n + n) % n;

  0000a	b8 09 04 02 81	 mov	 eax, -2130574327	; ffffffff81020409H

; 80   :         return positive_modulo(ExtendedEuclidian<127, A>::y * (byte - B), 127);

  0000f	44 6b c1 2a	 imul	 r8d, ecx, 42		; 0000002aH

; 40   :     return (a % n + n) % n;

  00013	41 f7 e8	 imul	 r8d
  00016	b8 09 04 02 81	 mov	 eax, -2130574327	; ffffffff81020409H
  0001b	41 03 d0	 add	 edx, r8d
  0001e	c1 fa 06	 sar	 edx, 6
  00021	8b ca		 mov	 ecx, edx
  00023	c1 e9 1f	 shr	 ecx, 31
  00026	03 d1		 add	 edx, ecx
  00028	6b ca 7f	 imul	 ecx, edx, 127		; 0000007fH
  0002b	44 2b c1	 sub	 r8d, ecx
  0002e	41 83 c0 7f	 add	 r8d, 127		; 0000007fH
  00032	41 f7 e8	 imul	 r8d
  00035	41 03 d0	 add	 edx, r8d
  00038	c1 fa 06	 sar	 edx, 6
  0003b	8b ca		 mov	 ecx, edx
  0003d	c1 e9 1f	 shr	 ecx, 31
  00040	03 d1		 add	 edx, ecx
  00042	6b ca 7f	 imul	 ecx, edx, 127		; 0000007fH
  00045	44 2b c1	 sub	 r8d, ecx

; 80   :         return positive_modulo(ExtendedEuclidian<127, A>::y * (byte - B), 127);

  00048	41 0f b6 c0	 movzx	 eax, r8b

; 81   :     }

  0004c	c3		 ret	 0
?decrypt@?$MetaBuffer@$02$0BG@U?$integer_sequence@_K$0A@$00$01$02$03$04$05$06$07$08$09@std@@@@AEBAEE@Z ENDP ; MetaBuffer<3,22,std::integer_sequence<unsigned __int64,0,1,2,3,4,5,6,7,8,9,10> >::decrypt
_TEXT	ENDS
; Function compile flags: /Ogtpy
; File C:\Users\admin-z10\Desktop\conti_v3\cryptor\obfuscation\MetaString.h
;	COMDAT ?encrypt@?$MetaBuffer@$02$0BG@U?$integer_sequence@_K$0A@$00$01$02$03$04$05$06$07$08$09@std@@@@AEBAEE@Z
_TEXT	SEGMENT
this$dead$ = 8
byte$ = 16
?encrypt@?$MetaBuffer@$02$0BG@U?$integer_sequence@_K$0A@$00$01$02$03$04$05$06$07$08$09@std@@@@AEBAEE@Z PROC ; MetaBuffer<3,22,std::integer_sequence<unsigned __int64,0,1,2,3,4,5,6,7,8,9,10> >::encrypt, COMDAT

; 75   :         return (A * byte + B) % 127;

  00000	0f b6 c2	 movzx	 eax, dl
  00003	44 8d 40 0b	 lea	 r8d, DWORD PTR [rax+11]
  00007	46 8d 04 40	 lea	 r8d, DWORD PTR [rax+r8*2]
  0000b	b8 11 08 04 02	 mov	 eax, 33818641		; 02040811H
  00010	41 f7 e0	 mul	 r8d
  00013	41 8b c8	 mov	 ecx, r8d
  00016	2b ca		 sub	 ecx, edx
  00018	d1 e9		 shr	 ecx, 1
  0001a	03 ca		 add	 ecx, edx
  0001c	c1 e9 06	 shr	 ecx, 6
  0001f	6b c9 7f	 imul	 ecx, ecx, 127		; 0000007fH
  00022	44 2b c1	 sub	 r8d, ecx
  00025	41 0f b6 c0	 movzx	 eax, r8b

; 76   :     }

  00029	c3		 ret	 0
?encrypt@?$MetaBuffer@$02$0BG@U?$integer_sequence@_K$0A@$00$01$02$03$04$05$06$07$08$09@std@@@@AEBAEE@Z ENDP ; MetaBuffer<3,22,std::integer_sequence<unsigned __int64,0,1,2,3,4,5,6,7,8,9,10> >::encrypt
_TEXT	ENDS
; Function compile flags: /Ogtpy
; File C:\Users\admin-z10\Desktop\conti_v3\cryptor\obfuscation\MetaString.h
;	COMDAT ?isDecrypted@?$MetaBuffer@$02$0BG@U?$integer_sequence@_K$0A@$00$01$02$03$04$05$06$07$08$09@std@@@@QEBA_NXZ
_TEXT	SEGMENT
this$ = 8
?isDecrypted@?$MetaBuffer@$02$0BG@U?$integer_sequence@_K$0A@$00$01$02$03$04$05$06$07$08$09@std@@@@QEBA_NXZ PROC ; MetaBuffer<3,22,std::integer_sequence<unsigned __int64,0,1,2,3,4,5,6,7,8,9,10> >::isDecrypted, COMDAT

; 58   :         return m_isDecrypted;

  00000	0f b6 01	 movzx	 eax, BYTE PTR [rcx]

; 59   :     }

  00003	c3		 ret	 0
?isDecrypted@?$MetaBuffer@$02$0BG@U?$integer_sequence@_K$0A@$00$01$02$03$04$05$06$07$08$09@std@@@@QEBA_NXZ ENDP ; MetaBuffer<3,22,std::integer_sequence<unsigned __int64,0,1,2,3,4,5,6,7,8,9,10> >::isDecrypted
_TEXT	ENDS
; Function compile flags: /Ogtpy
; File C:\Users\admin-z10\Desktop\conti_v3\cryptor\obfuscation\MetaString.h
;	COMDAT ?decrypt@?$MetaBuffer@$0L@$0FD@U?$integer_sequence@_K$0A@$00$01$02$03$04$05$06$07$08$09@std@@@@AEBAEE@Z
_TEXT	SEGMENT
this$dead$ = 8
byte$ = 16
?decrypt@?$MetaBuffer@$0L@$0FD@U?$integer_sequence@_K$0A@$00$01$02$03$04$05$06$07$08$09@std@@@@AEBAEE@Z PROC ; MetaBuffer<11,83,std::integer_sequence<unsigned __int64,0,1,2,3,4,5,6,7,8,9,10> >::decrypt, COMDAT

; 80   :         return positive_modulo(ExtendedEuclidian<127, A>::y * (byte - B), 127);

  00000	0f b6 c2	 movzx	 eax, dl
  00003	b9 53 00 00 00	 mov	 ecx, 83			; 00000053H
  00008	2b c8		 sub	 ecx, eax

; 40   :     return (a % n + n) % n;

  0000a	b8 09 04 02 81	 mov	 eax, -2130574327	; ffffffff81020409H

; 80   :         return positive_modulo(ExtendedEuclidian<127, A>::y * (byte - B), 127);

  0000f	44 6b c1 17	 imul	 r8d, ecx, 23

; 40   :     return (a % n + n) % n;

  00013	41 f7 e8	 imul	 r8d
  00016	b8 09 04 02 81	 mov	 eax, -2130574327	; ffffffff81020409H
  0001b	41 03 d0	 add	 edx, r8d
  0001e	c1 fa 06	 sar	 edx, 6
  00021	8b ca		 mov	 ecx, edx
  00023	c1 e9 1f	 shr	 ecx, 31
  00026	03 d1		 add	 edx, ecx
  00028	6b ca 7f	 imul	 ecx, edx, 127		; 0000007fH
  0002b	44 2b c1	 sub	 r8d, ecx
  0002e	41 83 c0 7f	 add	 r8d, 127		; 0000007fH
  00032	41 f7 e8	 imul	 r8d
  00035	41 03 d0	 add	 edx, r8d
  00038	c1 fa 06	 sar	 edx, 6
  0003b	8b ca		 mov	 ecx, edx
  0003d	c1 e9 1f	 shr	 ecx, 31
  00040	03 d1		 add	 edx, ecx
  00042	6b ca 7f	 imul	 ecx, edx, 127		; 0000007fH
  00045	44 2b c1	 sub	 r8d, ecx

; 80   :         return positive_modulo(ExtendedEuclidian<127, A>::y * (byte - B), 127);

  00048	41 0f b6 c0	 movzx	 eax, r8b

; 81   :     }

  0004c	c3		 ret	 0
?decrypt@?$MetaBuffer@$0L@$0FD@U?$integer_sequence@_K$0A@$00$01$02$03$04$05$06$07$08$09@std@@@@AEBAEE@Z ENDP ; MetaBuffer<11,83,std::integer_sequence<unsigned __int64,0,1,2,3,4,5,6,7,8,9,10> >::decrypt
_TEXT	ENDS
; Function compile flags: /Ogtpy
; File C:\Users\admin-z10\Desktop\conti_v3\cryptor\obfuscation\MetaString.h
;	COMDAT ?encrypt@?$MetaBuffer@$0L@$0FD@U?$integer_sequence@_K$0A@$00$01$02$03$04$05$06$07$08$09@std@@@@AEBAEE@Z
_TEXT	SEGMENT
this$dead$ = 8
byte$ = 16
?encrypt@?$MetaBuffer@$0L@$0FD@U?$integer_sequence@_K$0A@$00$01$02$03$04$05$06$07$08$09@std@@@@AEBAEE@Z PROC ; MetaBuffer<11,83,std::integer_sequence<unsigned __int64,0,1,2,3,4,5,6,7,8,9,10> >::encrypt, COMDAT

; 75   :         return (A * byte + B) % 127;

  00000	0f b6 c2	 movzx	 eax, dl
  00003	44 6b c0 0b	 imul	 r8d, eax, 11
  00007	b8 11 08 04 02	 mov	 eax, 33818641		; 02040811H
  0000c	41 83 c0 53	 add	 r8d, 83			; 00000053H
  00010	41 f7 e0	 mul	 r8d
  00013	41 8b c8	 mov	 ecx, r8d
  00016	2b ca		 sub	 ecx, edx
  00018	d1 e9		 shr	 ecx, 1
  0001a	03 ca		 add	 ecx, edx
  0001c	c1 e9 06	 shr	 ecx, 6
  0001f	6b c9 7f	 imul	 ecx, ecx, 127		; 0000007fH
  00022	44 2b c1	 sub	 r8d, ecx
  00025	41 0f b6 c0	 movzx	 eax, r8b

; 76   :     }

  00029	c3		 ret	 0
?encrypt@?$MetaBuffer@$0L@$0FD@U?$integer_sequence@_K$0A@$00$01$02$03$04$05$06$07$08$09@std@@@@AEBAEE@Z ENDP ; MetaBuffer<11,83,std::integer_sequence<unsigned __int64,0,1,2,3,4,5,6,7,8,9,10> >::encrypt
_TEXT	ENDS
; Function compile flags: /Ogtpy
; File C:\Users\admin-z10\Desktop\conti_v3\cryptor\obfuscation\MetaString.h
;	COMDAT ?isDecrypted@?$MetaBuffer@$0L@$0FD@U?$integer_sequence@_K$0A@$00$01$02$03$04$05$06$07$08$09@std@@@@QEBA_NXZ
_TEXT	SEGMENT
this$ = 8
?isDecrypted@?$MetaBuffer@$0L@$0FD@U?$integer_sequence@_K$0A@$00$01$02$03$04$05$06$07$08$09@std@@@@QEBA_NXZ PROC ; MetaBuffer<11,83,std::integer_sequence<unsigned __int64,0,1,2,3,4,5,6,7,8,9,10> >::isDecrypted, COMDAT

; 58   :         return m_isDecrypted;

  00000	0f b6 01	 movzx	 eax, BYTE PTR [rcx]

; 59   :     }

  00003	c3		 ret	 0
?isDecrypted@?$MetaBuffer@$0L@$0FD@U?$integer_sequence@_K$0A@$00$01$02$03$04$05$06$07$08$09@std@@@@QEBA_NXZ ENDP ; MetaBuffer<11,83,std::integer_sequence<unsigned __int64,0,1,2,3,4,5,6,7,8,9,10> >::isDecrypted
_TEXT	ENDS
; Function compile flags: /Ogtpy
; File C:\Users\admin-z10\Desktop\conti_v3\cryptor\obfuscation\MetaString.h
;	COMDAT ?decrypt@?$MetaBuffer@$0N@$0FI@U?$integer_sequence@_K$0A@$00$01$02$03$04$05$06$07$08$09$0L@$0M@@std@@@@AEBAEE@Z
_TEXT	SEGMENT
this$dead$ = 8
byte$ = 16
?decrypt@?$MetaBuffer@$0N@$0FI@U?$integer_sequence@_K$0A@$00$01$02$03$04$05$06$07$08$09$0L@$0M@@std@@@@AEBAEE@Z PROC ; MetaBuffer<13,88,std::integer_sequence<unsigned __int64,0,1,2,3,4,5,6,7,8,9,10,11,12> >::decrypt, COMDAT

; 80   :         return positive_modulo(ExtendedEuclidian<127, A>::y * (byte - B), 127);

  00000	0f b6 c2	 movzx	 eax, dl
  00003	b9 58 00 00 00	 mov	 ecx, 88			; 00000058H
  00008	2b c8		 sub	 ecx, eax

; 40   :     return (a % n + n) % n;

  0000a	b8 09 04 02 81	 mov	 eax, -2130574327	; ffffffff81020409H

; 80   :         return positive_modulo(ExtendedEuclidian<127, A>::y * (byte - B), 127);

  0000f	44 6b c1 27	 imul	 r8d, ecx, 39		; 00000027H

; 40   :     return (a % n + n) % n;

  00013	41 f7 e8	 imul	 r8d
  00016	b8 09 04 02 81	 mov	 eax, -2130574327	; ffffffff81020409H
  0001b	41 03 d0	 add	 edx, r8d
  0001e	c1 fa 06	 sar	 edx, 6
  00021	8b ca		 mov	 ecx, edx
  00023	c1 e9 1f	 shr	 ecx, 31
  00026	03 d1		 add	 edx, ecx
  00028	6b ca 7f	 imul	 ecx, edx, 127		; 0000007fH
  0002b	44 2b c1	 sub	 r8d, ecx
  0002e	41 83 c0 7f	 add	 r8d, 127		; 0000007fH
  00032	41 f7 e8	 imul	 r8d
  00035	41 03 d0	 add	 edx, r8d
  00038	c1 fa 06	 sar	 edx, 6
  0003b	8b ca		 mov	 ecx, edx
  0003d	c1 e9 1f	 shr	 ecx, 31
  00040	03 d1		 add	 edx, ecx
  00042	6b ca 7f	 imul	 ecx, edx, 127		; 0000007fH
  00045	44 2b c1	 sub	 r8d, ecx

; 80   :         return positive_modulo(ExtendedEuclidian<127, A>::y * (byte - B), 127);

  00048	41 0f b6 c0	 movzx	 eax, r8b

; 81   :     }

  0004c	c3		 ret	 0
?decrypt@?$MetaBuffer@$0N@$0FI@U?$integer_sequence@_K$0A@$00$01$02$03$04$05$06$07$08$09$0L@$0M@@std@@@@AEBAEE@Z ENDP ; MetaBuffer<13,88,std::integer_sequence<unsigned __int64,0,1,2,3,4,5,6,7,8,9,10,11,12> >::decrypt
_TEXT	ENDS
; Function compile flags: /Ogtpy
; File C:\Users\admin-z10\Desktop\conti_v3\cryptor\obfuscation\MetaString.h
;	COMDAT ?encrypt@?$MetaBuffer@$0N@$0FI@U?$integer_sequence@_K$0A@$00$01$02$03$04$05$06$07$08$09$0L@$0M@@std@@@@AEBAEE@Z
_TEXT	SEGMENT
this$dead$ = 8
byte$ = 16
?encrypt@?$MetaBuffer@$0N@$0FI@U?$integer_sequence@_K$0A@$00$01$02$03$04$05$06$07$08$09$0L@$0M@@std@@@@AEBAEE@Z PROC ; MetaBuffer<13,88,std::integer_sequence<unsigned __int64,0,1,2,3,4,5,6,7,8,9,10,11,12> >::encrypt, COMDAT

; 75   :         return (A * byte + B) % 127;

  00000	0f b6 c2	 movzx	 eax, dl
  00003	44 6b c0 0d	 imul	 r8d, eax, 13
  00007	b8 11 08 04 02	 mov	 eax, 33818641		; 02040811H
  0000c	41 83 c0 58	 add	 r8d, 88			; 00000058H
  00010	41 f7 e0	 mul	 r8d
  00013	41 8b c8	 mov	 ecx, r8d
  00016	2b ca		 sub	 ecx, edx
  00018	d1 e9		 shr	 ecx, 1
  0001a	03 ca		 add	 ecx, edx
  0001c	c1 e9 06	 shr	 ecx, 6
  0001f	6b c9 7f	 imul	 ecx, ecx, 127		; 0000007fH
  00022	44 2b c1	 sub	 r8d, ecx
  00025	41 0f b6 c0	 movzx	 eax, r8b

; 76   :     }

  00029	c3		 ret	 0
?encrypt@?$MetaBuffer@$0N@$0FI@U?$integer_sequence@_K$0A@$00$01$02$03$04$05$06$07$08$09$0L@$0M@@std@@@@AEBAEE@Z ENDP ; MetaBuffer<13,88,std::integer_sequence<unsigned __int64,0,1,2,3,4,5,6,7,8,9,10,11,12> >::encrypt
_TEXT	ENDS
; Function compile flags: /Ogtpy
; File C:\Users\admin-z10\Desktop\conti_v3\cryptor\obfuscation\MetaString.h
;	COMDAT ?isDecrypted@?$MetaBuffer@$0N@$0FI@U?$integer_sequence@_K$0A@$00$01$02$03$04$05$06$07$08$09$0L@$0M@@std@@@@QEBA_NXZ
_TEXT	SEGMENT
this$ = 8
?isDecrypted@?$MetaBuffer@$0N@$0FI@U?$integer_sequence@_K$0A@$00$01$02$03$04$05$06$07$08$09$0L@$0M@@std@@@@QEBA_NXZ PROC ; MetaBuffer<13,88,std::integer_sequence<unsigned __int64,0,1,2,3,4,5,6,7,8,9,10,11,12> >::isDecrypted, COMDAT

; 58   :         return m_isDecrypted;

  00000	0f b6 01	 movzx	 eax, BYTE PTR [rcx]

; 59   :     }

  00003	c3		 ret	 0
?isDecrypted@?$MetaBuffer@$0N@$0FI@U?$integer_sequence@_K$0A@$00$01$02$03$04$05$06$07$08$09$0L@$0M@@std@@@@QEBA_NXZ ENDP ; MetaBuffer<13,88,std::integer_sequence<unsigned __int64,0,1,2,3,4,5,6,7,8,9,10,11,12> >::isDecrypted
_TEXT	ENDS
; Function compile flags: /Ogtpy
; File C:\Users\admin-z10\Desktop\conti_v3\cryptor\obfuscation\MetaString.h
;	COMDAT ?decrypt@?$MetaBuffer@$0GN@$0HJ@U?$integer_sequence@_K$0A@$00$01$02$03$04$05$06$07$08$09$0L@$0M@@std@@@@AEBAEE@Z
_TEXT	SEGMENT
this$dead$ = 8
byte$ = 16
?decrypt@?$MetaBuffer@$0GN@$0HJ@U?$integer_sequence@_K$0A@$00$01$02$03$04$05$06$07$08$09$0L@$0M@@std@@@@AEBAEE@Z PROC ; MetaBuffer<109,121,std::integer_sequence<unsigned __int64,0,1,2,3,4,5,6,7,8,9,10,11,12> >::decrypt, COMDAT

; 80   :         return positive_modulo(ExtendedEuclidian<127, A>::y * (byte - B), 127);

  00000	0f b6 c2	 movzx	 eax, dl
  00003	83 e8 79	 sub	 eax, 121		; 00000079H
  00006	44 6b c0 07	 imul	 r8d, eax, 7

; 40   :     return (a % n + n) % n;

  0000a	b8 09 04 02 81	 mov	 eax, -2130574327	; ffffffff81020409H
  0000f	41 f7 e8	 imul	 r8d
  00012	b8 09 04 02 81	 mov	 eax, -2130574327	; ffffffff81020409H
  00017	41 03 d0	 add	 edx, r8d
  0001a	c1 fa 06	 sar	 edx, 6
  0001d	8b ca		 mov	 ecx, edx
  0001f	c1 e9 1f	 shr	 ecx, 31
  00022	03 d1		 add	 edx, ecx
  00024	6b ca 7f	 imul	 ecx, edx, 127		; 0000007fH
  00027	44 2b c1	 sub	 r8d, ecx
  0002a	41 83 c0 7f	 add	 r8d, 127		; 0000007fH
  0002e	41 f7 e8	 imul	 r8d
  00031	41 03 d0	 add	 edx, r8d
  00034	c1 fa 06	 sar	 edx, 6
  00037	8b ca		 mov	 ecx, edx
  00039	c1 e9 1f	 shr	 ecx, 31
  0003c	03 d1		 add	 edx, ecx
  0003e	6b ca 7f	 imul	 ecx, edx, 127		; 0000007fH
  00041	44 2b c1	 sub	 r8d, ecx

; 80   :         return positive_modulo(ExtendedEuclidian<127, A>::y * (byte - B), 127);

  00044	41 0f b6 c0	 movzx	 eax, r8b

; 81   :     }

  00048	c3		 ret	 0
?decrypt@?$MetaBuffer@$0GN@$0HJ@U?$integer_sequence@_K$0A@$00$01$02$03$04$05$06$07$08$09$0L@$0M@@std@@@@AEBAEE@Z ENDP ; MetaBuffer<109,121,std::integer_sequence<unsigned __int64,0,1,2,3,4,5,6,7,8,9,10,11,12> >::decrypt
_TEXT	ENDS
; Function compile flags: /Ogtpy
; File C:\Users\admin-z10\Desktop\conti_v3\cryptor\obfuscation\MetaString.h
;	COMDAT ?encrypt@?$MetaBuffer@$0GN@$0HJ@U?$integer_sequence@_K$0A@$00$01$02$03$04$05$06$07$08$09$0L@$0M@@std@@@@AEBAEE@Z
_TEXT	SEGMENT
this$dead$ = 8
byte$ = 16
?encrypt@?$MetaBuffer@$0GN@$0HJ@U?$integer_sequence@_K$0A@$00$01$02$03$04$05$06$07$08$09$0L@$0M@@std@@@@AEBAEE@Z PROC ; MetaBuffer<109,121,std::integer_sequence<unsigned __int64,0,1,2,3,4,5,6,7,8,9,10,11,12> >::encrypt, COMDAT

; 75   :         return (A * byte + B) % 127;

  00000	0f b6 c2	 movzx	 eax, dl
  00003	44 6b c0 6d	 imul	 r8d, eax, 109		; 0000006dH
  00007	b8 11 08 04 02	 mov	 eax, 33818641		; 02040811H
  0000c	41 83 c0 79	 add	 r8d, 121		; 00000079H
  00010	41 f7 e0	 mul	 r8d
  00013	41 8b c8	 mov	 ecx, r8d
  00016	2b ca		 sub	 ecx, edx
  00018	d1 e9		 shr	 ecx, 1
  0001a	03 ca		 add	 ecx, edx
  0001c	c1 e9 06	 shr	 ecx, 6
  0001f	6b c9 7f	 imul	 ecx, ecx, 127		; 0000007fH
  00022	44 2b c1	 sub	 r8d, ecx
  00025	41 0f b6 c0	 movzx	 eax, r8b

; 76   :     }

  00029	c3		 ret	 0
?encrypt@?$MetaBuffer@$0GN@$0HJ@U?$integer_sequence@_K$0A@$00$01$02$03$04$05$06$07$08$09$0L@$0M@@std@@@@AEBAEE@Z ENDP ; MetaBuffer<109,121,std::integer_sequence<unsigned __int64,0,1,2,3,4,5,6,7,8,9,10,11,12> >::encrypt
_TEXT	ENDS
; Function compile flags: /Ogtpy
; File C:\Users\admin-z10\Desktop\conti_v3\cryptor\obfuscation\MetaString.h
;	COMDAT ?isDecrypted@?$MetaBuffer@$0GN@$0HJ@U?$integer_sequence@_K$0A@$00$01$02$03$04$05$06$07$08$09$0L@$0M@@std@@@@QEBA_NXZ
_TEXT	SEGMENT
this$ = 8
?isDecrypted@?$MetaBuffer@$0GN@$0HJ@U?$integer_sequence@_K$0A@$00$01$02$03$04$05$06$07$08$09$0L@$0M@@std@@@@QEBA_NXZ PROC ; MetaBuffer<109,121,std::integer_sequence<unsigned __int64,0,1,2,3,4,5,6,7,8,9,10,11,12> >::isDecrypted, COMDAT

; 58   :         return m_isDecrypted;

  00000	0f b6 01	 movzx	 eax, BYTE PTR [rcx]

; 59   :     }

  00003	c3		 ret	 0
?isDecrypted@?$MetaBuffer@$0GN@$0HJ@U?$integer_sequence@_K$0A@$00$01$02$03$04$05$06$07$08$09$0L@$0M@@std@@@@QEBA_NXZ ENDP ; MetaBuffer<109,121,std::integer_sequence<unsigned __int64,0,1,2,3,4,5,6,7,8,9,10,11,12> >::isDecrypted
_TEXT	ENDS
; Function compile flags: /Ogtpy
; File C:\Users\admin-z10\Desktop\conti_v3\cryptor\obfuscation\MetaString.h
;	COMDAT ?decrypt@?$MetaBuffer@$0EH@$0O@U?$integer_sequence@_K$0A@$00$01$02$03$04$05$06$07$08$09$0L@$0M@@std@@@@AEBAEE@Z
_TEXT	SEGMENT
this$dead$ = 8
byte$ = 16
?decrypt@?$MetaBuffer@$0EH@$0O@U?$integer_sequence@_K$0A@$00$01$02$03$04$05$06$07$08$09$0L@$0M@@std@@@@AEBAEE@Z PROC ; MetaBuffer<71,14,std::integer_sequence<unsigned __int64,0,1,2,3,4,5,6,7,8,9,10,11,12> >::decrypt, COMDAT

; 80   :         return positive_modulo(ExtendedEuclidian<127, A>::y * (byte - B), 127);

  00000	0f b6 c2	 movzx	 eax, dl
  00003	83 e8 0e	 sub	 eax, 14
  00006	44 6b c0 22	 imul	 r8d, eax, 34		; 00000022H

; 40   :     return (a % n + n) % n;

  0000a	b8 09 04 02 81	 mov	 eax, -2130574327	; ffffffff81020409H
  0000f	41 f7 e8	 imul	 r8d
  00012	b8 09 04 02 81	 mov	 eax, -2130574327	; ffffffff81020409H
  00017	41 03 d0	 add	 edx, r8d
  0001a	c1 fa 06	 sar	 edx, 6
  0001d	8b ca		 mov	 ecx, edx
  0001f	c1 e9 1f	 shr	 ecx, 31
  00022	03 d1		 add	 edx, ecx
  00024	6b ca 7f	 imul	 ecx, edx, 127		; 0000007fH
  00027	44 2b c1	 sub	 r8d, ecx
  0002a	41 83 c0 7f	 add	 r8d, 127		; 0000007fH
  0002e	41 f7 e8	 imul	 r8d
  00031	41 03 d0	 add	 edx, r8d
  00034	c1 fa 06	 sar	 edx, 6
  00037	8b ca		 mov	 ecx, edx
  00039	c1 e9 1f	 shr	 ecx, 31
  0003c	03 d1		 add	 edx, ecx
  0003e	6b ca 7f	 imul	 ecx, edx, 127		; 0000007fH
  00041	44 2b c1	 sub	 r8d, ecx

; 80   :         return positive_modulo(ExtendedEuclidian<127, A>::y * (byte - B), 127);

  00044	41 0f b6 c0	 movzx	 eax, r8b

; 81   :     }

  00048	c3		 ret	 0
?decrypt@?$MetaBuffer@$0EH@$0O@U?$integer_sequence@_K$0A@$00$01$02$03$04$05$06$07$08$09$0L@$0M@@std@@@@AEBAEE@Z ENDP ; MetaBuffer<71,14,std::integer_sequence<unsigned __int64,0,1,2,3,4,5,6,7,8,9,10,11,12> >::decrypt
_TEXT	ENDS
; Function compile flags: /Ogtpy
; File C:\Users\admin-z10\Desktop\conti_v3\cryptor\obfuscation\MetaString.h
;	COMDAT ?encrypt@?$MetaBuffer@$0EH@$0O@U?$integer_sequence@_K$0A@$00$01$02$03$04$05$06$07$08$09$0L@$0M@@std@@@@AEBAEE@Z
_TEXT	SEGMENT
this$dead$ = 8
byte$ = 16
?encrypt@?$MetaBuffer@$0EH@$0O@U?$integer_sequence@_K$0A@$00$01$02$03$04$05$06$07$08$09$0L@$0M@@std@@@@AEBAEE@Z PROC ; MetaBuffer<71,14,std::integer_sequence<unsigned __int64,0,1,2,3,4,5,6,7,8,9,10,11,12> >::encrypt, COMDAT

; 75   :         return (A * byte + B) % 127;

  00000	0f b6 c2	 movzx	 eax, dl
  00003	44 6b c0 47	 imul	 r8d, eax, 71		; 00000047H
  00007	b8 11 08 04 02	 mov	 eax, 33818641		; 02040811H
  0000c	41 83 c0 0e	 add	 r8d, 14
  00010	41 f7 e0	 mul	 r8d
  00013	41 8b c8	 mov	 ecx, r8d
  00016	2b ca		 sub	 ecx, edx
  00018	d1 e9		 shr	 ecx, 1
  0001a	03 ca		 add	 ecx, edx
  0001c	c1 e9 06	 shr	 ecx, 6
  0001f	6b c9 7f	 imul	 ecx, ecx, 127		; 0000007fH
  00022	44 2b c1	 sub	 r8d, ecx
  00025	41 0f b6 c0	 movzx	 eax, r8b

; 76   :     }

  00029	c3		 ret	 0
?encrypt@?$MetaBuffer@$0EH@$0O@U?$integer_sequence@_K$0A@$00$01$02$03$04$05$06$07$08$09$0L@$0M@@std@@@@AEBAEE@Z ENDP ; MetaBuffer<71,14,std::integer_sequence<unsigned __int64,0,1,2,3,4,5,6,7,8,9,10,11,12> >::encrypt
_TEXT	ENDS
; Function compile flags: /Ogtpy
; File C:\Users\admin-z10\Desktop\conti_v3\cryptor\obfuscation\MetaString.h
;	COMDAT ?isDecrypted@?$MetaBuffer@$0EH@$0O@U?$integer_sequence@_K$0A@$00$01$02$03$04$05$06$07$08$09$0L@$0M@@std@@@@QEBA_NXZ
_TEXT	SEGMENT
this$ = 8
?isDecrypted@?$MetaBuffer@$0EH@$0O@U?$integer_sequence@_K$0A@$00$01$02$03$04$05$06$07$08$09$0L@$0M@@std@@@@QEBA_NXZ PROC ; MetaBuffer<71,14,std::integer_sequence<unsigned __int64,0,1,2,3,4,5,6,7,8,9,10,11,12> >::isDecrypted, COMDAT

; 58   :         return m_isDecrypted;

  00000	0f b6 01	 movzx	 eax, BYTE PTR [rcx]

; 59   :     }

  00003	c3		 ret	 0
?isDecrypted@?$MetaBuffer@$0EH@$0O@U?$integer_sequence@_K$0A@$00$01$02$03$04$05$06$07$08$09$0L@$0M@@std@@@@QEBA_NXZ ENDP ; MetaBuffer<71,14,std::integer_sequence<unsigned __int64,0,1,2,3,4,5,6,7,8,9,10,11,12> >::isDecrypted
_TEXT	ENDS
; Function compile flags: /Ogtpy
; File C:\Users\admin-z10\Desktop\conti_v3\cryptor\obfuscation\MetaString.h
;	COMDAT ?decrypt@?$MetaBuffer@$04$0GH@U?$integer_sequence@_K$0A@$00$01$02$03$04$05$06$07$08$09$0L@$0M@@std@@@@AEBAEE@Z
_TEXT	SEGMENT
this$dead$ = 8
byte$ = 16
?decrypt@?$MetaBuffer@$04$0GH@U?$integer_sequence@_K$0A@$00$01$02$03$04$05$06$07$08$09$0L@$0M@@std@@@@AEBAEE@Z PROC ; MetaBuffer<5,103,std::integer_sequence<unsigned __int64,0,1,2,3,4,5,6,7,8,9,10,11,12> >::decrypt, COMDAT

; 80   :         return positive_modulo(ExtendedEuclidian<127, A>::y * (byte - B), 127);

  00000	0f b6 c2	 movzx	 eax, dl
  00003	83 e8 67	 sub	 eax, 103		; 00000067H
  00006	44 6b c0 33	 imul	 r8d, eax, 51		; 00000033H

; 40   :     return (a % n + n) % n;

  0000a	b8 09 04 02 81	 mov	 eax, -2130574327	; ffffffff81020409H
  0000f	41 f7 e8	 imul	 r8d
  00012	b8 09 04 02 81	 mov	 eax, -2130574327	; ffffffff81020409H
  00017	41 03 d0	 add	 edx, r8d
  0001a	c1 fa 06	 sar	 edx, 6
  0001d	8b ca		 mov	 ecx, edx
  0001f	c1 e9 1f	 shr	 ecx, 31
  00022	03 d1		 add	 edx, ecx
  00024	6b ca 7f	 imul	 ecx, edx, 127		; 0000007fH
  00027	44 2b c1	 sub	 r8d, ecx
  0002a	41 83 c0 7f	 add	 r8d, 127		; 0000007fH
  0002e	41 f7 e8	 imul	 r8d
  00031	41 03 d0	 add	 edx, r8d
  00034	c1 fa 06	 sar	 edx, 6
  00037	8b ca		 mov	 ecx, edx
  00039	c1 e9 1f	 shr	 ecx, 31
  0003c	03 d1		 add	 edx, ecx
  0003e	6b ca 7f	 imul	 ecx, edx, 127		; 0000007fH
  00041	44 2b c1	 sub	 r8d, ecx

; 80   :         return positive_modulo(ExtendedEuclidian<127, A>::y * (byte - B), 127);

  00044	41 0f b6 c0	 movzx	 eax, r8b

; 81   :     }

  00048	c3		 ret	 0
?decrypt@?$MetaBuffer@$04$0GH@U?$integer_sequence@_K$0A@$00$01$02$03$04$05$06$07$08$09$0L@$0M@@std@@@@AEBAEE@Z ENDP ; MetaBuffer<5,103,std::integer_sequence<unsigned __int64,0,1,2,3,4,5,6,7,8,9,10,11,12> >::decrypt
_TEXT	ENDS
; Function compile flags: /Ogtpy
; File C:\Users\admin-z10\Desktop\conti_v3\cryptor\obfuscation\MetaString.h
;	COMDAT ?encrypt@?$MetaBuffer@$04$0GH@U?$integer_sequence@_K$0A@$00$01$02$03$04$05$06$07$08$09$0L@$0M@@std@@@@AEBAEE@Z
_TEXT	SEGMENT
this$dead$ = 8
byte$ = 16
?encrypt@?$MetaBuffer@$04$0GH@U?$integer_sequence@_K$0A@$00$01$02$03$04$05$06$07$08$09$0L@$0M@@std@@@@AEBAEE@Z PROC ; MetaBuffer<5,103,std::integer_sequence<unsigned __int64,0,1,2,3,4,5,6,7,8,9,10,11,12> >::encrypt, COMDAT

; 75   :         return (A * byte + B) % 127;

  00000	0f b6 c2	 movzx	 eax, dl
  00003	44 8d 04 85 67
	00 00 00	 lea	 r8d, DWORD PTR [rax*4+103]
  0000b	44 03 c0	 add	 r8d, eax
  0000e	b8 11 08 04 02	 mov	 eax, 33818641		; 02040811H
  00013	41 f7 e0	 mul	 r8d
  00016	41 8b c8	 mov	 ecx, r8d
  00019	2b ca		 sub	 ecx, edx
  0001b	d1 e9		 shr	 ecx, 1
  0001d	03 ca		 add	 ecx, edx
  0001f	c1 e9 06	 shr	 ecx, 6
  00022	6b c9 7f	 imul	 ecx, ecx, 127		; 0000007fH
  00025	44 2b c1	 sub	 r8d, ecx
  00028	41 0f b6 c0	 movzx	 eax, r8b

; 76   :     }

  0002c	c3		 ret	 0
?encrypt@?$MetaBuffer@$04$0GH@U?$integer_sequence@_K$0A@$00$01$02$03$04$05$06$07$08$09$0L@$0M@@std@@@@AEBAEE@Z ENDP ; MetaBuffer<5,103,std::integer_sequence<unsigned __int64,0,1,2,3,4,5,6,7,8,9,10,11,12> >::encrypt
_TEXT	ENDS
; Function compile flags: /Ogtpy
; File C:\Users\admin-z10\Desktop\conti_v3\cryptor\obfuscation\MetaString.h
;	COMDAT ?isDecrypted@?$MetaBuffer@$04$0GH@U?$integer_sequence@_K$0A@$00$01$02$03$04$05$06$07$08$09$0L@$0M@@std@@@@QEBA_NXZ
_TEXT	SEGMENT
this$ = 8
?isDecrypted@?$MetaBuffer@$04$0GH@U?$integer_sequence@_K$0A@$00$01$02$03$04$05$06$07$08$09$0L@$0M@@std@@@@QEBA_NXZ PROC ; MetaBuffer<5,103,std::integer_sequence<unsigned __int64,0,1,2,3,4,5,6,7,8,9,10,11,12> >::isDecrypted, COMDAT

; 58   :         return m_isDecrypted;

  00000	0f b6 01	 movzx	 eax, BYTE PTR [rcx]

; 59   :     }

  00003	c3		 ret	 0
?isDecrypted@?$MetaBuffer@$04$0GH@U?$integer_sequence@_K$0A@$00$01$02$03$04$05$06$07$08$09$0L@$0M@@std@@@@QEBA_NXZ ENDP ; MetaBuffer<5,103,std::integer_sequence<unsigned __int64,0,1,2,3,4,5,6,7,8,9,10,11,12> >::isDecrypted
_TEXT	ENDS
; Function compile flags: /Ogtpy
; File C:\Users\admin-z10\Desktop\conti_v3\cryptor\obfuscation\MetaString.h
;	COMDAT ?decrypt@?$MetaBuffer@$0CL@$0FO@U?$integer_sequence@_K$0A@$00$01$02$03$04$05$06$07$08$09$0L@$0M@@std@@@@AEBAEE@Z
_TEXT	SEGMENT
this$dead$ = 8
byte$ = 16
?decrypt@?$MetaBuffer@$0CL@$0FO@U?$integer_sequence@_K$0A@$00$01$02$03$04$05$06$07$08$09$0L@$0M@@std@@@@AEBAEE@Z PROC ; MetaBuffer<43,94,std::integer_sequence<unsigned __int64,0,1,2,3,4,5,6,7,8,9,10,11,12> >::decrypt, COMDAT

; 80   :         return positive_modulo(ExtendedEuclidian<127, A>::y * (byte - B), 127);

  00000	0f b6 c2	 movzx	 eax, dl
  00003	b9 5e 00 00 00	 mov	 ecx, 94			; 0000005eH
  00008	2b c8		 sub	 ecx, eax

; 40   :     return (a % n + n) % n;

  0000a	b8 09 04 02 81	 mov	 eax, -2130574327	; ffffffff81020409H

; 80   :         return positive_modulo(ExtendedEuclidian<127, A>::y * (byte - B), 127);

  0000f	44 6b c1 3e	 imul	 r8d, ecx, 62		; 0000003eH

; 40   :     return (a % n + n) % n;

  00013	41 f7 e8	 imul	 r8d
  00016	b8 09 04 02 81	 mov	 eax, -2130574327	; ffffffff81020409H
  0001b	41 03 d0	 add	 edx, r8d
  0001e	c1 fa 06	 sar	 edx, 6
  00021	8b ca		 mov	 ecx, edx
  00023	c1 e9 1f	 shr	 ecx, 31
  00026	03 d1		 add	 edx, ecx
  00028	6b ca 7f	 imul	 ecx, edx, 127		; 0000007fH
  0002b	44 2b c1	 sub	 r8d, ecx
  0002e	41 83 c0 7f	 add	 r8d, 127		; 0000007fH
  00032	41 f7 e8	 imul	 r8d
  00035	41 03 d0	 add	 edx, r8d
  00038	c1 fa 06	 sar	 edx, 6
  0003b	8b ca		 mov	 ecx, edx
  0003d	c1 e9 1f	 shr	 ecx, 31
  00040	03 d1		 add	 edx, ecx
  00042	6b ca 7f	 imul	 ecx, edx, 127		; 0000007fH
  00045	44 2b c1	 sub	 r8d, ecx

; 80   :         return positive_modulo(ExtendedEuclidian<127, A>::y * (byte - B), 127);

  00048	41 0f b6 c0	 movzx	 eax, r8b

; 81   :     }

  0004c	c3		 ret	 0
?decrypt@?$MetaBuffer@$0CL@$0FO@U?$integer_sequence@_K$0A@$00$01$02$03$04$05$06$07$08$09$0L@$0M@@std@@@@AEBAEE@Z ENDP ; MetaBuffer<43,94,std::integer_sequence<unsigned __int64,0,1,2,3,4,5,6,7,8,9,10,11,12> >::decrypt
_TEXT	ENDS
; Function compile flags: /Ogtpy
; File C:\Users\admin-z10\Desktop\conti_v3\cryptor\obfuscation\MetaString.h
;	COMDAT ?encrypt@?$MetaBuffer@$0CL@$0FO@U?$integer_sequence@_K$0A@$00$01$02$03$04$05$06$07$08$09$0L@$0M@@std@@@@AEBAEE@Z
_TEXT	SEGMENT
this$dead$ = 8
byte$ = 16
?encrypt@?$MetaBuffer@$0CL@$0FO@U?$integer_sequence@_K$0A@$00$01$02$03$04$05$06$07$08$09$0L@$0M@@std@@@@AEBAEE@Z PROC ; MetaBuffer<43,94,std::integer_sequence<unsigned __int64,0,1,2,3,4,5,6,7,8,9,10,11,12> >::encrypt, COMDAT

; 75   :         return (A * byte + B) % 127;

  00000	0f b6 c2	 movzx	 eax, dl
  00003	44 6b c0 2b	 imul	 r8d, eax, 43		; 0000002bH
  00007	b8 11 08 04 02	 mov	 eax, 33818641		; 02040811H
  0000c	41 83 c0 5e	 add	 r8d, 94			; 0000005eH
  00010	41 f7 e0	 mul	 r8d
  00013	41 8b c8	 mov	 ecx, r8d
  00016	2b ca		 sub	 ecx, edx
  00018	d1 e9		 shr	 ecx, 1
  0001a	03 ca		 add	 ecx, edx
  0001c	c1 e9 06	 shr	 ecx, 6
  0001f	6b c9 7f	 imul	 ecx, ecx, 127		; 0000007fH
  00022	44 2b c1	 sub	 r8d, ecx
  00025	41 0f b6 c0	 movzx	 eax, r8b

; 76   :     }

  00029	c3		 ret	 0
?encrypt@?$MetaBuffer@$0CL@$0FO@U?$integer_sequence@_K$0A@$00$01$02$03$04$05$06$07$08$09$0L@$0M@@std@@@@AEBAEE@Z ENDP ; MetaBuffer<43,94,std::integer_sequence<unsigned __int64,0,1,2,3,4,5,6,7,8,9,10,11,12> >::encrypt
_TEXT	ENDS
; Function compile flags: /Ogtpy
; File C:\Users\admin-z10\Desktop\conti_v3\cryptor\obfuscation\MetaString.h
;	COMDAT ?isDecrypted@?$MetaBuffer@$0CL@$0FO@U?$integer_sequence@_K$0A@$00$01$02$03$04$05$06$07$08$09$0L@$0M@@std@@@@QEBA_NXZ
_TEXT	SEGMENT
this$ = 8
?isDecrypted@?$MetaBuffer@$0CL@$0FO@U?$integer_sequence@_K$0A@$00$01$02$03$04$05$06$07$08$09$0L@$0M@@std@@@@QEBA_NXZ PROC ; MetaBuffer<43,94,std::integer_sequence<unsigned __int64,0,1,2,3,4,5,6,7,8,9,10,11,12> >::isDecrypted, COMDAT

; 58   :         return m_isDecrypted;

  00000	0f b6 01	 movzx	 eax, BYTE PTR [rcx]

; 59   :     }

  00003	c3		 ret	 0
?isDecrypted@?$MetaBuffer@$0CL@$0FO@U?$integer_sequence@_K$0A@$00$01$02$03$04$05$06$07$08$09$0L@$0M@@std@@@@QEBA_NXZ ENDP ; MetaBuffer<43,94,std::integer_sequence<unsigned __int64,0,1,2,3,4,5,6,7,8,9,10,11,12> >::isDecrypted
_TEXT	ENDS
; Function compile flags: /Ogtpy
; File C:\Users\admin-z10\Desktop\conti_v3\cryptor\obfuscation\MetaString.h
;	COMDAT ?decrypt@?$MetaBuffer@$0DL@$0EH@U?$integer_sequence@_K$0A@$00$01$02$03$04$05$06$07$08$09$0L@$0M@$0N@$0O@$0P@$0BA@$0BB@$0BC@$0BD@$0BE@$0BF@$0BG@$0BH@$0BI@$0BJ@@std@@@@AEBAEE@Z
_TEXT	SEGMENT
this$dead$ = 8
byte$ = 16
?decrypt@?$MetaBuffer@$0DL@$0EH@U?$integer_sequence@_K$0A@$00$01$02$03$04$05$06$07$08$09$0L@$0M@$0N@$0O@$0P@$0BA@$0BB@$0BC@$0BD@$0BE@$0BF@$0BG@$0BH@$0BI@$0BJ@@std@@@@AEBAEE@Z PROC ; MetaBuffer<59,71,std::integer_sequence<unsigned __int64,0,1,2,3,4,5,6,7,8,9,10,11,12,13,14,15,16,17,18,19,20,21,22,23,24,25> >::decrypt, COMDAT

; 80   :         return positive_modulo(ExtendedEuclidian<127, A>::y * (byte - B), 127);

  00000	0f b6 c2	 movzx	 eax, dl
  00003	83 e8 47	 sub	 eax, 71			; 00000047H
  00006	44 6b c0 1c	 imul	 r8d, eax, 28

; 40   :     return (a % n + n) % n;

  0000a	b8 09 04 02 81	 mov	 eax, -2130574327	; ffffffff81020409H
  0000f	41 f7 e8	 imul	 r8d
  00012	b8 09 04 02 81	 mov	 eax, -2130574327	; ffffffff81020409H
  00017	41 03 d0	 add	 edx, r8d
  0001a	c1 fa 06	 sar	 edx, 6
  0001d	8b ca		 mov	 ecx, edx
  0001f	c1 e9 1f	 shr	 ecx, 31
  00022	03 d1		 add	 edx, ecx
  00024	6b ca 7f	 imul	 ecx, edx, 127		; 0000007fH
  00027	44 2b c1	 sub	 r8d, ecx
  0002a	41 83 c0 7f	 add	 r8d, 127		; 0000007fH
  0002e	41 f7 e8	 imul	 r8d
  00031	41 03 d0	 add	 edx, r8d
  00034	c1 fa 06	 sar	 edx, 6
  00037	8b ca		 mov	 ecx, edx
  00039	c1 e9 1f	 shr	 ecx, 31
  0003c	03 d1		 add	 edx, ecx
  0003e	6b ca 7f	 imul	 ecx, edx, 127		; 0000007fH
  00041	44 2b c1	 sub	 r8d, ecx

; 80   :         return positive_modulo(ExtendedEuclidian<127, A>::y * (byte - B), 127);

  00044	41 0f b6 c0	 movzx	 eax, r8b

; 81   :     }

  00048	c3		 ret	 0
?decrypt@?$MetaBuffer@$0DL@$0EH@U?$integer_sequence@_K$0A@$00$01$02$03$04$05$06$07$08$09$0L@$0M@$0N@$0O@$0P@$0BA@$0BB@$0BC@$0BD@$0BE@$0BF@$0BG@$0BH@$0BI@$0BJ@@std@@@@AEBAEE@Z ENDP ; MetaBuffer<59,71,std::integer_sequence<unsigned __int64,0,1,2,3,4,5,6,7,8,9,10,11,12,13,14,15,16,17,18,19,20,21,22,23,24,25> >::decrypt
_TEXT	ENDS
; Function compile flags: /Ogtpy
; File C:\Users\admin-z10\Desktop\conti_v3\cryptor\obfuscation\MetaString.h
;	COMDAT ?encrypt@?$MetaBuffer@$0DL@$0EH@U?$integer_sequence@_K$0A@$00$01$02$03$04$05$06$07$08$09$0L@$0M@$0N@$0O@$0P@$0BA@$0BB@$0BC@$0BD@$0BE@$0BF@$0BG@$0BH@$0BI@$0BJ@@std@@@@AEBAEE@Z
_TEXT	SEGMENT
this$dead$ = 8
byte$ = 16
?encrypt@?$MetaBuffer@$0DL@$0EH@U?$integer_sequence@_K$0A@$00$01$02$03$04$05$06$07$08$09$0L@$0M@$0N@$0O@$0P@$0BA@$0BB@$0BC@$0BD@$0BE@$0BF@$0BG@$0BH@$0BI@$0BJ@@std@@@@AEBAEE@Z PROC ; MetaBuffer<59,71,std::integer_sequence<unsigned __int64,0,1,2,3,4,5,6,7,8,9,10,11,12,13,14,15,16,17,18,19,20,21,22,23,24,25> >::encrypt, COMDAT

; 75   :         return (A * byte + B) % 127;

  00000	0f b6 c2	 movzx	 eax, dl
  00003	44 6b c0 3b	 imul	 r8d, eax, 59		; 0000003bH
  00007	b8 11 08 04 02	 mov	 eax, 33818641		; 02040811H
  0000c	41 83 c0 47	 add	 r8d, 71			; 00000047H
  00010	41 f7 e0	 mul	 r8d
  00013	41 8b c8	 mov	 ecx, r8d
  00016	2b ca		 sub	 ecx, edx
  00018	d1 e9		 shr	 ecx, 1
  0001a	03 ca		 add	 ecx, edx
  0001c	c1 e9 06	 shr	 ecx, 6
  0001f	6b c9 7f	 imul	 ecx, ecx, 127		; 0000007fH
  00022	44 2b c1	 sub	 r8d, ecx
  00025	41 0f b6 c0	 movzx	 eax, r8b

; 76   :     }

  00029	c3		 ret	 0
?encrypt@?$MetaBuffer@$0DL@$0EH@U?$integer_sequence@_K$0A@$00$01$02$03$04$05$06$07$08$09$0L@$0M@$0N@$0O@$0P@$0BA@$0BB@$0BC@$0BD@$0BE@$0BF@$0BG@$0BH@$0BI@$0BJ@@std@@@@AEBAEE@Z ENDP ; MetaBuffer<59,71,std::integer_sequence<unsigned __int64,0,1,2,3,4,5,6,7,8,9,10,11,12,13,14,15,16,17,18,19,20,21,22,23,24,25> >::encrypt
_TEXT	ENDS
; Function compile flags: /Ogtpy
; File C:\Users\admin-z10\Desktop\conti_v3\cryptor\obfuscation\MetaString.h
;	COMDAT ?isDecrypted@?$MetaBuffer@$0DL@$0EH@U?$integer_sequence@_K$0A@$00$01$02$03$04$05$06$07$08$09$0L@$0M@$0N@$0O@$0P@$0BA@$0BB@$0BC@$0BD@$0BE@$0BF@$0BG@$0BH@$0BI@$0BJ@@std@@@@QEBA_NXZ
_TEXT	SEGMENT
this$ = 8
?isDecrypted@?$MetaBuffer@$0DL@$0EH@U?$integer_sequence@_K$0A@$00$01$02$03$04$05$06$07$08$09$0L@$0M@$0N@$0O@$0P@$0BA@$0BB@$0BC@$0BD@$0BE@$0BF@$0BG@$0BH@$0BI@$0BJ@@std@@@@QEBA_NXZ PROC ; MetaBuffer<59,71,std::integer_sequence<unsigned __int64,0,1,2,3,4,5,6,7,8,9,10,11,12,13,14,15,16,17,18,19,20,21,22,23,24,25> >::isDecrypted, COMDAT

; 58   :         return m_isDecrypted;

  00000	0f b6 01	 movzx	 eax, BYTE PTR [rcx]

; 59   :     }

  00003	c3		 ret	 0
?isDecrypted@?$MetaBuffer@$0DL@$0EH@U?$integer_sequence@_K$0A@$00$01$02$03$04$05$06$07$08$09$0L@$0M@$0N@$0O@$0P@$0BA@$0BB@$0BC@$0BD@$0BE@$0BF@$0BG@$0BH@$0BI@$0BJ@@std@@@@QEBA_NXZ ENDP ; MetaBuffer<59,71,std::integer_sequence<unsigned __int64,0,1,2,3,4,5,6,7,8,9,10,11,12,13,14,15,16,17,18,19,20,21,22,23,24,25> >::isDecrypted
_TEXT	ENDS
END
