; Listing generated by Microsoft (R) Optimizing Compiler Version 19.39.33522.0 

include listing.inc

INCLUDELIB OLDNAMES

PUBLIC	?g_EncryptMode@@3HA				; g_EncryptMode
PUBLIC	?g_EncryptSize@@3EA				; g_EncryptSize
PUBLIC	?g_DecryptNote@@3PADA				; g_DecryptNote
PUBLIC	?g_Extention@@3PA_WA				; g_Extention
?g_EncryptMode@@3HA DD 0aH				; g_EncryptMode
?g_EncryptSize@@3EA DB 032H				; g_EncryptSize
	ORG $+11
?g_DecryptNote@@3PADA DB '__DECRYPT_NOTE__', 00H	; g_DecryptNote
	ORG $+2031
?g_Extention@@3PA_WA DB '.', 00H, 'E', 00H, 'X', 00H, 'T', 00H, 'E', 00H, 'N'
	DB	00H, 00H, 00H				; g_Extention
?_Fake_alloc@std@@3U_Fake_allocator@1@B	ORG $+1		; std::_Fake_alloc
PUBLIC	?SetEncryptSize@global@@YAHH@Z			; global::SetEncryptSize
PUBLIC	?GetEncryptMode@global@@YAHXZ			; global::GetEncryptMode
PUBLIC	?SetEncryptMode@global@@YAXH@Z			; global::SetEncryptMode
PUBLIC	?GetDecryptNote@global@@YAPEADXZ		; global::GetDecryptNote
PUBLIC	?GetExtention@global@@YAPEA_WXZ			; global::GetExtention
PUBLIC	?GetEncryptSize@global@@YAEXZ			; global::GetEncryptSize
; Function compile flags: /Ogtpy
; File C:\Users\admin-z10\Desktop\conti_v3\cryptor\global\global_parameters.cpp
;	COMDAT ?GetEncryptSize@global@@YAEXZ
_TEXT	SEGMENT
?GetEncryptSize@global@@YAEXZ PROC			; global::GetEncryptSize, COMDAT

; 95   : 	return g_EncryptSize;

  00000	0f b6 05 00 00
	00 00		 movzx	 eax, BYTE PTR ?g_EncryptSize@@3EA ; g_EncryptSize

; 96   : }

  00007	c3		 ret	 0
?GetEncryptSize@global@@YAEXZ ENDP			; global::GetEncryptSize
_TEXT	ENDS
; Function compile flags: /Ogtpy
; File C:\Users\admin-z10\Desktop\conti_v3\cryptor\global\global_parameters.cpp
;	COMDAT ?GetExtention@global@@YAPEA_WXZ
_TEXT	SEGMENT
?GetExtention@global@@YAPEA_WXZ PROC			; global::GetExtention, COMDAT

; 16   : 	return g_Extention;

  00000	48 8d 05 00 00
	00 00		 lea	 rax, OFFSET FLAT:?g_Extention@@3PA_WA ; g_Extention

; 17   : }

  00007	c3		 ret	 0
?GetExtention@global@@YAPEA_WXZ ENDP			; global::GetExtention
_TEXT	ENDS
; Function compile flags: /Ogtpy
; File C:\Users\admin-z10\Desktop\conti_v3\cryptor\global\global_parameters.cpp
;	COMDAT ?GetDecryptNote@global@@YAPEADXZ
_TEXT	SEGMENT
?GetDecryptNote@global@@YAPEADXZ PROC			; global::GetDecryptNote, COMDAT

; 22   : 	return g_DecryptNote;

  00000	48 8d 05 00 00
	00 00		 lea	 rax, OFFSET FLAT:?g_DecryptNote@@3PADA ; g_DecryptNote

; 23   : }

  00007	c3		 ret	 0
?GetDecryptNote@global@@YAPEADXZ ENDP			; global::GetDecryptNote
_TEXT	ENDS
; Function compile flags: /Ogtpy
; File C:\Users\admin-z10\Desktop\conti_v3\cryptor\global\global_parameters.cpp
;	COMDAT ?SetEncryptMode@global@@YAXH@Z
_TEXT	SEGMENT
EncryptMode$ = 8
?SetEncryptMode@global@@YAXH@Z PROC			; global::SetEncryptMode, COMDAT

; 35   : 	g_EncryptMode = EncryptMode;

  00000	89 0d 00 00 00
	00		 mov	 DWORD PTR ?g_EncryptMode@@3HA, ecx ; g_EncryptMode

; 36   : }

  00006	c3		 ret	 0
?SetEncryptMode@global@@YAXH@Z ENDP			; global::SetEncryptMode
_TEXT	ENDS
; Function compile flags: /Ogtpy
; File C:\Users\admin-z10\Desktop\conti_v3\cryptor\global\global_parameters.cpp
;	COMDAT ?GetEncryptMode@global@@YAHXZ
_TEXT	SEGMENT
?GetEncryptMode@global@@YAHXZ PROC			; global::GetEncryptMode, COMDAT

; 41   : 	return g_EncryptMode;

  00000	8b 05 00 00 00
	00		 mov	 eax, DWORD PTR ?g_EncryptMode@@3HA ; g_EncryptMode

; 42   : }

  00006	c3		 ret	 0
?GetEncryptMode@global@@YAHXZ ENDP			; global::GetEncryptMode
_TEXT	ENDS
; Function compile flags: /Ogtpy
; File C:\Users\admin-z10\Desktop\conti_v3\cryptor\global\global_parameters.cpp
;	COMDAT ?SetEncryptSize@global@@YAHH@Z
_TEXT	SEGMENT
Size$dead$ = 8
?SetEncryptSize@global@@YAHH@Z PROC			; global::SetEncryptSize, COMDAT

; 71   : 	if (Size != 10 ||
; 72   : 		Size != 15 ||
; 73   : 		Size != 20 ||
; 74   : 		Size != 25 ||
; 75   : 		Size != 30 ||
; 76   : 		Size != 35 ||
; 77   : 		Size != 40 ||
; 78   : 		Size != 45 ||
; 79   : 		Size != 50 ||
; 80   : 		Size != 60 ||
; 81   : 		Size != 70 ||
; 82   : 		Size != 80)
; 83   : 	{
; 84   : 		g_EncryptSize = 50;

  00000	c6 05 00 00 00
	00 32		 mov	 BYTE PTR ?g_EncryptSize@@3EA, 50 ; g_EncryptSize, 00000032H

; 85   : 		return FALSE;

  00007	33 c0		 xor	 eax, eax

; 86   : 	}
; 87   : 
; 88   : 	g_EncryptSize = (BYTE)Size;
; 89   : 	return TRUE;
; 90   : }

  00009	c3		 ret	 0
?SetEncryptSize@global@@YAHH@Z ENDP			; global::SetEncryptSize
_TEXT	ENDS
END
